###############################################################################
#
# IAR C/C++ Compiler V7.10.6.1378 for Atmel AVR           18/Sep/2024  17:14:36
# Copyright 1996-2018 IAR Systems AB.
#
#    Source file  =  
#        D:\Projects\CurrentProjects\CautoProjects\PSS48Color\src\Alarm.cpp
#    Command line =  
#        -f C:\Users\Admin\AppData\Local\Temp\EW6F87.tmp
#        (--string_literals_in_flash
#        D:\Projects\CurrentProjects\CautoProjects\PSS48Color\src\Alarm.cpp
#        --cpu=m128a -ms -o
#        D:\Projects\CurrentProjects\CautoProjects\PSS48Color\Debug\Obj -lC
#        D:\Projects\CurrentProjects\CautoProjects\PSS48Color\Debug\List -lB
#        D:\Projects\CurrentProjects\CautoProjects\PSS48Color\Debug\List -y
#        --initializers_in_flash --root_variables --no_cse --no_inline
#        --no_code_motion --no_cross_call --no_clustering --no_tbaa --debug
#        -DENABLE_BIT_DEFINITIONS -e -I
#        D:\Projects\CurrentProjects\CautoProjects\PSS48Color\Modbus\ -I
#        D:\Projects\CurrentProjects\CautoProjects\PSS48Color\include\
#        --eeprom_size 4096 --dlib --dlib_config "C:\Program Files (x86)\IAR
#        Systems\Embedded Workbench 8.0\avr\LIB\DLIB\dlAVR-3s-ec_mul-n.h" -On
#        --eec++)
#    Locale       =  Russian_RUS.1251
#    List file    =  
#        D:\Projects\CurrentProjects\CautoProjects\PSS48Color\Debug\List\Alarm.lst
#    Object file  =  
#        D:\Projects\CurrentProjects\CautoProjects\PSS48Color\Debug\Obj\Alarm.r90
#
###############################################################################

D:\Projects\CurrentProjects\CautoProjects\PSS48Color\src\Alarm.cpp
      1          //-----------------------------------------------------------------------------------------------------
      2          //  Source      : FileName.cpp
      3          //  Created     : 01.06.2022
      4          //  Author      : Alexandr Volvenkin
      5          //  email       : aav-36@mail.ru
      6          //  GitHub      : https://github.com/AlexandrVolvenkin
      7          //-----------------------------------------------------------------------------------------------------
      8          #include "Dfa.h"

   \                                 In  segment CODE, align 2, keep-with-next
   \   __version_3 void CDfaLite::SetFsmState(uint8_t)
   \                     ??SetFsmState:
   \   00000000   01F8               MOVW    R31:R30, R17:R16
   \   00000002   8320               ST      Z, R18
   \   00000004   9508               RET

   \                                 In  segment CODE, align 2, keep-with-next
   \   __version_3 uint8_t CDfaLite::GetFsmState()
   \                     ??GetFsmState:
   \   00000000   01F8               MOVW    R31:R30, R17:R16
   \   00000002   8100               LD      R16, Z
   \   00000004   9508               RET
      9          #include "Platform.h"

   \                                 In  segment ABSOLUTE, at 0x9d, root
   \   union <unnamed> volatile __io _A_UCSR1C
   \                     _A_UCSR1C:
   \   00000000                      DS8 1

   \                                 In  segment ABSOLUTE, at 0x9c, root
   \   union <unnamed> volatile __io _A_UDR1
   \                     _A_UDR1:
   \   00000000                      DS8 1

   \                                 In  segment ABSOLUTE, at 0x9b, root
   \   union <unnamed> volatile __io _A_UCSR1A
   \                     _A_UCSR1A:
   \   00000000                      DS8 1

   \                                 In  segment ABSOLUTE, at 0x9a, root
   \   union <unnamed> volatile __io _A_UCSR1B
   \                     _A_UCSR1B:
   \   00000000                      DS8 1

   \                                 In  segment ABSOLUTE, at 0x99, root
   \   union <unnamed> volatile __io _A_UBRR1L
   \                     _A_UBRR1L:
   \   00000000                      DS8 1

   \                                 In  segment ABSOLUTE, at 0x98, root
   \   union <unnamed> volatile __io _A_UBRR1H
   \                     _A_UBRR1H:
   \   00000000                      DS8 1

   \                                 In  segment ABSOLUTE, at 0x95, root
   \   union <unnamed> volatile __io _A_UCSR0C
   \                     _A_UCSR0C:
   \   00000000                      DS8 1

   \                                 In  segment ABSOLUTE, at 0x90, root
   \   union <unnamed> volatile __io _A_UBRR0H
   \                     _A_UBRR0H:
   \   00000000                      DS8 1

   \                                 In  segment ABSOLUTE, at 0x8c, root
   \   union <unnamed> volatile __io _A_TCCR3C
   \                     _A_TCCR3C:
   \   00000000                      DS8 1

   \                                 In  segment ABSOLUTE, at 0x8b, root
   \   union <unnamed> volatile __io _A_TCCR3A
   \                     _A_TCCR3A:
   \   00000000                      DS8 1

   \                                 In  segment ABSOLUTE, at 0x8a, root
   \   union <unnamed> volatile __io _A_TCCR3B
   \                     _A_TCCR3B:
   \   00000000                      DS8 1

   \                                 In  segment ABSOLUTE, at 0x88, root
   \   union <unnamed> volatile __io _A_TCNT3
   \                     _A_TCNT3:
   \   00000000                      DS8 2

   \                                 In  segment ABSOLUTE, at 0x86, root
   \   union <unnamed> volatile __io _A_OCR3A
   \                     _A_OCR3A:
   \   00000000                      DS8 2

   \                                 In  segment ABSOLUTE, at 0x84, root
   \   union <unnamed> volatile __io _A_OCR3B
   \                     _A_OCR3B:
   \   00000000                      DS8 2

   \                                 In  segment ABSOLUTE, at 0x82, root
   \   union <unnamed> volatile __io _A_OCR3C
   \                     _A_OCR3C:
   \   00000000                      DS8 2

   \                                 In  segment ABSOLUTE, at 0x80, root
   \   union <unnamed> volatile __io _A_ICR3
   \                     _A_ICR3:
   \   00000000                      DS8 2

   \                                 In  segment ABSOLUTE, at 0x7d, root
   \   union <unnamed> volatile __io _A_ETIMSK
   \                     _A_ETIMSK:
   \   00000000                      DS8 1

   \                                 In  segment ABSOLUTE, at 0x7c, root
   \   union <unnamed> volatile __io _A_ETIFR
   \                     _A_ETIFR:
   \   00000000                      DS8 1

   \                                 In  segment ABSOLUTE, at 0x7a, root
   \   union <unnamed> volatile __io _A_TCCR1C
   \                     _A_TCCR1C:
   \   00000000                      DS8 1

   \                                 In  segment ABSOLUTE, at 0x78, root
   \   union <unnamed> volatile __io _A_OCR1C
   \                     _A_OCR1C:
   \   00000000                      DS8 2

   \                                 In  segment ABSOLUTE, at 0x74, root
   \   union <unnamed> volatile __io _A_TWCR
   \                     _A_TWCR:
   \   00000000                      DS8 1

   \                                 In  segment ABSOLUTE, at 0x73, root
   \   union <unnamed> volatile __io _A_TWDR
   \                     _A_TWDR:
   \   00000000                      DS8 1

   \                                 In  segment ABSOLUTE, at 0x72, root
   \   union <unnamed> volatile __io _A_TWAR
   \                     _A_TWAR:
   \   00000000                      DS8 1

   \                                 In  segment ABSOLUTE, at 0x71, root
   \   union <unnamed> volatile __io _A_TWSR
   \                     _A_TWSR:
   \   00000000                      DS8 1

   \                                 In  segment ABSOLUTE, at 0x70, root
   \   union <unnamed> volatile __io _A_TWBR
   \                     _A_TWBR:
   \   00000000                      DS8 1

   \                                 In  segment ABSOLUTE, at 0x6f, root
   \   union <unnamed> volatile __io _A_OSCCAL
   \                     _A_OSCCAL:
   \   00000000                      DS8 1

   \                                 In  segment ABSOLUTE, at 0x6d, root
   \   union <unnamed> volatile __io _A_XMCRA
   \                     _A_XMCRA:
   \   00000000                      DS8 1

   \                                 In  segment ABSOLUTE, at 0x6c, root
   \   union <unnamed> volatile __io _A_XMCRB
   \                     _A_XMCRB:
   \   00000000                      DS8 1

   \                                 In  segment ABSOLUTE, at 0x6a, root
   \   union <unnamed> volatile __io _A_EICRA
   \                     _A_EICRA:
   \   00000000                      DS8 1

   \                                 In  segment ABSOLUTE, at 0x68, root
   \   union <unnamed> volatile __io _A_SPMCSR
   \                     _A_SPMCSR:
   \   00000000                      DS8 1

   \                                 In  segment ABSOLUTE, at 0x65, root
   \   union <unnamed> volatile __io _A_PORTG
   \                     _A_PORTG:
   \   00000000                      DS8 1

   \                                 In  segment ABSOLUTE, at 0x64, root
   \   union <unnamed> volatile __io _A_DDRG
   \                     _A_DDRG:
   \   00000000                      DS8 1

   \                                 In  segment ABSOLUTE, at 0x63, root
   \   union <unnamed> volatile __io _A_PING
   \                     _A_PING:
   \   00000000                      DS8 1

   \                                 In  segment ABSOLUTE, at 0x62, root
   \   union <unnamed> volatile __io _A_PORTF
   \                     _A_PORTF:
   \   00000000                      DS8 1

   \                                 In  segment ABSOLUTE, at 0x61, root
   \   union <unnamed> volatile __io _A_DDRF
   \                     _A_DDRF:
   \   00000000                      DS8 1

   \                                 In  segment ABSOLUTE, at 0x5f, root
   \   union <unnamed> volatile __io _A_SREG
   \                     _A_SREG:
   \   00000000                      DS8 1

   \                                 In  segment ABSOLUTE, at 0x5d, root
   \   union <unnamed> volatile __io _A_SP
   \                     _A_SP:
   \   00000000                      DS8 2

   \                                 In  segment ABSOLUTE, at 0x5c, root
   \   union <unnamed> volatile __io _A_XDIV
   \                     _A_XDIV:
   \   00000000                      DS8 1

   \                                 In  segment ABSOLUTE, at 0x5b, root
   \   union <unnamed> volatile __io _A_RAMPZ
   \                     _A_RAMPZ:
   \   00000000                      DS8 1

   \                                 In  segment ABSOLUTE, at 0x5a, root
   \   union <unnamed> volatile __io _A_EICRB
   \                     _A_EICRB:
   \   00000000                      DS8 1

   \                                 In  segment ABSOLUTE, at 0x59, root
   \   union <unnamed> volatile __io _A_EIMSK
   \                     _A_EIMSK:
   \   00000000                      DS8 1

   \                                 In  segment ABSOLUTE, at 0x58, root
   \   union <unnamed> volatile __io _A_EIFR
   \                     _A_EIFR:
   \   00000000                      DS8 1

   \                                 In  segment ABSOLUTE, at 0x57, root
   \   union <unnamed> volatile __io _A_TIMSK
   \                     _A_TIMSK:
   \   00000000                      DS8 1

   \                                 In  segment ABSOLUTE, at 0x56, root
   \   union <unnamed> volatile __io _A_TIFR
   \                     _A_TIFR:
   \   00000000                      DS8 1

   \                                 In  segment ABSOLUTE, at 0x55, root
   \   union <unnamed> volatile __io _A_MCUCR
   \                     _A_MCUCR:
   \   00000000                      DS8 1

   \                                 In  segment ABSOLUTE, at 0x54, root
   \   union <unnamed> volatile __io _A_MCUCSR
   \                     _A_MCUCSR:
   \   00000000                      DS8 1

   \                                 In  segment ABSOLUTE, at 0x53, root
   \   union <unnamed> volatile __io _A_TCCR0
   \                     _A_TCCR0:
   \   00000000                      DS8 1

   \                                 In  segment ABSOLUTE, at 0x52, root
   \   union <unnamed> volatile __io _A_TCNT0
   \                     _A_TCNT0:
   \   00000000                      DS8 1

   \                                 In  segment ABSOLUTE, at 0x51, root
   \   union <unnamed> volatile __io _A_OCR0
   \                     _A_OCR0:
   \   00000000                      DS8 1

   \                                 In  segment ABSOLUTE, at 0x50, root
   \   union <unnamed> volatile __io _A_ASSR
   \                     _A_ASSR:
   \   00000000                      DS8 1

   \                                 In  segment ABSOLUTE, at 0x4f, root
   \   union <unnamed> volatile __io _A_TCCR1A
   \                     _A_TCCR1A:
   \   00000000                      DS8 1

   \                                 In  segment ABSOLUTE, at 0x4e, root
   \   union <unnamed> volatile __io _A_TCCR1B
   \                     _A_TCCR1B:
   \   00000000                      DS8 1

   \                                 In  segment ABSOLUTE, at 0x4c, root
   \   union <unnamed> volatile __io _A_TCNT1
   \                     _A_TCNT1:
   \   00000000                      DS8 2

   \                                 In  segment ABSOLUTE, at 0x4a, root
   \   union <unnamed> volatile __io _A_OCR1A
   \                     _A_OCR1A:
   \   00000000                      DS8 2

   \                                 In  segment ABSOLUTE, at 0x48, root
   \   union <unnamed> volatile __io _A_OCR1B
   \                     _A_OCR1B:
   \   00000000                      DS8 2

   \                                 In  segment ABSOLUTE, at 0x46, root
   \   union <unnamed> volatile __io _A_ICR1
   \                     _A_ICR1:
   \   00000000                      DS8 2

   \                                 In  segment ABSOLUTE, at 0x45, root
   \   union <unnamed> volatile __io _A_TCCR2
   \                     _A_TCCR2:
   \   00000000                      DS8 1

   \                                 In  segment ABSOLUTE, at 0x44, root
   \   union <unnamed> volatile __io _A_TCNT2
   \                     _A_TCNT2:
   \   00000000                      DS8 1

   \                                 In  segment ABSOLUTE, at 0x43, root
   \   union <unnamed> volatile __io _A_OCR2
   \                     _A_OCR2:
   \   00000000                      DS8 1

   \                                 In  segment ABSOLUTE, at 0x42, root
   \   union <unnamed> volatile __io _A_OCDR
   \                     _A_OCDR:
   \   00000000                      DS8 1

   \                                 In  segment ABSOLUTE, at 0x41, root
   \   union <unnamed> volatile __io _A_WDTCR
   \                     _A_WDTCR:
   \   00000000                      DS8 1

   \                                 In  segment ABSOLUTE, at 0x40, root
   \   union <unnamed> volatile __io _A_SFIOR
   \                     _A_SFIOR:
   \   00000000                      DS8 1

   \                                 In  segment ABSOLUTE, at 0x3e, root
   \   union <unnamed> volatile __io _A_EEAR
   \                     _A_EEAR:
   \   00000000                      DS8 2

   \                                 In  segment ABSOLUTE, at 0x3d, root
   \   union <unnamed> volatile __io _A_EEDR
   \                     _A_EEDR:
   \   00000000                      DS8 1

   \                                 In  segment ABSOLUTE, at 0x3c, root
   \   union <unnamed> volatile __io _A_EECR
   \                     _A_EECR:
   \   00000000                      DS8 1

   \                                 In  segment ABSOLUTE, at 0x3b, root
   \   union <unnamed> volatile __io _A_PORTA
   \                     _A_PORTA:
   \   00000000                      DS8 1

   \                                 In  segment ABSOLUTE, at 0x3a, root
   \   union <unnamed> volatile __io _A_DDRA
   \                     _A_DDRA:
   \   00000000                      DS8 1

   \                                 In  segment ABSOLUTE, at 0x39, root
   \   union <unnamed> volatile __io _A_PINA
   \                     _A_PINA:
   \   00000000                      DS8 1

   \                                 In  segment ABSOLUTE, at 0x38, root
   \   union <unnamed> volatile __io _A_PORTB
   \                     _A_PORTB:
   \   00000000                      DS8 1

   \                                 In  segment ABSOLUTE, at 0x37, root
   \   union <unnamed> volatile __io _A_DDRB
   \                     _A_DDRB:
   \   00000000                      DS8 1

   \                                 In  segment ABSOLUTE, at 0x36, root
   \   union <unnamed> volatile __io _A_PINB
   \                     _A_PINB:
   \   00000000                      DS8 1

   \                                 In  segment ABSOLUTE, at 0x35, root
   \   union <unnamed> volatile __io _A_PORTC
   \                     _A_PORTC:
   \   00000000                      DS8 1

   \                                 In  segment ABSOLUTE, at 0x34, root
   \   union <unnamed> volatile __io _A_DDRC
   \                     _A_DDRC:
   \   00000000                      DS8 1

   \                                 In  segment ABSOLUTE, at 0x33, root
   \   union <unnamed> volatile __io _A_PINC
   \                     _A_PINC:
   \   00000000                      DS8 1

   \                                 In  segment ABSOLUTE, at 0x32, root
   \   union <unnamed> volatile __io _A_PORTD
   \                     _A_PORTD:
   \   00000000                      DS8 1

   \                                 In  segment ABSOLUTE, at 0x31, root
   \   union <unnamed> volatile __io _A_DDRD
   \                     _A_DDRD:
   \   00000000                      DS8 1

   \                                 In  segment ABSOLUTE, at 0x30, root
   \   union <unnamed> volatile __io _A_PIND
   \                     _A_PIND:
   \   00000000                      DS8 1

   \                                 In  segment ABSOLUTE, at 0x2f, root
   \   union <unnamed> volatile __io _A_SPDR
   \                     _A_SPDR:
   \   00000000                      DS8 1

   \                                 In  segment ABSOLUTE, at 0x2e, root
   \   union <unnamed> volatile __io _A_SPSR
   \                     _A_SPSR:
   \   00000000                      DS8 1

   \                                 In  segment ABSOLUTE, at 0x2d, root
   \   union <unnamed> volatile __io _A_SPCR
   \                     _A_SPCR:
   \   00000000                      DS8 1

   \                                 In  segment ABSOLUTE, at 0x2c, root
   \   union <unnamed> volatile __io _A_UDR0
   \                     _A_UDR0:
   \   00000000                      DS8 1

   \                                 In  segment ABSOLUTE, at 0x2b, root
   \   union <unnamed> volatile __io _A_UCSR0A
   \                     _A_UCSR0A:
   \   00000000                      DS8 1

   \                                 In  segment ABSOLUTE, at 0x2a, root
   \   union <unnamed> volatile __io _A_UCSR0B
   \                     _A_UCSR0B:
   \   00000000                      DS8 1

   \                                 In  segment ABSOLUTE, at 0x29, root
   \   union <unnamed> volatile __io _A_UBRR0L
   \                     _A_UBRR0L:
   \   00000000                      DS8 1

   \                                 In  segment ABSOLUTE, at 0x28, root
   \   union <unnamed> volatile __io _A_ACSR
   \                     _A_ACSR:
   \   00000000                      DS8 1

   \                                 In  segment ABSOLUTE, at 0x27, root
   \   union <unnamed> volatile __io _A_ADMUX
   \                     _A_ADMUX:
   \   00000000                      DS8 1

   \                                 In  segment ABSOLUTE, at 0x26, root
   \   union <unnamed> volatile __io _A_ADCSRA
   \                     _A_ADCSRA:
   \   00000000                      DS8 1

   \                                 In  segment ABSOLUTE, at 0x24, root
   \   union <unnamed> volatile __io _A_ADC
   \                     _A_ADC:
   \   00000000                      DS8 2

   \                                 In  segment ABSOLUTE, at 0x23, root
   \   union <unnamed> volatile __io _A_PORTE
   \                     _A_PORTE:
   \   00000000                      DS8 1

   \                                 In  segment ABSOLUTE, at 0x22, root
   \   union <unnamed> volatile __io _A_DDRE
   \                     _A_DDRE:
   \   00000000                      DS8 1

   \                                 In  segment ABSOLUTE, at 0x21, root
   \   union <unnamed> volatile __io _A_PINE
   \                     _A_PINE:
   \   00000000                      DS8 1

   \                                 In  segment ABSOLUTE, at 0x20, root
   \   union <unnamed> volatile __io _A_PINF
   \                     _A_PINF:
   \   00000000                      DS8 1

      static __flash TDataBase CFlash::xMainDataBase;
                               ^
"D:\Projects\CurrentProjects\CautoProjects\PSS48Color\include\Platform.h",368  Warning[Pe427]: 
          qualified name is not allowed in member declaration

      static __flash TDataBaseBlockPositionData CFlash::axDataBaseBlocksPositionData[];
                                                ^
"D:\Projects\CurrentProjects\CautoProjects\PSS48Color\include\Platform.h",369  Warning[Pe427]: 
          qualified name is not allowed in member declaration
     10          #include "Pss21.h"

   \                                 In  segment CODE, align 2, keep-with-next
   \   __version_3 void CAlarmWindow::SetActivityState(uint8_t)
   \                     ??SetActivityState:
   \   00000000   01F8               MOVW    R31:R30, R17:R16
   \   00000002   8320               ST      Z, R18
   \   00000004   9508               RET

   \                                 In  segment CODE, align 2, keep-with-next
   \   __version_3 uint8_t CAlarmDfa::ALARM_TYPE()
   \                     ??ALARM_TYPE:
   \   00000000   0198               MOVW    R19:R18, R17:R16
   \   00000002   E000               LDI     R16, 0
   \   00000004   9508               RET

   \                                 In  segment CODE, align 2, keep-with-next
   \   __version_3 uint8_t CAlarmDfa::ACTIVE_LEVEL()
   \                     ??ACTIVE_LEVEL:
   \   00000000   0198               MOVW    R19:R18, R17:R16
   \   00000002   E000               LDI     R16, 0
   \   00000004   9508               RET

   \                                 In  segment CODE, align 2, keep-with-next
   \   __version_3 uint8_t CAlarmDfa::IS_NAMUR_ON()
   \                     ??IS_NAMUR_ON:
   \   00000000   0198               MOVW    R19:R18, R17:R16
   \   00000002   E000               LDI     R16, 0
   \   00000004   9508               RET

   \                                 In  segment CODE, align 2, keep-with-next
   \   __version_3 uint8_t CAlarmDfa::GetDiscreteStateIndex()
   \                     ??GetDiscreteStateIndex:
   \   00000000   01F8               MOVW    R31:R30, R17:R16
   \   00000002   8105               LDD     R16, Z+5
   \   00000004   9508               RET

   \                                 In  segment CODE, align 2, keep-with-next
   \   __version_3 uint8_t CAlarmDfa::GetAlarmWindowIndex()
   \                     ??GetAlarmWindowIndex:
   \   00000000   01F8               MOVW    R31:R30, R17:R16
   \   00000002   8103               LDD     R16, Z+3
   \   00000004   9508               RET

   \                                 In  segment CODE, align 2, keep-with-next
   \   __version_3 uint8_t *CAlarmDfa::GetLinkedDiscreteOutputsPointer()
   \                     ??GetLinkedDiscreteOutputsPointer:
   \   00000000   5F0C               SUBI    R16, 252
   \   00000002   4F1F               SBCI    R17, 255
   \   00000004   9508               RET

   \                                 In  segment CODE, align 2, keep-with-next
   \   __version_3 uint8_t CNormalAlarmDfa::ALARM_TYPE()
   \                     ??ALARM_TYPE_1:
   \   00000000   0198               MOVW    R19:R18, R17:R16
   \   00000002   E000               LDI     R16, 0
   \   00000004   9508               RET

   \                                 In  segment CODE, align 2, keep-with-next
   \   __version_3 uint8_t CNormalAlarmDfa::ACTIVE_LEVEL()
   \                     ??ACTIVE_LEVEL_1:
   \   00000000   0198               MOVW    R19:R18, R17:R16
   \   00000002   E000               LDI     R16, 0
   \   00000004   9508               RET

   \                                 In  segment CODE, align 2, keep-with-next
   \   __version_3 uint8_t CNormalAlarmDfa::IS_NAMUR_ON()
   \                     ??IS_NAMUR_ON_1:
   \   00000000   0198               MOVW    R19:R18, R17:R16
   \   00000002   E000               LDI     R16, 0
   \   00000004   9508               RET

   \                                 In  segment CODE, align 2, keep-with-next
   \   __version_3 uint8_t CPreventiveAlarmLowLevelDfa::ALARM_TYPE()
   \                     ??ALARM_TYPE_2:
   \   00000000   0198               MOVW    R19:R18, R17:R16
   \   00000002   E002               LDI     R16, 2
   \   00000004   9508               RET

   \                                 In  segment CODE, align 2, keep-with-next
   \   __version_3 uint8_t CPreventiveAlarmLowLevelDfa::ACTIVE_LEVEL()
   \                     ??ACTIVE_LEVEL_2:
   \   00000000   0198               MOVW    R19:R18, R17:R16
   \   00000002   E000               LDI     R16, 0
   \   00000004   9508               RET

   \                                 In  segment CODE, align 2, keep-with-next
   \   __version_3 uint8_t CPreventiveAlarmLowLevelDfa::IS_NAMUR_ON()
   \                     ??IS_NAMUR_ON_2:
   \   00000000   0198               MOVW    R19:R18, R17:R16
   \   00000002   E000               LDI     R16, 0
   \   00000004   9508               RET

   \                                 In  segment CODE, align 2, keep-with-next
   \   __version_3 uint8_t CPreventiveAlarmHighLevelDfa::ALARM_TYPE()
   \                     ??ALARM_TYPE_3:
   \   00000000   0198               MOVW    R19:R18, R17:R16
   \   00000002   E002               LDI     R16, 2
   \   00000004   9508               RET

   \                                 In  segment CODE, align 2, keep-with-next
   \   __version_3 uint8_t CPreventiveAlarmHighLevelDfa::ACTIVE_LEVEL()
   \                     ??ACTIVE_LEVEL_3:
   \   00000000   0198               MOVW    R19:R18, R17:R16
   \   00000002   E001               LDI     R16, 1
   \   00000004   9508               RET

   \                                 In  segment CODE, align 2, keep-with-next
   \   __version_3 uint8_t CPreventiveAlarmHighLevelDfa::IS_NAMUR_ON()
   \                     ??IS_NAMUR_ON_3:
   \   00000000   0198               MOVW    R19:R18, R17:R16
   \   00000002   E000               LDI     R16, 0
   \   00000004   9508               RET

   \                                 In  segment CODE, align 2, keep-with-next
   \   __version_3 uint8_t CPreventiveAlarmLowLevelNamurDfa::ALARM_TYPE()
   \                     ??ALARM_TYPE_4:
   \   00000000   0198               MOVW    R19:R18, R17:R16
   \   00000002   E002               LDI     R16, 2
   \   00000004   9508               RET

   \                                 In  segment CODE, align 2, keep-with-next
   \   __version_3 uint8_t CPreventiveAlarmLowLevelNamurDfa::ACTIVE_LEVEL()
   \                     ??ACTIVE_LEVEL_4:
   \   00000000   0198               MOVW    R19:R18, R17:R16
   \   00000002   E000               LDI     R16, 0
   \   00000004   9508               RET

   \                                 In  segment CODE, align 2, keep-with-next
   \   __version_3 uint8_t CPreventiveAlarmLowLevelNamurDfa::IS_NAMUR_ON()
   \                     ??IS_NAMUR_ON_4:
   \   00000000   0198               MOVW    R19:R18, R17:R16
   \   00000002   E001               LDI     R16, 1
   \   00000004   9508               RET

   \                                 In  segment CODE, align 2, keep-with-next
   \   __version_3 uint8_t CPreventiveAlarmHighLevelNamurDfa::ALARM_TYPE()
   \                     ??ALARM_TYPE_5:
   \   00000000   0198               MOVW    R19:R18, R17:R16
   \   00000002   E002               LDI     R16, 2
   \   00000004   9508               RET

   \                                 In  segment CODE, align 2, keep-with-next
   \   __version_3 uint8_t CPreventiveAlarmHighLevelNamurDfa::ACTIVE_LEVEL()
   \                     ??ACTIVE_LEVEL_5:
   \   00000000   0198               MOVW    R19:R18, R17:R16
   \   00000002   E001               LDI     R16, 1
   \   00000004   9508               RET

   \                                 In  segment CODE, align 2, keep-with-next
   \   __version_3 uint8_t CPreventiveAlarmHighLevelNamurDfa::IS_NAMUR_ON()
   \                     ??IS_NAMUR_ON_5:
   \   00000000   0198               MOVW    R19:R18, R17:R16
   \   00000002   E001               LDI     R16, 1
   \   00000004   9508               RET

   \                                 In  segment CODE, align 2, keep-with-next
   \   __version_3 uint8_t CEmergencyAlarmLowLevelDfa::ALARM_TYPE()
   \                     ??ALARM_TYPE_6:
   \   00000000   0198               MOVW    R19:R18, R17:R16
   \   00000002   E003               LDI     R16, 3
   \   00000004   9508               RET

   \                                 In  segment CODE, align 2, keep-with-next
   \   __version_3 uint8_t CEmergencyAlarmLowLevelDfa::ACTIVE_LEVEL()
   \                     ??ACTIVE_LEVEL_6:
   \   00000000   0198               MOVW    R19:R18, R17:R16
   \   00000002   E000               LDI     R16, 0
   \   00000004   9508               RET

   \                                 In  segment CODE, align 2, keep-with-next
   \   __version_3 uint8_t CEmergencyAlarmLowLevelDfa::IS_NAMUR_ON()
   \                     ??IS_NAMUR_ON_6:
   \   00000000   0198               MOVW    R19:R18, R17:R16
   \   00000002   E000               LDI     R16, 0
   \   00000004   9508               RET

   \                                 In  segment CODE, align 2, keep-with-next
   \   __version_3 uint8_t CEmergencyAlarmHighLevelDfa::ALARM_TYPE()
   \                     ??ALARM_TYPE_7:
   \   00000000   0198               MOVW    R19:R18, R17:R16
   \   00000002   E003               LDI     R16, 3
   \   00000004   9508               RET

   \                                 In  segment CODE, align 2, keep-with-next
   \   __version_3 uint8_t CEmergencyAlarmHighLevelDfa::ACTIVE_LEVEL()
   \                     ??ACTIVE_LEVEL_7:
   \   00000000   0198               MOVW    R19:R18, R17:R16
   \   00000002   E001               LDI     R16, 1
   \   00000004   9508               RET

   \                                 In  segment CODE, align 2, keep-with-next
   \   __version_3 uint8_t CEmergencyAlarmHighLevelDfa::IS_NAMUR_ON()
   \                     ??IS_NAMUR_ON_7:
   \   00000000   0198               MOVW    R19:R18, R17:R16
   \   00000002   E000               LDI     R16, 0
   \   00000004   9508               RET

   \                                 In  segment CODE, align 2, keep-with-next
   \   __version_3 uint8_t CEmergencyAlarmLowLevelNamurDfa::ALARM_TYPE()
   \                     ??ALARM_TYPE_8:
   \   00000000   0198               MOVW    R19:R18, R17:R16
   \   00000002   E003               LDI     R16, 3
   \   00000004   9508               RET

   \                                 In  segment CODE, align 2, keep-with-next
   \   __version_3 uint8_t CEmergencyAlarmLowLevelNamurDfa::ACTIVE_LEVEL()
   \                     ??ACTIVE_LEVEL_8:
   \   00000000   0198               MOVW    R19:R18, R17:R16
   \   00000002   E000               LDI     R16, 0
   \   00000004   9508               RET

   \                                 In  segment CODE, align 2, keep-with-next
   \   __version_3 uint8_t CEmergencyAlarmLowLevelNamurDfa::IS_NAMUR_ON()
   \                     ??IS_NAMUR_ON_8:
   \   00000000   0198               MOVW    R19:R18, R17:R16
   \   00000002   E001               LDI     R16, 1
   \   00000004   9508               RET

   \                                 In  segment CODE, align 2, keep-with-next
   \   __version_3 uint8_t CEmergencyAlarmHighLevelNamurDfa::ALARM_TYPE()
   \                     ??ALARM_TYPE_9:
   \   00000000   0198               MOVW    R19:R18, R17:R16
   \   00000002   E003               LDI     R16, 3
   \   00000004   9508               RET

   \                                 In  segment CODE, align 2, keep-with-next
   \   __version_3 uint8_t CEmergencyAlarmHighLevelNamurDfa::ACTIVE_LEVEL()
   \                     ??ACTIVE_LEVEL_9:
   \   00000000   0198               MOVW    R19:R18, R17:R16
   \   00000002   E001               LDI     R16, 1
   \   00000004   9508               RET

   \                                 In  segment CODE, align 2, keep-with-next
   \   __version_3 uint8_t CEmergencyAlarmHighLevelNamurDfa::IS_NAMUR_ON()
   \                     ??IS_NAMUR_ON_9:
   \   00000000   0198               MOVW    R19:R18, R17:R16
   \   00000002   E001               LDI     R16, 1
   \   00000004   9508               RET

   \                                 In  segment CODE, align 2, keep-with-next
   \   __version_3 uint8_t CIndicationAlarmLowLevelDfa::ALARM_TYPE()
   \                     ??ALARM_TYPE_10:
   \   00000000   0198               MOVW    R19:R18, R17:R16
   \   00000002   E001               LDI     R16, 1
   \   00000004   9508               RET

   \                                 In  segment CODE, align 2, keep-with-next
   \   __version_3 uint8_t CIndicationAlarmLowLevelDfa::ACTIVE_LEVEL()
   \                     ??ACTIVE_LEVEL_10:
   \   00000000   0198               MOVW    R19:R18, R17:R16
   \   00000002   E000               LDI     R16, 0
   \   00000004   9508               RET

   \                                 In  segment CODE, align 2, keep-with-next
   \   __version_3 uint8_t CIndicationAlarmLowLevelDfa::IS_NAMUR_ON()
   \                     ??IS_NAMUR_ON_10:
   \   00000000   0198               MOVW    R19:R18, R17:R16
   \   00000002   E000               LDI     R16, 0
   \   00000004   9508               RET

   \                                 In  segment CODE, align 2, keep-with-next
   \   __version_3 uint8_t CIndicationAlarmHighLevelDfa::ALARM_TYPE()
   \                     ??ALARM_TYPE_11:
   \   00000000   0198               MOVW    R19:R18, R17:R16
   \   00000002   E001               LDI     R16, 1
   \   00000004   9508               RET

   \                                 In  segment CODE, align 2, keep-with-next
   \   __version_3 uint8_t CIndicationAlarmHighLevelDfa::ACTIVE_LEVEL()
   \                     ??ACTIVE_LEVEL_11:
   \   00000000   0198               MOVW    R19:R18, R17:R16
   \   00000002   E001               LDI     R16, 1
   \   00000004   9508               RET

   \                                 In  segment CODE, align 2, keep-with-next
   \   __version_3 uint8_t CIndicationAlarmHighLevelDfa::IS_NAMUR_ON()
   \                     ??IS_NAMUR_ON_11:
   \   00000000   0198               MOVW    R19:R18, R17:R16
   \   00000002   E000               LDI     R16, 0
   \   00000004   9508               RET

   \                                 In  segment CODE, align 2, keep-with-next
   \   __version_3 uint8_t CIndicationAlarmLowLevelNamurDfa::ALARM_TYPE()
   \                     ??ALARM_TYPE_12:
   \   00000000   0198               MOVW    R19:R18, R17:R16
   \   00000002   E001               LDI     R16, 1
   \   00000004   9508               RET

   \                                 In  segment CODE, align 2, keep-with-next
   \   __version_3 uint8_t CIndicationAlarmLowLevelNamurDfa::ACTIVE_LEVEL()
   \                     ??ACTIVE_LEVEL_12:
   \   00000000   0198               MOVW    R19:R18, R17:R16
   \   00000002   E000               LDI     R16, 0
   \   00000004   9508               RET

   \                                 In  segment CODE, align 2, keep-with-next
   \   __version_3 uint8_t CIndicationAlarmLowLevelNamurDfa::IS_NAMUR_ON()
   \                     ??IS_NAMUR_ON_12:
   \   00000000   0198               MOVW    R19:R18, R17:R16
   \   00000002   E001               LDI     R16, 1
   \   00000004   9508               RET

   \                                 In  segment CODE, align 2, keep-with-next
   \   __version_3 uint8_t CIndicationAlarmHighLevelNamurDfa::ALARM_TYPE()
   \                     ??ALARM_TYPE_13:
   \   00000000   0198               MOVW    R19:R18, R17:R16
   \   00000002   E001               LDI     R16, 1
   \   00000004   9508               RET

   \                                 In  segment CODE, align 2, keep-with-next
   \   __version_3 uint8_t CIndicationAlarmHighLevelNamurDfa::ACTIVE_LEVEL()
   \                     ??ACTIVE_LEVEL_13:
   \   00000000   0198               MOVW    R19:R18, R17:R16
   \   00000002   E001               LDI     R16, 1
   \   00000004   9508               RET

   \                                 In  segment CODE, align 2, keep-with-next
   \   __version_3 uint8_t CIndicationAlarmHighLevelNamurDfa::IS_NAMUR_ON()
   \                     ??IS_NAMUR_ON_13:
   \   00000000   0198               MOVW    R19:R18, R17:R16
   \   00000002   E001               LDI     R16, 1
   \   00000004   9508               RET

   \                                 In  segment CODE, align 2, keep-with-next
   \   __version_3 uint8_t CErrorAlarmDfa::ALARM_TYPE()
   \                     ??ALARM_TYPE_14:
   \   00000000   0198               MOVW    R19:R18, R17:R16
   \   00000002   E007               LDI     R16, 7
   \   00000004   9508               RET

   \                                 In  segment CODE, align 2, keep-with-next
   \   __version_3 uint8_t CErrorAlarmDfa::ACTIVE_LEVEL()
   \                     ??ACTIVE_LEVEL_14:
   \   00000000   0198               MOVW    R19:R18, R17:R16
   \   00000002   E000               LDI     R16, 0
   \   00000004   9508               RET

   \                                 In  segment CODE, align 2, keep-with-next
   \   __version_3 uint8_t CErrorAlarmDfa::GetDiscreteStateIndex()
   \                     ??GetDiscreteStateIndex_1:
   \   00000000   01F8               MOVW    R31:R30, R17:R16
   \   00000002   8104               LDD     R16, Z+4
   \   00000004   9508               RET

   \                                 In  segment CODE, align 2, keep-with-next
   \   __version_3 uint8_t CErrorAlarmDfa::GetAlarmWindowIndex()
   \                     ??GetAlarmWindowIndex_1:
   \   00000000   01F8               MOVW    R31:R30, R17:R16
   \   00000002   8103               LDD     R16, Z+3
   \   00000004   9508               RET

      virtual bool IsSolved(void) {};
                                   ^
"D:\Projects\CurrentProjects\CautoProjects\PSS48Color\include\Task.h",20  Warning[Pe940]: 
          missing return statement at end of non-void function
          "CTaskInterface::IsSolved"

      virtual bool IsSourceStateActive(void) {};
                                              ^
"D:\Projects\CurrentProjects\CautoProjects\PSS48Color\include\Task.h",23  Warning[Pe940]: 
          missing return statement at end of non-void function
          "CTaskInterface::IsSourceStateActive"

      bool IsSolved(void) {};
                           ^
"D:\Projects\CurrentProjects\CautoProjects\PSS48Color\include\Task.h",58  Warning[Pe940]: 
          missing return statement at end of non-void function
          "CIsRegularButtonPressedInterface::IsSolved"

      virtual bool IsSourceStateActive(void) {};
                                              ^
"D:\Projects\CurrentProjects\CautoProjects\PSS48Color\include\Task.h",61  Warning[Pe940]: 
          missing return statement at end of non-void function
          "CIsRegularButtonPressedInterface::IsSourceStateActive"

      virtual uint16_t KEY_PRESSED_TIME(void) {};
                                               ^
"D:\Projects\CurrentProjects\CautoProjects\PSS48Color\include\Task.h",63  Warning[Pe940]: 
          missing return statement at end of non-void function
          "CIsRegularButtonPressedInterface::KEY_PRESSED_TIME"

   \                                 In  segment CODE, align 2, keep-with-next
   \   __version_3 uint8_t CPss21::GetDiscreteSignalsReceipt()
   \                     ??GetDiscreteSignalsReceipt:
   \   00000000   9100....           LDS     R16, ??m_uiDiscreteSignalsReceipt
   \   00000004   9508               RET

   \                                 In  segment CODE, align 2, keep-with-next
   \   __version_3 uint8_t CPss21::GetDiscreteSignalsReset()
   \                     ??GetDiscreteSignalsReset:
   \   00000000   9100....           LDS     R16, ??m_uiDiscreteSignalsReset
   \   00000004   9508               RET

   \                                 In  segment CODE, align 2, keep-with-next
   \   __version_3 void CPss21::SetCommonAlarmType(uint8_t)
   \                     ??SetCommonAlarmType:
   \   00000000   9300....           STS     ??m_uiCommonAlarmType, R16
   \   00000004   9508               RET

   \                                 In  segment CODE, align 2, keep-with-next
   \   __version_3 uint8_t CPss21::GetCommonAlarmType()
   \                     ??GetCommonAlarmType:
   \   00000000   9100....           LDS     R16, ??m_uiCommonAlarmType
   \   00000004   9508               RET

   \                                 In  segment CODE, align 2, keep-with-next
   \   __version_3 CAlarmWindow *CPss21::GetAlarmWindowControlPointer(uint8_t)
   \                     ??GetAlarmWindowControlPointer:
   \   00000000   E010               LDI     R17, 0
   \   00000002   E048               LDI     R20, 8
   \   00000004   E050               LDI     R21, 0
   \   00000006   ........           CALL    ?S_EC_MUL_L02
   \   0000000A   0198               MOVW    R19:R18, R17:R16
   \   0000000C   ....               LDI     R16, LOW(??m_axAlarmWindowControl)
   \   0000000E   ....               LDI     R17, (??m_axAlarmWindowControl) >> 8
   \   00000010   0F02               ADD     R16, R18
   \   00000012   1F13               ADC     R17, R19
   \   00000014   9508               RET
     11          
     12          //-----------------------------------------------------------------------------------------------------

   \                                 In  segment CODE, align 2, keep-with-next
     13          CAlarmDfa::CAlarmDfa()
   \                     ??CAlarmDfa:
   \   00000000   93BA               ST      -Y, R27
   \   00000002   93AA               ST      -Y, R26
   \   00000004   01D8               MOVW    R27:R26, R17:R16
     14          {
   \   00000006   018D               MOVW    R17:R16, R27:R26
   \   00000008   ........           CALL    ??CDfaLite
   \   0000000C   ....               LDI     R16, LOW(??__vtbl_1)
   \   0000000E   ....               LDI     R17, (??__vtbl_1) >> 8
   \   00000010   01FD               MOVW    R31:R30, R27:R26
   \   00000012   8301               STD     Z+1, R16
   \   00000014   8312               STD     Z+2, R17
     15              //ctor
     16          }
   \   00000016   018D               MOVW    R17:R16, R27:R26
   \   00000018   91A9               LD      R26, Y+
   \   0000001A   91B9               LD      R27, Y+
   \   0000001C   9508               RET
     17          
     18          //-----------------------------------------------------------------------------------------------------

   \                                 In  segment CODE, align 2, keep-with-next
     19          CAlarmDfa::~CAlarmDfa()
   \                     `?~CAlarmDfa`:
     20          {
   \   00000000   ........           CALL    ?PROLOGUE4_L09
   \   00000004   01C8               MOVW    R25:R24, R17:R16
   \   00000006   01D9               MOVW    R27:R26, R19:R18
   \   00000008   2F08               MOV     R16, R24
   \   0000000A   2B09               OR      R16, R25
   \   0000000C   F051               BREQ    `?~CAlarmDfa_1`
     21              //dtor
     22          }
   \   0000000E   E020               LDI     R18, 0
   \   00000010   E030               LDI     R19, 0
   \   00000012   018C               MOVW    R17:R16, R25:R24
   \   00000014   ........           CALL    `?~CDfaLite`
   \   00000018   FBA0               BST     R26, 0
   \   0000001A   F41E               BRTC    `?~CAlarmDfa_1`
   \   0000001C   018C               MOVW    R17:R16, R25:R24
   \   0000001E   ........           CALL    `??operator delete`
   \                     `?~CAlarmDfa_1`:
   \   00000022   E0E4               LDI     R30, 4
   \   00000024   ........           JMP     ?EPILOGUE_B4_L09
     23          
     24          //-----------------------------------------------------------------------------------------------------
     25          // Автомат обработки сигнализации дискретного сигнала.

   \                                 In  segment CODE, align 2, keep-with-next
     26          void CAlarmDfa::Fsm(void)
   \                     ??Fsm:
     27          {
   \   00000000   ........           CALL    ?PROLOGUE4_L09
   \   00000004   01D8               MOVW    R27:R26, R17:R16
     28              uint8_t uiDiscreteSignalState = DISCRETE_SIGNAL_IS_INVALID;
   \   00000006   E083               LDI     R24, 3
     29          
     30              // дискретный вход недостоверен?
     31              if ((CPss21::GetDiscreteInputsBadState(GetDiscreteStateIndex()) & 0x07) == INPUT_IS_INVALID)
   \   00000008   018D               MOVW    R17:R16, R27:R26
   \   0000000A   ........           CALL    ??GetDiscreteStateIndex
   \   0000000E   ........           CALL    ??GetDiscreteInputsBadState
   \   00000012   7007               ANDI    R16, 0x07
   \   00000014   3004               CPI     R16, 4
   \   00000016   F411               BRNE    ??Fsm_3
     32              {
     33                  uiDiscreteSignalState = DISCRETE_SIGNAL_IS_INVALID;
   \   00000018   E083               LDI     R24, 3
   \   0000001A   C0CA               RJMP    ??Fsm_4
     34              }
     35              else
     36              {
     37                  // тип текущего дискретного сигнала namur?
     38                  if (IS_NAMUR_ON())
   \                     ??Fsm_3:
   \   0000001C   018D               MOVW    R17:R16, R27:R26
   \   0000001E   01FD               MOVW    R31:R30, R27:R26
   \   00000020   8121               LDD     R18, Z+1
   \   00000022   8132               LDD     R19, Z+2
   \   00000024   01F9               MOVW    R31:R30, R19:R18
   \   00000026   9638               ADIW    R31:R30, 8
   \   00000028   9125               LPM     R18, Z+
   \   0000002A   9134               LPM     R19, Z
   \   0000002C   9739               SBIW    R31:R30, 9
   \   0000002E   01F9               MOVW    R31:R30, R19:R18
   \   00000030   9509               ICALL
   \   00000032   2300               TST     R16
   \   00000034   F011               BREQ    ??Fsm_5
   \   00000036   E001               LDI     R16, 1
   \   00000038   C001               RJMP    ??Fsm_6
   \                     ??Fsm_5:
   \   0000003A   E000               LDI     R16, 0
   \                     ??Fsm_6:
   \   0000003C   2300               TST     R16
   \   0000003E   F409               BRNE    $+2+2
   \   00000040   C060               RJMP    ??Fsm_7
     39                  {
     40                      switch (CPss21::GetDiscreteInputsBadState(GetDiscreteStateIndex()))
   \   00000042   018D               MOVW    R17:R16, R27:R26
   \   00000044   ........           CALL    ??GetDiscreteStateIndex
   \   00000048   ........           CALL    ??GetDiscreteInputsBadState
   \   0000004C   5000               SUBI    R16, 0
   \   0000004E   F049               BREQ    ??Fsm_8
   \   00000050   950A               DEC     R16
   \   00000052   F039               BREQ    ??Fsm_8
   \   00000054   950A               DEC     R16
   \   00000056   F409               BRNE    $+2+2
   \   00000058   C04C               RJMP    ??Fsm_9
   \   0000005A   950A               DEC     R16
   \   0000005C   F409               BRNE    $+2+2
   \   0000005E   C049               RJMP    ??Fsm_9
   \   00000060   C0A7               RJMP    ??Fsm_4
     41                      {
     42                      case OFF:
     43                      case ON:
     44                          // Дискретный сигнал активен?
     45                          // уровень сигналы типа "NAMUR" определяем по состояниям дискретного входа:
     46          //	- состояния "0" (OFF) - "РАЗОМКНУТО"
     47          //	- состояния "1" (ON) - "ЗАМКНУТО"
     48                          if ((CPss21::GetDiscreteInputsBadState(GetDiscreteStateIndex()) & 0x03) == OFF)
   \                     ??Fsm_8:
   \   00000062   018D               MOVW    R17:R16, R27:R26
   \   00000064   ........           CALL    ??GetDiscreteStateIndex
   \   00000068   ........           CALL    ??GetDiscreteInputsBadState
   \   0000006C   7003               ANDI    R16, 0x03
   \   0000006E   2300               TST     R16
   \   00000070   F4E1               BRNE    ??Fsm_10
     49                          {
     50                              // установим значение текущего дискретного входа отображаемое в пространстве модбас
     51                              // интерпретированное с учетом условия активности.
     52                              CPss21::SetDiscreteInputState(GetDiscreteStateIndex(), 0);
   \   00000072   018D               MOVW    R17:R16, R27:R26
   \   00000074   ........           CALL    ??GetDiscreteStateIndex
   \   00000078   E010               LDI     R17, 0
   \   0000007A   ........           CALL    ??SetDiscreteInputState
     53          
     54                              if (ACTIVE_LEVEL())
   \   0000007E   018D               MOVW    R17:R16, R27:R26
   \   00000080   01FD               MOVW    R31:R30, R27:R26
   \   00000082   8121               LDD     R18, Z+1
   \   00000084   8132               LDD     R19, Z+2
   \   00000086   01F9               MOVW    R31:R30, R19:R18
   \   00000088   9636               ADIW    R31:R30, 6
   \   0000008A   9125               LPM     R18, Z+
   \   0000008C   9134               LPM     R19, Z
   \   0000008E   9737               SBIW    R31:R30, 7
   \   00000090   01F9               MOVW    R31:R30, R19:R18
   \   00000092   9509               ICALL
   \   00000094   2300               TST     R16
   \   00000096   F011               BREQ    ??Fsm_11
   \   00000098   E001               LDI     R16, 1
   \   0000009A   C001               RJMP    ??Fsm_12
   \                     ??Fsm_11:
   \   0000009C   E000               LDI     R16, 0
   \                     ??Fsm_12:
   \   0000009E   2300               TST     R16
   \   000000A0   F011               BREQ    ??Fsm_13
     55                              {
     56                                  uiDiscreteSignalState = DISCRETE_SIGNAL_IS_ACTIVE;
   \   000000A2   E081               LDI     R24, 1
   \   000000A4   C085               RJMP    ??Fsm_4
     57                              }
     58                              else
     59                              {
     60                                  uiDiscreteSignalState = DISCRETE_SIGNAL_IS_NOT_ACTIVE;
   \                     ??Fsm_13:
   \   000000A6   E080               LDI     R24, 0
   \   000000A8   C083               RJMP    ??Fsm_4
     61                              }
     62                          }
     63                          else if ((CPss21::GetDiscreteInputsBadState(GetDiscreteStateIndex()) & 0x03) == ON)
   \                     ??Fsm_10:
   \   000000AA   018D               MOVW    R17:R16, R27:R26
   \   000000AC   ........           CALL    ??GetDiscreteStateIndex
   \   000000B0   ........           CALL    ??GetDiscreteInputsBadState
   \   000000B4   7003               ANDI    R16, 0x03
   \   000000B6   3001               CPI     R16, 1
   \   000000B8   F4D9               BRNE    ??Fsm_14
     64                          {
     65                              // установим значение текущего дискретного входа отображаемое в пространстве модбас
     66                              // интерпретированное с учетом условия активности.
     67                              CPss21::SetDiscreteInputState(GetDiscreteStateIndex(), 1);
   \   000000BA   018D               MOVW    R17:R16, R27:R26
   \   000000BC   ........           CALL    ??GetDiscreteStateIndex
   \   000000C0   E011               LDI     R17, 1
   \   000000C2   ........           CALL    ??SetDiscreteInputState
     68          
     69                              if (ACTIVE_LEVEL())
   \   000000C6   018D               MOVW    R17:R16, R27:R26
   \   000000C8   01FD               MOVW    R31:R30, R27:R26
   \   000000CA   8121               LDD     R18, Z+1
   \   000000CC   8132               LDD     R19, Z+2
   \   000000CE   01F9               MOVW    R31:R30, R19:R18
   \   000000D0   9636               ADIW    R31:R30, 6
   \   000000D2   9125               LPM     R18, Z+
   \   000000D4   9134               LPM     R19, Z
   \   000000D6   9737               SBIW    R31:R30, 7
   \   000000D8   01F9               MOVW    R31:R30, R19:R18
   \   000000DA   9509               ICALL
   \   000000DC   2300               TST     R16
   \   000000DE   F011               BREQ    ??Fsm_15
   \   000000E0   E001               LDI     R16, 1
   \   000000E2   C001               RJMP    ??Fsm_16
   \                     ??Fsm_15:
   \   000000E4   E000               LDI     R16, 0
   \                     ??Fsm_16:
   \   000000E6   2300               TST     R16
   \   000000E8   F011               BREQ    ??Fsm_17
     70                              {
     71                                  uiDiscreteSignalState = DISCRETE_SIGNAL_IS_NOT_ACTIVE;
   \   000000EA   E080               LDI     R24, 0
   \   000000EC   C061               RJMP    ??Fsm_4
     72                              }
     73                              else
     74                              {
     75                                  uiDiscreteSignalState = DISCRETE_SIGNAL_IS_ACTIVE;
   \                     ??Fsm_17:
   \   000000EE   E081               LDI     R24, 1
     76                              }
     77                          }
     78                          break;
   \                     ??Fsm_14:
   \   000000F0   C05F               RJMP    ??Fsm_4
     79          
     80                      case WIRE_BREAK:
     81                      case SHORT_CIRCUIT:
     82                          uiDiscreteSignalState = DISCRETE_SIGNAL_IS_NAMUR_ERROR;
   \                     ??Fsm_9:
   \   000000F2   E082               LDI     R24, 2
     83                          // установим значение текущего дискретного входа отображаемое в пространстве модбас
     84                          // интерпретированное с учетом условия активности.
     85                          CPss21::SetDiscreteInputState(GetDiscreteStateIndex(), 0);
   \   000000F4   018D               MOVW    R17:R16, R27:R26
   \   000000F6   ........           CALL    ??GetDiscreteStateIndex
   \   000000FA   E010               LDI     R17, 0
   \   000000FC   ........           CALL    ??SetDiscreteInputState
     86                          break;
   \   00000100   C057               RJMP    ??Fsm_4
     87          
     88                      default:
     89                          break;
     90                      }
     91                  }
     92                  else
     93                  {
     94                      // Дискретный сигнал активен?
     95                      // уровень сигналы типа "СУХОЙ КОНТАКТ" (СК) определяем по состояниям дискретного входа:
     96                      //        1.3. В алгоритме обработки сигналов типа "СУХОЙ КОНТАКТ" (СК) должно быть:
     97          //	- состояния "0" (OFF) и "3" (КЗ) - "ЗАМКНУТО"
     98          //	- состояния "1" (ON) и "2" (ОБРЫВ) - "РАЗОМКНУТО"
     99                      if (((CPss21::GetDiscreteInputsBadState(GetDiscreteStateIndex()) & 0x03) == WIRE_BREAK) ||
    100                              ((CPss21::GetDiscreteInputsBadState(GetDiscreteStateIndex()) & 0x03) == ON))
   \                     ??Fsm_7:
   \   00000102   018D               MOVW    R17:R16, R27:R26
   \   00000104   ........           CALL    ??GetDiscreteStateIndex
   \   00000108   ........           CALL    ??GetDiscreteInputsBadState
   \   0000010C   7003               ANDI    R16, 0x03
   \   0000010E   3002               CPI     R16, 2
   \   00000110   F041               BREQ    ??Fsm_18
   \   00000112   018D               MOVW    R17:R16, R27:R26
   \   00000114   ........           CALL    ??GetDiscreteStateIndex
   \   00000118   ........           CALL    ??GetDiscreteInputsBadState
   \   0000011C   7003               ANDI    R16, 0x03
   \   0000011E   3001               CPI     R16, 1
   \   00000120   F4E1               BRNE    ??Fsm_19
    101                      {
    102                          // установим значение текущего дискретного входа отображаемое в пространстве модбас
    103                          // интерпретированное с учетом условия активности.
    104                          CPss21::SetDiscreteInputState(GetDiscreteStateIndex(), 0);
   \                     ??Fsm_18:
   \   00000122   018D               MOVW    R17:R16, R27:R26
   \   00000124   ........           CALL    ??GetDiscreteStateIndex
   \   00000128   E010               LDI     R17, 0
   \   0000012A   ........           CALL    ??SetDiscreteInputState
    105          
    106                          if (ACTIVE_LEVEL())
   \   0000012E   018D               MOVW    R17:R16, R27:R26
   \   00000130   01FD               MOVW    R31:R30, R27:R26
   \   00000132   8121               LDD     R18, Z+1
   \   00000134   8132               LDD     R19, Z+2
   \   00000136   01F9               MOVW    R31:R30, R19:R18
   \   00000138   9636               ADIW    R31:R30, 6
   \   0000013A   9125               LPM     R18, Z+
   \   0000013C   9134               LPM     R19, Z
   \   0000013E   9737               SBIW    R31:R30, 7
   \   00000140   01F9               MOVW    R31:R30, R19:R18
   \   00000142   9509               ICALL
   \   00000144   2300               TST     R16
   \   00000146   F011               BREQ    ??Fsm_20
   \   00000148   E001               LDI     R16, 1
   \   0000014A   C001               RJMP    ??Fsm_21
   \                     ??Fsm_20:
   \   0000014C   E000               LDI     R16, 0
   \                     ??Fsm_21:
   \   0000014E   2300               TST     R16
   \   00000150   F011               BREQ    ??Fsm_22
    107                          {
    108                              uiDiscreteSignalState = DISCRETE_SIGNAL_IS_ACTIVE;
   \   00000152   E081               LDI     R24, 1
   \   00000154   C02D               RJMP    ??Fsm_4
    109                          }
    110                          else
    111                          {
    112                              uiDiscreteSignalState = DISCRETE_SIGNAL_IS_NOT_ACTIVE;
   \                     ??Fsm_22:
   \   00000156   E080               LDI     R24, 0
   \   00000158   C02B               RJMP    ??Fsm_4
    113                          }
    114                      }
    115                      else if (((CPss21::GetDiscreteInputsBadState(GetDiscreteStateIndex()) & 0x03) == SHORT_CIRCUIT) ||
    116                               ((CPss21::GetDiscreteInputsBadState(GetDiscreteStateIndex()) & 0x03) == OFF))
   \                     ??Fsm_19:
   \   0000015A   018D               MOVW    R17:R16, R27:R26
   \   0000015C   ........           CALL    ??GetDiscreteStateIndex
   \   00000160   ........           CALL    ??GetDiscreteInputsBadState
   \   00000164   7003               ANDI    R16, 0x03
   \   00000166   3003               CPI     R16, 3
   \   00000168   F041               BREQ    ??Fsm_23
   \   0000016A   018D               MOVW    R17:R16, R27:R26
   \   0000016C   ........           CALL    ??GetDiscreteStateIndex
   \   00000170   ........           CALL    ??GetDiscreteInputsBadState
   \   00000174   7003               ANDI    R16, 0x03
   \   00000176   2300               TST     R16
   \   00000178   F4D9               BRNE    ??Fsm_4
    117                      {
    118                          // установим значение текущего дискретного входа отображаемое в пространстве модбас
    119                          // интерпретированное с учетом условия активности.
    120                          CPss21::SetDiscreteInputState(GetDiscreteStateIndex(), 1);
   \                     ??Fsm_23:
   \   0000017A   018D               MOVW    R17:R16, R27:R26
   \   0000017C   ........           CALL    ??GetDiscreteStateIndex
   \   00000180   E011               LDI     R17, 1
   \   00000182   ........           CALL    ??SetDiscreteInputState
    121          
    122                          if (ACTIVE_LEVEL())
   \   00000186   018D               MOVW    R17:R16, R27:R26
   \   00000188   01FD               MOVW    R31:R30, R27:R26
   \   0000018A   8121               LDD     R18, Z+1
   \   0000018C   8132               LDD     R19, Z+2
   \   0000018E   01F9               MOVW    R31:R30, R19:R18
   \   00000190   9636               ADIW    R31:R30, 6
   \   00000192   9125               LPM     R18, Z+
   \   00000194   9134               LPM     R19, Z
   \   00000196   9737               SBIW    R31:R30, 7
   \   00000198   01F9               MOVW    R31:R30, R19:R18
   \   0000019A   9509               ICALL
   \   0000019C   2300               TST     R16
   \   0000019E   F011               BREQ    ??Fsm_24
   \   000001A0   E001               LDI     R16, 1
   \   000001A2   C001               RJMP    ??Fsm_25
   \                     ??Fsm_24:
   \   000001A4   E000               LDI     R16, 0
   \                     ??Fsm_25:
   \   000001A6   2300               TST     R16
   \   000001A8   F011               BREQ    ??Fsm_26
    123                          {
    124                              uiDiscreteSignalState = DISCRETE_SIGNAL_IS_NOT_ACTIVE;
   \   000001AA   E080               LDI     R24, 0
   \   000001AC   C001               RJMP    ??Fsm_4
    125                          }
    126                          else
    127                          {
    128                              uiDiscreteSignalState = DISCRETE_SIGNAL_IS_ACTIVE;
   \                     ??Fsm_26:
   \   000001AE   E081               LDI     R24, 1
    129                          }
    130                      }
    131                  }
    132              }
    133          
    134              switch (GetFsmState())
   \                     ??Fsm_4:
   \   000001B0   018D               MOVW    R17:R16, R27:R26
   \   000001B2   ........           CALL    ??GetFsmState
   \   000001B6   ....               LDI     R30, LOW(`?<Jumptable for Fsm>_0`)
   \   000001B8   ....               LDI     R31, (`?<Jumptable for Fsm>_0`) >> 16
   \   000001BA   BFFB               OUT     0x3B, R31
   \   000001BC   ....               LDI     R31, HIGH(`?<Jumptable for Fsm>_0`)
   \   000001BE   ........           JMP     ?CV_SWITCH_L06
    135              {
    136              case START:
    137                  break;
    138          
    139          //    case ACTIVE_STATE_CHECK:
    140          //        break;
    141          
    142              case ACTIVE_STATE_WAITING:
    143          //        CPss21::m_aucRtuHoldingRegistersArray[0] = CPss21::m_aucDiscreteInputsBadState[0];
    144                  // тип текущего дискретного сигнала namur?
    145                  if (IS_NAMUR_ON())
   \                     ??Fsm_27:
   \   000001C2   018D               MOVW    R17:R16, R27:R26
   \   000001C4   01FD               MOVW    R31:R30, R27:R26
   \   000001C6   8121               LDD     R18, Z+1
   \   000001C8   8132               LDD     R19, Z+2
   \   000001CA   01F9               MOVW    R31:R30, R19:R18
   \   000001CC   9638               ADIW    R31:R30, 8
   \   000001CE   9125               LPM     R18, Z+
   \   000001D0   9134               LPM     R19, Z
   \   000001D2   9739               SBIW    R31:R30, 9
   \   000001D4   01F9               MOVW    R31:R30, R19:R18
   \   000001D6   9509               ICALL
   \   000001D8   2300               TST     R16
   \   000001DA   F011               BREQ    ??Fsm_28
   \   000001DC   E001               LDI     R16, 1
   \   000001DE   C001               RJMP    ??Fsm_29
   \                     ??Fsm_28:
   \   000001E0   E000               LDI     R16, 0
   \                     ??Fsm_29:
   \   000001E2   2300               TST     R16
   \   000001E4   F409               BRNE    $+2+2
   \   000001E6   C04B               RJMP    ??Fsm_30
    146                  {
    147                      // Дискретный сигнал NAMUR в обрыве или кз?
    148                      if (uiDiscreteSignalState == DISCRETE_SIGNAL_IS_NAMUR_ERROR)
   \   000001E8   3082               CPI     R24, 2
   \   000001EA   F429               BRNE    ??Fsm_31
    149                      {
    150                          SetFsmState(NAMUR_STATE_ON);
   \   000001EC   E028               LDI     R18, 8
   \   000001EE   018D               MOVW    R17:R16, R27:R26
   \   000001F0   ........           CALL    ??SetFsmState
   \   000001F4   C188               RJMP    ??Fsm_32
    151                      }
    152                      else
    153                      {
    154                          // Дискретный сигнал активен?
    155                          if (uiDiscreteSignalState == DISCRETE_SIGNAL_IS_ACTIVE)
   \                     ??Fsm_31:
   \   000001F6   3081               CPI     R24, 1
   \   000001F8   F009               BREQ    $+2+2
   \   000001FA   C185               RJMP    ??Fsm_32
    156                          {
    157                              // Установим связанные дискретный выходы - новое нарушение.
    158                              CPss21::DiscreteOutputsSet(GetLinkedDiscreteOutputsPointer(), NEW_VIOLATION);
   \   000001FC   018D               MOVW    R17:R16, R27:R26
   \   000001FE   ........           CALL    ??GetLinkedDiscreteOutputsPointer
   \   00000202   E021               LDI     R18, 1
   \   00000204   ........           CALL    ??DiscreteOutputsSet
    159                              // Установим тип сигнализации связанному окну в массиве управления окнами извещателя.
    160                              CPss21::SetAlarmWindowType(GetAlarmWindowIndex(), ALARM_TYPE());
   \   00000208   018D               MOVW    R17:R16, R27:R26
   \   0000020A   01FD               MOVW    R31:R30, R27:R26
   \   0000020C   8121               LDD     R18, Z+1
   \   0000020E   8132               LDD     R19, Z+2
   \   00000210   01F9               MOVW    R31:R30, R19:R18
   \   00000212   9634               ADIW    R31:R30, 4
   \   00000214   9125               LPM     R18, Z+
   \   00000216   9134               LPM     R19, Z
   \   00000218   9735               SBIW    R31:R30, 5
   \   0000021A   01F9               MOVW    R31:R30, R19:R18
   \   0000021C   9509               ICALL
   \   0000021E   2F90               MOV     R25, R16
   \   00000220   018D               MOVW    R17:R16, R27:R26
   \   00000222   ........           CALL    ??GetAlarmWindowIndex
   \   00000226   2F19               MOV     R17, R25
   \   00000228   ........           CALL    ??SetAlarmWindowType
    161                              CPss21::SetAlarmWindowColor(GetAlarmWindowIndex(), ALARM_TYPE());
   \   0000022C   018D               MOVW    R17:R16, R27:R26
   \   0000022E   01FD               MOVW    R31:R30, R27:R26
   \   00000230   8121               LDD     R18, Z+1
   \   00000232   8132               LDD     R19, Z+2
   \   00000234   01F9               MOVW    R31:R30, R19:R18
   \   00000236   9634               ADIW    R31:R30, 4
   \   00000238   9125               LPM     R18, Z+
   \   0000023A   9134               LPM     R19, Z
   \   0000023C   9735               SBIW    R31:R30, 5
   \   0000023E   01F9               MOVW    R31:R30, R19:R18
   \   00000240   9509               ICALL
   \   00000242   2F90               MOV     R25, R16
   \   00000244   018D               MOVW    R17:R16, R27:R26
   \   00000246   ........           CALL    ??GetAlarmWindowIndex
   \   0000024A   2F19               MOV     R17, R25
   \   0000024C   ........           CALL    ??SetAlarmWindowColor
    162                              CPss21::GetAlarmWindowControlPointer(GetAlarmWindowIndex()) -> SetActivityState(1);
   \   00000250   018D               MOVW    R17:R16, R27:R26
   \   00000252   ........           CALL    ??GetAlarmWindowIndex
   \   00000256   ........           CALL    ??GetAlarmWindowControlPointer
   \   0000025A   E021               LDI     R18, 1
   \   0000025C   ........           CALL    ??SetActivityState
    163                              // Запрограммирован режим автоматического сброса предупредительой и аварийной
    164                              // сигнализации при переходе дискретного сигнала в неактивное состояние?
    165                              if (CPss21::m_xDeviceConfiguration.AutoUnset)
   \   00000260   ....               LDI     R30, LOW(??m_xDeviceConfiguration)
   \   00000262   ....               LDI     R31, (??m_xDeviceConfiguration) >> 8
   \   00000264   8103               LDD     R16, Z+3
   \   00000266   FF03               SBRS    R16, 3
   \   00000268   C005               RJMP    ??Fsm_33
    166                              {
    167                                  SetFsmState(RECEIPT_OR_RESET_OR_AUTOUNSET_WAITING);
   \   0000026A   E023               LDI     R18, 3
   \   0000026C   018D               MOVW    R17:R16, R27:R26
   \   0000026E   ........           CALL    ??SetFsmState
   \   00000272   C149               RJMP    ??Fsm_32
    168                              }
    169                              else
    170                              {
    171                                  SetFsmState(RECEIPT_OR_RESET_WAITING);
   \                     ??Fsm_33:
   \   00000274   E022               LDI     R18, 2
   \   00000276   018D               MOVW    R17:R16, R27:R26
   \   00000278   ........           CALL    ??SetFsmState
   \   0000027C   C144               RJMP    ??Fsm_32
    172                              }
    173                          }
    174                      }
    175                  }
    176                  else
    177                  {
    178                      // Дискретный сигнал активен?
    179                      // уровень сигналы типа "СУХОЙ КОНТАКТ" (СК) определяем по состояниям дискретного входа:
    180                      // 2 - обрыв(разомкнуто), и 3 - КЗ(замкнуто).
    181                      if (uiDiscreteSignalState == DISCRETE_SIGNAL_IS_ACTIVE)
   \                     ??Fsm_30:
   \   0000027E   3081               CPI     R24, 1
   \   00000280   F009               BREQ    $+2+2
   \   00000282   C040               RJMP    ??Fsm_34
    182                      {
    183                          // Установим связанные дискретный выходы - новое нарушение.
    184                          CPss21::DiscreteOutputsSet(GetLinkedDiscreteOutputsPointer(), NEW_VIOLATION);
   \   00000284   018D               MOVW    R17:R16, R27:R26
   \   00000286   ........           CALL    ??GetLinkedDiscreteOutputsPointer
   \   0000028A   E021               LDI     R18, 1
   \   0000028C   ........           CALL    ??DiscreteOutputsSet
    185                          // Установим тип сигнализации связанному окну в массиве управления окнами извещателя.
    186                          CPss21::SetAlarmWindowType(GetAlarmWindowIndex(), ALARM_TYPE());
   \   00000290   018D               MOVW    R17:R16, R27:R26
   \   00000292   01FD               MOVW    R31:R30, R27:R26
   \   00000294   8121               LDD     R18, Z+1
   \   00000296   8132               LDD     R19, Z+2
   \   00000298   01F9               MOVW    R31:R30, R19:R18
   \   0000029A   9634               ADIW    R31:R30, 4
   \   0000029C   9125               LPM     R18, Z+
   \   0000029E   9134               LPM     R19, Z
   \   000002A0   9735               SBIW    R31:R30, 5
   \   000002A2   01F9               MOVW    R31:R30, R19:R18
   \   000002A4   9509               ICALL
   \   000002A6   2F90               MOV     R25, R16
   \   000002A8   018D               MOVW    R17:R16, R27:R26
   \   000002AA   ........           CALL    ??GetAlarmWindowIndex
   \   000002AE   2F19               MOV     R17, R25
   \   000002B0   ........           CALL    ??SetAlarmWindowType
    187                          CPss21::SetAlarmWindowColor(GetAlarmWindowIndex(), ALARM_TYPE());
   \   000002B4   018D               MOVW    R17:R16, R27:R26
   \   000002B6   01FD               MOVW    R31:R30, R27:R26
   \   000002B8   8121               LDD     R18, Z+1
   \   000002BA   8132               LDD     R19, Z+2
   \   000002BC   01F9               MOVW    R31:R30, R19:R18
   \   000002BE   9634               ADIW    R31:R30, 4
   \   000002C0   9125               LPM     R18, Z+
   \   000002C2   9134               LPM     R19, Z
   \   000002C4   9735               SBIW    R31:R30, 5
   \   000002C6   01F9               MOVW    R31:R30, R19:R18
   \   000002C8   9509               ICALL
   \   000002CA   2F90               MOV     R25, R16
   \   000002CC   018D               MOVW    R17:R16, R27:R26
   \   000002CE   ........           CALL    ??GetAlarmWindowIndex
   \   000002D2   2F19               MOV     R17, R25
   \   000002D4   ........           CALL    ??SetAlarmWindowColor
    188                          CPss21::GetAlarmWindowControlPointer(GetAlarmWindowIndex()) -> SetActivityState(1);
   \   000002D8   018D               MOVW    R17:R16, R27:R26
   \   000002DA   ........           CALL    ??GetAlarmWindowIndex
   \   000002DE   ........           CALL    ??GetAlarmWindowControlPointer
   \   000002E2   E021               LDI     R18, 1
   \   000002E4   ........           CALL    ??SetActivityState
    189                          // Запрограммирован режим автоматического сброса предупредительой и аварийной
    190                          // сигнализации при переходе дискретного сигнала в неактивное состояние?
    191                          if (CPss21::m_xDeviceConfiguration.AutoUnset)
   \   000002E8   ....               LDI     R30, LOW(??m_xDeviceConfiguration)
   \   000002EA   ....               LDI     R31, (??m_xDeviceConfiguration) >> 8
   \   000002EC   8103               LDD     R16, Z+3
   \   000002EE   FF03               SBRS    R16, 3
   \   000002F0   C005               RJMP    ??Fsm_35
    192                          {
    193                              SetFsmState(RECEIPT_OR_RESET_OR_AUTOUNSET_WAITING);
   \   000002F2   E023               LDI     R18, 3
   \   000002F4   018D               MOVW    R17:R16, R27:R26
   \   000002F6   ........           CALL    ??SetFsmState
   \   000002FA   C105               RJMP    ??Fsm_32
    194                          }
    195                          else
    196                          {
    197                              SetFsmState(RECEIPT_OR_RESET_WAITING);
   \                     ??Fsm_35:
   \   000002FC   E022               LDI     R18, 2
   \   000002FE   018D               MOVW    R17:R16, R27:R26
   \   00000300   ........           CALL    ??SetFsmState
    198                          }
    199                      }
    200                  }
    201                  break;
   \                     ??Fsm_34:
   \   00000304   C100               RJMP    ??Fsm_32
    202          
    203              case RECEIPT_OR_RESET_OR_AUTOUNSET_WAITING:
    204                  // Запрограммирован режим автоматического сброса предупредительой и аварийной
    205                  // сигнализации при переходе дискретного сигнала в неактивное состояние.
    206                  // Дискретный сигнал активен?
    207                  if (uiDiscreteSignalState == DISCRETE_SIGNAL_IS_ACTIVE)
   \                     ??Fsm_36:
   \   00000306   3081               CPI     R24, 1
   \   00000308   F439               BRNE    ??Fsm_37
    208                  {
    209                      // Установим связанные дискретный выходы - не новое нарушение.
    210                      CPss21::DiscreteOutputsSet(GetLinkedDiscreteOutputsPointer(), NOT_NEW_VIOLATION);
   \   0000030A   018D               MOVW    R17:R16, R27:R26
   \   0000030C   ........           CALL    ??GetLinkedDiscreteOutputsPointer
   \   00000310   E020               LDI     R18, 0
   \   00000312   ........           CALL    ??DiscreteOutputsSet
   \   00000316   C01B               RJMP    ??Fsm_38
    211                  }
    212                  else if (uiDiscreteSignalState == DISCRETE_SIGNAL_IS_NOT_ACTIVE)
   \                     ??Fsm_37:
   \   00000318   2388               TST     R24
   \   0000031A   F499               BRNE    ??Fsm_39
    213                  {
    214                      // Установим тип сигнализации связанному окну в массиве управления окнами извещателя.
    215                      CPss21::SetAlarmWindowType(GetAlarmWindowIndex(), NORMAL);
   \   0000031C   018D               MOVW    R17:R16, R27:R26
   \   0000031E   ........           CALL    ??GetAlarmWindowIndex
   \   00000322   E010               LDI     R17, 0
   \   00000324   ........           CALL    ??SetAlarmWindowType
    216                      CPss21::GetAlarmWindowControlPointer(GetAlarmWindowIndex()) -> SetActivityState(0);
   \   00000328   018D               MOVW    R17:R16, R27:R26
   \   0000032A   ........           CALL    ??GetAlarmWindowIndex
   \   0000032E   ........           CALL    ??GetAlarmWindowControlPointer
   \   00000332   E020               LDI     R18, 0
   \   00000334   ........           CALL    ??SetActivityState
    217                      SetFsmState(ACTIVE_STATE_WAITING);
   \   00000338   E021               LDI     R18, 1
   \   0000033A   018D               MOVW    R17:R16, R27:R26
   \   0000033C   ........           CALL    ??SetFsmState
    218                      break;
   \   00000340   C0E2               RJMP    ??Fsm_32
    219                  }
    220                  else if (uiDiscreteSignalState == DISCRETE_SIGNAL_IS_NAMUR_ERROR)
   \                     ??Fsm_39:
   \   00000342   3082               CPI     R24, 2
   \   00000344   F421               BRNE    ??Fsm_38
    221                  {
    222                      SetFsmState(NAMUR_STATE_ON);
   \   00000346   E028               LDI     R18, 8
   \   00000348   018D               MOVW    R17:R16, R27:R26
   \   0000034A   ........           CALL    ??SetFsmState
    223                  }
    224          
    225                  // Событие сброшено?
    226                  if (CPss21::GetDiscreteSignalsReset())
   \                     ??Fsm_38:
   \   0000034E   ........           CALL    ??GetDiscreteSignalsReset
   \   00000352   2300               TST     R16
   \   00000354   F059               BREQ    ??Fsm_40
    227                  {
    228                      // Установим тип сигнализации связанному окну в массиве управления окнами извещателя.
    229                      CPss21::SetAlarmWindowType(GetAlarmWindowIndex(), INDICATION);
   \   00000356   018D               MOVW    R17:R16, R27:R26
   \   00000358   ........           CALL    ??GetAlarmWindowIndex
   \   0000035C   E011               LDI     R17, 1
   \   0000035E   ........           CALL    ??SetAlarmWindowType
    230                      SetFsmState(RESETED_NOT_ACTIVE_STATE_WAITING);
   \   00000362   E025               LDI     R18, 5
   \   00000364   018D               MOVW    R17:R16, R27:R26
   \   00000366   ........           CALL    ??SetFsmState
   \   0000036A   C0CD               RJMP    ??Fsm_32
    231                  }
    232                  // Событие квитировано?
    233                  else if (CPss21::GetDiscreteSignalsReceipt())
   \                     ??Fsm_40:
   \   0000036C   ........           CALL    ??GetDiscreteSignalsReceipt
   \   00000370   2300               TST     R16
   \   00000372   F051               BREQ    ??Fsm_41
    234                  {
    235                      // Установим тип сигнализации связанному окну в массиве управления окнами извещателя.
    236                      CPss21::SetAlarmWindowType(GetAlarmWindowIndex(), INDICATION);
   \   00000374   018D               MOVW    R17:R16, R27:R26
   \   00000376   ........           CALL    ??GetAlarmWindowIndex
   \   0000037A   E011               LDI     R17, 1
   \   0000037C   ........           CALL    ??SetAlarmWindowType
    237                      SetFsmState(RECEIPTED_RESET_OR_NOT_ACTIVE_STATE_WAITING);
   \   00000380   E024               LDI     R18, 4
   \   00000382   018D               MOVW    R17:R16, R27:R26
   \   00000384   ........           CALL    ??SetFsmState
    238                  }
    239                  break;
   \                     ??Fsm_41:
   \   00000388   C0BE               RJMP    ??Fsm_32
    240          
    241              case RECEIPT_OR_RESET_WAITING:
    242                  // Дискретный сигнал активен?
    243                  if (uiDiscreteSignalState == DISCRETE_SIGNAL_IS_ACTIVE)
   \                     ??Fsm_42:
   \   0000038A   3081               CPI     R24, 1
   \   0000038C   F431               BRNE    ??Fsm_43
    244                  {
    245                      // Установим связанные дискретный выходы - не новое нарушение.
    246                      CPss21::DiscreteOutputsSet(GetLinkedDiscreteOutputsPointer(), NOT_NEW_VIOLATION);
   \   0000038E   018D               MOVW    R17:R16, R27:R26
   \   00000390   ........           CALL    ??GetLinkedDiscreteOutputsPointer
   \   00000394   E020               LDI     R18, 0
   \   00000396   ........           CALL    ??DiscreteOutputsSet
    247                  }
    248          
    249                  // Событие сброшено?
    250                  if (CPss21::GetDiscreteSignalsReset())
   \                     ??Fsm_43:
   \   0000039A   ........           CALL    ??GetDiscreteSignalsReset
   \   0000039E   2300               TST     R16
   \   000003A0   F059               BREQ    ??Fsm_44
    251                  {
    252                      // Установим тип сигнализации связанному окну в массиве управления окнами извещателя.
    253                      CPss21::SetAlarmWindowType(GetAlarmWindowIndex(), INDICATION);
   \   000003A2   018D               MOVW    R17:R16, R27:R26
   \   000003A4   ........           CALL    ??GetAlarmWindowIndex
   \   000003A8   E011               LDI     R17, 1
   \   000003AA   ........           CALL    ??SetAlarmWindowType
    254                      SetFsmState(RESETED_NOT_ACTIVE_STATE_WAITING);
   \   000003AE   E025               LDI     R18, 5
   \   000003B0   018D               MOVW    R17:R16, R27:R26
   \   000003B2   ........           CALL    ??SetFsmState
   \   000003B6   C0A7               RJMP    ??Fsm_32
    255                  }
    256                  // Событие квитировано?
    257                  else if (CPss21::GetDiscreteSignalsReceipt())
   \                     ??Fsm_44:
   \   000003B8   ........           CALL    ??GetDiscreteSignalsReceipt
   \   000003BC   2300               TST     R16
   \   000003BE   F051               BREQ    ??Fsm_45
    258                  {
    259                      // Установим тип сигнализации связанному окну в массиве управления окнами извещателя.
    260                      CPss21::SetAlarmWindowType(GetAlarmWindowIndex(), INDICATION);
   \   000003C0   018D               MOVW    R17:R16, R27:R26
   \   000003C2   ........           CALL    ??GetAlarmWindowIndex
   \   000003C6   E011               LDI     R17, 1
   \   000003C8   ........           CALL    ??SetAlarmWindowType
    261                      SetFsmState(RECEIPTED_RESET_OR_NOT_ACTIVE_STATE_WAITING);
   \   000003CC   E024               LDI     R18, 4
   \   000003CE   018D               MOVW    R17:R16, R27:R26
   \   000003D0   ........           CALL    ??SetFsmState
    262                  }
    263                  break;
   \                     ??Fsm_45:
   \   000003D4   C098               RJMP    ??Fsm_32
    264          
    265              case RECEIPTED_RESET_OR_NOT_ACTIVE_STATE_WAITING:
    266                  // Событие сброшено?
    267                  if (CPss21::GetDiscreteSignalsReset())
   \                     ??Fsm_46:
   \   000003D6   ........           CALL    ??GetDiscreteSignalsReset
   \   000003DA   2300               TST     R16
   \   000003DC   F029               BREQ    ??Fsm_47
    268                  {
    269                      SetFsmState(RESETED_NOT_ACTIVE_STATE_WAITING);
   \   000003DE   E025               LDI     R18, 5
   \   000003E0   018D               MOVW    R17:R16, R27:R26
   \   000003E2   ........           CALL    ??SetFsmState
   \   000003E6   C08F               RJMP    ??Fsm_32
    270                  }
    271                  // Дискретный сигнал не активен?
    272                  else if (uiDiscreteSignalState == DISCRETE_SIGNAL_IS_NOT_ACTIVE)
   \                     ??Fsm_47:
   \   000003E8   2388               TST     R24
   \   000003EA   F429               BRNE    ??Fsm_48
    273                  {
    274                      SetFsmState(RECEIPTED_RESET_WAITING);
   \   000003EC   E026               LDI     R18, 6
   \   000003EE   018D               MOVW    R17:R16, R27:R26
   \   000003F0   ........           CALL    ??SetFsmState
   \   000003F4   C088               RJMP    ??Fsm_32
    275                  }
    276                  else if (uiDiscreteSignalState == DISCRETE_SIGNAL_IS_ACTIVE)
   \                     ??Fsm_48:
   \   000003F6   3081               CPI     R24, 1
   \   000003F8   F439               BRNE    ??Fsm_49
    277                  {
    278                      // Установим связанные дискретный выходы - не новое нарушение.
    279                      CPss21::DiscreteOutputsSet(GetLinkedDiscreteOutputsPointer(), NOT_NEW_VIOLATION);
   \   000003FA   018D               MOVW    R17:R16, R27:R26
   \   000003FC   ........           CALL    ??GetLinkedDiscreteOutputsPointer
   \   00000400   E020               LDI     R18, 0
   \   00000402   ........           CALL    ??DiscreteOutputsSet
   \   00000406   C07F               RJMP    ??Fsm_32
    280                  }
    281                  else if (uiDiscreteSignalState == DISCRETE_SIGNAL_IS_NAMUR_ERROR)
   \                     ??Fsm_49:
   \   00000408   3082               CPI     R24, 2
   \   0000040A   F421               BRNE    ??Fsm_50
    282                  {
    283                      SetFsmState(NAMUR_STATE_ON);
   \   0000040C   E028               LDI     R18, 8
   \   0000040E   018D               MOVW    R17:R16, R27:R26
   \   00000410   ........           CALL    ??SetFsmState
    284                  }
    285                  break;
   \                     ??Fsm_50:
   \   00000414   C078               RJMP    ??Fsm_32
    286          
    287              case RESETED_NOT_ACTIVE_STATE_WAITING:
    288                  // Дискретный сигнал не активен?
    289                  if (uiDiscreteSignalState == DISCRETE_SIGNAL_IS_NOT_ACTIVE)
   \                     ??Fsm_51:
   \   00000416   2388               TST     R24
   \   00000418   F499               BRNE    ??Fsm_52
    290                  {
    291                      // Установим тип сигнализации связанному окну в массиве управления окнами извещателя.
    292                      CPss21::SetAlarmWindowType(GetAlarmWindowIndex(), NORMAL);
   \   0000041A   018D               MOVW    R17:R16, R27:R26
   \   0000041C   ........           CALL    ??GetAlarmWindowIndex
   \   00000420   E010               LDI     R17, 0
   \   00000422   ........           CALL    ??SetAlarmWindowType
    293                      CPss21::GetAlarmWindowControlPointer(GetAlarmWindowIndex()) -> SetActivityState(0);
   \   00000426   018D               MOVW    R17:R16, R27:R26
   \   00000428   ........           CALL    ??GetAlarmWindowIndex
   \   0000042C   ........           CALL    ??GetAlarmWindowControlPointer
   \   00000430   E020               LDI     R18, 0
   \   00000432   ........           CALL    ??SetActivityState
    294                      SetFsmState(ACTIVE_STATE_WAITING);
   \   00000436   E021               LDI     R18, 1
   \   00000438   018D               MOVW    R17:R16, R27:R26
   \   0000043A   ........           CALL    ??SetFsmState
   \   0000043E   C063               RJMP    ??Fsm_32
    295                  }
    296                  else if (uiDiscreteSignalState == DISCRETE_SIGNAL_IS_ACTIVE)
   \                     ??Fsm_52:
   \   00000440   3081               CPI     R24, 1
   \   00000442   F439               BRNE    ??Fsm_53
    297                  {
    298                      // Установим связанные дискретный выходы - не новое нарушение.
    299                      CPss21::DiscreteOutputsSet(GetLinkedDiscreteOutputsPointer(), NOT_NEW_VIOLATION);
   \   00000444   018D               MOVW    R17:R16, R27:R26
   \   00000446   ........           CALL    ??GetLinkedDiscreteOutputsPointer
   \   0000044A   E020               LDI     R18, 0
   \   0000044C   ........           CALL    ??DiscreteOutputsSet
   \   00000450   C05A               RJMP    ??Fsm_32
    300                  }
    301                  else if (uiDiscreteSignalState == DISCRETE_SIGNAL_IS_NAMUR_ERROR)
   \                     ??Fsm_53:
   \   00000452   3082               CPI     R24, 2
   \   00000454   F421               BRNE    ??Fsm_54
    302                  {
    303                      SetFsmState(NAMUR_STATE_ON);
   \   00000456   E028               LDI     R18, 8
   \   00000458   018D               MOVW    R17:R16, R27:R26
   \   0000045A   ........           CALL    ??SetFsmState
    304                  }
    305                  break;
   \                     ??Fsm_54:
   \   0000045E   C053               RJMP    ??Fsm_32
    306          
    307              case RECEIPTED_RESET_WAITING:
    308                  // Дискретный сигнал активен?
    309                  if (uiDiscreteSignalState == DISCRETE_SIGNAL_IS_ACTIVE)
   \                     ??Fsm_55:
   \   00000460   3081               CPI     R24, 1
   \   00000462   F439               BRNE    ??Fsm_56
    310                  {
    311                      // Установим связанные дискретный выходы - не новое нарушение.
    312                      CPss21::DiscreteOutputsSet(GetLinkedDiscreteOutputsPointer(), NOT_NEW_VIOLATION);
   \   00000464   018D               MOVW    R17:R16, R27:R26
   \   00000466   ........           CALL    ??GetLinkedDiscreteOutputsPointer
   \   0000046A   E020               LDI     R18, 0
   \   0000046C   ........           CALL    ??DiscreteOutputsSet
   \   00000470   C006               RJMP    ??Fsm_57
    313                  }
    314                  else if (uiDiscreteSignalState == DISCRETE_SIGNAL_IS_NAMUR_ERROR)
   \                     ??Fsm_56:
   \   00000472   3082               CPI     R24, 2
   \   00000474   F421               BRNE    ??Fsm_57
    315                  {
    316                      SetFsmState(NAMUR_STATE_ON);
   \   00000476   E028               LDI     R18, 8
   \   00000478   018D               MOVW    R17:R16, R27:R26
   \   0000047A   ........           CALL    ??SetFsmState
    317                  }
    318          
    319                  // Событие сброшено?
    320                  if (CPss21::GetDiscreteSignalsReset())
   \                     ??Fsm_57:
   \   0000047E   ........           CALL    ??GetDiscreteSignalsReset
   \   00000482   2300               TST     R16
   \   00000484   F091               BREQ    ??Fsm_58
    321                  {
    322                      // Установим тип сигнализации связанному окну в массиве управления окнами извещателя.
    323                      CPss21::SetAlarmWindowType(GetAlarmWindowIndex(), NORMAL);
   \   00000486   018D               MOVW    R17:R16, R27:R26
   \   00000488   ........           CALL    ??GetAlarmWindowIndex
   \   0000048C   E010               LDI     R17, 0
   \   0000048E   ........           CALL    ??SetAlarmWindowType
    324                      CPss21::GetAlarmWindowControlPointer(GetAlarmWindowIndex()) -> SetActivityState(0);
   \   00000492   018D               MOVW    R17:R16, R27:R26
   \   00000494   ........           CALL    ??GetAlarmWindowIndex
   \   00000498   ........           CALL    ??GetAlarmWindowControlPointer
   \   0000049C   E020               LDI     R18, 0
   \   0000049E   ........           CALL    ??SetActivityState
    325                      SetFsmState(ACTIVE_STATE_WAITING);
   \   000004A2   E021               LDI     R18, 1
   \   000004A4   018D               MOVW    R17:R16, R27:R26
   \   000004A6   ........           CALL    ??SetFsmState
    326                  }
    327                  break;
   \                     ??Fsm_58:
   \   000004AA   C02D               RJMP    ??Fsm_32
    328          
    329              case NAMUR_STATE_ON:
    330                  // Установим тип сигнализации связанному окну в массиве управления окнами извещателя.
    331                  CPss21::SetAlarmWindowType(GetAlarmWindowIndex(), INDICATION);
   \                     ??Fsm_59:
   \   000004AC   018D               MOVW    R17:R16, R27:R26
   \   000004AE   ........           CALL    ??GetAlarmWindowIndex
   \   000004B2   E011               LDI     R17, 1
   \   000004B4   ........           CALL    ??SetAlarmWindowType
    332                  CPss21::SetAlarmWindowColor(GetAlarmWindowIndex(), NAMUR_INDICATION);
   \   000004B8   018D               MOVW    R17:R16, R27:R26
   \   000004BA   ........           CALL    ??GetAlarmWindowIndex
   \   000004BE   E016               LDI     R17, 6
   \   000004C0   ........           CALL    ??SetAlarmWindowColor
    333                  CPss21::GetAlarmWindowControlPointer(GetAlarmWindowIndex()) -> SetActivityState(1);
   \   000004C4   018D               MOVW    R17:R16, R27:R26
   \   000004C6   ........           CALL    ??GetAlarmWindowIndex
   \   000004CA   ........           CALL    ??GetAlarmWindowControlPointer
   \   000004CE   E021               LDI     R18, 1
   \   000004D0   ........           CALL    ??SetActivityState
    334          //        CPss21::BoardWindowsUpdate();
    335                  SetFsmState(NAMUR_INPUT_CORRECT_STATE_WAITING);
   \   000004D4   E029               LDI     R18, 9
   \   000004D6   018D               MOVW    R17:R16, R27:R26
   \   000004D8   ........           CALL    ??SetFsmState
    336                  break;
   \   000004DC   C014               RJMP    ??Fsm_32
    337          
    338              case NAMUR_INPUT_CORRECT_STATE_WAITING:
    339                  // Дискретный сигнал NAMUR достоверен?
    340                  if (uiDiscreteSignalState != DISCRETE_SIGNAL_IS_NAMUR_ERROR)
   \                     ??Fsm_60:
   \   000004DE   3082               CPI     R24, 2
   \   000004E0   F091               BREQ    ??Fsm_32
    341                  {
    342                      // Установим тип сигнализации связанному окну в массиве управления окнами извещателя.
    343                      CPss21::SetAlarmWindowType(GetAlarmWindowIndex(), NORMAL);
   \   000004E2   018D               MOVW    R17:R16, R27:R26
   \   000004E4   ........           CALL    ??GetAlarmWindowIndex
   \   000004E8   E010               LDI     R17, 0
   \   000004EA   ........           CALL    ??SetAlarmWindowType
    344                      CPss21::GetAlarmWindowControlPointer(GetAlarmWindowIndex()) -> SetActivityState(0);
   \   000004EE   018D               MOVW    R17:R16, R27:R26
   \   000004F0   ........           CALL    ??GetAlarmWindowIndex
   \   000004F4   ........           CALL    ??GetAlarmWindowControlPointer
   \   000004F8   E020               LDI     R18, 0
   \   000004FA   ........           CALL    ??SetActivityState
    345          //            CPss21::BoardWindowsUpdate();
    346                      SetFsmState(ACTIVE_STATE_WAITING);
   \   000004FE   E021               LDI     R18, 1
   \   00000500   018D               MOVW    R17:R16, R27:R26
   \   00000502   ........           CALL    ??SetFsmState
    347                  }
    348                  break;
    349          
    350              default:
    351                  break;
    352              }
    353          }
   \                     ??Fsm_32:
   \   00000506   E0E4               LDI     R30, 4
   \   00000508   ........           JMP     ?EPILOGUE_B4_L09
    354          //-----------------------------------------------------------------------------------------------------
    355          
    356          
    357          
    358          
    359          
    360          
    361          
    362          
    363          //-----------------------------------------------------------------------------------------------------

   \                                 In  segment CODE, align 2, keep-with-next
    364          CNormalAlarmDfa::CNormalAlarmDfa()
   \                     ??CNormalAlarmDfa:
   \   00000000   93BA               ST      -Y, R27
   \   00000002   93AA               ST      -Y, R26
   \   00000004   01D8               MOVW    R27:R26, R17:R16
    365          {
   \   00000006   018D               MOVW    R17:R16, R27:R26
   \   00000008   ....               RCALL   ??CAlarmDfa
   \   0000000A   ....               LDI     R16, LOW(??__vtbl_2)
   \   0000000C   ....               LDI     R17, (??__vtbl_2) >> 8
   \   0000000E   01FD               MOVW    R31:R30, R27:R26
   \   00000010   8301               STD     Z+1, R16
   \   00000012   8312               STD     Z+2, R17
    366              SetFsmState(START);
   \   00000014   E020               LDI     R18, 0
   \   00000016   018D               MOVW    R17:R16, R27:R26
   \   00000018   ........           CALL    ??SetFsmState
    367          }
   \   0000001C   018D               MOVW    R17:R16, R27:R26
   \   0000001E   91A9               LD      R26, Y+
   \   00000020   91B9               LD      R27, Y+
   \   00000022   9508               RET
    368          
    369          //-----------------------------------------------------------------------------------------------------

   \                                 In  segment CODE, align 2, keep-with-next
    370          CNormalAlarmDfa::~CNormalAlarmDfa()
   \                     `?~CNormalAlarmDfa`:
    371          {
   \   00000000   ........           CALL    ?PROLOGUE4_L09
   \   00000004   01C8               MOVW    R25:R24, R17:R16
   \   00000006   01D9               MOVW    R27:R26, R19:R18
   \   00000008   2F08               MOV     R16, R24
   \   0000000A   2B09               OR      R16, R25
   \   0000000C   F049               BREQ    `?~CNormalAlarmDfa_1`
    372              //dtor
    373          }
   \   0000000E   E020               LDI     R18, 0
   \   00000010   E030               LDI     R19, 0
   \   00000012   018C               MOVW    R17:R16, R25:R24
   \   00000014   ....               RCALL   `?~CAlarmDfa`
   \   00000016   FBA0               BST     R26, 0
   \   00000018   F41E               BRTC    `?~CNormalAlarmDfa_1`
   \   0000001A   018C               MOVW    R17:R16, R25:R24
   \   0000001C   ........           CALL    `??operator delete`
   \                     `?~CNormalAlarmDfa_1`:
   \   00000020   E0E4               LDI     R30, 4
   \   00000022   ........           JMP     ?EPILOGUE_B4_L09
    374          
    375          //-----------------------------------------------------------------------------------------------------
    376          
    377          
    378          
    379          
    380          
    381          
    382          
    383          
    384          //-----------------------------------------------------------------------------------------------------

   \                                 In  segment CODE, align 2, keep-with-next
    385          CPreventiveAlarmLowLevelDfa::CPreventiveAlarmLowLevelDfa()
   \                     ??CPreventiveAlarmLowLevelDfa:
   \   00000000   93BA               ST      -Y, R27
   \   00000002   93AA               ST      -Y, R26
   \   00000004   01D8               MOVW    R27:R26, R17:R16
    386          {
   \   00000006   018D               MOVW    R17:R16, R27:R26
   \   00000008   ....               RCALL   ??CAlarmDfa
   \   0000000A   ....               LDI     R16, LOW(??__vtbl_3)
   \   0000000C   ....               LDI     R17, (??__vtbl_3) >> 8
   \   0000000E   01FD               MOVW    R31:R30, R27:R26
   \   00000010   8301               STD     Z+1, R16
   \   00000012   8312               STD     Z+2, R17
    387              SetFsmState(ACTIVE_STATE_WAITING);
   \   00000014   E021               LDI     R18, 1
   \   00000016   018D               MOVW    R17:R16, R27:R26
   \   00000018   ........           CALL    ??SetFsmState
    388          }
   \   0000001C   018D               MOVW    R17:R16, R27:R26
   \   0000001E   91A9               LD      R26, Y+
   \   00000020   91B9               LD      R27, Y+
   \   00000022   9508               RET
    389          
    390          //-----------------------------------------------------------------------------------------------------

   \                                 In  segment CODE, align 2, keep-with-next
    391          CPreventiveAlarmLowLevelDfa::~CPreventiveAlarmLowLevelDfa()
   \                     `?~CPreventiveAlarmLowLevelDfa`:
    392          {
   \   00000000   ........           CALL    ?PROLOGUE4_L09
   \   00000004   01C8               MOVW    R25:R24, R17:R16
   \   00000006   01D9               MOVW    R27:R26, R19:R18
   \   00000008   2F08               MOV     R16, R24
   \   0000000A   2B09               OR      R16, R25
   \   0000000C   F049               BREQ    `?~CPreventiveAlarmLowLevelDfa_1`
    393              //dtor
    394          }
   \   0000000E   E020               LDI     R18, 0
   \   00000010   E030               LDI     R19, 0
   \   00000012   018C               MOVW    R17:R16, R25:R24
   \   00000014   ....               RCALL   `?~CAlarmDfa`
   \   00000016   FBA0               BST     R26, 0
   \   00000018   F41E               BRTC    `?~CPreventiveAlarmLowLevelDfa_1`
   \   0000001A   018C               MOVW    R17:R16, R25:R24
   \   0000001C   ........           CALL    `??operator delete`
   \                     `?~CPreventiveAlarmLowLevelDfa_1`:
   \   00000020   E0E4               LDI     R30, 4
   \   00000022   ........           JMP     ?EPILOGUE_B4_L09
    395          
    396          //-----------------------------------------------------------------------------------------------------

   \                                 In  segment CODE, align 2, keep-with-next
    397          CPreventiveAlarmHighLevelDfa::CPreventiveAlarmHighLevelDfa()
   \                     ??CPreventiveAlarmHighLevelDfa:
   \   00000000   93BA               ST      -Y, R27
   \   00000002   93AA               ST      -Y, R26
   \   00000004   01D8               MOVW    R27:R26, R17:R16
    398          {
   \   00000006   018D               MOVW    R17:R16, R27:R26
   \   00000008   ....               RCALL   ??CAlarmDfa
   \   0000000A   ....               LDI     R16, LOW(??__vtbl_4)
   \   0000000C   ....               LDI     R17, (??__vtbl_4) >> 8
   \   0000000E   01FD               MOVW    R31:R30, R27:R26
   \   00000010   8301               STD     Z+1, R16
   \   00000012   8312               STD     Z+2, R17
    399              SetFsmState(ACTIVE_STATE_WAITING);
   \   00000014   E021               LDI     R18, 1
   \   00000016   018D               MOVW    R17:R16, R27:R26
   \   00000018   ........           CALL    ??SetFsmState
    400          }
   \   0000001C   018D               MOVW    R17:R16, R27:R26
   \   0000001E   91A9               LD      R26, Y+
   \   00000020   91B9               LD      R27, Y+
   \   00000022   9508               RET
    401          
    402          //-----------------------------------------------------------------------------------------------------

   \                                 In  segment CODE, align 2, keep-with-next
    403          CPreventiveAlarmHighLevelDfa::~CPreventiveAlarmHighLevelDfa()
   \                     `?~CPreventiveAlarmHighLevelDfa`:
    404          {
   \   00000000   ........           CALL    ?PROLOGUE4_L09
   \   00000004   01C8               MOVW    R25:R24, R17:R16
   \   00000006   01D9               MOVW    R27:R26, R19:R18
   \   00000008   2F08               MOV     R16, R24
   \   0000000A   2B09               OR      R16, R25
   \   0000000C   F049               BREQ    `?~CPreventiveAlarmHighLevelDfa_1`
    405              //dtor
    406          }
   \   0000000E   E020               LDI     R18, 0
   \   00000010   E030               LDI     R19, 0
   \   00000012   018C               MOVW    R17:R16, R25:R24
   \   00000014   ....               RCALL   `?~CAlarmDfa`
   \   00000016   FBA0               BST     R26, 0
   \   00000018   F41E               BRTC    `?~CPreventiveAlarmHighLevelDfa_1`
   \   0000001A   018C               MOVW    R17:R16, R25:R24
   \   0000001C   ........           CALL    `??operator delete`
   \                     `?~CPreventiveAlarmHighLevelDfa_1`:
   \   00000020   E0E4               LDI     R30, 4
   \   00000022   ........           JMP     ?EPILOGUE_B4_L09
    407          
    408          //-----------------------------------------------------------------------------------------------------

   \                                 In  segment CODE, align 2, keep-with-next
    409          CPreventiveAlarmLowLevelNamurDfa::CPreventiveAlarmLowLevelNamurDfa()
   \                     ??CPreventiveAlarmLowLevelNamurDfa:
   \   00000000   93BA               ST      -Y, R27
   \   00000002   93AA               ST      -Y, R26
   \   00000004   01D8               MOVW    R27:R26, R17:R16
    410          {
   \   00000006   018D               MOVW    R17:R16, R27:R26
   \   00000008   ....               RCALL   ??CAlarmDfa
   \   0000000A   ....               LDI     R16, LOW(??__vtbl_5)
   \   0000000C   ....               LDI     R17, (??__vtbl_5) >> 8
   \   0000000E   01FD               MOVW    R31:R30, R27:R26
   \   00000010   8301               STD     Z+1, R16
   \   00000012   8312               STD     Z+2, R17
    411              SetFsmState(ACTIVE_STATE_WAITING);
   \   00000014   E021               LDI     R18, 1
   \   00000016   018D               MOVW    R17:R16, R27:R26
   \   00000018   ........           CALL    ??SetFsmState
    412          }
   \   0000001C   018D               MOVW    R17:R16, R27:R26
   \   0000001E   91A9               LD      R26, Y+
   \   00000020   91B9               LD      R27, Y+
   \   00000022   9508               RET
    413          
    414          //-----------------------------------------------------------------------------------------------------

   \                                 In  segment CODE, align 2, keep-with-next
    415          CPreventiveAlarmLowLevelNamurDfa::~CPreventiveAlarmLowLevelNamurDfa()
   \                     `?~CPreventiveAlarmLowLevelNamurDfa`:
    416          {
   \   00000000   ........           CALL    ?PROLOGUE4_L09
   \   00000004   01C8               MOVW    R25:R24, R17:R16
   \   00000006   01D9               MOVW    R27:R26, R19:R18
   \   00000008   2F08               MOV     R16, R24
   \   0000000A   2B09               OR      R16, R25
   \   0000000C   F049               BREQ    `?~CPreventiveAlarmLowLevelNamurDfa_1`
    417              //dtor
    418          }
   \   0000000E   E020               LDI     R18, 0
   \   00000010   E030               LDI     R19, 0
   \   00000012   018C               MOVW    R17:R16, R25:R24
   \   00000014   ....               RCALL   `?~CAlarmDfa`
   \   00000016   FBA0               BST     R26, 0
   \   00000018   F41E               BRTC    `?~CPreventiveAlarmLowLevelNamurDfa_1`
   \   0000001A   018C               MOVW    R17:R16, R25:R24
   \   0000001C   ........           CALL    `??operator delete`
   \                     `?~CPreventiveAlarmLowLevelNamurDfa_1`:
   \   00000020   E0E4               LDI     R30, 4
   \   00000022   ........           JMP     ?EPILOGUE_B4_L09
    419          
    420          //-----------------------------------------------------------------------------------------------------

   \                                 In  segment CODE, align 2, keep-with-next
    421          CPreventiveAlarmHighLevelNamurDfa::CPreventiveAlarmHighLevelNamurDfa()
   \                     ??CPreventiveAlarmHighLevelNamurDfa:
   \   00000000   93BA               ST      -Y, R27
   \   00000002   93AA               ST      -Y, R26
   \   00000004   01D8               MOVW    R27:R26, R17:R16
    422          {
   \   00000006   018D               MOVW    R17:R16, R27:R26
   \   00000008   ....               RCALL   ??CAlarmDfa
   \   0000000A   ....               LDI     R16, LOW(??__vtbl_6)
   \   0000000C   ....               LDI     R17, (??__vtbl_6) >> 8
   \   0000000E   01FD               MOVW    R31:R30, R27:R26
   \   00000010   8301               STD     Z+1, R16
   \   00000012   8312               STD     Z+2, R17
    423              SetFsmState(ACTIVE_STATE_WAITING);
   \   00000014   E021               LDI     R18, 1
   \   00000016   018D               MOVW    R17:R16, R27:R26
   \   00000018   ........           CALL    ??SetFsmState
    424          }
   \   0000001C   018D               MOVW    R17:R16, R27:R26
   \   0000001E   91A9               LD      R26, Y+
   \   00000020   91B9               LD      R27, Y+
   \   00000022   9508               RET
    425          
    426          //-----------------------------------------------------------------------------------------------------

   \                                 In  segment CODE, align 2, keep-with-next
    427          CPreventiveAlarmHighLevelNamurDfa::~CPreventiveAlarmHighLevelNamurDfa()
   \                     `?~CPreventiveAlarmHighLevelNamurDfa`:
    428          {
   \   00000000   ........           CALL    ?PROLOGUE4_L09
   \   00000004   01C8               MOVW    R25:R24, R17:R16
   \   00000006   01D9               MOVW    R27:R26, R19:R18
   \   00000008   2F08               MOV     R16, R24
   \   0000000A   2B09               OR      R16, R25
   \   0000000C   F049               BREQ    `?~CPreventiveAlarmHighLevelNamurDfa_1`
    429              //dtor
    430          }
   \   0000000E   E020               LDI     R18, 0
   \   00000010   E030               LDI     R19, 0
   \   00000012   018C               MOVW    R17:R16, R25:R24
   \   00000014   ....               RCALL   `?~CAlarmDfa`
   \   00000016   FBA0               BST     R26, 0
   \   00000018   F41E               BRTC    `?~CPreventiveAlarmHighLevelNamurDfa_1`
   \   0000001A   018C               MOVW    R17:R16, R25:R24
   \   0000001C   ........           CALL    `??operator delete`
   \                     `?~CPreventiveAlarmHighLevelNamurDfa_1`:
   \   00000020   E0E4               LDI     R30, 4
   \   00000022   ........           JMP     ?EPILOGUE_B4_L09
    431          //-----------------------------------------------------------------------------------------------------
    432          
    433          
    434          
    435          
    436          
    437          
    438          
    439          //-----------------------------------------------------------------------------------------------------

   \                                 In  segment CODE, align 2, keep-with-next
    440          CEmergencyAlarmLowLevelDfa::CEmergencyAlarmLowLevelDfa()
   \                     ??CEmergencyAlarmLowLevelDfa:
   \   00000000   93BA               ST      -Y, R27
   \   00000002   93AA               ST      -Y, R26
   \   00000004   01D8               MOVW    R27:R26, R17:R16
    441          {
   \   00000006   018D               MOVW    R17:R16, R27:R26
   \   00000008   ....               RCALL   ??CAlarmDfa
   \   0000000A   ....               LDI     R16, LOW(??__vtbl_7)
   \   0000000C   ....               LDI     R17, (??__vtbl_7) >> 8
   \   0000000E   01FD               MOVW    R31:R30, R27:R26
   \   00000010   8301               STD     Z+1, R16
   \   00000012   8312               STD     Z+2, R17
    442              SetFsmState(ACTIVE_STATE_WAITING);
   \   00000014   E021               LDI     R18, 1
   \   00000016   018D               MOVW    R17:R16, R27:R26
   \   00000018   ........           CALL    ??SetFsmState
    443          }
   \   0000001C   018D               MOVW    R17:R16, R27:R26
   \   0000001E   91A9               LD      R26, Y+
   \   00000020   91B9               LD      R27, Y+
   \   00000022   9508               RET
    444          
    445          //-----------------------------------------------------------------------------------------------------

   \                                 In  segment CODE, align 2, keep-with-next
    446          CEmergencyAlarmLowLevelDfa::~CEmergencyAlarmLowLevelDfa()
   \                     `?~CEmergencyAlarmLowLevelDfa`:
    447          {
   \   00000000   ........           CALL    ?PROLOGUE4_L09
   \   00000004   01C8               MOVW    R25:R24, R17:R16
   \   00000006   01D9               MOVW    R27:R26, R19:R18
   \   00000008   2F08               MOV     R16, R24
   \   0000000A   2B09               OR      R16, R25
   \   0000000C   F049               BREQ    `?~CEmergencyAlarmLowLevelDfa_1`
    448              //dtor
    449          }
   \   0000000E   E020               LDI     R18, 0
   \   00000010   E030               LDI     R19, 0
   \   00000012   018C               MOVW    R17:R16, R25:R24
   \   00000014   ....               RCALL   `?~CAlarmDfa`
   \   00000016   FBA0               BST     R26, 0
   \   00000018   F41E               BRTC    `?~CEmergencyAlarmLowLevelDfa_1`
   \   0000001A   018C               MOVW    R17:R16, R25:R24
   \   0000001C   ........           CALL    `??operator delete`
   \                     `?~CEmergencyAlarmLowLevelDfa_1`:
   \   00000020   E0E4               LDI     R30, 4
   \   00000022   ........           JMP     ?EPILOGUE_B4_L09
    450          
    451          //-----------------------------------------------------------------------------------------------------

   \                                 In  segment CODE, align 2, keep-with-next
    452          CEmergencyAlarmHighLevelDfa::CEmergencyAlarmHighLevelDfa()
   \                     ??CEmergencyAlarmHighLevelDfa:
   \   00000000   93BA               ST      -Y, R27
   \   00000002   93AA               ST      -Y, R26
   \   00000004   01D8               MOVW    R27:R26, R17:R16
    453          {
   \   00000006   018D               MOVW    R17:R16, R27:R26
   \   00000008   ....               RCALL   ??CAlarmDfa
   \   0000000A   ....               LDI     R16, LOW(??__vtbl_8)
   \   0000000C   ....               LDI     R17, (??__vtbl_8) >> 8
   \   0000000E   01FD               MOVW    R31:R30, R27:R26
   \   00000010   8301               STD     Z+1, R16
   \   00000012   8312               STD     Z+2, R17
    454              SetFsmState(ACTIVE_STATE_WAITING);
   \   00000014   E021               LDI     R18, 1
   \   00000016   018D               MOVW    R17:R16, R27:R26
   \   00000018   ........           CALL    ??SetFsmState
    455          }
   \   0000001C   018D               MOVW    R17:R16, R27:R26
   \   0000001E   91A9               LD      R26, Y+
   \   00000020   91B9               LD      R27, Y+
   \   00000022   9508               RET
    456          
    457          //-----------------------------------------------------------------------------------------------------

   \                                 In  segment CODE, align 2, keep-with-next
    458          CEmergencyAlarmHighLevelDfa::~CEmergencyAlarmHighLevelDfa()
   \                     `?~CEmergencyAlarmHighLevelDfa`:
    459          {
   \   00000000   ........           CALL    ?PROLOGUE4_L09
   \   00000004   01C8               MOVW    R25:R24, R17:R16
   \   00000006   01D9               MOVW    R27:R26, R19:R18
   \   00000008   2F08               MOV     R16, R24
   \   0000000A   2B09               OR      R16, R25
   \   0000000C   F049               BREQ    `?~CEmergencyAlarmHighLevelDfa_1`
    460              //dtor
    461          }
   \   0000000E   E020               LDI     R18, 0
   \   00000010   E030               LDI     R19, 0
   \   00000012   018C               MOVW    R17:R16, R25:R24
   \   00000014   ....               RCALL   `?~CAlarmDfa`
   \   00000016   FBA0               BST     R26, 0
   \   00000018   F41E               BRTC    `?~CEmergencyAlarmHighLevelDfa_1`
   \   0000001A   018C               MOVW    R17:R16, R25:R24
   \   0000001C   ........           CALL    `??operator delete`
   \                     `?~CEmergencyAlarmHighLevelDfa_1`:
   \   00000020   E0E4               LDI     R30, 4
   \   00000022   ........           JMP     ?EPILOGUE_B4_L09
    462          
    463          
    464          //-----------------------------------------------------------------------------------------------------

   \                                 In  segment CODE, align 2, keep-with-next
    465          CEmergencyAlarmLowLevelNamurDfa::CEmergencyAlarmLowLevelNamurDfa()
   \                     ??CEmergencyAlarmLowLevelNamurDfa:
   \   00000000   93BA               ST      -Y, R27
   \   00000002   93AA               ST      -Y, R26
   \   00000004   01D8               MOVW    R27:R26, R17:R16
    466          {
   \   00000006   018D               MOVW    R17:R16, R27:R26
   \   00000008   ....               RCALL   ??CAlarmDfa
   \   0000000A   ....               LDI     R16, LOW(??__vtbl_9)
   \   0000000C   ....               LDI     R17, (??__vtbl_9) >> 8
   \   0000000E   01FD               MOVW    R31:R30, R27:R26
   \   00000010   8301               STD     Z+1, R16
   \   00000012   8312               STD     Z+2, R17
    467              SetFsmState(ACTIVE_STATE_WAITING);
   \   00000014   E021               LDI     R18, 1
   \   00000016   018D               MOVW    R17:R16, R27:R26
   \   00000018   ........           CALL    ??SetFsmState
    468          }
   \   0000001C   018D               MOVW    R17:R16, R27:R26
   \   0000001E   91A9               LD      R26, Y+
   \   00000020   91B9               LD      R27, Y+
   \   00000022   9508               RET
    469          
    470          //-----------------------------------------------------------------------------------------------------

   \                                 In  segment CODE, align 2, keep-with-next
    471          CEmergencyAlarmLowLevelNamurDfa::~CEmergencyAlarmLowLevelNamurDfa()
   \                     `?~CEmergencyAlarmLowLevelNamurDfa`:
    472          {
   \   00000000   ........           CALL    ?PROLOGUE4_L09
   \   00000004   01C8               MOVW    R25:R24, R17:R16
   \   00000006   01D9               MOVW    R27:R26, R19:R18
   \   00000008   2F08               MOV     R16, R24
   \   0000000A   2B09               OR      R16, R25
   \   0000000C   F049               BREQ    `?~CEmergencyAlarmLowLevelNamurDfa_1`
    473              //dtor
    474          }
   \   0000000E   E020               LDI     R18, 0
   \   00000010   E030               LDI     R19, 0
   \   00000012   018C               MOVW    R17:R16, R25:R24
   \   00000014   ....               RCALL   `?~CAlarmDfa`
   \   00000016   FBA0               BST     R26, 0
   \   00000018   F41E               BRTC    `?~CEmergencyAlarmLowLevelNamurDfa_1`
   \   0000001A   018C               MOVW    R17:R16, R25:R24
   \   0000001C   ........           CALL    `??operator delete`
   \                     `?~CEmergencyAlarmLowLevelNamurDfa_1`:
   \   00000020   E0E4               LDI     R30, 4
   \   00000022   ........           JMP     ?EPILOGUE_B4_L09
    475          
    476          //-----------------------------------------------------------------------------------------------------

   \                                 In  segment CODE, align 2, keep-with-next
    477          CEmergencyAlarmHighLevelNamurDfa::CEmergencyAlarmHighLevelNamurDfa()
   \                     ??CEmergencyAlarmHighLevelNamurDfa:
   \   00000000   93BA               ST      -Y, R27
   \   00000002   93AA               ST      -Y, R26
   \   00000004   01D8               MOVW    R27:R26, R17:R16
    478          {
   \   00000006   018D               MOVW    R17:R16, R27:R26
   \   00000008   ....               RCALL   ??CAlarmDfa
   \   0000000A   ....               LDI     R16, LOW(??__vtbl_10)
   \   0000000C   ....               LDI     R17, (??__vtbl_10) >> 8
   \   0000000E   01FD               MOVW    R31:R30, R27:R26
   \   00000010   8301               STD     Z+1, R16
   \   00000012   8312               STD     Z+2, R17
    479              SetFsmState(ACTIVE_STATE_WAITING);
   \   00000014   E021               LDI     R18, 1
   \   00000016   018D               MOVW    R17:R16, R27:R26
   \   00000018   ........           CALL    ??SetFsmState
    480          }
   \   0000001C   018D               MOVW    R17:R16, R27:R26
   \   0000001E   91A9               LD      R26, Y+
   \   00000020   91B9               LD      R27, Y+
   \   00000022   9508               RET
    481          
    482          //-----------------------------------------------------------------------------------------------------

   \                                 In  segment CODE, align 2, keep-with-next
    483          CEmergencyAlarmHighLevelNamurDfa::~CEmergencyAlarmHighLevelNamurDfa()
   \                     `?~CEmergencyAlarmHighLevelNamurDfa`:
    484          {
   \   00000000   ........           CALL    ?PROLOGUE4_L09
   \   00000004   01C8               MOVW    R25:R24, R17:R16
   \   00000006   01D9               MOVW    R27:R26, R19:R18
   \   00000008   2F08               MOV     R16, R24
   \   0000000A   2B09               OR      R16, R25
   \   0000000C   F049               BREQ    `?~CEmergencyAlarmHighLevelNamurDfa_1`
    485              //dtor
    486          }
   \   0000000E   E020               LDI     R18, 0
   \   00000010   E030               LDI     R19, 0
   \   00000012   018C               MOVW    R17:R16, R25:R24
   \   00000014   ....               RCALL   `?~CAlarmDfa`
   \   00000016   FBA0               BST     R26, 0
   \   00000018   F41E               BRTC    `?~CEmergencyAlarmHighLevelNamurDfa_1`
   \   0000001A   018C               MOVW    R17:R16, R25:R24
   \   0000001C   ........           CALL    `??operator delete`
   \                     `?~CEmergencyAlarmHighLevelNamurDfa_1`:
   \   00000020   E0E4               LDI     R30, 4
   \   00000022   ........           JMP     ?EPILOGUE_B4_L09
    487          //-----------------------------------------------------------------------------------------------------
    488          
    489          
    490          
    491          
    492          
    493          
    494          
    495          
    496          //-----------------------------------------------------------------------------------------------------

   \                                 In  segment CODE, align 2, keep-with-next
    497          CIndicationAlarmLowLevelDfa::CIndicationAlarmLowLevelDfa()
   \                     ??CIndicationAlarmLowLevelDfa:
   \   00000000   93BA               ST      -Y, R27
   \   00000002   93AA               ST      -Y, R26
   \   00000004   01D8               MOVW    R27:R26, R17:R16
    498          {
   \   00000006   018D               MOVW    R17:R16, R27:R26
   \   00000008   ....               RCALL   ??CAlarmDfa
   \   0000000A   ....               LDI     R16, LOW(??__vtbl_11)
   \   0000000C   ....               LDI     R17, (??__vtbl_11) >> 8
   \   0000000E   01FD               MOVW    R31:R30, R27:R26
   \   00000010   8301               STD     Z+1, R16
   \   00000012   8312               STD     Z+2, R17
    499              SetFsmState(ACTIVE_STATE_WAITING);
   \   00000014   E021               LDI     R18, 1
   \   00000016   018D               MOVW    R17:R16, R27:R26
   \   00000018   ........           CALL    ??SetFsmState
    500          }
   \   0000001C   018D               MOVW    R17:R16, R27:R26
   \   0000001E   91A9               LD      R26, Y+
   \   00000020   91B9               LD      R27, Y+
   \   00000022   9508               RET
    501          
    502          //-----------------------------------------------------------------------------------------------------

   \                                 In  segment CODE, align 2, keep-with-next
    503          CIndicationAlarmLowLevelDfa::~CIndicationAlarmLowLevelDfa()
   \                     `?~CIndicationAlarmLowLevelDfa`:
    504          {
   \   00000000   ........           CALL    ?PROLOGUE4_L09
   \   00000004   01C8               MOVW    R25:R24, R17:R16
   \   00000006   01D9               MOVW    R27:R26, R19:R18
   \   00000008   2F08               MOV     R16, R24
   \   0000000A   2B09               OR      R16, R25
   \   0000000C   F049               BREQ    `?~CIndicationAlarmLowLevelDfa_1`
    505              //dtor
    506          }
   \   0000000E   E020               LDI     R18, 0
   \   00000010   E030               LDI     R19, 0
   \   00000012   018C               MOVW    R17:R16, R25:R24
   \   00000014   ....               RCALL   `?~CAlarmDfa`
   \   00000016   FBA0               BST     R26, 0
   \   00000018   F41E               BRTC    `?~CIndicationAlarmLowLevelDfa_1`
   \   0000001A   018C               MOVW    R17:R16, R25:R24
   \   0000001C   ........           CALL    `??operator delete`
   \                     `?~CIndicationAlarmLowLevelDfa_1`:
   \   00000020   E0E4               LDI     R30, 4
   \   00000022   ........           JMP     ?EPILOGUE_B4_L09
    507          
    508          //-----------------------------------------------------------------------------------------------------
    509          // Автомат обработки сигнализации дискретного сигнала.

   \                                 In  segment CODE, align 2, keep-with-next
    510          void CIndicationAlarmLowLevelDfa::Fsm(void)
   \                     ??Fsm_1:
    511          {
   \   00000000   ........           CALL    ?PROLOGUE4_L09
   \   00000004   01D8               MOVW    R27:R26, R17:R16
    512              uint8_t uiDiscreteSignalState = DISCRETE_SIGNAL_IS_INVALID;
   \   00000006   E083               LDI     R24, 3
    513          
    514              // дискретный вход недостоверен?
    515              if ((CPss21::GetDiscreteInputsBadState(GetDiscreteStateIndex()) & 0x07) == INPUT_IS_INVALID)
   \   00000008   018D               MOVW    R17:R16, R27:R26
   \   0000000A   ........           CALL    ??GetDiscreteStateIndex
   \   0000000E   ........           CALL    ??GetDiscreteInputsBadState
   \   00000012   7007               ANDI    R16, 0x07
   \   00000014   3004               CPI     R16, 4
   \   00000016   F411               BRNE    ??Fsm_61
    516              {
    517                  uiDiscreteSignalState = DISCRETE_SIGNAL_IS_INVALID;
   \   00000018   E083               LDI     R24, 3
   \   0000001A   C0CA               RJMP    ??Fsm_62
    518              }
    519              else
    520              {
    521                  // тип текущего дискретного сигнала namur?
    522                  if (IS_NAMUR_ON())
   \                     ??Fsm_61:
   \   0000001C   018D               MOVW    R17:R16, R27:R26
   \   0000001E   01FD               MOVW    R31:R30, R27:R26
   \   00000020   8121               LDD     R18, Z+1
   \   00000022   8132               LDD     R19, Z+2
   \   00000024   01F9               MOVW    R31:R30, R19:R18
   \   00000026   9638               ADIW    R31:R30, 8
   \   00000028   9125               LPM     R18, Z+
   \   0000002A   9134               LPM     R19, Z
   \   0000002C   9739               SBIW    R31:R30, 9
   \   0000002E   01F9               MOVW    R31:R30, R19:R18
   \   00000030   9509               ICALL
   \   00000032   2300               TST     R16
   \   00000034   F011               BREQ    ??Fsm_63
   \   00000036   E001               LDI     R16, 1
   \   00000038   C001               RJMP    ??Fsm_64
   \                     ??Fsm_63:
   \   0000003A   E000               LDI     R16, 0
   \                     ??Fsm_64:
   \   0000003C   2300               TST     R16
   \   0000003E   F409               BRNE    $+2+2
   \   00000040   C060               RJMP    ??Fsm_65
    523                  {
    524                      switch (CPss21::GetDiscreteInputsBadState(GetDiscreteStateIndex()))
   \   00000042   018D               MOVW    R17:R16, R27:R26
   \   00000044   ........           CALL    ??GetDiscreteStateIndex
   \   00000048   ........           CALL    ??GetDiscreteInputsBadState
   \   0000004C   5000               SUBI    R16, 0
   \   0000004E   F049               BREQ    ??Fsm_66
   \   00000050   950A               DEC     R16
   \   00000052   F039               BREQ    ??Fsm_66
   \   00000054   950A               DEC     R16
   \   00000056   F409               BRNE    $+2+2
   \   00000058   C04C               RJMP    ??Fsm_67
   \   0000005A   950A               DEC     R16
   \   0000005C   F409               BRNE    $+2+2
   \   0000005E   C049               RJMP    ??Fsm_67
   \   00000060   C0A7               RJMP    ??Fsm_62
    525                      {
    526                      case OFF:
    527                      case ON:
    528                          // Дискретный сигнал активен?
    529                          // уровень сигналы типа "NAMUR" определяем по состояниям дискретного входа:
    530          //	- состояния "0" (OFF) - "РАЗОМКНУТО"
    531          //	- состояния "1" (ON) - "ЗАМКНУТО"
    532                          if ((CPss21::GetDiscreteInputsBadState(GetDiscreteStateIndex()) & 0x03) == OFF)
   \                     ??Fsm_66:
   \   00000062   018D               MOVW    R17:R16, R27:R26
   \   00000064   ........           CALL    ??GetDiscreteStateIndex
   \   00000068   ........           CALL    ??GetDiscreteInputsBadState
   \   0000006C   7003               ANDI    R16, 0x03
   \   0000006E   2300               TST     R16
   \   00000070   F4E1               BRNE    ??Fsm_68
    533                          {
    534                              // установим значение текущего дискретного входа отображаемое в пространстве модбас
    535                              // интерпретированное с учетом условия активности.
    536                              CPss21::SetDiscreteInputState(GetDiscreteStateIndex(), 0);
   \   00000072   018D               MOVW    R17:R16, R27:R26
   \   00000074   ........           CALL    ??GetDiscreteStateIndex
   \   00000078   E010               LDI     R17, 0
   \   0000007A   ........           CALL    ??SetDiscreteInputState
    537          
    538                              if (ACTIVE_LEVEL())
   \   0000007E   018D               MOVW    R17:R16, R27:R26
   \   00000080   01FD               MOVW    R31:R30, R27:R26
   \   00000082   8121               LDD     R18, Z+1
   \   00000084   8132               LDD     R19, Z+2
   \   00000086   01F9               MOVW    R31:R30, R19:R18
   \   00000088   9636               ADIW    R31:R30, 6
   \   0000008A   9125               LPM     R18, Z+
   \   0000008C   9134               LPM     R19, Z
   \   0000008E   9737               SBIW    R31:R30, 7
   \   00000090   01F9               MOVW    R31:R30, R19:R18
   \   00000092   9509               ICALL
   \   00000094   2300               TST     R16
   \   00000096   F011               BREQ    ??Fsm_69
   \   00000098   E001               LDI     R16, 1
   \   0000009A   C001               RJMP    ??Fsm_70
   \                     ??Fsm_69:
   \   0000009C   E000               LDI     R16, 0
   \                     ??Fsm_70:
   \   0000009E   2300               TST     R16
   \   000000A0   F011               BREQ    ??Fsm_71
    539                              {
    540                                  uiDiscreteSignalState = DISCRETE_SIGNAL_IS_ACTIVE;
   \   000000A2   E081               LDI     R24, 1
   \   000000A4   C085               RJMP    ??Fsm_62
    541                              }
    542                              else
    543                              {
    544                                  uiDiscreteSignalState = DISCRETE_SIGNAL_IS_NOT_ACTIVE;
   \                     ??Fsm_71:
   \   000000A6   E080               LDI     R24, 0
   \   000000A8   C083               RJMP    ??Fsm_62
    545                              }
    546                          }
    547                          else if ((CPss21::GetDiscreteInputsBadState(GetDiscreteStateIndex()) & 0x03) == ON)
   \                     ??Fsm_68:
   \   000000AA   018D               MOVW    R17:R16, R27:R26
   \   000000AC   ........           CALL    ??GetDiscreteStateIndex
   \   000000B0   ........           CALL    ??GetDiscreteInputsBadState
   \   000000B4   7003               ANDI    R16, 0x03
   \   000000B6   3001               CPI     R16, 1
   \   000000B8   F4D9               BRNE    ??Fsm_72
    548                          {
    549                              // установим значение текущего дискретного входа отображаемое в пространстве модбас
    550                              // интерпретированное с учетом условия активности.
    551                              CPss21::SetDiscreteInputState(GetDiscreteStateIndex(), 1);
   \   000000BA   018D               MOVW    R17:R16, R27:R26
   \   000000BC   ........           CALL    ??GetDiscreteStateIndex
   \   000000C0   E011               LDI     R17, 1
   \   000000C2   ........           CALL    ??SetDiscreteInputState
    552          
    553                              if (ACTIVE_LEVEL())
   \   000000C6   018D               MOVW    R17:R16, R27:R26
   \   000000C8   01FD               MOVW    R31:R30, R27:R26
   \   000000CA   8121               LDD     R18, Z+1
   \   000000CC   8132               LDD     R19, Z+2
   \   000000CE   01F9               MOVW    R31:R30, R19:R18
   \   000000D0   9636               ADIW    R31:R30, 6
   \   000000D2   9125               LPM     R18, Z+
   \   000000D4   9134               LPM     R19, Z
   \   000000D6   9737               SBIW    R31:R30, 7
   \   000000D8   01F9               MOVW    R31:R30, R19:R18
   \   000000DA   9509               ICALL
   \   000000DC   2300               TST     R16
   \   000000DE   F011               BREQ    ??Fsm_73
   \   000000E0   E001               LDI     R16, 1
   \   000000E2   C001               RJMP    ??Fsm_74
   \                     ??Fsm_73:
   \   000000E4   E000               LDI     R16, 0
   \                     ??Fsm_74:
   \   000000E6   2300               TST     R16
   \   000000E8   F011               BREQ    ??Fsm_75
    554                              {
    555                                  uiDiscreteSignalState = DISCRETE_SIGNAL_IS_NOT_ACTIVE;
   \   000000EA   E080               LDI     R24, 0
   \   000000EC   C061               RJMP    ??Fsm_62
    556                              }
    557                              else
    558                              {
    559                                  uiDiscreteSignalState = DISCRETE_SIGNAL_IS_ACTIVE;
   \                     ??Fsm_75:
   \   000000EE   E081               LDI     R24, 1
    560                              }
    561                          }
    562                          break;
   \                     ??Fsm_72:
   \   000000F0   C05F               RJMP    ??Fsm_62
    563          
    564                      case WIRE_BREAK:
    565                      case SHORT_CIRCUIT:
    566                          uiDiscreteSignalState = DISCRETE_SIGNAL_IS_NAMUR_ERROR;
   \                     ??Fsm_67:
   \   000000F2   E082               LDI     R24, 2
    567                          // установим значение текущего дискретного входа отображаемое в пространстве модбас
    568                          // интерпретированное с учетом условия активности.
    569                          CPss21::SetDiscreteInputState(GetDiscreteStateIndex(), 0);
   \   000000F4   018D               MOVW    R17:R16, R27:R26
   \   000000F6   ........           CALL    ??GetDiscreteStateIndex
   \   000000FA   E010               LDI     R17, 0
   \   000000FC   ........           CALL    ??SetDiscreteInputState
    570                          break;
   \   00000100   C057               RJMP    ??Fsm_62
    571          
    572                      default:
    573                          break;
    574                      }
    575                  }
    576                  else
    577                  {
    578                      // Дискретный сигнал активен?
    579                      // уровень сигналы типа "СУХОЙ КОНТАКТ" (СК) определяем по состояниям дискретного входа:
    580                      //        1.3. В алгоритме обработки сигналов типа "СУХОЙ КОНТАКТ" (СК) должно быть:
    581          //	- состояния "0" (OFF) и "3" (КЗ) - "ЗАМКНУТО"
    582          //	- состояния "1" (ON) и "2" (ОБРЫВ) - "РАЗОМКНУТО"
    583                      if (((CPss21::GetDiscreteInputsBadState(GetDiscreteStateIndex()) & 0x03) == WIRE_BREAK) ||
    584                              ((CPss21::GetDiscreteInputsBadState(GetDiscreteStateIndex()) & 0x03) == ON))
   \                     ??Fsm_65:
   \   00000102   018D               MOVW    R17:R16, R27:R26
   \   00000104   ........           CALL    ??GetDiscreteStateIndex
   \   00000108   ........           CALL    ??GetDiscreteInputsBadState
   \   0000010C   7003               ANDI    R16, 0x03
   \   0000010E   3002               CPI     R16, 2
   \   00000110   F041               BREQ    ??Fsm_76
   \   00000112   018D               MOVW    R17:R16, R27:R26
   \   00000114   ........           CALL    ??GetDiscreteStateIndex
   \   00000118   ........           CALL    ??GetDiscreteInputsBadState
   \   0000011C   7003               ANDI    R16, 0x03
   \   0000011E   3001               CPI     R16, 1
   \   00000120   F4E1               BRNE    ??Fsm_77
    585                      {
    586                          // установим значение текущего дискретного входа отображаемое в пространстве модбас
    587                          // интерпретированное с учетом условия активности.
    588                          CPss21::SetDiscreteInputState(GetDiscreteStateIndex(), 0);
   \                     ??Fsm_76:
   \   00000122   018D               MOVW    R17:R16, R27:R26
   \   00000124   ........           CALL    ??GetDiscreteStateIndex
   \   00000128   E010               LDI     R17, 0
   \   0000012A   ........           CALL    ??SetDiscreteInputState
    589          
    590                          if (ACTIVE_LEVEL())
   \   0000012E   018D               MOVW    R17:R16, R27:R26
   \   00000130   01FD               MOVW    R31:R30, R27:R26
   \   00000132   8121               LDD     R18, Z+1
   \   00000134   8132               LDD     R19, Z+2
   \   00000136   01F9               MOVW    R31:R30, R19:R18
   \   00000138   9636               ADIW    R31:R30, 6
   \   0000013A   9125               LPM     R18, Z+
   \   0000013C   9134               LPM     R19, Z
   \   0000013E   9737               SBIW    R31:R30, 7
   \   00000140   01F9               MOVW    R31:R30, R19:R18
   \   00000142   9509               ICALL
   \   00000144   2300               TST     R16
   \   00000146   F011               BREQ    ??Fsm_78
   \   00000148   E001               LDI     R16, 1
   \   0000014A   C001               RJMP    ??Fsm_79
   \                     ??Fsm_78:
   \   0000014C   E000               LDI     R16, 0
   \                     ??Fsm_79:
   \   0000014E   2300               TST     R16
   \   00000150   F011               BREQ    ??Fsm_80
    591                          {
    592                              uiDiscreteSignalState = DISCRETE_SIGNAL_IS_ACTIVE;
   \   00000152   E081               LDI     R24, 1
   \   00000154   C02D               RJMP    ??Fsm_62
    593                          }
    594                          else
    595                          {
    596                              uiDiscreteSignalState = DISCRETE_SIGNAL_IS_NOT_ACTIVE;
   \                     ??Fsm_80:
   \   00000156   E080               LDI     R24, 0
   \   00000158   C02B               RJMP    ??Fsm_62
    597                          }
    598                      }
    599                      else if (((CPss21::GetDiscreteInputsBadState(GetDiscreteStateIndex()) & 0x03) == SHORT_CIRCUIT) ||
    600                               ((CPss21::GetDiscreteInputsBadState(GetDiscreteStateIndex()) & 0x03) == OFF))
   \                     ??Fsm_77:
   \   0000015A   018D               MOVW    R17:R16, R27:R26
   \   0000015C   ........           CALL    ??GetDiscreteStateIndex
   \   00000160   ........           CALL    ??GetDiscreteInputsBadState
   \   00000164   7003               ANDI    R16, 0x03
   \   00000166   3003               CPI     R16, 3
   \   00000168   F041               BREQ    ??Fsm_81
   \   0000016A   018D               MOVW    R17:R16, R27:R26
   \   0000016C   ........           CALL    ??GetDiscreteStateIndex
   \   00000170   ........           CALL    ??GetDiscreteInputsBadState
   \   00000174   7003               ANDI    R16, 0x03
   \   00000176   2300               TST     R16
   \   00000178   F4D9               BRNE    ??Fsm_62
    601                      {
    602                          // установим значение текущего дискретного входа отображаемое в пространстве модбас
    603                          // интерпретированное с учетом условия активности.
    604                          CPss21::SetDiscreteInputState(GetDiscreteStateIndex(), 1);
   \                     ??Fsm_81:
   \   0000017A   018D               MOVW    R17:R16, R27:R26
   \   0000017C   ........           CALL    ??GetDiscreteStateIndex
   \   00000180   E011               LDI     R17, 1
   \   00000182   ........           CALL    ??SetDiscreteInputState
    605          
    606                          if (ACTIVE_LEVEL())
   \   00000186   018D               MOVW    R17:R16, R27:R26
   \   00000188   01FD               MOVW    R31:R30, R27:R26
   \   0000018A   8121               LDD     R18, Z+1
   \   0000018C   8132               LDD     R19, Z+2
   \   0000018E   01F9               MOVW    R31:R30, R19:R18
   \   00000190   9636               ADIW    R31:R30, 6
   \   00000192   9125               LPM     R18, Z+
   \   00000194   9134               LPM     R19, Z
   \   00000196   9737               SBIW    R31:R30, 7
   \   00000198   01F9               MOVW    R31:R30, R19:R18
   \   0000019A   9509               ICALL
   \   0000019C   2300               TST     R16
   \   0000019E   F011               BREQ    ??Fsm_82
   \   000001A0   E001               LDI     R16, 1
   \   000001A2   C001               RJMP    ??Fsm_83
   \                     ??Fsm_82:
   \   000001A4   E000               LDI     R16, 0
   \                     ??Fsm_83:
   \   000001A6   2300               TST     R16
   \   000001A8   F011               BREQ    ??Fsm_84
    607                          {
    608                              uiDiscreteSignalState = DISCRETE_SIGNAL_IS_NOT_ACTIVE;
   \   000001AA   E080               LDI     R24, 0
   \   000001AC   C001               RJMP    ??Fsm_62
    609                          }
    610                          else
    611                          {
    612                              uiDiscreteSignalState = DISCRETE_SIGNAL_IS_ACTIVE;
   \                     ??Fsm_84:
   \   000001AE   E081               LDI     R24, 1
    613                          }
    614                      }
    615                  }
    616              }
    617          
    618              switch (GetFsmState())
   \                     ??Fsm_62:
   \   000001B0   018D               MOVW    R17:R16, R27:R26
   \   000001B2   ........           CALL    ??GetFsmState
   \   000001B6   5000               SUBI    R16, 0
   \   000001B8   F061               BREQ    ??Fsm_85
   \   000001BA   950A               DEC     R16
   \   000001BC   F059               BREQ    ??Fsm_86
   \   000001BE   5006               SUBI    R16, 6
   \   000001C0   F409               BRNE    $+2+2
   \   000001C2   C095               RJMP    ??Fsm_87
   \   000001C4   950A               DEC     R16
   \   000001C6   F409               BRNE    $+2+2
   \   000001C8   C0E7               RJMP    ??Fsm_88
   \   000001CA   950A               DEC     R16
   \   000001CC   F409               BRNE    $+2+2
   \   000001CE   C0FD               RJMP    ??Fsm_89
   \   000001D0   C110               RJMP    ??Fsm_90
    619              {
    620              case START:
    621                  break;
   \                     ??Fsm_85:
   \   000001D2   C10F               RJMP    ??Fsm_90
    622          
    623              case ACTIVE_STATE_WAITING:
    624          //        CPss21::m_aucRtuHoldingRegistersArray[0] = CPss21::m_aucDiscreteInputsBadState[0];
    625                  // тип текущего дискретного сигнала namur?
    626                  if (IS_NAMUR_ON())
   \                     ??Fsm_86:
   \   000001D4   018D               MOVW    R17:R16, R27:R26
   \   000001D6   01FD               MOVW    R31:R30, R27:R26
   \   000001D8   8121               LDD     R18, Z+1
   \   000001DA   8132               LDD     R19, Z+2
   \   000001DC   01F9               MOVW    R31:R30, R19:R18
   \   000001DE   9638               ADIW    R31:R30, 8
   \   000001E0   9125               LPM     R18, Z+
   \   000001E2   9134               LPM     R19, Z
   \   000001E4   9739               SBIW    R31:R30, 9
   \   000001E6   01F9               MOVW    R31:R30, R19:R18
   \   000001E8   9509               ICALL
   \   000001EA   2300               TST     R16
   \   000001EC   F011               BREQ    ??Fsm_91
   \   000001EE   E001               LDI     R16, 1
   \   000001F0   C001               RJMP    ??Fsm_92
   \                     ??Fsm_91:
   \   000001F2   E000               LDI     R16, 0
   \                     ??Fsm_92:
   \   000001F4   2300               TST     R16
   \   000001F6   F409               BRNE    $+2+2
   \   000001F8   C041               RJMP    ??Fsm_93
    627                  {
    628                      // Дискретный сигнал NAMUR в обрыве или кз?
    629                      if (uiDiscreteSignalState == DISCRETE_SIGNAL_IS_NAMUR_ERROR)
   \   000001FA   3082               CPI     R24, 2
   \   000001FC   F429               BRNE    ??Fsm_94
    630                      {
    631                          SetFsmState(NAMUR_STATE_ON);
   \   000001FE   E028               LDI     R18, 8
   \   00000200   018D               MOVW    R17:R16, R27:R26
   \   00000202   ........           CALL    ??SetFsmState
   \   00000206   C0F5               RJMP    ??Fsm_90
    632                      }
    633                      else
    634                      {
    635                          // Дискретный сигнал активен?
    636                          if (uiDiscreteSignalState == DISCRETE_SIGNAL_IS_ACTIVE)
   \                     ??Fsm_94:
   \   00000208   3081               CPI     R24, 1
   \   0000020A   F009               BREQ    $+2+2
   \   0000020C   C0F2               RJMP    ??Fsm_90
    637                          {
    638                              // Установим связанные дискретный выходы - новое нарушение.
    639                              CPss21::DiscreteOutputsSet(GetLinkedDiscreteOutputsPointer(), NEW_VIOLATION);
   \   0000020E   018D               MOVW    R17:R16, R27:R26
   \   00000210   ........           CALL    ??GetLinkedDiscreteOutputsPointer
   \   00000214   E021               LDI     R18, 1
   \   00000216   ........           CALL    ??DiscreteOutputsSet
    640                              // Установим тип сигнализации связанному окну в массиве управления окнами извещателя.
    641                              CPss21::SetAlarmWindowType(GetAlarmWindowIndex(), ALARM_TYPE());
   \   0000021A   018D               MOVW    R17:R16, R27:R26
   \   0000021C   01FD               MOVW    R31:R30, R27:R26
   \   0000021E   8121               LDD     R18, Z+1
   \   00000220   8132               LDD     R19, Z+2
   \   00000222   01F9               MOVW    R31:R30, R19:R18
   \   00000224   9634               ADIW    R31:R30, 4
   \   00000226   9125               LPM     R18, Z+
   \   00000228   9134               LPM     R19, Z
   \   0000022A   9735               SBIW    R31:R30, 5
   \   0000022C   01F9               MOVW    R31:R30, R19:R18
   \   0000022E   9509               ICALL
   \   00000230   2F90               MOV     R25, R16
   \   00000232   018D               MOVW    R17:R16, R27:R26
   \   00000234   ........           CALL    ??GetAlarmWindowIndex
   \   00000238   2F19               MOV     R17, R25
   \   0000023A   ........           CALL    ??SetAlarmWindowType
    642                              CPss21::SetAlarmWindowColor(GetAlarmWindowIndex(), ALARM_TYPE());
   \   0000023E   018D               MOVW    R17:R16, R27:R26
   \   00000240   01FD               MOVW    R31:R30, R27:R26
   \   00000242   8121               LDD     R18, Z+1
   \   00000244   8132               LDD     R19, Z+2
   \   00000246   01F9               MOVW    R31:R30, R19:R18
   \   00000248   9634               ADIW    R31:R30, 4
   \   0000024A   9125               LPM     R18, Z+
   \   0000024C   9134               LPM     R19, Z
   \   0000024E   9735               SBIW    R31:R30, 5
   \   00000250   01F9               MOVW    R31:R30, R19:R18
   \   00000252   9509               ICALL
   \   00000254   2F90               MOV     R25, R16
   \   00000256   018D               MOVW    R17:R16, R27:R26
   \   00000258   ........           CALL    ??GetAlarmWindowIndex
   \   0000025C   2F19               MOV     R17, R25
   \   0000025E   ........           CALL    ??SetAlarmWindowColor
    643                              // Активизируем окно сигнализации, для отображения извещателем.
    644                              CPss21::GetAlarmWindowControlPointer(GetAlarmWindowIndex()) -> SetActivityState(1);
   \   00000262   018D               MOVW    R17:R16, R27:R26
   \   00000264   ........           CALL    ??GetAlarmWindowIndex
   \   00000268   ........           CALL    ??GetAlarmWindowControlPointer
   \   0000026C   E021               LDI     R18, 1
   \   0000026E   ........           CALL    ??SetActivityState
    645                              SetFsmState(NOT_ACTIVE_STATE_WAITING);
   \   00000272   E027               LDI     R18, 7
   \   00000274   018D               MOVW    R17:R16, R27:R26
   \   00000276   ........           CALL    ??SetFsmState
   \   0000027A   C0BB               RJMP    ??Fsm_90
    646                          }
    647                      }
    648                  }
    649                  else
    650                  {
    651                      // Дискретный сигнал активен?
    652                      // уровень сигналы типа "СУХОЙ КОНТАКТ" (СК) определяем по состояниям дискретного входа:
    653                      // 2 - обрыв(разомкнуто), и 3 - КЗ(замкнуто).
    654                      if (uiDiscreteSignalState == DISCRETE_SIGNAL_IS_ACTIVE)
   \                     ??Fsm_93:
   \   0000027C   3081               CPI     R24, 1
   \   0000027E   F5B1               BRNE    ??Fsm_95
    655                      {
    656                          // Установим связанные дискретный выходы - новое нарушение.
    657                          CPss21::DiscreteOutputsSet(GetLinkedDiscreteOutputsPointer(), NEW_VIOLATION);
   \   00000280   018D               MOVW    R17:R16, R27:R26
   \   00000282   ........           CALL    ??GetLinkedDiscreteOutputsPointer
   \   00000286   E021               LDI     R18, 1
   \   00000288   ........           CALL    ??DiscreteOutputsSet
    658                          // Установим тип сигнализации связанному окну в массиве управления окнами извещателя.
    659                          CPss21::SetAlarmWindowType(GetAlarmWindowIndex(), ALARM_TYPE());
   \   0000028C   018D               MOVW    R17:R16, R27:R26
   \   0000028E   01FD               MOVW    R31:R30, R27:R26
   \   00000290   8121               LDD     R18, Z+1
   \   00000292   8132               LDD     R19, Z+2
   \   00000294   01F9               MOVW    R31:R30, R19:R18
   \   00000296   9634               ADIW    R31:R30, 4
   \   00000298   9125               LPM     R18, Z+
   \   0000029A   9134               LPM     R19, Z
   \   0000029C   9735               SBIW    R31:R30, 5
   \   0000029E   01F9               MOVW    R31:R30, R19:R18
   \   000002A0   9509               ICALL
   \   000002A2   2F90               MOV     R25, R16
   \   000002A4   018D               MOVW    R17:R16, R27:R26
   \   000002A6   ........           CALL    ??GetAlarmWindowIndex
   \   000002AA   2F19               MOV     R17, R25
   \   000002AC   ........           CALL    ??SetAlarmWindowType
    660                          CPss21::SetAlarmWindowColor(GetAlarmWindowIndex(), ALARM_TYPE());
   \   000002B0   018D               MOVW    R17:R16, R27:R26
   \   000002B2   01FD               MOVW    R31:R30, R27:R26
   \   000002B4   8121               LDD     R18, Z+1
   \   000002B6   8132               LDD     R19, Z+2
   \   000002B8   01F9               MOVW    R31:R30, R19:R18
   \   000002BA   9634               ADIW    R31:R30, 4
   \   000002BC   9125               LPM     R18, Z+
   \   000002BE   9134               LPM     R19, Z
   \   000002C0   9735               SBIW    R31:R30, 5
   \   000002C2   01F9               MOVW    R31:R30, R19:R18
   \   000002C4   9509               ICALL
   \   000002C6   2F90               MOV     R25, R16
   \   000002C8   018D               MOVW    R17:R16, R27:R26
   \   000002CA   ........           CALL    ??GetAlarmWindowIndex
   \   000002CE   2F19               MOV     R17, R25
   \   000002D0   ........           CALL    ??SetAlarmWindowColor
    661                          // Активизируем окно сигнализации, для отображения извещателем.
    662                          CPss21::GetAlarmWindowControlPointer(GetAlarmWindowIndex()) -> SetActivityState(1);
   \   000002D4   018D               MOVW    R17:R16, R27:R26
   \   000002D6   ........           CALL    ??GetAlarmWindowIndex
   \   000002DA   ........           CALL    ??GetAlarmWindowControlPointer
   \   000002DE   E021               LDI     R18, 1
   \   000002E0   ........           CALL    ??SetActivityState
    663                          SetFsmState(NOT_ACTIVE_STATE_WAITING);
   \   000002E4   E027               LDI     R18, 7
   \   000002E6   018D               MOVW    R17:R16, R27:R26
   \   000002E8   ........           CALL    ??SetFsmState
    664                      }
    665                  }
    666          
    667                  break;
   \                     ??Fsm_95:
   \   000002EC   C082               RJMP    ??Fsm_90
    668          
    669              case NOT_ACTIVE_STATE_WAITING:
    670                  // тип текущего дискретного сигнала namur?
    671                  if (IS_NAMUR_ON())
   \                     ??Fsm_87:
   \   000002EE   018D               MOVW    R17:R16, R27:R26
   \   000002F0   01FD               MOVW    R31:R30, R27:R26
   \   000002F2   8121               LDD     R18, Z+1
   \   000002F4   8132               LDD     R19, Z+2
   \   000002F6   01F9               MOVW    R31:R30, R19:R18
   \   000002F8   9638               ADIW    R31:R30, 8
   \   000002FA   9125               LPM     R18, Z+
   \   000002FC   9134               LPM     R19, Z
   \   000002FE   9739               SBIW    R31:R30, 9
   \   00000300   01F9               MOVW    R31:R30, R19:R18
   \   00000302   9509               ICALL
   \   00000304   2300               TST     R16
   \   00000306   F011               BREQ    ??Fsm_96
   \   00000308   E001               LDI     R16, 1
   \   0000030A   C001               RJMP    ??Fsm_97
   \                     ??Fsm_96:
   \   0000030C   E000               LDI     R16, 0
   \                     ??Fsm_97:
   \   0000030E   2300               TST     R16
   \   00000310   F129               BREQ    ??Fsm_98
    672                  {
    673                      if (uiDiscreteSignalState == DISCRETE_SIGNAL_IS_NAMUR_ERROR)
   \   00000312   3082               CPI     R24, 2
   \   00000314   F429               BRNE    ??Fsm_99
    674                      {
    675                          SetFsmState(NAMUR_STATE_ON);
   \   00000316   E028               LDI     R18, 8
   \   00000318   018D               MOVW    R17:R16, R27:R26
   \   0000031A   ........           CALL    ??SetFsmState
   \   0000031E   C069               RJMP    ??Fsm_90
    676                      }
    677                      else
    678                      {
    679                          // Дискретный сигнал не активен?
    680                          if (uiDiscreteSignalState == DISCRETE_SIGNAL_IS_NOT_ACTIVE)
   \                     ??Fsm_99:
   \   00000320   2388               TST     R24
   \   00000322   F499               BRNE    ??Fsm_100
    681                          {
    682                              // Установим тип сигнализации связанному окну в массиве управления окнами извещателя.
    683                              CPss21::SetAlarmWindowType(GetAlarmWindowIndex(), NORMAL);
   \   00000324   018D               MOVW    R17:R16, R27:R26
   \   00000326   ........           CALL    ??GetAlarmWindowIndex
   \   0000032A   E010               LDI     R17, 0
   \   0000032C   ........           CALL    ??SetAlarmWindowType
    684                              // Деактмвируем окно сигнализации, для прекращения отображения извещателем.
    685                              CPss21::GetAlarmWindowControlPointer(GetAlarmWindowIndex()) -> SetActivityState(0);
   \   00000330   018D               MOVW    R17:R16, R27:R26
   \   00000332   ........           CALL    ??GetAlarmWindowIndex
   \   00000336   ........           CALL    ??GetAlarmWindowControlPointer
   \   0000033A   E020               LDI     R18, 0
   \   0000033C   ........           CALL    ??SetActivityState
    686                              SetFsmState(ACTIVE_STATE_WAITING);
   \   00000340   E021               LDI     R18, 1
   \   00000342   018D               MOVW    R17:R16, R27:R26
   \   00000344   ........           CALL    ??SetFsmState
   \   00000348   C054               RJMP    ??Fsm_90
    687                          }
    688                          else if (uiDiscreteSignalState == DISCRETE_SIGNAL_IS_ACTIVE)
   \                     ??Fsm_100:
   \   0000034A   3081               CPI     R24, 1
   \   0000034C   F521               BRNE    ??Fsm_101
    689                          {
    690                              // Установим связанные дискретный выходы - не новое нарушение.
    691                              CPss21::DiscreteOutputsSet(GetLinkedDiscreteOutputsPointer(), NOT_NEW_VIOLATION);
   \   0000034E   018D               MOVW    R17:R16, R27:R26
   \   00000350   ........           CALL    ??GetLinkedDiscreteOutputsPointer
   \   00000354   E020               LDI     R18, 0
   \   00000356   ........           CALL    ??DiscreteOutputsSet
   \   0000035A   C04B               RJMP    ??Fsm_90
    692                          }
    693                      }
    694                  }
    695                  else
    696                  {
    697                      // Дискретный сигнал не активен?
    698                      if (uiDiscreteSignalState == DISCRETE_SIGNAL_IS_NOT_ACTIVE)
   \                     ??Fsm_98:
   \   0000035C   2388               TST     R24
   \   0000035E   F499               BRNE    ??Fsm_102
    699                      {
    700                          // Установим тип сигнализации связанному окну в массиве управления окнами извещателя.
    701                          CPss21::SetAlarmWindowType(GetAlarmWindowIndex(), NORMAL);
   \   00000360   018D               MOVW    R17:R16, R27:R26
   \   00000362   ........           CALL    ??GetAlarmWindowIndex
   \   00000366   E010               LDI     R17, 0
   \   00000368   ........           CALL    ??SetAlarmWindowType
    702                          // Деактмвируем окно сигнализации, для прекращения отображения извещателем.
    703                          CPss21::GetAlarmWindowControlPointer(GetAlarmWindowIndex()) -> SetActivityState(0);
   \   0000036C   018D               MOVW    R17:R16, R27:R26
   \   0000036E   ........           CALL    ??GetAlarmWindowIndex
   \   00000372   ........           CALL    ??GetAlarmWindowControlPointer
   \   00000376   E020               LDI     R18, 0
   \   00000378   ........           CALL    ??SetActivityState
    704                          SetFsmState(ACTIVE_STATE_WAITING);
   \   0000037C   E021               LDI     R18, 1
   \   0000037E   018D               MOVW    R17:R16, R27:R26
   \   00000380   ........           CALL    ??SetFsmState
   \   00000384   C036               RJMP    ??Fsm_90
    705                      }
    706                      else if (uiDiscreteSignalState == DISCRETE_SIGNAL_IS_ACTIVE)
   \                     ??Fsm_102:
   \   00000386   3081               CPI     R24, 1
   \   00000388   F5A1               BRNE    ??Fsm_90
    707                      {
    708                          // Установим связанные дискретный выходы - не новое нарушение.
    709                          CPss21::DiscreteOutputsSet(GetLinkedDiscreteOutputsPointer(), NOT_NEW_VIOLATION);
   \   0000038A   018D               MOVW    R17:R16, R27:R26
   \   0000038C   ........           CALL    ??GetLinkedDiscreteOutputsPointer
   \   00000390   E020               LDI     R18, 0
   \   00000392   ........           CALL    ??DiscreteOutputsSet
    710                      }
    711                  }
    712                  break;
   \                     ??Fsm_101:
   \   00000396   C02D               RJMP    ??Fsm_90
    713          
    714              case NAMUR_STATE_ON:
    715                  // Установим тип сигнализации связанному окну в массиве управления окнами извещателя.
    716                  CPss21::SetAlarmWindowType(GetAlarmWindowIndex(), INDICATION);
   \                     ??Fsm_88:
   \   00000398   018D               MOVW    R17:R16, R27:R26
   \   0000039A   ........           CALL    ??GetAlarmWindowIndex
   \   0000039E   E011               LDI     R17, 1
   \   000003A0   ........           CALL    ??SetAlarmWindowType
    717                  CPss21::SetAlarmWindowColor(GetAlarmWindowIndex(), NAMUR_INDICATION);
   \   000003A4   018D               MOVW    R17:R16, R27:R26
   \   000003A6   ........           CALL    ??GetAlarmWindowIndex
   \   000003AA   E016               LDI     R17, 6
   \   000003AC   ........           CALL    ??SetAlarmWindowColor
    718                  CPss21::GetAlarmWindowControlPointer(GetAlarmWindowIndex()) -> SetActivityState(1);
   \   000003B0   018D               MOVW    R17:R16, R27:R26
   \   000003B2   ........           CALL    ??GetAlarmWindowIndex
   \   000003B6   ........           CALL    ??GetAlarmWindowControlPointer
   \   000003BA   E021               LDI     R18, 1
   \   000003BC   ........           CALL    ??SetActivityState
    719                  SetFsmState(NAMUR_INPUT_CORRECT_STATE_WAITING);
   \   000003C0   E029               LDI     R18, 9
   \   000003C2   018D               MOVW    R17:R16, R27:R26
   \   000003C4   ........           CALL    ??SetFsmState
    720                  break;
   \   000003C8   C014               RJMP    ??Fsm_90
    721          
    722              case NAMUR_INPUT_CORRECT_STATE_WAITING:
    723                  // Дискретный сигнал NAMUR достоверен?
    724                  if (uiDiscreteSignalState != DISCRETE_SIGNAL_IS_NAMUR_ERROR)
   \                     ??Fsm_89:
   \   000003CA   3082               CPI     R24, 2
   \   000003CC   F091               BREQ    ??Fsm_90
    725                  {
    726                      // Установим тип сигнализации связанному окну в массиве управления окнами извещателя.
    727                      CPss21::SetAlarmWindowType(GetAlarmWindowIndex(), NORMAL);
   \   000003CE   018D               MOVW    R17:R16, R27:R26
   \   000003D0   ........           CALL    ??GetAlarmWindowIndex
   \   000003D4   E010               LDI     R17, 0
   \   000003D6   ........           CALL    ??SetAlarmWindowType
    728                      CPss21::GetAlarmWindowControlPointer(GetAlarmWindowIndex()) -> SetActivityState(0);
   \   000003DA   018D               MOVW    R17:R16, R27:R26
   \   000003DC   ........           CALL    ??GetAlarmWindowIndex
   \   000003E0   ........           CALL    ??GetAlarmWindowControlPointer
   \   000003E4   E020               LDI     R18, 0
   \   000003E6   ........           CALL    ??SetActivityState
    729                      SetFsmState(ACTIVE_STATE_WAITING);
   \   000003EA   E021               LDI     R18, 1
   \   000003EC   018D               MOVW    R17:R16, R27:R26
   \   000003EE   ........           CALL    ??SetFsmState
    730                  }
    731                  break;
    732          
    733              default:
    734                  break;
    735              }
    736          }
   \                     ??Fsm_90:
   \   000003F2   E0E4               LDI     R30, 4
   \   000003F4   ........           JMP     ?EPILOGUE_B4_L09
    737          //-----------------------------------------------------------------------------------------------------
    738          
    739          
    740          
    741          
    742          
    743          
    744          
    745          
    746          //-----------------------------------------------------------------------------------------------------

   \                                 In  segment CODE, align 2, keep-with-next
    747          CIndicationAlarmHighLevelDfa::CIndicationAlarmHighLevelDfa()
   \                     ??CIndicationAlarmHighLevelDfa:
   \   00000000   93BA               ST      -Y, R27
   \   00000002   93AA               ST      -Y, R26
   \   00000004   01D8               MOVW    R27:R26, R17:R16
    748          {
   \   00000006   018D               MOVW    R17:R16, R27:R26
   \   00000008   ....               RCALL   ??CIndicationAlarmLowLevelDfa
   \   0000000A   ....               LDI     R16, LOW(??__vtbl_12)
   \   0000000C   ....               LDI     R17, (??__vtbl_12) >> 8
   \   0000000E   01FD               MOVW    R31:R30, R27:R26
   \   00000010   8301               STD     Z+1, R16
   \   00000012   8312               STD     Z+2, R17
    749              SetFsmState(ACTIVE_STATE_WAITING);
   \   00000014   E021               LDI     R18, 1
   \   00000016   018D               MOVW    R17:R16, R27:R26
   \   00000018   ........           CALL    ??SetFsmState
    750          }
   \   0000001C   018D               MOVW    R17:R16, R27:R26
   \   0000001E   91A9               LD      R26, Y+
   \   00000020   91B9               LD      R27, Y+
   \   00000022   9508               RET
    751          
    752          //-----------------------------------------------------------------------------------------------------

   \                                 In  segment CODE, align 2, keep-with-next
    753          CIndicationAlarmHighLevelDfa::~CIndicationAlarmHighLevelDfa()
   \                     `?~CIndicationAlarmHighLevelDfa`:
    754          {
   \   00000000   ........           CALL    ?PROLOGUE4_L09
   \   00000004   01C8               MOVW    R25:R24, R17:R16
   \   00000006   01D9               MOVW    R27:R26, R19:R18
   \   00000008   2F08               MOV     R16, R24
   \   0000000A   2B09               OR      R16, R25
   \   0000000C   F049               BREQ    `?~CIndicationAlarmHighLevelDfa_1`
    755              //dtor
    756          }
   \   0000000E   E020               LDI     R18, 0
   \   00000010   E030               LDI     R19, 0
   \   00000012   018C               MOVW    R17:R16, R25:R24
   \   00000014   ....               RCALL   `?~CIndicationAlarmLowLevelDfa`
   \   00000016   FBA0               BST     R26, 0
   \   00000018   F41E               BRTC    `?~CIndicationAlarmHighLevelDfa_1`
   \   0000001A   018C               MOVW    R17:R16, R25:R24
   \   0000001C   ........           CALL    `??operator delete`
   \                     `?~CIndicationAlarmHighLevelDfa_1`:
   \   00000020   E0E4               LDI     R30, 4
   \   00000022   ........           JMP     ?EPILOGUE_B4_L09
    757          //-----------------------------------------------------------------------------------------------------
    758          
    759          
    760          //-----------------------------------------------------------------------------------------------------

   \                                 In  segment CODE, align 2, keep-with-next
    761          CIndicationAlarmLowLevelNamurDfa::CIndicationAlarmLowLevelNamurDfa()
   \                     ??CIndicationAlarmLowLevelNamurDfa:
   \   00000000   93BA               ST      -Y, R27
   \   00000002   93AA               ST      -Y, R26
   \   00000004   01D8               MOVW    R27:R26, R17:R16
    762          {
   \   00000006   018D               MOVW    R17:R16, R27:R26
   \   00000008   ....               RCALL   ??CIndicationAlarmLowLevelDfa
   \   0000000A   ....               LDI     R16, LOW(??__vtbl_13)
   \   0000000C   ....               LDI     R17, (??__vtbl_13) >> 8
   \   0000000E   01FD               MOVW    R31:R30, R27:R26
   \   00000010   8301               STD     Z+1, R16
   \   00000012   8312               STD     Z+2, R17
    763              SetFsmState(ACTIVE_STATE_WAITING);
   \   00000014   E021               LDI     R18, 1
   \   00000016   018D               MOVW    R17:R16, R27:R26
   \   00000018   ........           CALL    ??SetFsmState
    764          }
   \   0000001C   018D               MOVW    R17:R16, R27:R26
   \   0000001E   91A9               LD      R26, Y+
   \   00000020   91B9               LD      R27, Y+
   \   00000022   9508               RET
    765          
    766          //-----------------------------------------------------------------------------------------------------

   \                                 In  segment CODE, align 2, keep-with-next
    767          CIndicationAlarmLowLevelNamurDfa::~CIndicationAlarmLowLevelNamurDfa()
   \                     `?~CIndicationAlarmLowLevelNamurDfa`:
    768          {
   \   00000000   ........           CALL    ?PROLOGUE4_L09
   \   00000004   01C8               MOVW    R25:R24, R17:R16
   \   00000006   01D9               MOVW    R27:R26, R19:R18
   \   00000008   2F08               MOV     R16, R24
   \   0000000A   2B09               OR      R16, R25
   \   0000000C   F049               BREQ    `?~CIndicationAlarmLowLevelNamurDfa_1`
    769              //dtor
    770          }
   \   0000000E   E020               LDI     R18, 0
   \   00000010   E030               LDI     R19, 0
   \   00000012   018C               MOVW    R17:R16, R25:R24
   \   00000014   ....               RCALL   `?~CIndicationAlarmLowLevelDfa`
   \   00000016   FBA0               BST     R26, 0
   \   00000018   F41E               BRTC    `?~CIndicationAlarmLowLevelNamurDfa_1`
   \   0000001A   018C               MOVW    R17:R16, R25:R24
   \   0000001C   ........           CALL    `??operator delete`
   \                     `?~CIndicationAlarmLowLevelNamurDfa_1`:
   \   00000020   E0E4               LDI     R30, 4
   \   00000022   ........           JMP     ?EPILOGUE_B4_L09
    771          //-----------------------------------------------------------------------------------------------------

   \                                 In  segment CODE, align 2, keep-with-next
    772          CIndicationAlarmHighLevelNamurDfa::CIndicationAlarmHighLevelNamurDfa()
   \                     ??CIndicationAlarmHighLevelNamurDfa:
   \   00000000   93BA               ST      -Y, R27
   \   00000002   93AA               ST      -Y, R26
   \   00000004   01D8               MOVW    R27:R26, R17:R16
    773          {
   \   00000006   018D               MOVW    R17:R16, R27:R26
   \   00000008   ....               RCALL   ??CIndicationAlarmLowLevelDfa
   \   0000000A   ....               LDI     R16, LOW(??__vtbl_14)
   \   0000000C   ....               LDI     R17, (??__vtbl_14) >> 8
   \   0000000E   01FD               MOVW    R31:R30, R27:R26
   \   00000010   8301               STD     Z+1, R16
   \   00000012   8312               STD     Z+2, R17
    774              SetFsmState(ACTIVE_STATE_WAITING);
   \   00000014   E021               LDI     R18, 1
   \   00000016   018D               MOVW    R17:R16, R27:R26
   \   00000018   ........           CALL    ??SetFsmState
    775          }
   \   0000001C   018D               MOVW    R17:R16, R27:R26
   \   0000001E   91A9               LD      R26, Y+
   \   00000020   91B9               LD      R27, Y+
   \   00000022   9508               RET
    776          
    777          //-----------------------------------------------------------------------------------------------------

   \                                 In  segment CODE, align 2, keep-with-next
    778          CIndicationAlarmHighLevelNamurDfa::~CIndicationAlarmHighLevelNamurDfa()
   \                     `?~CIndicationAlarmHighLevelNamurDfa`:
    779          {
   \   00000000   ........           CALL    ?PROLOGUE4_L09
   \   00000004   01C8               MOVW    R25:R24, R17:R16
   \   00000006   01D9               MOVW    R27:R26, R19:R18
   \   00000008   2F08               MOV     R16, R24
   \   0000000A   2B09               OR      R16, R25
   \   0000000C   F049               BREQ    `?~CIndicationAlarmHighLevelNamurDfa_1`
    780              //dtor
    781          }
   \   0000000E   E020               LDI     R18, 0
   \   00000010   E030               LDI     R19, 0
   \   00000012   018C               MOVW    R17:R16, R25:R24
   \   00000014   ....               RCALL   `?~CIndicationAlarmLowLevelDfa`
   \   00000016   FBA0               BST     R26, 0
   \   00000018   F41E               BRTC    `?~CIndicationAlarmHighLevelNamurDfa_1`
   \   0000001A   018C               MOVW    R17:R16, R25:R24
   \   0000001C   ........           CALL    `??operator delete`
   \                     `?~CIndicationAlarmHighLevelNamurDfa_1`:
   \   00000020   E0E4               LDI     R30, 4
   \   00000022   ........           JMP     ?EPILOGUE_B4_L09
    782          
    783          
    784          
    785          
    786          
    787          
    788          
    789          //-----------------------------------------------------------------------------------------------------

   \                                 In  segment CODE, align 2, keep-with-next
    790          CErrorAlarmDfa::CErrorAlarmDfa()
   \                     ??CErrorAlarmDfa:
   \   00000000   93BA               ST      -Y, R27
   \   00000002   93AA               ST      -Y, R26
   \   00000004   01D8               MOVW    R27:R26, R17:R16
    791          {
   \   00000006   018D               MOVW    R17:R16, R27:R26
   \   00000008   ........           CALL    ??CDfaLite
   \   0000000C   ....               LDI     R16, LOW(??__vtbl_15)
   \   0000000E   ....               LDI     R17, (??__vtbl_15) >> 8
   \   00000010   01FD               MOVW    R31:R30, R27:R26
   \   00000012   8301               STD     Z+1, R16
   \   00000014   8312               STD     Z+2, R17
    792              SetFsmState(ACTIVE_STATE_WAITING);
   \   00000016   E021               LDI     R18, 1
   \   00000018   018D               MOVW    R17:R16, R27:R26
   \   0000001A   ........           CALL    ??SetFsmState
    793          }
   \   0000001E   018D               MOVW    R17:R16, R27:R26
   \   00000020   91A9               LD      R26, Y+
   \   00000022   91B9               LD      R27, Y+
   \   00000024   9508               RET
    794          
    795          //-----------------------------------------------------------------------------------------------------

   \                                 In  segment CODE, align 2, keep-with-next
    796          CErrorAlarmDfa::~CErrorAlarmDfa()
   \                     `?~CErrorAlarmDfa`:
    797          {
   \   00000000   ........           CALL    ?PROLOGUE4_L09
   \   00000004   01C8               MOVW    R25:R24, R17:R16
   \   00000006   01D9               MOVW    R27:R26, R19:R18
   \   00000008   2F08               MOV     R16, R24
   \   0000000A   2B09               OR      R16, R25
   \   0000000C   F051               BREQ    `?~CErrorAlarmDfa_1`
    798              //dtor
    799          }
   \   0000000E   E020               LDI     R18, 0
   \   00000010   E030               LDI     R19, 0
   \   00000012   018C               MOVW    R17:R16, R25:R24
   \   00000014   ........           CALL    `?~CDfaLite`
   \   00000018   FBA0               BST     R26, 0
   \   0000001A   F41E               BRTC    `?~CErrorAlarmDfa_1`
   \   0000001C   018C               MOVW    R17:R16, R25:R24
   \   0000001E   ........           CALL    `??operator delete`
   \                     `?~CErrorAlarmDfa_1`:
   \   00000022   E0E4               LDI     R30, 4
   \   00000024   ........           JMP     ?EPILOGUE_B4_L09
    800          
    801          //-----------------------------------------------------------------------------------------------------
    802          // Автомат обработки системных ошибок.

   \                                 In  segment CODE, align 2, keep-with-next
    803          void CErrorAlarmDfa::Fsm(void)
   \                     ??Fsm_2:
    804          {
   \   00000000   ........           CALL    ?PROLOGUE5_L09
   \   00000004                      REQUIRE ?Register_R4_is_cg_reg
   \   00000004   01D8               MOVW    R27:R26, R17:R16
    805              switch (GetFsmState())
   \   00000006   018D               MOVW    R17:R16, R27:R26
   \   00000008   ........           CALL    ??GetFsmState
   \   0000000C   5000               SUBI    R16, 0
   \   0000000E   F049               BREQ    ??Fsm_103
   \   00000010   950A               DEC     R16
   \   00000012   F041               BREQ    ??Fsm_104
   \   00000014   950A               DEC     R16
   \   00000016   F409               BRNE    $+2+2
   \   00000018   C063               RJMP    ??Fsm_105
   \   0000001A   950A               DEC     R16
   \   0000001C   F409               BRNE    $+2+2
   \   0000001E   C06B               RJMP    ??Fsm_106
   \   00000020   C08B               RJMP    ??Fsm_107
    806              {
    807              case START:
    808                  break;
   \                     ??Fsm_103:
   \   00000022   C08A               RJMP    ??Fsm_107
    809          
    810              case ACTIVE_STATE_WAITING:
    811                  // Дискретный сигнал активен?
    812                  if (CPss21::GetErrorAlarmState(GetDiscreteStateIndex()) ^ ACTIVE_LEVEL())
   \                     ??Fsm_104:
   \   00000024   01FD               MOVW    R31:R30, R27:R26
   \   00000026   8181               LDD     R24, Z+1
   \   00000028   8192               LDD     R25, Z+2
   \   0000002A   9606               ADIW    R25:R24, 6
   \   0000002C   018D               MOVW    R17:R16, R27:R26
   \   0000002E   ........           CALL    ??GetDiscreteStateIndex_1
   \   00000032   ........           CALL    ??GetErrorAlarmState
   \   00000036   2E40               MOV     R4, R16
   \   00000038   018D               MOVW    R17:R16, R27:R26
   \   0000003A   01FC               MOVW    R31:R30, R25:R24
   \   0000003C   9125               LPM     R18, Z+
   \   0000003E   9134               LPM     R19, Z
   \   00000040   9731               SBIW    R31:R30, 1
   \   00000042   01F9               MOVW    R31:R30, R19:R18
   \   00000044   9509               ICALL
   \   00000046   2640               EOR     R4, R16
   \   00000048   2044               TST     R4
   \   0000004A   F011               BREQ    ??Fsm_108
   \   0000004C   E001               LDI     R16, 1
   \   0000004E   C001               RJMP    ??Fsm_109
   \                     ??Fsm_108:
   \   00000050   E000               LDI     R16, 0
   \                     ??Fsm_109:
   \   00000052   2300               TST     R16
   \   00000054   F409               BRNE    $+2+2
   \   00000056   C070               RJMP    ??Fsm_107
    813                  {
    814                      // Тип запрограммированной сигнализации дискретного сигнала имеет более высокий приоритет,
    815                      // чем тип общей сигнализации?
    816                      if ((CPss21::GetCommonAlarmType() != ERROR) &&
    817                              (CPss21::GetCommonAlarmType() < ALARM_TYPE()))
   \   00000058   ........           CALL    ??GetCommonAlarmType
   \   0000005C   3007               CPI     R16, 7
   \   0000005E   F121               BREQ    ??Fsm_110
   \   00000060   01FD               MOVW    R31:R30, R27:R26
   \   00000062   8181               LDD     R24, Z+1
   \   00000064   8192               LDD     R25, Z+2
   \   00000066   9604               ADIW    R25:R24, 4
   \   00000068   ........           CALL    ??GetCommonAlarmType
   \   0000006C   2E40               MOV     R4, R16
   \   0000006E   018D               MOVW    R17:R16, R27:R26
   \   00000070   01FC               MOVW    R31:R30, R25:R24
   \   00000072   9125               LPM     R18, Z+
   \   00000074   9134               LPM     R19, Z
   \   00000076   9731               SBIW    R31:R30, 1
   \   00000078   01F9               MOVW    R31:R30, R19:R18
   \   0000007A   9509               ICALL
   \   0000007C   1640               CP      R4, R16
   \   0000007E   F010               BRCS    ??Fsm_111
   \   00000080   E001               LDI     R16, 1
   \   00000082   C001               RJMP    ??Fsm_112
   \                     ??Fsm_111:
   \   00000084   E000               LDI     R16, 0
   \                     ??Fsm_112:
   \   00000086   2300               TST     R16
   \   00000088   F479               BRNE    ??Fsm_110
    818                      {
    819                          // Установим тип общей сигнализацию.
    820                          CPss21::SetCommonAlarmType(ALARM_TYPE());
   \   0000008A   018D               MOVW    R17:R16, R27:R26
   \   0000008C   9611               ADIW    R27:R26, 1
   \   0000008E   91ED               LD      R30, X+
   \   00000090   91FC               LD      R31, X
   \   00000092   9712               SBIW    R27:R26, 2
   \   00000094   9634               ADIW    R31:R30, 4
   \   00000096   9125               LPM     R18, Z+
   \   00000098   9134               LPM     R19, Z
   \   0000009A   9735               SBIW    R31:R30, 5
   \   0000009C   01F9               MOVW    R31:R30, R19:R18
   \   0000009E   9509               ICALL
   \   000000A0   ........           CALL    ??SetCommonAlarmType
    821          
    822                          // Изменим тип общей сигнализацию.
    823                          CPss21::AlarmTypeErrorChange();
   \   000000A4   ........           CALL    ??AlarmTypeErrorChange
    824                      }
    825          
    826                      CPss21::SetAlarmWindowColor(GetAlarmWindowIndex(), ALARM_TYPE());
   \                     ??Fsm_110:
   \   000000A8   018D               MOVW    R17:R16, R27:R26
   \   000000AA   9611               ADIW    R27:R26, 1
   \   000000AC   91ED               LD      R30, X+
   \   000000AE   91FC               LD      R31, X
   \   000000B0   9712               SBIW    R27:R26, 2
   \   000000B2   9634               ADIW    R31:R30, 4
   \   000000B4   9125               LPM     R18, Z+
   \   000000B6   9134               LPM     R19, Z
   \   000000B8   9735               SBIW    R31:R30, 5
   \   000000BA   01F9               MOVW    R31:R30, R19:R18
   \   000000BC   9509               ICALL
   \   000000BE   2F80               MOV     R24, R16
   \   000000C0   018D               MOVW    R17:R16, R27:R26
   \   000000C2   ........           CALL    ??GetAlarmWindowIndex_1
   \   000000C6   2F18               MOV     R17, R24
   \   000000C8   ........           CALL    ??SetAlarmWindowColor
    827          //            // Установим тип сигнализации связанному окну в массиве управления окнами извещателя.
    828                      CPss21::ErrorWindowOn(GetAlarmWindowIndex());
   \   000000CC   018D               MOVW    R17:R16, R27:R26
   \   000000CE   ........           CALL    ??GetAlarmWindowIndex_1
   \   000000D2   ........           CALL    ??ErrorWindowOn
    829                      SetFsmState(RECEIPT_WAITING);
   \   000000D6   E022               LDI     R18, 2
   \   000000D8   018D               MOVW    R17:R16, R27:R26
   \   000000DA   ........           CALL    ??SetFsmState
    830                  }
    831                  break;
   \   000000DE   C02C               RJMP    ??Fsm_107
    832          
    833              case RECEIPT_WAITING:
    834                  // Событие квитировано?
    835                  if (CPss21::GetDiscreteSignalsReceipt())
   \                     ??Fsm_105:
   \   000000E0   ........           CALL    ??GetDiscreteSignalsReceipt
   \   000000E4   2300               TST     R16
   \   000000E6   F141               BREQ    ??Fsm_107
    836                  {
    837                      // Переведём автоматы сигнализаций в состояние - квитировано.
    838                      CPss21::AlarmTypeReceipt();
   \   000000E8   ........           CALL    ??AlarmTypeReceipt
    839                      SetFsmState(RECEIPTED_NOT_ACTIVE_STATE_WAITING);
   \   000000EC   E023               LDI     R18, 3
   \   000000EE   018D               MOVW    R17:R16, R27:R26
   \   000000F0   ........           CALL    ??SetFsmState
    840                  }
    841                  break;
   \   000000F4   C021               RJMP    ??Fsm_107
    842          
    843              case RECEIPTED_NOT_ACTIVE_STATE_WAITING:
    844                  // Дискретный сигнал не активен?
    845                  if (!(CPss21::GetErrorAlarmState(GetDiscreteStateIndex()) ^ ACTIVE_LEVEL()))
   \                     ??Fsm_106:
   \   000000F6   01FD               MOVW    R31:R30, R27:R26
   \   000000F8   8181               LDD     R24, Z+1
   \   000000FA   8192               LDD     R25, Z+2
   \   000000FC   9606               ADIW    R25:R24, 6
   \   000000FE   018D               MOVW    R17:R16, R27:R26
   \   00000100   ........           CALL    ??GetDiscreteStateIndex_1
   \   00000104   ........           CALL    ??GetErrorAlarmState
   \   00000108   2E40               MOV     R4, R16
   \   0000010A   018D               MOVW    R17:R16, R27:R26
   \   0000010C   01FC               MOVW    R31:R30, R25:R24
   \   0000010E   9125               LPM     R18, Z+
   \   00000110   9134               LPM     R19, Z
   \   00000112   9731               SBIW    R31:R30, 1
   \   00000114   01F9               MOVW    R31:R30, R19:R18
   \   00000116   9509               ICALL
   \   00000118   2640               EOR     R4, R16
   \   0000011A   2044               TST     R4
   \   0000011C   F411               BRNE    ??Fsm_113
   \   0000011E   E001               LDI     R16, 1
   \   00000120   C001               RJMP    ??Fsm_114
   \                     ??Fsm_113:
   \   00000122   E000               LDI     R16, 0
   \                     ??Fsm_114:
   \   00000124   2300               TST     R16
   \   00000126   F041               BREQ    ??Fsm_107
    846                  {
    847                      // Переведём автоматы сигнализаций в состояние - сброшено.
    848                      CPss21::AlarmTypeReset();
   \   00000128   ........           CALL    ??AlarmTypeReset
    849                      CPss21::AllAlarmWindowOff();
   \   0000012C   ........           CALL    ??AllAlarmWindowOff
    850                      SetFsmState(ACTIVE_STATE_WAITING);
   \   00000130   E021               LDI     R18, 1
   \   00000132   018D               MOVW    R17:R16, R27:R26
   \   00000134   ........           CALL    ??SetFsmState
    851                  }
    852                  break;
    853          
    854              default:
    855                  break;
    856              }
    857          }
   \                     ??Fsm_107:
   \   00000138   E0E5               LDI     R30, 5
   \   0000013A   ........           JMP     ?EPILOGUE_B5_L09

   \                                 In  segment SWITCH, align 2, keep-with-next
   \                     `?<Jumptable for Fsm>_0`:
   \   00000000   00                 DB      0
   \   00000001   00                 DB      0
   \   00000002   ....               DW      (??Fsm_32) /2
   \   00000004   000A               DW      10
   \   00000006   ....               DW      (??Fsm_32) /2
   \   00000008   ....               DW      (??Fsm_27) /2
   \   0000000A   ....               DW      (??Fsm_42) /2
   \   0000000C   ....               DW      (??Fsm_36) /2
   \   0000000E   ....               DW      (??Fsm_46) /2
   \   00000010   ....               DW      (??Fsm_51) /2
   \   00000012   ....               DW      (??Fsm_55) /2
   \   00000014   ....               DW      (??Fsm_32) /2
   \   00000016   ....               DW      (??Fsm_59) /2
   \   00000018   ....               DW      (??Fsm_60) /2

   \                                 In  segment CODE, align 2, keep-with-next
   \   __version_3 CAlarmDfa &CAlarmDfa::new CAlarmDfa()
   \                     `??new CAlarmDfa`:
   \   00000000   E007               LDI     R16, 7
   \   00000002   E010               LDI     R17, 0
   \   00000004   ........           CALL    `??operator new`
   \   00000008   2F20               MOV     R18, R16
   \   0000000A   2B21               OR      R18, R17
   \   0000000C   F011               BREQ    `??new CAlarmDfa_1`
   \   0000000E   ....               RCALL   ??CAlarmDfa
   \   00000010   9508               RET
   \                     `??new CAlarmDfa_1`:
   \   00000012   E000               LDI     R16, 0
   \   00000014   E010               LDI     R17, 0
   \   00000016   9508               RET

   \                                 In  segment CODE, align 2, keep-with-next
   \   __version_3 CNormalAlarmDfa &CNormalAlarmDfa::new CNormalAlarmDfa()
   \                     `??new CNormalAlarmDfa`:
   \   00000000   E007               LDI     R16, 7
   \   00000002   E010               LDI     R17, 0
   \   00000004   ........           CALL    `??operator new`
   \   00000008   2F20               MOV     R18, R16
   \   0000000A   2B21               OR      R18, R17
   \   0000000C   F011               BREQ    `??new CNormalAlarmDfa_1`
   \   0000000E   ....               RCALL   ??CNormalAlarmDfa
   \   00000010   9508               RET
   \                     `??new CNormalAlarmDfa_1`:
   \   00000012   E000               LDI     R16, 0
   \   00000014   E010               LDI     R17, 0
   \   00000016   9508               RET

   \                                 In  segment CODE, align 2, keep-with-next
   \   __version_3 CPreventiveAlarmLowLevelDfa &CPreventiveAlarmLowLevelDfa::new CPreventiveAlarmLowLevelDfa()
   \                     `??new CPreventiveAlarmLowLevelDfa`:
   \   00000000   E007               LDI     R16, 7
   \   00000002   E010               LDI     R17, 0
   \   00000004   ........           CALL    `??operator new`
   \   00000008   2F20               MOV     R18, R16
   \   0000000A   2B21               OR      R18, R17
   \   0000000C   F011               BREQ    `??new CPreventiveAlarmLowLevelDfa_1`
   \   0000000E   ....               RCALL   ??CPreventiveAlarmLowLevelDfa
   \   00000010   9508               RET
   \                     `??new CPreventiveAlarmLowLevelDfa_1`:
   \   00000012   E000               LDI     R16, 0
   \   00000014   E010               LDI     R17, 0
   \   00000016   9508               RET

   \                                 In  segment CODE, align 2, keep-with-next
   \   __version_3 CPreventiveAlarmHighLevelDfa &CPreventiveAlarmHighLevelDfa::new CPreventiveAlarmHighLevelDfa()
   \                     `??new CPreventiveAlarmHighLevelDfa`:
   \   00000000   E007               LDI     R16, 7
   \   00000002   E010               LDI     R17, 0
   \   00000004   ........           CALL    `??operator new`
   \   00000008   2F20               MOV     R18, R16
   \   0000000A   2B21               OR      R18, R17
   \   0000000C   F011               BREQ    `??new CPreventiveAlarmHighLevelDfa_1`
   \   0000000E   ....               RCALL   ??CPreventiveAlarmHighLevelDfa
   \   00000010   9508               RET
   \                     `??new CPreventiveAlarmHighLevelDfa_1`:
   \   00000012   E000               LDI     R16, 0
   \   00000014   E010               LDI     R17, 0
   \   00000016   9508               RET

   \                                 In  segment CODE, align 2, keep-with-next
   \   __version_3 CPreventiveAlarmLowLevelNamurDfa &CPreventiveAlarmLowLevelNamurDfa::new CPreventiveAlarmLowLevelNamurDfa()
   \                     `??new CPreventiveAlarmLowLevelNamurDfa`:
   \   00000000   E007               LDI     R16, 7
   \   00000002   E010               LDI     R17, 0
   \   00000004   ........           CALL    `??operator new`
   \   00000008   2F20               MOV     R18, R16
   \   0000000A   2B21               OR      R18, R17
   \   0000000C   F011               BREQ    `??new CPreventiveAlarmLowLevelNamurDfa_1`
   \   0000000E   ....               RCALL   ??CPreventiveAlarmLowLevelNamurDfa
   \   00000010   9508               RET
   \                     `??new CPreventiveAlarmLowLevelNamurDfa_1`:
   \   00000012   E000               LDI     R16, 0
   \   00000014   E010               LDI     R17, 0
   \   00000016   9508               RET

   \                                 In  segment CODE, align 2, keep-with-next
   \   __version_3 CPreventiveAlarmHighLevelNamurDfa &CPreventiveAlarmHighLevelNamurDfa::new CPreventiveAlarmHighLevelNamurDfa()
   \                     `??new CPreventiveAlarmHighLevelNamurDfa`:
   \   00000000   E007               LDI     R16, 7
   \   00000002   E010               LDI     R17, 0
   \   00000004   ........           CALL    `??operator new`
   \   00000008   2F20               MOV     R18, R16
   \   0000000A   2B21               OR      R18, R17
   \   0000000C   F011               BREQ    `??new CPreventiveAlarmHighLevelNamurDfa_1`
   \   0000000E   ....               RCALL   ??CPreventiveAlarmHighLevelNamurDfa
   \   00000010   9508               RET
   \                     `??new CPreventiveAlarmHighLevelNamurDfa_1`:
   \   00000012   E000               LDI     R16, 0
   \   00000014   E010               LDI     R17, 0
   \   00000016   9508               RET

   \                                 In  segment CODE, align 2, keep-with-next
   \   __version_3 CEmergencyAlarmLowLevelDfa &CEmergencyAlarmLowLevelDfa::new CEmergencyAlarmLowLevelDfa()
   \                     `??new CEmergencyAlarmLowLevelDfa`:
   \   00000000   E007               LDI     R16, 7
   \   00000002   E010               LDI     R17, 0
   \   00000004   ........           CALL    `??operator new`
   \   00000008   2F20               MOV     R18, R16
   \   0000000A   2B21               OR      R18, R17
   \   0000000C   F011               BREQ    `??new CEmergencyAlarmLowLevelDfa_1`
   \   0000000E   ....               RCALL   ??CEmergencyAlarmLowLevelDfa
   \   00000010   9508               RET
   \                     `??new CEmergencyAlarmLowLevelDfa_1`:
   \   00000012   E000               LDI     R16, 0
   \   00000014   E010               LDI     R17, 0
   \   00000016   9508               RET

   \                                 In  segment CODE, align 2, keep-with-next
   \   __version_3 CEmergencyAlarmHighLevelDfa &CEmergencyAlarmHighLevelDfa::new CEmergencyAlarmHighLevelDfa()
   \                     `??new CEmergencyAlarmHighLevelDfa`:
   \   00000000   E007               LDI     R16, 7
   \   00000002   E010               LDI     R17, 0
   \   00000004   ........           CALL    `??operator new`
   \   00000008   2F20               MOV     R18, R16
   \   0000000A   2B21               OR      R18, R17
   \   0000000C   F011               BREQ    `??new CEmergencyAlarmHighLevelDfa_1`
   \   0000000E   ....               RCALL   ??CEmergencyAlarmHighLevelDfa
   \   00000010   9508               RET
   \                     `??new CEmergencyAlarmHighLevelDfa_1`:
   \   00000012   E000               LDI     R16, 0
   \   00000014   E010               LDI     R17, 0
   \   00000016   9508               RET

   \                                 In  segment CODE, align 2, keep-with-next
   \   __version_3 CEmergencyAlarmLowLevelNamurDfa &CEmergencyAlarmLowLevelNamurDfa::new CEmergencyAlarmLowLevelNamurDfa()
   \                     `??new CEmergencyAlarmLowLevelNamurDfa`:
   \   00000000   E007               LDI     R16, 7
   \   00000002   E010               LDI     R17, 0
   \   00000004   ........           CALL    `??operator new`
   \   00000008   2F20               MOV     R18, R16
   \   0000000A   2B21               OR      R18, R17
   \   0000000C   F011               BREQ    `??new CEmergencyAlarmLowLevelNamurDfa_1`
   \   0000000E   ....               RCALL   ??CEmergencyAlarmLowLevelNamurDfa
   \   00000010   9508               RET
   \                     `??new CEmergencyAlarmLowLevelNamurDfa_1`:
   \   00000012   E000               LDI     R16, 0
   \   00000014   E010               LDI     R17, 0
   \   00000016   9508               RET

   \                                 In  segment CODE, align 2, keep-with-next
   \   __version_3 CEmergencyAlarmHighLevelNamurDfa &CEmergencyAlarmHighLevelNamurDfa::new CEmergencyAlarmHighLevelNamurDfa()
   \                     `??new CEmergencyAlarmHighLevelNamurDfa`:
   \   00000000   E007               LDI     R16, 7
   \   00000002   E010               LDI     R17, 0
   \   00000004   ........           CALL    `??operator new`
   \   00000008   2F20               MOV     R18, R16
   \   0000000A   2B21               OR      R18, R17
   \   0000000C   F011               BREQ    `??new CEmergencyAlarmHighLevelNamurDfa_1`
   \   0000000E   ....               RCALL   ??CEmergencyAlarmHighLevelNamurDfa
   \   00000010   9508               RET
   \                     `??new CEmergencyAlarmHighLevelNamurDfa_1`:
   \   00000012   E000               LDI     R16, 0
   \   00000014   E010               LDI     R17, 0
   \   00000016   9508               RET

   \                                 In  segment CODE, align 2, keep-with-next
   \   __version_3 CIndicationAlarmLowLevelDfa &CIndicationAlarmLowLevelDfa::new CIndicationAlarmLowLevelDfa()
   \                     `??new CIndicationAlarmLowLevelDfa`:
   \   00000000   E007               LDI     R16, 7
   \   00000002   E010               LDI     R17, 0
   \   00000004   ........           CALL    `??operator new`
   \   00000008   2F20               MOV     R18, R16
   \   0000000A   2B21               OR      R18, R17
   \   0000000C   F011               BREQ    `??new CIndicationAlarmLowLevelDfa_1`
   \   0000000E   ....               RCALL   ??CIndicationAlarmLowLevelDfa
   \   00000010   9508               RET
   \                     `??new CIndicationAlarmLowLevelDfa_1`:
   \   00000012   E000               LDI     R16, 0
   \   00000014   E010               LDI     R17, 0
   \   00000016   9508               RET

   \                                 In  segment CODE, align 2, keep-with-next
   \   __version_3 CIndicationAlarmHighLevelDfa &CIndicationAlarmHighLevelDfa::new CIndicationAlarmHighLevelDfa()
   \                     `??new CIndicationAlarmHighLevelDfa`:
   \   00000000   E007               LDI     R16, 7
   \   00000002   E010               LDI     R17, 0
   \   00000004   ........           CALL    `??operator new`
   \   00000008   2F20               MOV     R18, R16
   \   0000000A   2B21               OR      R18, R17
   \   0000000C   F011               BREQ    `??new CIndicationAlarmHighLevelDfa_1`
   \   0000000E   ....               RCALL   ??CIndicationAlarmHighLevelDfa
   \   00000010   9508               RET
   \                     `??new CIndicationAlarmHighLevelDfa_1`:
   \   00000012   E000               LDI     R16, 0
   \   00000014   E010               LDI     R17, 0
   \   00000016   9508               RET

   \                                 In  segment CODE, align 2, keep-with-next
   \   __version_3 CIndicationAlarmLowLevelNamurDfa &CIndicationAlarmLowLevelNamurDfa::new CIndicationAlarmLowLevelNamurDfa()
   \                     `??new CIndicationAlarmLowLevelNamurDfa`:
   \   00000000   E007               LDI     R16, 7
   \   00000002   E010               LDI     R17, 0
   \   00000004   ........           CALL    `??operator new`
   \   00000008   2F20               MOV     R18, R16
   \   0000000A   2B21               OR      R18, R17
   \   0000000C   F011               BREQ    `??new CIndicationAlarmLowLevelNamurDfa_1`
   \   0000000E   ....               RCALL   ??CIndicationAlarmLowLevelNamurDfa
   \   00000010   9508               RET
   \                     `??new CIndicationAlarmLowLevelNamurDfa_1`:
   \   00000012   E000               LDI     R16, 0
   \   00000014   E010               LDI     R17, 0
   \   00000016   9508               RET

   \                                 In  segment CODE, align 2, keep-with-next
   \   __version_3 CIndicationAlarmHighLevelNamurDfa &CIndicationAlarmHighLevelNamurDfa::new CIndicationAlarmHighLevelNamurDfa()
   \                     `??new CIndicationAlarmHighLevelNamurDfa`:
   \   00000000   E007               LDI     R16, 7
   \   00000002   E010               LDI     R17, 0
   \   00000004   ........           CALL    `??operator new`
   \   00000008   2F20               MOV     R18, R16
   \   0000000A   2B21               OR      R18, R17
   \   0000000C   F011               BREQ    `??new CIndicationAlarmHighLevelNamurDfa_1`
   \   0000000E   ....               RCALL   ??CIndicationAlarmHighLevelNamurDfa
   \   00000010   9508               RET
   \                     `??new CIndicationAlarmHighLevelNamurDfa_1`:
   \   00000012   E000               LDI     R16, 0
   \   00000014   E010               LDI     R17, 0
   \   00000016   9508               RET

   \                                 In  segment CODE, align 2, keep-with-next
   \   __version_3 CErrorAlarmDfa &CErrorAlarmDfa::new CErrorAlarmDfa()
   \                     `??new CErrorAlarmDfa`:
   \   00000000   E005               LDI     R16, 5
   \   00000002   E010               LDI     R17, 0
   \   00000004   ........           CALL    `??operator new`
   \   00000008   2F20               MOV     R18, R16
   \   0000000A   2B21               OR      R18, R17
   \   0000000C   F011               BREQ    `??new CErrorAlarmDfa_1`
   \   0000000E   ....               RCALL   ??CErrorAlarmDfa
   \   00000010   9508               RET
   \                     `??new CErrorAlarmDfa_1`:
   \   00000012   E000               LDI     R16, 0
   \   00000014   E010               LDI     R17, 0
   \   00000016   9508               RET
    858          //-----------------------------------------------------------------------------------------------------
    859          
    860          
    861          
    862          
    863          
    864          
    865          
    866          
    867          
    868          ////-----------------------------------------------------------------------------------------------------
    869          //CInputModuleErrorAlarmDfa::CInputModuleErrorAlarmDfa()
    870          //{
    871          //    SetFsmState(START);
    872          //}
    873          //
    874          ////-----------------------------------------------------------------------------------------------------
    875          //CInputModuleErrorAlarmDfa::~CInputModuleErrorAlarmDfa()
    876          //{
    877          //    //dtor
    878          //}
    879          //
    880          ////-----------------------------------------------------------------------------------------------------
    881          //
    882          //
    883          //
    884          //
    885          //
    886          //
    887          //
    888          //
    889          ////-----------------------------------------------------------------------------------------------------
    890          //COutpuModuleErrorAlarmDfa::COutpuModuleErrorAlarmDfa()
    891          //{
    892          //    SetFsmState(START);
    893          //}
    894          //
    895          ////-----------------------------------------------------------------------------------------------------
    896          //COutpuModuleErrorAlarmDfa::~COutpuModuleErrorAlarmDfa()
    897          //{
    898          //    //dtor
    899          //}
    900          //
    901          ////-----------------------------------------------------------------------------------------------------
    902          
    903          
    904          
    905          
    906          
    907          
    908          

   Maximum stack usage in bytes:

   CSTACK RSTACK Function
   ------ ------ --------
      0      2   CAlarmDfa::ACTIVE_LEVEL()
      0      2   CAlarmDfa::ALARM_TYPE()
      2      2   CAlarmDfa::CAlarmDfa()
        2      2   -> CDfaLite::CDfaLite()
      4      2   CAlarmDfa::Fsm()
        4      2   -- Indirect call
        4      2   -> CAlarmDfa::GetAlarmWindowIndex()
        4      2   -> CAlarmDfa::GetDiscreteStateIndex()
        4      2   -> CAlarmDfa::GetLinkedDiscreteOutputsPointer()
        4      2   -> CAlarmWindow::SetActivityState(uint8_t)
        4      2   -> CDfaLite::GetFsmState()
        4      2   -> CDfaLite::SetFsmState(uint8_t)
        4      2   -> CPss21::DiscreteOutputsSet(uint8_t *, uint8_t)
        4      2   -> CPss21::GetAlarmWindowControlPointer(uint8_t)
        4      2   -> CPss21::GetDiscreteInputsBadState(uint8_t)
        4      2   -> CPss21::GetDiscreteSignalsReceipt()
        4      2   -> CPss21::GetDiscreteSignalsReset()
        4      2   -> CPss21::SetAlarmWindowColor(uint8_t, uint8_t)
        4      2   -> CPss21::SetAlarmWindowType(uint8_t, uint8_t)
        4      2   -> CPss21::SetDiscreteInputState(uint8_t, uint8_t)
        4      2 ?CV_SWITCH_L06
      0      2   CAlarmDfa::GetAlarmWindowIndex()
      0      2   CAlarmDfa::GetDiscreteStateIndex()
      0      2   CAlarmDfa::GetLinkedDiscreteOutputsPointer()
      0      2   CAlarmDfa::IS_NAMUR_ON()
      0      2   CAlarmDfa::new CAlarmDfa()
        0      2   -> CAlarmDfa::CAlarmDfa()
        0      2   -> operator new(unsigned int)
      4      2   CAlarmDfa::~CAlarmDfa()
        4      2   -> CDfaLite::~CDfaLite()
        4      2   -> operator delete(void *)
      0      2   CAlarmWindow::SetActivityState(uint8_t)
      0      2   CDfaLite::GetFsmState()
      0      2   CDfaLite::SetFsmState(uint8_t)
      0      2   CEmergencyAlarmHighLevelDfa::ACTIVE_LEVEL()
      0      2   CEmergencyAlarmHighLevelDfa::ALARM_TYPE()
      2      2   CEmergencyAlarmHighLevelDfa::CEmergencyAlarmHighLevelDfa()
        2      2   -> CAlarmDfa::CAlarmDfa()
        2      2   -> CDfaLite::SetFsmState(uint8_t)
      0      2   CEmergencyAlarmHighLevelDfa::IS_NAMUR_ON()
      0      2   CEmergencyAlarmHighLevelDfa::new CEmergencyAlarmHighLevelDfa()
        0      2   -> CEmergencyAlarmHighLevelDfa::CEmergencyAlarmHighLevelDfa()
        0      2   -> operator new(unsigned int)
      4      2   CEmergencyAlarmHighLevelDfa::~CEmergencyAlarmHighLevelDfa()
        4      2   -> CAlarmDfa::~CAlarmDfa()
        4      2   -> operator delete(void *)
      0      2   CEmergencyAlarmHighLevelNamurDfa::ACTIVE_LEVEL()
      0      2   CEmergencyAlarmHighLevelNamurDfa::ALARM_TYPE()
      2      2   CEmergencyAlarmHighLevelNamurDfa::CEmergencyAlarmHighLevelNamurDfa()
        2      2   -> CAlarmDfa::CAlarmDfa()
        2      2   -> CDfaLite::SetFsmState(uint8_t)
      0      2   CEmergencyAlarmHighLevelNamurDfa::IS_NAMUR_ON()
      0      2   CEmergencyAlarmHighLevelNamurDfa::new CEmergencyAlarmHighLevelNamurDfa()
        0      2   -> CEmergencyAlarmHighLevelNamurDfa::CEmergencyAlarmHighLevelNamurDfa()
        0      2   -> operator new(unsigned int)
      4      2   CEmergencyAlarmHighLevelNamurDfa::~CEmergencyAlarmHighLevelNamurDfa()
        4      2   -> CAlarmDfa::~CAlarmDfa()
        4      2   -> operator delete(void *)
      0      2   CEmergencyAlarmLowLevelDfa::ACTIVE_LEVEL()
      0      2   CEmergencyAlarmLowLevelDfa::ALARM_TYPE()
      2      2   CEmergencyAlarmLowLevelDfa::CEmergencyAlarmLowLevelDfa()
        2      2   -> CAlarmDfa::CAlarmDfa()
        2      2   -> CDfaLite::SetFsmState(uint8_t)
      0      2   CEmergencyAlarmLowLevelDfa::IS_NAMUR_ON()
      0      2   CEmergencyAlarmLowLevelDfa::new CEmergencyAlarmLowLevelDfa()
        0      2   -> CEmergencyAlarmLowLevelDfa::CEmergencyAlarmLowLevelDfa()
        0      2   -> operator new(unsigned int)
      4      2   CEmergencyAlarmLowLevelDfa::~CEmergencyAlarmLowLevelDfa()
        4      2   -> CAlarmDfa::~CAlarmDfa()
        4      2   -> operator delete(void *)
      0      2   CEmergencyAlarmLowLevelNamurDfa::ACTIVE_LEVEL()
      0      2   CEmergencyAlarmLowLevelNamurDfa::ALARM_TYPE()
      2      2   CEmergencyAlarmLowLevelNamurDfa::CEmergencyAlarmLowLevelNamurDfa()
        2      2   -> CAlarmDfa::CAlarmDfa()
        2      2   -> CDfaLite::SetFsmState(uint8_t)
      0      2   CEmergencyAlarmLowLevelNamurDfa::IS_NAMUR_ON()
      0      2   CEmergencyAlarmLowLevelNamurDfa::new CEmergencyAlarmLowLevelNamurDfa()
        0      2   -> CEmergencyAlarmLowLevelNamurDfa::CEmergencyAlarmLowLevelNamurDfa()
        0      2   -> operator new(unsigned int)
      4      2   CEmergencyAlarmLowLevelNamurDfa::~CEmergencyAlarmLowLevelNamurDfa()
        4      2   -> CAlarmDfa::~CAlarmDfa()
        4      2   -> operator delete(void *)
      0      2   CErrorAlarmDfa::ACTIVE_LEVEL()
      0      2   CErrorAlarmDfa::ALARM_TYPE()
      2      2   CErrorAlarmDfa::CErrorAlarmDfa()
        2      2   -> CDfaLite::CDfaLite()
        2      2   -> CDfaLite::SetFsmState(uint8_t)
      5      2   CErrorAlarmDfa::Fsm()
        5      2   -- Indirect call
        5      2   -> CDfaLite::GetFsmState()
        5      2   -> CDfaLite::SetFsmState(uint8_t)
        5      2   -> CErrorAlarmDfa::GetAlarmWindowIndex()
        5      2   -> CErrorAlarmDfa::GetDiscreteStateIndex()
        5      2   -> CPss21::AlarmTypeErrorChange()
        5      2   -> CPss21::AlarmTypeReceipt()
        5      2   -> CPss21::AlarmTypeReset()
        5      2   -> CPss21::AllAlarmWindowOff()
        5      2   -> CPss21::ErrorWindowOn(uint8_t)
        5      2   -> CPss21::GetCommonAlarmType()
        5      2   -> CPss21::GetDiscreteSignalsReceipt()
        5      2   -> CPss21::GetErrorAlarmState(uint8_t)
        5      2   -> CPss21::SetAlarmWindowColor(uint8_t, uint8_t)
        5      2   -> CPss21::SetCommonAlarmType(uint8_t)
      0      2   CErrorAlarmDfa::GetAlarmWindowIndex()
      0      2   CErrorAlarmDfa::GetDiscreteStateIndex()
      0      2   CErrorAlarmDfa::new CErrorAlarmDfa()
        0      2   -> CErrorAlarmDfa::CErrorAlarmDfa()
        0      2   -> operator new(unsigned int)
      4      2   CErrorAlarmDfa::~CErrorAlarmDfa()
        4      2   -> CDfaLite::~CDfaLite()
        4      2   -> operator delete(void *)
      0      2   CIndicationAlarmHighLevelDfa::ACTIVE_LEVEL()
      0      2   CIndicationAlarmHighLevelDfa::ALARM_TYPE()
      2      2   CIndicationAlarmHighLevelDfa::CIndicationAlarmHighLevelDfa()
        2      2   -> CDfaLite::SetFsmState(uint8_t)
        2      2   -> CIndicationAlarmLowLevelDfa::CIndicationAlarmLowLevelDfa()
      0      2   CIndicationAlarmHighLevelDfa::IS_NAMUR_ON()
      0      2   CIndicationAlarmHighLevelDfa::new CIndicationAlarmHighLevelDfa()
        0      2   -> CIndicationAlarmHighLevelDfa::CIndicationAlarmHighLevelDfa()
        0      2   -> operator new(unsigned int)
      4      2   CIndicationAlarmHighLevelDfa::~CIndicationAlarmHighLevelDfa()
        4      2   -> CIndicationAlarmLowLevelDfa::~CIndicationAlarmLowLevelDfa()
        4      2   -> operator delete(void *)
      0      2   CIndicationAlarmHighLevelNamurDfa::ACTIVE_LEVEL()
      0      2   CIndicationAlarmHighLevelNamurDfa::ALARM_TYPE()
      2      2   CIndicationAlarmHighLevelNamurDfa::CIndicationAlarmHighLevelNamurDfa()
        2      2   -> CDfaLite::SetFsmState(uint8_t)
        2      2   -> CIndicationAlarmLowLevelDfa::CIndicationAlarmLowLevelDfa()
      0      2   CIndicationAlarmHighLevelNamurDfa::IS_NAMUR_ON()
      0      2   CIndicationAlarmHighLevelNamurDfa::new CIndicationAlarmHighLevelNamurDfa()
        0      2   -> CIndicationAlarmHighLevelNamurDfa::CIndicationAlarmHighLevelNamurDfa()
        0      2   -> operator new(unsigned int)
      4      2   CIndicationAlarmHighLevelNamurDfa::~CIndicationAlarmHighLevelNamurDfa()
        4      2   -> CIndicationAlarmLowLevelDfa::~CIndicationAlarmLowLevelDfa()
        4      2   -> operator delete(void *)
      0      2   CIndicationAlarmLowLevelDfa::ACTIVE_LEVEL()
      0      2   CIndicationAlarmLowLevelDfa::ALARM_TYPE()
      2      2   CIndicationAlarmLowLevelDfa::CIndicationAlarmLowLevelDfa()
        2      2   -> CAlarmDfa::CAlarmDfa()
        2      2   -> CDfaLite::SetFsmState(uint8_t)
      4      2   CIndicationAlarmLowLevelDfa::Fsm()
        4      2   -- Indirect call
        4      2   -> CAlarmDfa::GetAlarmWindowIndex()
        4      2   -> CAlarmDfa::GetDiscreteStateIndex()
        4      2   -> CAlarmDfa::GetLinkedDiscreteOutputsPointer()
        4      2   -> CAlarmWindow::SetActivityState(uint8_t)
        4      2   -> CDfaLite::GetFsmState()
        4      2   -> CDfaLite::SetFsmState(uint8_t)
        4      2   -> CPss21::DiscreteOutputsSet(uint8_t *, uint8_t)
        4      2   -> CPss21::GetAlarmWindowControlPointer(uint8_t)
        4      2   -> CPss21::GetDiscreteInputsBadState(uint8_t)
        4      2   -> CPss21::SetAlarmWindowColor(uint8_t, uint8_t)
        4      2   -> CPss21::SetAlarmWindowType(uint8_t, uint8_t)
        4      2   -> CPss21::SetDiscreteInputState(uint8_t, uint8_t)
      0      2   CIndicationAlarmLowLevelDfa::IS_NAMUR_ON()
      0      2   CIndicationAlarmLowLevelDfa::new CIndicationAlarmLowLevelDfa()
        0      2   -> CIndicationAlarmLowLevelDfa::CIndicationAlarmLowLevelDfa()
        0      2   -> operator new(unsigned int)
      4      2   CIndicationAlarmLowLevelDfa::~CIndicationAlarmLowLevelDfa()
        4      2   -> CAlarmDfa::~CAlarmDfa()
        4      2   -> operator delete(void *)
      0      2   CIndicationAlarmLowLevelNamurDfa::ACTIVE_LEVEL()
      0      2   CIndicationAlarmLowLevelNamurDfa::ALARM_TYPE()
      2      2   CIndicationAlarmLowLevelNamurDfa::CIndicationAlarmLowLevelNamurDfa()
        2      2   -> CDfaLite::SetFsmState(uint8_t)
        2      2   -> CIndicationAlarmLowLevelDfa::CIndicationAlarmLowLevelDfa()
      0      2   CIndicationAlarmLowLevelNamurDfa::IS_NAMUR_ON()
      0      2   CIndicationAlarmLowLevelNamurDfa::new CIndicationAlarmLowLevelNamurDfa()
        0      2   -> CIndicationAlarmLowLevelNamurDfa::CIndicationAlarmLowLevelNamurDfa()
        0      2   -> operator new(unsigned int)
      4      2   CIndicationAlarmLowLevelNamurDfa::~CIndicationAlarmLowLevelNamurDfa()
        4      2   -> CIndicationAlarmLowLevelDfa::~CIndicationAlarmLowLevelDfa()
        4      2   -> operator delete(void *)
      0      2   CNormalAlarmDfa::ACTIVE_LEVEL()
      0      2   CNormalAlarmDfa::ALARM_TYPE()
      2      2   CNormalAlarmDfa::CNormalAlarmDfa()
        2      2   -> CAlarmDfa::CAlarmDfa()
        2      2   -> CDfaLite::SetFsmState(uint8_t)
      0      2   CNormalAlarmDfa::IS_NAMUR_ON()
      0      2   CNormalAlarmDfa::new CNormalAlarmDfa()
        0      2   -> CNormalAlarmDfa::CNormalAlarmDfa()
        0      2   -> operator new(unsigned int)
      4      2   CNormalAlarmDfa::~CNormalAlarmDfa()
        4      2   -> CAlarmDfa::~CAlarmDfa()
        4      2   -> operator delete(void *)
      0      2   CPreventiveAlarmHighLevelDfa::ACTIVE_LEVEL()
      0      2   CPreventiveAlarmHighLevelDfa::ALARM_TYPE()
      2      2   CPreventiveAlarmHighLevelDfa::CPreventiveAlarmHighLevelDfa()
        2      2   -> CAlarmDfa::CAlarmDfa()
        2      2   -> CDfaLite::SetFsmState(uint8_t)
      0      2   CPreventiveAlarmHighLevelDfa::IS_NAMUR_ON()
      0      2   CPreventiveAlarmHighLevelDfa::new CPreventiveAlarmHighLevelDfa()
        0      2   -> CPreventiveAlarmHighLevelDfa::CPreventiveAlarmHighLevelDfa()
        0      2   -> operator new(unsigned int)
      4      2   CPreventiveAlarmHighLevelDfa::~CPreventiveAlarmHighLevelDfa()
        4      2   -> CAlarmDfa::~CAlarmDfa()
        4      2   -> operator delete(void *)
      0      2   CPreventiveAlarmHighLevelNamurDfa::ACTIVE_LEVEL()
      0      2   CPreventiveAlarmHighLevelNamurDfa::ALARM_TYPE()
      2      2   CPreventiveAlarmHighLevelNamurDfa::CPreventiveAlarmHighLevelNamurDfa()
        2      2   -> CAlarmDfa::CAlarmDfa()
        2      2   -> CDfaLite::SetFsmState(uint8_t)
      0      2   CPreventiveAlarmHighLevelNamurDfa::IS_NAMUR_ON()
      0      2   CPreventiveAlarmHighLevelNamurDfa::new CPreventiveAlarmHighLevelNamurDfa()
        0      2   -> CPreventiveAlarmHighLevelNamurDfa::CPreventiveAlarmHighLevelNamurDfa()
        0      2   -> operator new(unsigned int)
      4      2   CPreventiveAlarmHighLevelNamurDfa::~CPreventiveAlarmHighLevelNamurDfa()
        4      2   -> CAlarmDfa::~CAlarmDfa()
        4      2   -> operator delete(void *)
      0      2   CPreventiveAlarmLowLevelDfa::ACTIVE_LEVEL()
      0      2   CPreventiveAlarmLowLevelDfa::ALARM_TYPE()
      2      2   CPreventiveAlarmLowLevelDfa::CPreventiveAlarmLowLevelDfa()
        2      2   -> CAlarmDfa::CAlarmDfa()
        2      2   -> CDfaLite::SetFsmState(uint8_t)
      0      2   CPreventiveAlarmLowLevelDfa::IS_NAMUR_ON()
      0      2   CPreventiveAlarmLowLevelDfa::new CPreventiveAlarmLowLevelDfa()
        0      2   -> CPreventiveAlarmLowLevelDfa::CPreventiveAlarmLowLevelDfa()
        0      2   -> operator new(unsigned int)
      4      2   CPreventiveAlarmLowLevelDfa::~CPreventiveAlarmLowLevelDfa()
        4      2   -> CAlarmDfa::~CAlarmDfa()
        4      2   -> operator delete(void *)
      0      2   CPreventiveAlarmLowLevelNamurDfa::ACTIVE_LEVEL()
      0      2   CPreventiveAlarmLowLevelNamurDfa::ALARM_TYPE()
      2      2   CPreventiveAlarmLowLevelNamurDfa::CPreventiveAlarmLowLevelNamurDfa()
        2      2   -> CAlarmDfa::CAlarmDfa()
        2      2   -> CDfaLite::SetFsmState(uint8_t)
      0      2   CPreventiveAlarmLowLevelNamurDfa::IS_NAMUR_ON()
      0      2   CPreventiveAlarmLowLevelNamurDfa::new CPreventiveAlarmLowLevelNamurDfa()
        0      2   -> CPreventiveAlarmLowLevelNamurDfa::CPreventiveAlarmLowLevelNamurDfa()
        0      2   -> operator new(unsigned int)
      4      2   CPreventiveAlarmLowLevelNamurDfa::~CPreventiveAlarmLowLevelNamurDfa()
        4      2   -> CAlarmDfa::~CAlarmDfa()
        4      2   -> operator delete(void *)
      0      2   CPss21::GetAlarmWindowControlPointer(uint8_t)
        0      2 ?S_EC_MUL_L02
      0      2   CPss21::GetCommonAlarmType()
      0      2   CPss21::GetDiscreteSignalsReceipt()
      0      2   CPss21::GetDiscreteSignalsReset()
      0      2   CPss21::SetCommonAlarmType(uint8_t)


   Segment part sizes:

   Bytes  Function/Label
   -----  --------------
      26  ?<Jumptable for Fsm>_0
       6  CAlarmDfa::ACTIVE_LEVEL()
       6  CAlarmDfa::ALARM_TYPE()
      30  CAlarmDfa::CAlarmDfa()
    1292  CAlarmDfa::Fsm()
       6  CAlarmDfa::GetAlarmWindowIndex()
       6  CAlarmDfa::GetDiscreteStateIndex()
       6  CAlarmDfa::GetLinkedDiscreteOutputsPointer()
       6  CAlarmDfa::IS_NAMUR_ON()
      24  CAlarmDfa::new CAlarmDfa()
      40  CAlarmDfa::~CAlarmDfa()
       6  CAlarmWindow::SetActivityState(uint8_t)
       6  CDfaLite::GetFsmState()
       6  CDfaLite::SetFsmState(uint8_t)
       6  CEmergencyAlarmHighLevelDfa::ACTIVE_LEVEL()
       6  CEmergencyAlarmHighLevelDfa::ALARM_TYPE()
      36  CEmergencyAlarmHighLevelDfa::CEmergencyAlarmHighLevelDfa()
       6  CEmergencyAlarmHighLevelDfa::IS_NAMUR_ON()
      24  CEmergencyAlarmHighLevelDfa::new CEmergencyAlarmHighLevelDfa()
      38  CEmergencyAlarmHighLevelDfa::~CEmergencyAlarmHighLevelDfa()
       6  CEmergencyAlarmHighLevelNamurDfa::ACTIVE_LEVEL()
       6  CEmergencyAlarmHighLevelNamurDfa::ALARM_TYPE()
      36  CEmergencyAlarmHighLevelNamurDfa::CEmergencyAlarmHighLevelNamurDfa()
       6  CEmergencyAlarmHighLevelNamurDfa::IS_NAMUR_ON()
      24  CEmergencyAlarmHighLevelNamurDfa::new CEmergencyAlarmHighLevelNamurDfa()
      38  CEmergencyAlarmHighLevelNamurDfa::~CEmergencyAlarmHighLevelNamurDfa()
       6  CEmergencyAlarmLowLevelDfa::ACTIVE_LEVEL()
       6  CEmergencyAlarmLowLevelDfa::ALARM_TYPE()
      36  CEmergencyAlarmLowLevelDfa::CEmergencyAlarmLowLevelDfa()
       6  CEmergencyAlarmLowLevelDfa::IS_NAMUR_ON()
      24  CEmergencyAlarmLowLevelDfa::new CEmergencyAlarmLowLevelDfa()
      38  CEmergencyAlarmLowLevelDfa::~CEmergencyAlarmLowLevelDfa()
       6  CEmergencyAlarmLowLevelNamurDfa::ACTIVE_LEVEL()
       6  CEmergencyAlarmLowLevelNamurDfa::ALARM_TYPE()
      36  CEmergencyAlarmLowLevelNamurDfa::CEmergencyAlarmLowLevelNamurDfa()
       6  CEmergencyAlarmLowLevelNamurDfa::IS_NAMUR_ON()
      24  CEmergencyAlarmLowLevelNamurDfa::new CEmergencyAlarmLowLevelNamurDfa()
      38  CEmergencyAlarmLowLevelNamurDfa::~CEmergencyAlarmLowLevelNamurDfa()
       6  CErrorAlarmDfa::ACTIVE_LEVEL()
       6  CErrorAlarmDfa::ALARM_TYPE()
      38  CErrorAlarmDfa::CErrorAlarmDfa()
     318  CErrorAlarmDfa::Fsm()
       6  CErrorAlarmDfa::GetAlarmWindowIndex()
       6  CErrorAlarmDfa::GetDiscreteStateIndex()
      24  CErrorAlarmDfa::new CErrorAlarmDfa()
      40  CErrorAlarmDfa::~CErrorAlarmDfa()
       6  CIndicationAlarmHighLevelDfa::ACTIVE_LEVEL()
       6  CIndicationAlarmHighLevelDfa::ALARM_TYPE()
      36  CIndicationAlarmHighLevelDfa::CIndicationAlarmHighLevelDfa()
       6  CIndicationAlarmHighLevelDfa::IS_NAMUR_ON()
      24  CIndicationAlarmHighLevelDfa::new CIndicationAlarmHighLevelDfa()
      38  CIndicationAlarmHighLevelDfa::~CIndicationAlarmHighLevelDfa()
       6  CIndicationAlarmHighLevelNamurDfa::ACTIVE_LEVEL()
       6  CIndicationAlarmHighLevelNamurDfa::ALARM_TYPE()
      36  CIndicationAlarmHighLevelNamurDfa::CIndicationAlarmHighLevelNamurDfa()
       6  CIndicationAlarmHighLevelNamurDfa::IS_NAMUR_ON()
      24  CIndicationAlarmHighLevelNamurDfa::new CIndicationAlarmHighLevelNamurDfa()
      38  CIndicationAlarmHighLevelNamurDfa::~CIndicationAlarmHighLevelNamurDfa()
       6  CIndicationAlarmLowLevelDfa::ACTIVE_LEVEL()
       6  CIndicationAlarmLowLevelDfa::ALARM_TYPE()
      36  CIndicationAlarmLowLevelDfa::CIndicationAlarmLowLevelDfa()
    1016  CIndicationAlarmLowLevelDfa::Fsm()
       6  CIndicationAlarmLowLevelDfa::IS_NAMUR_ON()
      24  CIndicationAlarmLowLevelDfa::new CIndicationAlarmLowLevelDfa()
      38  CIndicationAlarmLowLevelDfa::~CIndicationAlarmLowLevelDfa()
       6  CIndicationAlarmLowLevelNamurDfa::ACTIVE_LEVEL()
       6  CIndicationAlarmLowLevelNamurDfa::ALARM_TYPE()
      36  CIndicationAlarmLowLevelNamurDfa::CIndicationAlarmLowLevelNamurDfa()
       6  CIndicationAlarmLowLevelNamurDfa::IS_NAMUR_ON()
      24  CIndicationAlarmLowLevelNamurDfa::new CIndicationAlarmLowLevelNamurDfa()
      38  CIndicationAlarmLowLevelNamurDfa::~CIndicationAlarmLowLevelNamurDfa()
       6  CNormalAlarmDfa::ACTIVE_LEVEL()
       6  CNormalAlarmDfa::ALARM_TYPE()
      36  CNormalAlarmDfa::CNormalAlarmDfa()
       6  CNormalAlarmDfa::IS_NAMUR_ON()
      24  CNormalAlarmDfa::new CNormalAlarmDfa()
      38  CNormalAlarmDfa::~CNormalAlarmDfa()
       6  CPreventiveAlarmHighLevelDfa::ACTIVE_LEVEL()
       6  CPreventiveAlarmHighLevelDfa::ALARM_TYPE()
      36  CPreventiveAlarmHighLevelDfa::CPreventiveAlarmHighLevelDfa()
       6  CPreventiveAlarmHighLevelDfa::IS_NAMUR_ON()
      24  CPreventiveAlarmHighLevelDfa::new CPreventiveAlarmHighLevelDfa()
      38  CPreventiveAlarmHighLevelDfa::~CPreventiveAlarmHighLevelDfa()
       6  CPreventiveAlarmHighLevelNamurDfa::ACTIVE_LEVEL()
       6  CPreventiveAlarmHighLevelNamurDfa::ALARM_TYPE()
      36  CPreventiveAlarmHighLevelNamurDfa::CPreventiveAlarmHighLevelNamurDfa()
       6  CPreventiveAlarmHighLevelNamurDfa::IS_NAMUR_ON()
      24  CPreventiveAlarmHighLevelNamurDfa::new CPreventiveAlarmHighLevelNamurDfa()
      38  CPreventiveAlarmHighLevelNamurDfa::~CPreventiveAlarmHighLevelNamurDfa()
       6  CPreventiveAlarmLowLevelDfa::ACTIVE_LEVEL()
       6  CPreventiveAlarmLowLevelDfa::ALARM_TYPE()
      36  CPreventiveAlarmLowLevelDfa::CPreventiveAlarmLowLevelDfa()
       6  CPreventiveAlarmLowLevelDfa::IS_NAMUR_ON()
      24  CPreventiveAlarmLowLevelDfa::new CPreventiveAlarmLowLevelDfa()
      38  CPreventiveAlarmLowLevelDfa::~CPreventiveAlarmLowLevelDfa()
       6  CPreventiveAlarmLowLevelNamurDfa::ACTIVE_LEVEL()
       6  CPreventiveAlarmLowLevelNamurDfa::ALARM_TYPE()
      36  CPreventiveAlarmLowLevelNamurDfa::CPreventiveAlarmLowLevelNamurDfa()
       6  CPreventiveAlarmLowLevelNamurDfa::IS_NAMUR_ON()
      24  CPreventiveAlarmLowLevelNamurDfa::new CPreventiveAlarmLowLevelNamurDfa()
      38  CPreventiveAlarmLowLevelNamurDfa::~CPreventiveAlarmLowLevelNamurDfa()
      22  CPss21::GetAlarmWindowControlPointer(uint8_t)
       6  CPss21::GetCommonAlarmType()
       6  CPss21::GetDiscreteSignalsReceipt()
       6  CPss21::GetDiscreteSignalsReset()
       6  CPss21::SetCommonAlarmType(uint8_t)
       1  _A_ACSR
       2  _A_ADC
       1  _A_ADCSRA
       1  _A_ADMUX
       1  _A_ASSR
       1  _A_DDRA
       1  _A_DDRB
       1  _A_DDRC
       1  _A_DDRD
       1  _A_DDRE
       1  _A_DDRF
       1  _A_DDRG
       2  _A_EEAR
       1  _A_EECR
       1  _A_EEDR
       1  _A_EICRA
       1  _A_EICRB
       1  _A_EIFR
       1  _A_EIMSK
       1  _A_ETIFR
       1  _A_ETIMSK
       2  _A_ICR1
       2  _A_ICR3
       1  _A_MCUCR
       1  _A_MCUCSR
       1  _A_OCDR
       1  _A_OCR0
       2  _A_OCR1A
       2  _A_OCR1B
       2  _A_OCR1C
       1  _A_OCR2
       2  _A_OCR3A
       2  _A_OCR3B
       2  _A_OCR3C
       1  _A_OSCCAL
       1  _A_PINA
       1  _A_PINB
       1  _A_PINC
       1  _A_PIND
       1  _A_PINE
       1  _A_PINF
       1  _A_PING
       1  _A_PORTA
       1  _A_PORTB
       1  _A_PORTC
       1  _A_PORTD
       1  _A_PORTE
       1  _A_PORTF
       1  _A_PORTG
       1  _A_RAMPZ
       1  _A_SFIOR
       2  _A_SP
       1  _A_SPCR
       1  _A_SPDR
       1  _A_SPMCSR
       1  _A_SPSR
       1  _A_SREG
       1  _A_TCCR0
       1  _A_TCCR1A
       1  _A_TCCR1B
       1  _A_TCCR1C
       1  _A_TCCR2
       1  _A_TCCR3A
       1  _A_TCCR3B
       1  _A_TCCR3C
       1  _A_TCNT0
       2  _A_TCNT1
       1  _A_TCNT2
       2  _A_TCNT3
       1  _A_TIFR
       1  _A_TIMSK
       1  _A_TWAR
       1  _A_TWBR
       1  _A_TWCR
       1  _A_TWDR
       1  _A_TWSR
       1  _A_UBRR0H
       1  _A_UBRR0L
       1  _A_UBRR1H
       1  _A_UBRR1L
       1  _A_UCSR0A
       1  _A_UCSR0B
       1  _A_UCSR0C
       1  _A_UCSR1A
       1  _A_UCSR1B
       1  _A_UCSR1C
       1  _A_UDR0
       1  _A_UDR1
       1  _A_WDTCR
       1  _A_XDIV
       1  _A_XMCRA
       1  _A_XMCRB
     170  -- Other

 
   105 bytes in segment ABSOLUTE
 4 454 bytes in segment CODE
   170 bytes in segment NEAR_F
    26 bytes in segment SWITCH
 
 4 144 bytes of CODE memory (+ 506 bytes shared)
     0 bytes of DATA memory (+ 105 bytes shared)

Errors: none
Warnings: 7
