###############################################################################
#
# IAR C/C++ Compiler V7.10.6.1378 for Atmel AVR           05/Sep/2024  12:01:54
# Copyright 1996-2018 IAR Systems AB.
#
#    Source file  =  
#        D:\Projects\CurrentProjects\CautoProjects\PSS48Color\src\Alarm.cpp
#    Command line =  
#        -f C:\Users\Admin\AppData\Local\Temp\EWE8EB.tmp
#        (--string_literals_in_flash
#        D:\Projects\CurrentProjects\CautoProjects\PSS48Color\src\Alarm.cpp
#        --cpu=m128a -ms -o
#        D:\Projects\CurrentProjects\CautoProjects\PSS48Color\Debug\Obj -lC
#        D:\Projects\CurrentProjects\CautoProjects\PSS48Color\Debug\List -lB
#        D:\Projects\CurrentProjects\CautoProjects\PSS48Color\Debug\List -y
#        --initializers_in_flash --root_variables --no_cse --no_inline
#        --no_code_motion --no_cross_call --no_clustering --no_tbaa --debug
#        -DENABLE_BIT_DEFINITIONS -e -I
#        D:\Projects\CurrentProjects\CautoProjects\PSS48Color\Modbus\ -I
#        D:\Projects\CurrentProjects\CautoProjects\PSS48Color\include\
#        --eeprom_size 4096 --dlib --dlib_config "C:\Program Files (x86)\IAR
#        Systems\Embedded Workbench 8.0\avr\LIB\DLIB\dlAVR-3s-ec_mul-n.h" -On
#        --eec++)
#    Locale       =  Russian_RUS.1251
#    List file    =  
#        D:\Projects\CurrentProjects\CautoProjects\PSS48Color\Debug\List\Alarm.lst
#    Object file  =  
#        D:\Projects\CurrentProjects\CautoProjects\PSS48Color\Debug\Obj\Alarm.r90
#
###############################################################################

D:\Projects\CurrentProjects\CautoProjects\PSS48Color\src\Alarm.cpp
      1          //-----------------------------------------------------------------------------------------------------
      2          //  Source      : FileName.cpp
      3          //  Created     : 01.06.2022
      4          //  Author      : Alexandr Volvenkin
      5          //  email       : aav-36@mail.ru
      6          //  GitHub      : https://github.com/AlexandrVolvenkin
      7          //-----------------------------------------------------------------------------------------------------
      8          #include "Dfa.h"

   \                                 In  segment CODE, align 2, keep-with-next
   \   __version_3 void CDfaLite::SetFsmState(uint8_t)
   \                     ??SetFsmState:
   \   00000000   01F8               MOVW    R31:R30, R17:R16
   \   00000002   8320               ST      Z, R18
   \   00000004   9508               RET

   \                                 In  segment CODE, align 2, keep-with-next
   \   __version_3 uint8_t CDfaLite::GetFsmState()
   \                     ??GetFsmState:
   \   00000000   01F8               MOVW    R31:R30, R17:R16
   \   00000002   8100               LD      R16, Z
   \   00000004   9508               RET
      9          #include "Platform.h"

   \                                 In  segment ABSOLUTE, at 0x9d, root
   \   union <unnamed> volatile __io _A_UCSR1C
   \                     _A_UCSR1C:
   \   00000000                      DS8 1

   \                                 In  segment ABSOLUTE, at 0x9c, root
   \   union <unnamed> volatile __io _A_UDR1
   \                     _A_UDR1:
   \   00000000                      DS8 1

   \                                 In  segment ABSOLUTE, at 0x9b, root
   \   union <unnamed> volatile __io _A_UCSR1A
   \                     _A_UCSR1A:
   \   00000000                      DS8 1

   \                                 In  segment ABSOLUTE, at 0x9a, root
   \   union <unnamed> volatile __io _A_UCSR1B
   \                     _A_UCSR1B:
   \   00000000                      DS8 1

   \                                 In  segment ABSOLUTE, at 0x99, root
   \   union <unnamed> volatile __io _A_UBRR1L
   \                     _A_UBRR1L:
   \   00000000                      DS8 1

   \                                 In  segment ABSOLUTE, at 0x98, root
   \   union <unnamed> volatile __io _A_UBRR1H
   \                     _A_UBRR1H:
   \   00000000                      DS8 1

   \                                 In  segment ABSOLUTE, at 0x95, root
   \   union <unnamed> volatile __io _A_UCSR0C
   \                     _A_UCSR0C:
   \   00000000                      DS8 1

   \                                 In  segment ABSOLUTE, at 0x90, root
   \   union <unnamed> volatile __io _A_UBRR0H
   \                     _A_UBRR0H:
   \   00000000                      DS8 1

   \                                 In  segment ABSOLUTE, at 0x8c, root
   \   union <unnamed> volatile __io _A_TCCR3C
   \                     _A_TCCR3C:
   \   00000000                      DS8 1

   \                                 In  segment ABSOLUTE, at 0x8b, root
   \   union <unnamed> volatile __io _A_TCCR3A
   \                     _A_TCCR3A:
   \   00000000                      DS8 1

   \                                 In  segment ABSOLUTE, at 0x8a, root
   \   union <unnamed> volatile __io _A_TCCR3B
   \                     _A_TCCR3B:
   \   00000000                      DS8 1

   \                                 In  segment ABSOLUTE, at 0x88, root
   \   union <unnamed> volatile __io _A_TCNT3
   \                     _A_TCNT3:
   \   00000000                      DS8 2

   \                                 In  segment ABSOLUTE, at 0x86, root
   \   union <unnamed> volatile __io _A_OCR3A
   \                     _A_OCR3A:
   \   00000000                      DS8 2

   \                                 In  segment ABSOLUTE, at 0x84, root
   \   union <unnamed> volatile __io _A_OCR3B
   \                     _A_OCR3B:
   \   00000000                      DS8 2

   \                                 In  segment ABSOLUTE, at 0x82, root
   \   union <unnamed> volatile __io _A_OCR3C
   \                     _A_OCR3C:
   \   00000000                      DS8 2

   \                                 In  segment ABSOLUTE, at 0x80, root
   \   union <unnamed> volatile __io _A_ICR3
   \                     _A_ICR3:
   \   00000000                      DS8 2

   \                                 In  segment ABSOLUTE, at 0x7d, root
   \   union <unnamed> volatile __io _A_ETIMSK
   \                     _A_ETIMSK:
   \   00000000                      DS8 1

   \                                 In  segment ABSOLUTE, at 0x7c, root
   \   union <unnamed> volatile __io _A_ETIFR
   \                     _A_ETIFR:
   \   00000000                      DS8 1

   \                                 In  segment ABSOLUTE, at 0x7a, root
   \   union <unnamed> volatile __io _A_TCCR1C
   \                     _A_TCCR1C:
   \   00000000                      DS8 1

   \                                 In  segment ABSOLUTE, at 0x78, root
   \   union <unnamed> volatile __io _A_OCR1C
   \                     _A_OCR1C:
   \   00000000                      DS8 2

   \                                 In  segment ABSOLUTE, at 0x74, root
   \   union <unnamed> volatile __io _A_TWCR
   \                     _A_TWCR:
   \   00000000                      DS8 1

   \                                 In  segment ABSOLUTE, at 0x73, root
   \   union <unnamed> volatile __io _A_TWDR
   \                     _A_TWDR:
   \   00000000                      DS8 1

   \                                 In  segment ABSOLUTE, at 0x72, root
   \   union <unnamed> volatile __io _A_TWAR
   \                     _A_TWAR:
   \   00000000                      DS8 1

   \                                 In  segment ABSOLUTE, at 0x71, root
   \   union <unnamed> volatile __io _A_TWSR
   \                     _A_TWSR:
   \   00000000                      DS8 1

   \                                 In  segment ABSOLUTE, at 0x70, root
   \   union <unnamed> volatile __io _A_TWBR
   \                     _A_TWBR:
   \   00000000                      DS8 1

   \                                 In  segment ABSOLUTE, at 0x6f, root
   \   union <unnamed> volatile __io _A_OSCCAL
   \                     _A_OSCCAL:
   \   00000000                      DS8 1

   \                                 In  segment ABSOLUTE, at 0x6d, root
   \   union <unnamed> volatile __io _A_XMCRA
   \                     _A_XMCRA:
   \   00000000                      DS8 1

   \                                 In  segment ABSOLUTE, at 0x6c, root
   \   union <unnamed> volatile __io _A_XMCRB
   \                     _A_XMCRB:
   \   00000000                      DS8 1

   \                                 In  segment ABSOLUTE, at 0x6a, root
   \   union <unnamed> volatile __io _A_EICRA
   \                     _A_EICRA:
   \   00000000                      DS8 1

   \                                 In  segment ABSOLUTE, at 0x68, root
   \   union <unnamed> volatile __io _A_SPMCSR
   \                     _A_SPMCSR:
   \   00000000                      DS8 1

   \                                 In  segment ABSOLUTE, at 0x65, root
   \   union <unnamed> volatile __io _A_PORTG
   \                     _A_PORTG:
   \   00000000                      DS8 1

   \                                 In  segment ABSOLUTE, at 0x64, root
   \   union <unnamed> volatile __io _A_DDRG
   \                     _A_DDRG:
   \   00000000                      DS8 1

   \                                 In  segment ABSOLUTE, at 0x63, root
   \   union <unnamed> volatile __io _A_PING
   \                     _A_PING:
   \   00000000                      DS8 1

   \                                 In  segment ABSOLUTE, at 0x62, root
   \   union <unnamed> volatile __io _A_PORTF
   \                     _A_PORTF:
   \   00000000                      DS8 1

   \                                 In  segment ABSOLUTE, at 0x61, root
   \   union <unnamed> volatile __io _A_DDRF
   \                     _A_DDRF:
   \   00000000                      DS8 1

   \                                 In  segment ABSOLUTE, at 0x5f, root
   \   union <unnamed> volatile __io _A_SREG
   \                     _A_SREG:
   \   00000000                      DS8 1

   \                                 In  segment ABSOLUTE, at 0x5d, root
   \   union <unnamed> volatile __io _A_SP
   \                     _A_SP:
   \   00000000                      DS8 2

   \                                 In  segment ABSOLUTE, at 0x5c, root
   \   union <unnamed> volatile __io _A_XDIV
   \                     _A_XDIV:
   \   00000000                      DS8 1

   \                                 In  segment ABSOLUTE, at 0x5b, root
   \   union <unnamed> volatile __io _A_RAMPZ
   \                     _A_RAMPZ:
   \   00000000                      DS8 1

   \                                 In  segment ABSOLUTE, at 0x5a, root
   \   union <unnamed> volatile __io _A_EICRB
   \                     _A_EICRB:
   \   00000000                      DS8 1

   \                                 In  segment ABSOLUTE, at 0x59, root
   \   union <unnamed> volatile __io _A_EIMSK
   \                     _A_EIMSK:
   \   00000000                      DS8 1

   \                                 In  segment ABSOLUTE, at 0x58, root
   \   union <unnamed> volatile __io _A_EIFR
   \                     _A_EIFR:
   \   00000000                      DS8 1

   \                                 In  segment ABSOLUTE, at 0x57, root
   \   union <unnamed> volatile __io _A_TIMSK
   \                     _A_TIMSK:
   \   00000000                      DS8 1

   \                                 In  segment ABSOLUTE, at 0x56, root
   \   union <unnamed> volatile __io _A_TIFR
   \                     _A_TIFR:
   \   00000000                      DS8 1

   \                                 In  segment ABSOLUTE, at 0x55, root
   \   union <unnamed> volatile __io _A_MCUCR
   \                     _A_MCUCR:
   \   00000000                      DS8 1

   \                                 In  segment ABSOLUTE, at 0x54, root
   \   union <unnamed> volatile __io _A_MCUCSR
   \                     _A_MCUCSR:
   \   00000000                      DS8 1

   \                                 In  segment ABSOLUTE, at 0x53, root
   \   union <unnamed> volatile __io _A_TCCR0
   \                     _A_TCCR0:
   \   00000000                      DS8 1

   \                                 In  segment ABSOLUTE, at 0x52, root
   \   union <unnamed> volatile __io _A_TCNT0
   \                     _A_TCNT0:
   \   00000000                      DS8 1

   \                                 In  segment ABSOLUTE, at 0x51, root
   \   union <unnamed> volatile __io _A_OCR0
   \                     _A_OCR0:
   \   00000000                      DS8 1

   \                                 In  segment ABSOLUTE, at 0x50, root
   \   union <unnamed> volatile __io _A_ASSR
   \                     _A_ASSR:
   \   00000000                      DS8 1

   \                                 In  segment ABSOLUTE, at 0x4f, root
   \   union <unnamed> volatile __io _A_TCCR1A
   \                     _A_TCCR1A:
   \   00000000                      DS8 1

   \                                 In  segment ABSOLUTE, at 0x4e, root
   \   union <unnamed> volatile __io _A_TCCR1B
   \                     _A_TCCR1B:
   \   00000000                      DS8 1

   \                                 In  segment ABSOLUTE, at 0x4c, root
   \   union <unnamed> volatile __io _A_TCNT1
   \                     _A_TCNT1:
   \   00000000                      DS8 2

   \                                 In  segment ABSOLUTE, at 0x4a, root
   \   union <unnamed> volatile __io _A_OCR1A
   \                     _A_OCR1A:
   \   00000000                      DS8 2

   \                                 In  segment ABSOLUTE, at 0x48, root
   \   union <unnamed> volatile __io _A_OCR1B
   \                     _A_OCR1B:
   \   00000000                      DS8 2

   \                                 In  segment ABSOLUTE, at 0x46, root
   \   union <unnamed> volatile __io _A_ICR1
   \                     _A_ICR1:
   \   00000000                      DS8 2

   \                                 In  segment ABSOLUTE, at 0x45, root
   \   union <unnamed> volatile __io _A_TCCR2
   \                     _A_TCCR2:
   \   00000000                      DS8 1

   \                                 In  segment ABSOLUTE, at 0x44, root
   \   union <unnamed> volatile __io _A_TCNT2
   \                     _A_TCNT2:
   \   00000000                      DS8 1

   \                                 In  segment ABSOLUTE, at 0x43, root
   \   union <unnamed> volatile __io _A_OCR2
   \                     _A_OCR2:
   \   00000000                      DS8 1

   \                                 In  segment ABSOLUTE, at 0x42, root
   \   union <unnamed> volatile __io _A_OCDR
   \                     _A_OCDR:
   \   00000000                      DS8 1

   \                                 In  segment ABSOLUTE, at 0x41, root
   \   union <unnamed> volatile __io _A_WDTCR
   \                     _A_WDTCR:
   \   00000000                      DS8 1

   \                                 In  segment ABSOLUTE, at 0x40, root
   \   union <unnamed> volatile __io _A_SFIOR
   \                     _A_SFIOR:
   \   00000000                      DS8 1

   \                                 In  segment ABSOLUTE, at 0x3e, root
   \   union <unnamed> volatile __io _A_EEAR
   \                     _A_EEAR:
   \   00000000                      DS8 2

   \                                 In  segment ABSOLUTE, at 0x3d, root
   \   union <unnamed> volatile __io _A_EEDR
   \                     _A_EEDR:
   \   00000000                      DS8 1

   \                                 In  segment ABSOLUTE, at 0x3c, root
   \   union <unnamed> volatile __io _A_EECR
   \                     _A_EECR:
   \   00000000                      DS8 1

   \                                 In  segment ABSOLUTE, at 0x3b, root
   \   union <unnamed> volatile __io _A_PORTA
   \                     _A_PORTA:
   \   00000000                      DS8 1

   \                                 In  segment ABSOLUTE, at 0x3a, root
   \   union <unnamed> volatile __io _A_DDRA
   \                     _A_DDRA:
   \   00000000                      DS8 1

   \                                 In  segment ABSOLUTE, at 0x39, root
   \   union <unnamed> volatile __io _A_PINA
   \                     _A_PINA:
   \   00000000                      DS8 1

   \                                 In  segment ABSOLUTE, at 0x38, root
   \   union <unnamed> volatile __io _A_PORTB
   \                     _A_PORTB:
   \   00000000                      DS8 1

   \                                 In  segment ABSOLUTE, at 0x37, root
   \   union <unnamed> volatile __io _A_DDRB
   \                     _A_DDRB:
   \   00000000                      DS8 1

   \                                 In  segment ABSOLUTE, at 0x36, root
   \   union <unnamed> volatile __io _A_PINB
   \                     _A_PINB:
   \   00000000                      DS8 1

   \                                 In  segment ABSOLUTE, at 0x35, root
   \   union <unnamed> volatile __io _A_PORTC
   \                     _A_PORTC:
   \   00000000                      DS8 1

   \                                 In  segment ABSOLUTE, at 0x34, root
   \   union <unnamed> volatile __io _A_DDRC
   \                     _A_DDRC:
   \   00000000                      DS8 1

   \                                 In  segment ABSOLUTE, at 0x33, root
   \   union <unnamed> volatile __io _A_PINC
   \                     _A_PINC:
   \   00000000                      DS8 1

   \                                 In  segment ABSOLUTE, at 0x32, root
   \   union <unnamed> volatile __io _A_PORTD
   \                     _A_PORTD:
   \   00000000                      DS8 1

   \                                 In  segment ABSOLUTE, at 0x31, root
   \   union <unnamed> volatile __io _A_DDRD
   \                     _A_DDRD:
   \   00000000                      DS8 1

   \                                 In  segment ABSOLUTE, at 0x30, root
   \   union <unnamed> volatile __io _A_PIND
   \                     _A_PIND:
   \   00000000                      DS8 1

   \                                 In  segment ABSOLUTE, at 0x2f, root
   \   union <unnamed> volatile __io _A_SPDR
   \                     _A_SPDR:
   \   00000000                      DS8 1

   \                                 In  segment ABSOLUTE, at 0x2e, root
   \   union <unnamed> volatile __io _A_SPSR
   \                     _A_SPSR:
   \   00000000                      DS8 1

   \                                 In  segment ABSOLUTE, at 0x2d, root
   \   union <unnamed> volatile __io _A_SPCR
   \                     _A_SPCR:
   \   00000000                      DS8 1

   \                                 In  segment ABSOLUTE, at 0x2c, root
   \   union <unnamed> volatile __io _A_UDR0
   \                     _A_UDR0:
   \   00000000                      DS8 1

   \                                 In  segment ABSOLUTE, at 0x2b, root
   \   union <unnamed> volatile __io _A_UCSR0A
   \                     _A_UCSR0A:
   \   00000000                      DS8 1

   \                                 In  segment ABSOLUTE, at 0x2a, root
   \   union <unnamed> volatile __io _A_UCSR0B
   \                     _A_UCSR0B:
   \   00000000                      DS8 1

   \                                 In  segment ABSOLUTE, at 0x29, root
   \   union <unnamed> volatile __io _A_UBRR0L
   \                     _A_UBRR0L:
   \   00000000                      DS8 1

   \                                 In  segment ABSOLUTE, at 0x28, root
   \   union <unnamed> volatile __io _A_ACSR
   \                     _A_ACSR:
   \   00000000                      DS8 1

   \                                 In  segment ABSOLUTE, at 0x27, root
   \   union <unnamed> volatile __io _A_ADMUX
   \                     _A_ADMUX:
   \   00000000                      DS8 1

   \                                 In  segment ABSOLUTE, at 0x26, root
   \   union <unnamed> volatile __io _A_ADCSRA
   \                     _A_ADCSRA:
   \   00000000                      DS8 1

   \                                 In  segment ABSOLUTE, at 0x24, root
   \   union <unnamed> volatile __io _A_ADC
   \                     _A_ADC:
   \   00000000                      DS8 2

   \                                 In  segment ABSOLUTE, at 0x23, root
   \   union <unnamed> volatile __io _A_PORTE
   \                     _A_PORTE:
   \   00000000                      DS8 1

   \                                 In  segment ABSOLUTE, at 0x22, root
   \   union <unnamed> volatile __io _A_DDRE
   \                     _A_DDRE:
   \   00000000                      DS8 1

   \                                 In  segment ABSOLUTE, at 0x21, root
   \   union <unnamed> volatile __io _A_PINE
   \                     _A_PINE:
   \   00000000                      DS8 1

   \                                 In  segment ABSOLUTE, at 0x20, root
   \   union <unnamed> volatile __io _A_PINF
   \                     _A_PINF:
   \   00000000                      DS8 1

      static __flash TDataBase CFlash::xMainDataBase;
                               ^
"D:\Projects\CurrentProjects\CautoProjects\PSS48Color\include\Platform.h",368  Warning[Pe427]: 
          qualified name is not allowed in member declaration

      static __flash TDataBaseBlockPositionData CFlash::axDataBaseBlocksPositionData[];
                                                ^
"D:\Projects\CurrentProjects\CautoProjects\PSS48Color\include\Platform.h",369  Warning[Pe427]: 
          qualified name is not allowed in member declaration
     10          #include "Pss21.h"

   \                                 In  segment CODE, align 2, keep-with-next
   \   __version_3 void CAlarmWindow::SetActivityState(uint8_t)
   \                     ??SetActivityState:
   \   00000000   01F8               MOVW    R31:R30, R17:R16
   \   00000002   8320               ST      Z, R18
   \   00000004   9508               RET

   \                                 In  segment CODE, align 2, keep-with-next
   \   __version_3 uint8_t CAlarmDfa::ALARM_TYPE()
   \                     ??ALARM_TYPE:
   \   00000000   0198               MOVW    R19:R18, R17:R16
   \   00000002   E000               LDI     R16, 0
   \   00000004   9508               RET

   \                                 In  segment CODE, align 2, keep-with-next
   \   __version_3 uint8_t CAlarmDfa::ACTIVE_LEVEL()
   \                     ??ACTIVE_LEVEL:
   \   00000000   0198               MOVW    R19:R18, R17:R16
   \   00000002   E000               LDI     R16, 0
   \   00000004   9508               RET

   \                                 In  segment CODE, align 2, keep-with-next
   \   __version_3 uint8_t CAlarmDfa::GetDiscreteStateIndex()
   \                     ??GetDiscreteStateIndex:
   \   00000000   01F8               MOVW    R31:R30, R17:R16
   \   00000002   8105               LDD     R16, Z+5
   \   00000004   9508               RET

   \                                 In  segment CODE, align 2, keep-with-next
   \   __version_3 uint8_t CAlarmDfa::GetAlarmWindowIndex()
   \                     ??GetAlarmWindowIndex:
   \   00000000   01F8               MOVW    R31:R30, R17:R16
   \   00000002   8103               LDD     R16, Z+3
   \   00000004   9508               RET

   \                                 In  segment CODE, align 2, keep-with-next
   \   __version_3 uint8_t *CAlarmDfa::GetLinkedDiscreteOutputsPointer()
   \                     ??GetLinkedDiscreteOutputsPointer:
   \   00000000   5F0C               SUBI    R16, 252
   \   00000002   4F1F               SBCI    R17, 255
   \   00000004   9508               RET

   \                                 In  segment CODE, align 2, keep-with-next
   \   __version_3 uint8_t CNormalAlarmDfa::ALARM_TYPE()
   \                     ??ALARM_TYPE_1:
   \   00000000   0198               MOVW    R19:R18, R17:R16
   \   00000002   E000               LDI     R16, 0
   \   00000004   9508               RET

   \                                 In  segment CODE, align 2, keep-with-next
   \   __version_3 uint8_t CNormalAlarmDfa::ACTIVE_LEVEL()
   \                     ??ACTIVE_LEVEL_1:
   \   00000000   0198               MOVW    R19:R18, R17:R16
   \   00000002   E000               LDI     R16, 0
   \   00000004   9508               RET

   \                                 In  segment CODE, align 2, keep-with-next
   \   __version_3 uint8_t CPreventiveAlarmLowLevelDfa::ALARM_TYPE()
   \                     ??ALARM_TYPE_2:
   \   00000000   0198               MOVW    R19:R18, R17:R16
   \   00000002   E002               LDI     R16, 2
   \   00000004   9508               RET

   \                                 In  segment CODE, align 2, keep-with-next
   \   __version_3 uint8_t CPreventiveAlarmLowLevelDfa::ACTIVE_LEVEL()
   \                     ??ACTIVE_LEVEL_2:
   \   00000000   0198               MOVW    R19:R18, R17:R16
   \   00000002   E000               LDI     R16, 0
   \   00000004   9508               RET

   \                                 In  segment CODE, align 2, keep-with-next
   \   __version_3 uint8_t CPreventiveAlarmHighLevelDfa::ALARM_TYPE()
   \                     ??ALARM_TYPE_3:
   \   00000000   0198               MOVW    R19:R18, R17:R16
   \   00000002   E002               LDI     R16, 2
   \   00000004   9508               RET

   \                                 In  segment CODE, align 2, keep-with-next
   \   __version_3 uint8_t CPreventiveAlarmHighLevelDfa::ACTIVE_LEVEL()
   \                     ??ACTIVE_LEVEL_3:
   \   00000000   0198               MOVW    R19:R18, R17:R16
   \   00000002   E001               LDI     R16, 1
   \   00000004   9508               RET

   \                                 In  segment CODE, align 2, keep-with-next
   \   __version_3 uint8_t CEmergencyAlarmLowLevelDfa::ALARM_TYPE()
   \                     ??ALARM_TYPE_4:
   \   00000000   0198               MOVW    R19:R18, R17:R16
   \   00000002   E003               LDI     R16, 3
   \   00000004   9508               RET

   \                                 In  segment CODE, align 2, keep-with-next
   \   __version_3 uint8_t CEmergencyAlarmLowLevelDfa::ACTIVE_LEVEL()
   \                     ??ACTIVE_LEVEL_4:
   \   00000000   0198               MOVW    R19:R18, R17:R16
   \   00000002   E000               LDI     R16, 0
   \   00000004   9508               RET

   \                                 In  segment CODE, align 2, keep-with-next
   \   __version_3 uint8_t CEmergencyAlarmHighLevelDfa::ALARM_TYPE()
   \                     ??ALARM_TYPE_5:
   \   00000000   0198               MOVW    R19:R18, R17:R16
   \   00000002   E003               LDI     R16, 3
   \   00000004   9508               RET

   \                                 In  segment CODE, align 2, keep-with-next
   \   __version_3 uint8_t CEmergencyAlarmHighLevelDfa::ACTIVE_LEVEL()
   \                     ??ACTIVE_LEVEL_5:
   \   00000000   0198               MOVW    R19:R18, R17:R16
   \   00000002   E001               LDI     R16, 1
   \   00000004   9508               RET

   \                                 In  segment CODE, align 2, keep-with-next
   \   __version_3 uint8_t CIndicationAlarmLowLevelDfa::ALARM_TYPE()
   \                     ??ALARM_TYPE_6:
   \   00000000   0198               MOVW    R19:R18, R17:R16
   \   00000002   E001               LDI     R16, 1
   \   00000004   9508               RET

   \                                 In  segment CODE, align 2, keep-with-next
   \   __version_3 uint8_t CIndicationAlarmLowLevelDfa::ACTIVE_LEVEL()
   \                     ??ACTIVE_LEVEL_6:
   \   00000000   0198               MOVW    R19:R18, R17:R16
   \   00000002   E000               LDI     R16, 0
   \   00000004   9508               RET

   \                                 In  segment CODE, align 2, keep-with-next
   \   __version_3 uint8_t CIndicationAlarmHighLevelDfa::ALARM_TYPE()
   \                     ??ALARM_TYPE_7:
   \   00000000   0198               MOVW    R19:R18, R17:R16
   \   00000002   E001               LDI     R16, 1
   \   00000004   9508               RET

   \                                 In  segment CODE, align 2, keep-with-next
   \   __version_3 uint8_t CIndicationAlarmHighLevelDfa::ACTIVE_LEVEL()
   \                     ??ACTIVE_LEVEL_7:
   \   00000000   0198               MOVW    R19:R18, R17:R16
   \   00000002   E001               LDI     R16, 1
   \   00000004   9508               RET

   \                                 In  segment CODE, align 2, keep-with-next
   \   __version_3 uint8_t CErrorAlarmDfa::ALARM_TYPE()
   \                     ??ALARM_TYPE_8:
   \   00000000   0198               MOVW    R19:R18, R17:R16
   \   00000002   E006               LDI     R16, 6
   \   00000004   9508               RET

   \                                 In  segment CODE, align 2, keep-with-next
   \   __version_3 uint8_t CErrorAlarmDfa::ACTIVE_LEVEL()
   \                     ??ACTIVE_LEVEL_8:
   \   00000000   0198               MOVW    R19:R18, R17:R16
   \   00000002   E000               LDI     R16, 0
   \   00000004   9508               RET

   \                                 In  segment CODE, align 2, keep-with-next
   \   __version_3 uint8_t CErrorAlarmDfa::GetDiscreteStateIndex()
   \                     ??GetDiscreteStateIndex_1:
   \   00000000   01F8               MOVW    R31:R30, R17:R16
   \   00000002   8104               LDD     R16, Z+4
   \   00000004   9508               RET

   \                                 In  segment CODE, align 2, keep-with-next
   \   __version_3 uint8_t CErrorAlarmDfa::GetAlarmWindowIndex()
   \                     ??GetAlarmWindowIndex_1:
   \   00000000   01F8               MOVW    R31:R30, R17:R16
   \   00000002   8103               LDD     R16, Z+3
   \   00000004   9508               RET

      virtual bool IsSolved(void) {};
                                   ^
"D:\Projects\CurrentProjects\CautoProjects\PSS48Color\include\Task.h",20  Warning[Pe940]: 
          missing return statement at end of non-void function
          "CTaskInterface::IsSolved"

      virtual bool IsSourceStateActive(void) {};
                                              ^
"D:\Projects\CurrentProjects\CautoProjects\PSS48Color\include\Task.h",23  Warning[Pe940]: 
          missing return statement at end of non-void function
          "CTaskInterface::IsSourceStateActive"

      bool IsSolved(void) {};
                           ^
"D:\Projects\CurrentProjects\CautoProjects\PSS48Color\include\Task.h",58  Warning[Pe940]: 
          missing return statement at end of non-void function
          "CIsRegularButtonPressedInterface::IsSolved"

      virtual bool IsSourceStateActive(void) {};
                                              ^
"D:\Projects\CurrentProjects\CautoProjects\PSS48Color\include\Task.h",61  Warning[Pe940]: 
          missing return statement at end of non-void function
          "CIsRegularButtonPressedInterface::IsSourceStateActive"

      virtual uint16_t KEY_PRESSED_TIME(void) {};
                                               ^
"D:\Projects\CurrentProjects\CautoProjects\PSS48Color\include\Task.h",63  Warning[Pe940]: 
          missing return statement at end of non-void function
          "CIsRegularButtonPressedInterface::KEY_PRESSED_TIME"

   \                                 In  segment CODE, align 2, keep-with-next
   \   __version_3 uint8_t CPss21::GetDiscreteSignalsReceipt()
   \                     ??GetDiscreteSignalsReceipt:
   \   00000000   9100....           LDS     R16, ??m_uiDiscreteSignalsReceipt
   \   00000004   9508               RET

   \                                 In  segment CODE, align 2, keep-with-next
   \   __version_3 uint8_t CPss21::GetDiscreteSignalsReset()
   \                     ??GetDiscreteSignalsReset:
   \   00000000   9100....           LDS     R16, ??m_uiDiscreteSignalsReset
   \   00000004   9508               RET

   \                                 In  segment CODE, align 2, keep-with-next
   \   __version_3 void CPss21::SetCommonAlarmType(uint8_t)
   \                     ??SetCommonAlarmType:
   \   00000000   9300....           STS     ??m_uiCommonAlarmType, R16
   \   00000004   9508               RET

   \                                 In  segment CODE, align 2, keep-with-next
   \   __version_3 uint8_t CPss21::GetCommonAlarmType()
   \                     ??GetCommonAlarmType:
   \   00000000   9100....           LDS     R16, ??m_uiCommonAlarmType
   \   00000004   9508               RET

   \                                 In  segment CODE, align 2, keep-with-next
   \   __version_3 CAlarmWindow *CPss21::GetAlarmWindowControlPointer(uint8_t)
   \                     ??GetAlarmWindowControlPointer:
   \   00000000   E010               LDI     R17, 0
   \   00000002   E048               LDI     R20, 8
   \   00000004   E050               LDI     R21, 0
   \   00000006   ........           CALL    ?S_EC_MUL_L02
   \   0000000A   0198               MOVW    R19:R18, R17:R16
   \   0000000C   ....               LDI     R16, LOW(??m_axAlarmWindowControl)
   \   0000000E   ....               LDI     R17, (??m_axAlarmWindowControl) >> 8
   \   00000010   0F02               ADD     R16, R18
   \   00000012   1F13               ADC     R17, R19
   \   00000014   9508               RET
     11          
     12          //-----------------------------------------------------------------------------------------------------

   \                                 In  segment CODE, align 2, keep-with-next
     13          CAlarmDfa::CAlarmDfa()
   \                     ??CAlarmDfa:
   \   00000000   93BA               ST      -Y, R27
   \   00000002   93AA               ST      -Y, R26
   \   00000004   01D8               MOVW    R27:R26, R17:R16
     14          {
   \   00000006   018D               MOVW    R17:R16, R27:R26
   \   00000008   ........           CALL    ??CDfaLite
   \   0000000C   ....               LDI     R16, LOW(??__vtbl_1)
   \   0000000E   ....               LDI     R17, (??__vtbl_1) >> 8
   \   00000010   01FD               MOVW    R31:R30, R27:R26
   \   00000012   8301               STD     Z+1, R16
   \   00000014   8312               STD     Z+2, R17
     15              //ctor
     16          }
   \   00000016   018D               MOVW    R17:R16, R27:R26
   \   00000018   91A9               LD      R26, Y+
   \   0000001A   91B9               LD      R27, Y+
   \   0000001C   9508               RET
     17          
     18          //-----------------------------------------------------------------------------------------------------

   \                                 In  segment CODE, align 2, keep-with-next
     19          CAlarmDfa::~CAlarmDfa()
   \                     `?~CAlarmDfa`:
     20          {
   \   00000000   ........           CALL    ?PROLOGUE4_L09
   \   00000004   01C8               MOVW    R25:R24, R17:R16
   \   00000006   01D9               MOVW    R27:R26, R19:R18
   \   00000008   2F08               MOV     R16, R24
   \   0000000A   2B09               OR      R16, R25
   \   0000000C   F051               BREQ    `?~CAlarmDfa_1`
     21              //dtor
     22          }
   \   0000000E   E020               LDI     R18, 0
   \   00000010   E030               LDI     R19, 0
   \   00000012   018C               MOVW    R17:R16, R25:R24
   \   00000014   ........           CALL    `?~CDfaLite`
   \   00000018   FBA0               BST     R26, 0
   \   0000001A   F41E               BRTC    `?~CAlarmDfa_1`
   \   0000001C   018C               MOVW    R17:R16, R25:R24
   \   0000001E   ........           CALL    `??operator delete`
   \                     `?~CAlarmDfa_1`:
   \   00000022   E0E4               LDI     R30, 4
   \   00000024   ........           JMP     ?EPILOGUE_B4_L09
     23          
     24          //-----------------------------------------------------------------------------------------------------
     25          // јвтомат обработки сигнализации дискретного сигнала.

   \                                 In  segment CODE, align 2, keep-with-next
     26          void CAlarmDfa::Fsm(void)
   \                     ??Fsm:
     27          {
   \   00000000   ........           CALL    ?PROLOGUE5_L09
   \   00000004                      REQUIRE ?Register_R4_is_cg_reg
   \   00000004   01D8               MOVW    R27:R26, R17:R16
     28              switch (GetFsmState())
   \   00000006   018D               MOVW    R17:R16, R27:R26
   \   00000008   ........           CALL    ??GetFsmState
   \   0000000C   5000               SUBI    R16, 0
   \   0000000E   F091               BREQ    ??Fsm_3
   \   00000010   950A               DEC     R16
   \   00000012   F089               BREQ    ??Fsm_4
   \   00000014   950A               DEC     R16
   \   00000016   F409               BRNE    $+2+2
   \   00000018   C0A9               RJMP    ??Fsm_5
   \   0000001A   950A               DEC     R16
   \   0000001C   F409               BRNE    $+2+2
   \   0000001E   C05D               RJMP    ??Fsm_6
   \   00000020   950A               DEC     R16
   \   00000022   F409               BRNE    $+2+2
   \   00000024   C0E0               RJMP    ??Fsm_7
   \   00000026   950A               DEC     R16
   \   00000028   F409               BRNE    $+2+2
   \   0000002A   C10B               RJMP    ??Fsm_8
   \   0000002C   950A               DEC     R16
   \   0000002E   F409               BRNE    $+2+2
   \   00000030   C133               RJMP    ??Fsm_9
   \   00000032   C15F               RJMP    ??Fsm_10
     29              {
     30              case START:
     31                  break;
   \                     ??Fsm_3:
   \   00000034   C15E               RJMP    ??Fsm_10
     32          
     33              case ACTIVE_STATE_WAITING:
     34                  // ƒискретный сигнал активен?
     35                  if (CPss21::GetDiscreteInputState(GetDiscreteStateIndex()) ^ ACTIVE_LEVEL())
   \                     ??Fsm_4:
   \   00000036   01FD               MOVW    R31:R30, R27:R26
   \   00000038   8181               LDD     R24, Z+1
   \   0000003A   8192               LDD     R25, Z+2
   \   0000003C   9606               ADIW    R25:R24, 6
   \   0000003E   018D               MOVW    R17:R16, R27:R26
   \   00000040   ........           CALL    ??GetDiscreteStateIndex
   \   00000044   ........           CALL    ??GetDiscreteInputState
   \   00000048   2E40               MOV     R4, R16
   \   0000004A   018D               MOVW    R17:R16, R27:R26
   \   0000004C   01FC               MOVW    R31:R30, R25:R24
   \   0000004E   9125               LPM     R18, Z+
   \   00000050   9134               LPM     R19, Z
   \   00000052   9731               SBIW    R31:R30, 1
   \   00000054   01F9               MOVW    R31:R30, R19:R18
   \   00000056   9509               ICALL
   \   00000058   2640               EOR     R4, R16
   \   0000005A   2044               TST     R4
   \   0000005C   F011               BREQ    ??Fsm_11
   \   0000005E   E001               LDI     R16, 1
   \   00000060   C001               RJMP    ??Fsm_12
   \                     ??Fsm_11:
   \   00000062   E000               LDI     R16, 0
   \                     ??Fsm_12:
   \   00000064   2300               TST     R16
   \   00000066   F1C1               BREQ    ??Fsm_13
     36                  {
     37                      // ”становим св€занные дискретный выходы - новое нарушение.
     38                      CPss21::DiscreteOutputsSet(GetLinkedDiscreteOutputsPointer(), NEW_VIOLATION);
   \   00000068   018D               MOVW    R17:R16, R27:R26
   \   0000006A   ........           CALL    ??GetLinkedDiscreteOutputsPointer
   \   0000006E   E021               LDI     R18, 1
   \   00000070   ........           CALL    ??DiscreteOutputsSet
     39                      // ”становим тип сигнализации св€занному окну в массиве управлени€ окнами извещател€.
     40                      CPss21::SetAlarmWindowType(GetAlarmWindowIndex(), ALARM_TYPE());
   \   00000074   018D               MOVW    R17:R16, R27:R26
   \   00000076   9611               ADIW    R27:R26, 1
   \   00000078   91ED               LD      R30, X+
   \   0000007A   91FC               LD      R31, X
   \   0000007C   9712               SBIW    R27:R26, 2
   \   0000007E   9634               ADIW    R31:R30, 4
   \   00000080   9125               LPM     R18, Z+
   \   00000082   9134               LPM     R19, Z
   \   00000084   9735               SBIW    R31:R30, 5
   \   00000086   01F9               MOVW    R31:R30, R19:R18
   \   00000088   9509               ICALL
   \   0000008A   2F80               MOV     R24, R16
   \   0000008C   018D               MOVW    R17:R16, R27:R26
   \   0000008E   ........           CALL    ??GetAlarmWindowIndex
   \   00000092   2F18               MOV     R17, R24
   \   00000094   ........           CALL    ??SetAlarmWindowType
     41                      CPss21::SetAlarmWindowColor(GetAlarmWindowIndex(), ALARM_TYPE());
   \   00000098   018D               MOVW    R17:R16, R27:R26
   \   0000009A   9611               ADIW    R27:R26, 1
   \   0000009C   91ED               LD      R30, X+
   \   0000009E   91FC               LD      R31, X
   \   000000A0   9712               SBIW    R27:R26, 2
   \   000000A2   9634               ADIW    R31:R30, 4
   \   000000A4   9125               LPM     R18, Z+
   \   000000A6   9134               LPM     R19, Z
   \   000000A8   9735               SBIW    R31:R30, 5
   \   000000AA   01F9               MOVW    R31:R30, R19:R18
   \   000000AC   9509               ICALL
   \   000000AE   2F80               MOV     R24, R16
   \   000000B0   018D               MOVW    R17:R16, R27:R26
   \   000000B2   ........           CALL    ??GetAlarmWindowIndex
   \   000000B6   2F18               MOV     R17, R24
   \   000000B8   ........           CALL    ??SetAlarmWindowColor
     42                      // «апрограммирован режим автоматического сброса предупредительой и аварийной
     43                      // сигнализации при переходе дискретного сигнала в неактивное состо€ние?
     44                      if (CPss21::m_xDeviceConfiguration.AutoUnset)
   \   000000BC   ....               LDI     R30, LOW(??m_xDeviceConfiguration)
   \   000000BE   ....               LDI     R31, (??m_xDeviceConfiguration) >> 8
   \   000000C0   8103               LDD     R16, Z+3
   \   000000C2   FF03               SBRS    R16, 3
   \   000000C4   C005               RJMP    ??Fsm_14
     45                      {
     46                          SetFsmState(RECEIPT_OR_RESET_OR_AUTOUNSET_WAITING);
   \   000000C6   E023               LDI     R18, 3
   \   000000C8   018D               MOVW    R17:R16, R27:R26
   \   000000CA   ........           CALL    ??SetFsmState
   \   000000CE   C111               RJMP    ??Fsm_10
     47                      }
     48                      else
     49                      {
     50                          SetFsmState(RECEIPT_OR_RESET_WAITING);
   \                     ??Fsm_14:
   \   000000D0   E022               LDI     R18, 2
   \   000000D2   018D               MOVW    R17:R16, R27:R26
   \   000000D4   ........           CALL    ??SetFsmState
     51                      }
     52                  }
     53                  break;
   \                     ??Fsm_13:
   \   000000D8   C10C               RJMP    ??Fsm_10
     54          
     55              case RECEIPT_OR_RESET_OR_AUTOUNSET_WAITING:
     56                  // «апрограммирован режим автоматического сброса предупредительой и аварийной
     57                  // сигнализации при переходе дискретного сигнала в неактивное состо€ние.
     58                  // ƒискретный сигнал активен?
     59                  if (CPss21::GetDiscreteInputState(GetDiscreteStateIndex()) ^ ACTIVE_LEVEL())
   \                     ??Fsm_6:
   \   000000DA   01FD               MOVW    R31:R30, R27:R26
   \   000000DC   8181               LDD     R24, Z+1
   \   000000DE   8192               LDD     R25, Z+2
   \   000000E0   9606               ADIW    R25:R24, 6
   \   000000E2   018D               MOVW    R17:R16, R27:R26
   \   000000E4   ........           CALL    ??GetDiscreteStateIndex
   \   000000E8   ........           CALL    ??GetDiscreteInputState
   \   000000EC   2E40               MOV     R4, R16
   \   000000EE   018D               MOVW    R17:R16, R27:R26
   \   000000F0   01FC               MOVW    R31:R30, R25:R24
   \   000000F2   9125               LPM     R18, Z+
   \   000000F4   9134               LPM     R19, Z
   \   000000F6   9731               SBIW    R31:R30, 1
   \   000000F8   01F9               MOVW    R31:R30, R19:R18
   \   000000FA   9509               ICALL
   \   000000FC   2640               EOR     R4, R16
   \   000000FE   2044               TST     R4
   \   00000100   F011               BREQ    ??Fsm_15
   \   00000102   E001               LDI     R16, 1
   \   00000104   C001               RJMP    ??Fsm_16
   \                     ??Fsm_15:
   \   00000106   E000               LDI     R16, 0
   \                     ??Fsm_16:
   \   00000108   2300               TST     R16
   \   0000010A   F059               BREQ    ??Fsm_17
     60                  {
     61                      // ”становим св€занные дискретный выходы - не новое нарушение.
     62                      CPss21::DiscreteOutputsSet(GetLinkedDiscreteOutputsPointer(), NOT_NEW_VIOLATION);
   \   0000010C   018D               MOVW    R17:R16, R27:R26
   \   0000010E   ........           CALL    ??GetLinkedDiscreteOutputsPointer
   \   00000112   E020               LDI     R18, 0
   \   00000114   ........           CALL    ??DiscreteOutputsSet
     63                  }
     64                  else
     65                  {
     66                      // ”становим тип сигнализации св€занному окну в массиве управлени€ окнами извещател€.
     67                      CPss21::SetAlarmWindowType(GetAlarmWindowIndex(), NORMAL);
     68                      SetFsmState(ACTIVE_STATE_WAITING);
     69                      break;
     70                  }
     71          
     72                  // —обытие сброшено?
     73                  if (CPss21::GetDiscreteSignalsReset())
   \   00000118   ........           CALL    ??GetDiscreteSignalsReset
   \   0000011C   2300               TST     R16
   \   0000011E   F461               BRNE    ??Fsm_18
   \   00000120   C016               RJMP    ??Fsm_19
   \                     ??Fsm_17:
   \   00000122   018D               MOVW    R17:R16, R27:R26
   \   00000124   ........           CALL    ??GetAlarmWindowIndex
   \   00000128   E010               LDI     R17, 0
   \   0000012A   ........           CALL    ??SetAlarmWindowType
   \   0000012E   E021               LDI     R18, 1
   \   00000130   018D               MOVW    R17:R16, R27:R26
   \   00000132   ........           CALL    ??SetFsmState
   \   00000136   C0DD               RJMP    ??Fsm_10
     74                  {
     75                      // ”становим тип сигнализации св€занному окну в массиве управлени€ окнами извещател€.
     76                      CPss21::SetAlarmWindowType(GetAlarmWindowIndex(), INDICATION);
   \                     ??Fsm_18:
   \   00000138   018D               MOVW    R17:R16, R27:R26
   \   0000013A   ........           CALL    ??GetAlarmWindowIndex
   \   0000013E   E011               LDI     R17, 1
   \   00000140   ........           CALL    ??SetAlarmWindowType
     77                      SetFsmState(RESETED_NOT_ACTIVE_STATE_WAITING);
   \   00000144   E025               LDI     R18, 5
   \   00000146   018D               MOVW    R17:R16, R27:R26
   \   00000148   ........           CALL    ??SetFsmState
   \   0000014C   C0D2               RJMP    ??Fsm_10
     78                  }
     79                  // —обытие квитировано?
     80                  else if (CPss21::GetDiscreteSignalsReceipt())
   \                     ??Fsm_19:
   \   0000014E   ........           CALL    ??GetDiscreteSignalsReceipt
   \   00000152   2300               TST     R16
   \   00000154   F051               BREQ    ??Fsm_20
     81                  {
     82                      // ”становим тип сигнализации св€занному окну в массиве управлени€ окнами извещател€.
     83                      CPss21::SetAlarmWindowType(GetAlarmWindowIndex(), INDICATION);
   \   00000156   018D               MOVW    R17:R16, R27:R26
   \   00000158   ........           CALL    ??GetAlarmWindowIndex
   \   0000015C   E011               LDI     R17, 1
   \   0000015E   ........           CALL    ??SetAlarmWindowType
     84                      SetFsmState(RECEIPTED_RESET_OR_NOT_ACTIVE_STATE_WAITING);
   \   00000162   E024               LDI     R18, 4
   \   00000164   018D               MOVW    R17:R16, R27:R26
   \   00000166   ........           CALL    ??SetFsmState
     85                  }
     86                  break;
   \                     ??Fsm_20:
   \   0000016A   C0C3               RJMP    ??Fsm_10
     87          
     88              case RECEIPT_OR_RESET_WAITING:
     89                  // ƒискретный сигнал активен?
     90                  if (CPss21::GetDiscreteInputState(GetDiscreteStateIndex()) ^ ACTIVE_LEVEL())
   \                     ??Fsm_5:
   \   0000016C   01FD               MOVW    R31:R30, R27:R26
   \   0000016E   8181               LDD     R24, Z+1
   \   00000170   8192               LDD     R25, Z+2
   \   00000172   9606               ADIW    R25:R24, 6
   \   00000174   018D               MOVW    R17:R16, R27:R26
   \   00000176   ........           CALL    ??GetDiscreteStateIndex
   \   0000017A   ........           CALL    ??GetDiscreteInputState
   \   0000017E   2E40               MOV     R4, R16
   \   00000180   018D               MOVW    R17:R16, R27:R26
   \   00000182   01FC               MOVW    R31:R30, R25:R24
   \   00000184   9125               LPM     R18, Z+
   \   00000186   9134               LPM     R19, Z
   \   00000188   9731               SBIW    R31:R30, 1
   \   0000018A   01F9               MOVW    R31:R30, R19:R18
   \   0000018C   9509               ICALL
   \   0000018E   2640               EOR     R4, R16
   \   00000190   2044               TST     R4
   \   00000192   F011               BREQ    ??Fsm_21
   \   00000194   E001               LDI     R16, 1
   \   00000196   C001               RJMP    ??Fsm_22
   \                     ??Fsm_21:
   \   00000198   E000               LDI     R16, 0
   \                     ??Fsm_22:
   \   0000019A   2300               TST     R16
   \   0000019C   F031               BREQ    ??Fsm_23
     91                  {
     92                      // ”становим св€занные дискретный выходы - не новое нарушение.
     93                      CPss21::DiscreteOutputsSet(GetLinkedDiscreteOutputsPointer(), NOT_NEW_VIOLATION);
   \   0000019E   018D               MOVW    R17:R16, R27:R26
   \   000001A0   ........           CALL    ??GetLinkedDiscreteOutputsPointer
   \   000001A4   E020               LDI     R18, 0
   \   000001A6   ........           CALL    ??DiscreteOutputsSet
     94                  }
     95          
     96                  // —обытие сброшено?
     97                  if (CPss21::GetDiscreteSignalsReset())
   \                     ??Fsm_23:
   \   000001AA   ........           CALL    ??GetDiscreteSignalsReset
   \   000001AE   2300               TST     R16
   \   000001B0   F059               BREQ    ??Fsm_24
     98                  {
     99                      // ”становим тип сигнализации св€занному окну в массиве управлени€ окнами извещател€.
    100                      CPss21::SetAlarmWindowType(GetAlarmWindowIndex(), INDICATION);
   \   000001B2   018D               MOVW    R17:R16, R27:R26
   \   000001B4   ........           CALL    ??GetAlarmWindowIndex
   \   000001B8   E011               LDI     R17, 1
   \   000001BA   ........           CALL    ??SetAlarmWindowType
    101                      SetFsmState(RESETED_NOT_ACTIVE_STATE_WAITING);
   \   000001BE   E025               LDI     R18, 5
   \   000001C0   018D               MOVW    R17:R16, R27:R26
   \   000001C2   ........           CALL    ??SetFsmState
   \   000001C6   C095               RJMP    ??Fsm_10
    102                  }
    103                  // —обытие квитировано?
    104                  else if (CPss21::GetDiscreteSignalsReceipt())
   \                     ??Fsm_24:
   \   000001C8   ........           CALL    ??GetDiscreteSignalsReceipt
   \   000001CC   2300               TST     R16
   \   000001CE   F051               BREQ    ??Fsm_25
    105                  {
    106                      // ”становим тип сигнализации св€занному окну в массиве управлени€ окнами извещател€.
    107                      CPss21::SetAlarmWindowType(GetAlarmWindowIndex(), INDICATION);
   \   000001D0   018D               MOVW    R17:R16, R27:R26
   \   000001D2   ........           CALL    ??GetAlarmWindowIndex
   \   000001D6   E011               LDI     R17, 1
   \   000001D8   ........           CALL    ??SetAlarmWindowType
    108                      SetFsmState(RECEIPTED_RESET_OR_NOT_ACTIVE_STATE_WAITING);
   \   000001DC   E024               LDI     R18, 4
   \   000001DE   018D               MOVW    R17:R16, R27:R26
   \   000001E0   ........           CALL    ??SetFsmState
    109                  }
    110                  break;
   \                     ??Fsm_25:
   \   000001E4   C086               RJMP    ??Fsm_10
    111          
    112              case RECEIPTED_RESET_OR_NOT_ACTIVE_STATE_WAITING:
    113                  // —обытие сброшено?
    114                  if (CPss21::GetDiscreteSignalsReset())
   \                     ??Fsm_7:
   \   000001E6   ........           CALL    ??GetDiscreteSignalsReset
   \   000001EA   2300               TST     R16
   \   000001EC   F029               BREQ    ??Fsm_26
    115                  {
    116                      SetFsmState(RESETED_NOT_ACTIVE_STATE_WAITING);
   \   000001EE   E025               LDI     R18, 5
   \   000001F0   018D               MOVW    R17:R16, R27:R26
   \   000001F2   ........           CALL    ??SetFsmState
   \   000001F6   C07D               RJMP    ??Fsm_10
    117                  }
    118                  // ƒискретный сигнал не активен?
    119                  else if (!(CPss21::GetDiscreteInputState(GetDiscreteStateIndex()) ^ ACTIVE_LEVEL()))
   \                     ??Fsm_26:
   \   000001F8   01FD               MOVW    R31:R30, R27:R26
   \   000001FA   8181               LDD     R24, Z+1
   \   000001FC   8192               LDD     R25, Z+2
   \   000001FE   9606               ADIW    R25:R24, 6
   \   00000200   018D               MOVW    R17:R16, R27:R26
   \   00000202   ........           CALL    ??GetDiscreteStateIndex
   \   00000206   ........           CALL    ??GetDiscreteInputState
   \   0000020A   2E40               MOV     R4, R16
   \   0000020C   018D               MOVW    R17:R16, R27:R26
   \   0000020E   01FC               MOVW    R31:R30, R25:R24
   \   00000210   9125               LPM     R18, Z+
   \   00000212   9134               LPM     R19, Z
   \   00000214   9731               SBIW    R31:R30, 1
   \   00000216   01F9               MOVW    R31:R30, R19:R18
   \   00000218   9509               ICALL
   \   0000021A   2640               EOR     R4, R16
   \   0000021C   2044               TST     R4
   \   0000021E   F411               BRNE    ??Fsm_27
   \   00000220   E001               LDI     R16, 1
   \   00000222   C001               RJMP    ??Fsm_28
   \                     ??Fsm_27:
   \   00000224   E000               LDI     R16, 0
   \                     ??Fsm_28:
   \   00000226   2300               TST     R16
   \   00000228   F029               BREQ    ??Fsm_29
    120                  {
    121                      SetFsmState(RECEIPTED_RESET_WAITING);
   \   0000022A   E026               LDI     R18, 6
   \   0000022C   018D               MOVW    R17:R16, R27:R26
   \   0000022E   ........           CALL    ??SetFsmState
   \   00000232   C05F               RJMP    ??Fsm_10
    122                  }
    123                  else
    124                  {
    125                      // ”становим св€занные дискретный выходы - не новое нарушение.
    126                      CPss21::DiscreteOutputsSet(GetLinkedDiscreteOutputsPointer(), NOT_NEW_VIOLATION);
   \                     ??Fsm_29:
   \   00000234   018D               MOVW    R17:R16, R27:R26
   \   00000236   ........           CALL    ??GetLinkedDiscreteOutputsPointer
   \   0000023A   E020               LDI     R18, 0
   \   0000023C   ........           CALL    ??DiscreteOutputsSet
    127                  }
    128                  break;
   \   00000240   C058               RJMP    ??Fsm_10
    129          
    130              case RESETED_NOT_ACTIVE_STATE_WAITING:
    131                  // ƒискретный сигнал не активен?
    132                  if (!(CPss21::GetDiscreteInputState(GetDiscreteStateIndex()) ^ ACTIVE_LEVEL()))
   \                     ??Fsm_8:
   \   00000242   01FD               MOVW    R31:R30, R27:R26
   \   00000244   8181               LDD     R24, Z+1
   \   00000246   8192               LDD     R25, Z+2
   \   00000248   9606               ADIW    R25:R24, 6
   \   0000024A   018D               MOVW    R17:R16, R27:R26
   \   0000024C   ........           CALL    ??GetDiscreteStateIndex
   \   00000250   ........           CALL    ??GetDiscreteInputState
   \   00000254   2E40               MOV     R4, R16
   \   00000256   018D               MOVW    R17:R16, R27:R26
   \   00000258   01FC               MOVW    R31:R30, R25:R24
   \   0000025A   9125               LPM     R18, Z+
   \   0000025C   9134               LPM     R19, Z
   \   0000025E   9731               SBIW    R31:R30, 1
   \   00000260   01F9               MOVW    R31:R30, R19:R18
   \   00000262   9509               ICALL
   \   00000264   2640               EOR     R4, R16
   \   00000266   2044               TST     R4
   \   00000268   F411               BRNE    ??Fsm_30
   \   0000026A   E001               LDI     R16, 1
   \   0000026C   C001               RJMP    ??Fsm_31
   \                     ??Fsm_30:
   \   0000026E   E000               LDI     R16, 0
   \                     ??Fsm_31:
   \   00000270   2300               TST     R16
   \   00000272   F059               BREQ    ??Fsm_32
    133                  {
    134                      // ”становим тип сигнализации св€занному окну в массиве управлени€ окнами извещател€.
    135                      CPss21::SetAlarmWindowType(GetAlarmWindowIndex(), NORMAL);
   \   00000274   018D               MOVW    R17:R16, R27:R26
   \   00000276   ........           CALL    ??GetAlarmWindowIndex
   \   0000027A   E010               LDI     R17, 0
   \   0000027C   ........           CALL    ??SetAlarmWindowType
    136                      SetFsmState(ACTIVE_STATE_WAITING);
   \   00000280   E021               LDI     R18, 1
   \   00000282   018D               MOVW    R17:R16, R27:R26
   \   00000284   ........           CALL    ??SetFsmState
   \   00000288   C034               RJMP    ??Fsm_10
    137                  }
    138                  else
    139                  {
    140                      // ”становим св€занные дискретный выходы - не новое нарушение.
    141                      CPss21::DiscreteOutputsSet(GetLinkedDiscreteOutputsPointer(), NOT_NEW_VIOLATION);
   \                     ??Fsm_32:
   \   0000028A   018D               MOVW    R17:R16, R27:R26
   \   0000028C   ........           CALL    ??GetLinkedDiscreteOutputsPointer
   \   00000290   E020               LDI     R18, 0
   \   00000292   ........           CALL    ??DiscreteOutputsSet
    142                  }
    143                  break;
   \   00000296   C02D               RJMP    ??Fsm_10
    144          
    145              case RECEIPTED_RESET_WAITING:
    146                  // ƒискретный сигнал активен?
    147                  if (CPss21::GetDiscreteInputState(GetDiscreteStateIndex()) ^ ACTIVE_LEVEL())
   \                     ??Fsm_9:
   \   00000298   01FD               MOVW    R31:R30, R27:R26
   \   0000029A   8181               LDD     R24, Z+1
   \   0000029C   8192               LDD     R25, Z+2
   \   0000029E   9606               ADIW    R25:R24, 6
   \   000002A0   018D               MOVW    R17:R16, R27:R26
   \   000002A2   ........           CALL    ??GetDiscreteStateIndex
   \   000002A6   ........           CALL    ??GetDiscreteInputState
   \   000002AA   2E40               MOV     R4, R16
   \   000002AC   018D               MOVW    R17:R16, R27:R26
   \   000002AE   01FC               MOVW    R31:R30, R25:R24
   \   000002B0   9125               LPM     R18, Z+
   \   000002B2   9134               LPM     R19, Z
   \   000002B4   9731               SBIW    R31:R30, 1
   \   000002B6   01F9               MOVW    R31:R30, R19:R18
   \   000002B8   9509               ICALL
   \   000002BA   2640               EOR     R4, R16
   \   000002BC   2044               TST     R4
   \   000002BE   F011               BREQ    ??Fsm_33
   \   000002C0   E001               LDI     R16, 1
   \   000002C2   C001               RJMP    ??Fsm_34
   \                     ??Fsm_33:
   \   000002C4   E000               LDI     R16, 0
   \                     ??Fsm_34:
   \   000002C6   2300               TST     R16
   \   000002C8   F031               BREQ    ??Fsm_35
    148                  {
    149                      // ”становим св€занные дискретный выходы - не новое нарушение.
    150                      CPss21::DiscreteOutputsSet(GetLinkedDiscreteOutputsPointer(), NOT_NEW_VIOLATION);
   \   000002CA   018D               MOVW    R17:R16, R27:R26
   \   000002CC   ........           CALL    ??GetLinkedDiscreteOutputsPointer
   \   000002D0   E020               LDI     R18, 0
   \   000002D2   ........           CALL    ??DiscreteOutputsSet
    151                  }
    152          
    153                  // —обытие сброшено?
    154                  if (CPss21::GetDiscreteSignalsReset())
   \                     ??Fsm_35:
   \   000002D6   ........           CALL    ??GetDiscreteSignalsReset
   \   000002DA   2300               TST     R16
   \   000002DC   F051               BREQ    ??Fsm_10
    155                  {
    156                      // ”становим тип сигнализации св€занному окну в массиве управлени€ окнами извещател€.
    157                      CPss21::SetAlarmWindowType(GetAlarmWindowIndex(), NORMAL);
   \   000002DE   018D               MOVW    R17:R16, R27:R26
   \   000002E0   ........           CALL    ??GetAlarmWindowIndex
   \   000002E4   E010               LDI     R17, 0
   \   000002E6   ........           CALL    ??SetAlarmWindowType
    158                      SetFsmState(ACTIVE_STATE_WAITING);
   \   000002EA   E021               LDI     R18, 1
   \   000002EC   018D               MOVW    R17:R16, R27:R26
   \   000002EE   ........           CALL    ??SetFsmState
    159                  }
    160                  break;
    161          
    162              default:
    163                  break;
    164              }
    165          }
   \                     ??Fsm_10:
   \   000002F2   E0E5               LDI     R30, 5
   \   000002F4   ........           JMP     ?EPILOGUE_B5_L09
    166          //-----------------------------------------------------------------------------------------------------
    167          
    168          
    169          
    170          
    171          
    172          
    173          
    174          
    175          //-----------------------------------------------------------------------------------------------------

   \                                 In  segment CODE, align 2, keep-with-next
    176          CNormalAlarmDfa::CNormalAlarmDfa()
   \                     ??CNormalAlarmDfa:
   \   00000000   93BA               ST      -Y, R27
   \   00000002   93AA               ST      -Y, R26
   \   00000004   01D8               MOVW    R27:R26, R17:R16
    177          {
   \   00000006   018D               MOVW    R17:R16, R27:R26
   \   00000008   ....               RCALL   ??CAlarmDfa
   \   0000000A   ....               LDI     R16, LOW(??__vtbl_2)
   \   0000000C   ....               LDI     R17, (??__vtbl_2) >> 8
   \   0000000E   01FD               MOVW    R31:R30, R27:R26
   \   00000010   8301               STD     Z+1, R16
   \   00000012   8312               STD     Z+2, R17
    178              SetFsmState(START);
   \   00000014   E020               LDI     R18, 0
   \   00000016   018D               MOVW    R17:R16, R27:R26
   \   00000018   ........           CALL    ??SetFsmState
    179          }
   \   0000001C   018D               MOVW    R17:R16, R27:R26
   \   0000001E   91A9               LD      R26, Y+
   \   00000020   91B9               LD      R27, Y+
   \   00000022   9508               RET
    180          
    181          //-----------------------------------------------------------------------------------------------------

   \                                 In  segment CODE, align 2, keep-with-next
    182          CNormalAlarmDfa::~CNormalAlarmDfa()
   \                     `?~CNormalAlarmDfa`:
    183          {
   \   00000000   ........           CALL    ?PROLOGUE4_L09
   \   00000004   01C8               MOVW    R25:R24, R17:R16
   \   00000006   01D9               MOVW    R27:R26, R19:R18
   \   00000008   2F08               MOV     R16, R24
   \   0000000A   2B09               OR      R16, R25
   \   0000000C   F049               BREQ    `?~CNormalAlarmDfa_1`
    184              //dtor
    185          }
   \   0000000E   E020               LDI     R18, 0
   \   00000010   E030               LDI     R19, 0
   \   00000012   018C               MOVW    R17:R16, R25:R24
   \   00000014   ....               RCALL   `?~CAlarmDfa`
   \   00000016   FBA0               BST     R26, 0
   \   00000018   F41E               BRTC    `?~CNormalAlarmDfa_1`
   \   0000001A   018C               MOVW    R17:R16, R25:R24
   \   0000001C   ........           CALL    `??operator delete`
   \                     `?~CNormalAlarmDfa_1`:
   \   00000020   E0E4               LDI     R30, 4
   \   00000022   ........           JMP     ?EPILOGUE_B4_L09
    186          
    187          //-----------------------------------------------------------------------------------------------------
    188          
    189          
    190          
    191          
    192          
    193          
    194          
    195          
    196          //-----------------------------------------------------------------------------------------------------

   \                                 In  segment CODE, align 2, keep-with-next
    197          CPreventiveAlarmLowLevelDfa::CPreventiveAlarmLowLevelDfa()
   \                     ??CPreventiveAlarmLowLevelDfa:
   \   00000000   93BA               ST      -Y, R27
   \   00000002   93AA               ST      -Y, R26
   \   00000004   01D8               MOVW    R27:R26, R17:R16
    198          {
   \   00000006   018D               MOVW    R17:R16, R27:R26
   \   00000008   ....               RCALL   ??CAlarmDfa
   \   0000000A   ....               LDI     R16, LOW(??__vtbl_3)
   \   0000000C   ....               LDI     R17, (??__vtbl_3) >> 8
   \   0000000E   01FD               MOVW    R31:R30, R27:R26
   \   00000010   8301               STD     Z+1, R16
   \   00000012   8312               STD     Z+2, R17
    199              SetFsmState(ACTIVE_STATE_WAITING);
   \   00000014   E021               LDI     R18, 1
   \   00000016   018D               MOVW    R17:R16, R27:R26
   \   00000018   ........           CALL    ??SetFsmState
    200          }
   \   0000001C   018D               MOVW    R17:R16, R27:R26
   \   0000001E   91A9               LD      R26, Y+
   \   00000020   91B9               LD      R27, Y+
   \   00000022   9508               RET
    201          
    202          //-----------------------------------------------------------------------------------------------------

   \                                 In  segment CODE, align 2, keep-with-next
    203          CPreventiveAlarmLowLevelDfa::~CPreventiveAlarmLowLevelDfa()
   \                     `?~CPreventiveAlarmLowLevelDfa`:
    204          {
   \   00000000   ........           CALL    ?PROLOGUE4_L09
   \   00000004   01C8               MOVW    R25:R24, R17:R16
   \   00000006   01D9               MOVW    R27:R26, R19:R18
   \   00000008   2F08               MOV     R16, R24
   \   0000000A   2B09               OR      R16, R25
   \   0000000C   F049               BREQ    `?~CPreventiveAlarmLowLevelDfa_1`
    205              //dtor
    206          }
   \   0000000E   E020               LDI     R18, 0
   \   00000010   E030               LDI     R19, 0
   \   00000012   018C               MOVW    R17:R16, R25:R24
   \   00000014   ....               RCALL   `?~CAlarmDfa`
   \   00000016   FBA0               BST     R26, 0
   \   00000018   F41E               BRTC    `?~CPreventiveAlarmLowLevelDfa_1`
   \   0000001A   018C               MOVW    R17:R16, R25:R24
   \   0000001C   ........           CALL    `??operator delete`
   \                     `?~CPreventiveAlarmLowLevelDfa_1`:
   \   00000020   E0E4               LDI     R30, 4
   \   00000022   ........           JMP     ?EPILOGUE_B4_L09
    207          
    208          //-----------------------------------------------------------------------------------------------------

   \                                 In  segment CODE, align 2, keep-with-next
    209          CPreventiveAlarmHighLevelDfa::CPreventiveAlarmHighLevelDfa()
   \                     ??CPreventiveAlarmHighLevelDfa:
   \   00000000   93BA               ST      -Y, R27
   \   00000002   93AA               ST      -Y, R26
   \   00000004   01D8               MOVW    R27:R26, R17:R16
    210          {
   \   00000006   018D               MOVW    R17:R16, R27:R26
   \   00000008   ....               RCALL   ??CAlarmDfa
   \   0000000A   ....               LDI     R16, LOW(??__vtbl_4)
   \   0000000C   ....               LDI     R17, (??__vtbl_4) >> 8
   \   0000000E   01FD               MOVW    R31:R30, R27:R26
   \   00000010   8301               STD     Z+1, R16
   \   00000012   8312               STD     Z+2, R17
    211              SetFsmState(ACTIVE_STATE_WAITING);
   \   00000014   E021               LDI     R18, 1
   \   00000016   018D               MOVW    R17:R16, R27:R26
   \   00000018   ........           CALL    ??SetFsmState
    212          }
   \   0000001C   018D               MOVW    R17:R16, R27:R26
   \   0000001E   91A9               LD      R26, Y+
   \   00000020   91B9               LD      R27, Y+
   \   00000022   9508               RET
    213          
    214          //-----------------------------------------------------------------------------------------------------

   \                                 In  segment CODE, align 2, keep-with-next
    215          CPreventiveAlarmHighLevelDfa::~CPreventiveAlarmHighLevelDfa()
   \                     `?~CPreventiveAlarmHighLevelDfa`:
    216          {
   \   00000000   ........           CALL    ?PROLOGUE4_L09
   \   00000004   01C8               MOVW    R25:R24, R17:R16
   \   00000006   01D9               MOVW    R27:R26, R19:R18
   \   00000008   2F08               MOV     R16, R24
   \   0000000A   2B09               OR      R16, R25
   \   0000000C   F049               BREQ    `?~CPreventiveAlarmHighLevelDfa_1`
    217              //dtor
    218          }
   \   0000000E   E020               LDI     R18, 0
   \   00000010   E030               LDI     R19, 0
   \   00000012   018C               MOVW    R17:R16, R25:R24
   \   00000014   ....               RCALL   `?~CAlarmDfa`
   \   00000016   FBA0               BST     R26, 0
   \   00000018   F41E               BRTC    `?~CPreventiveAlarmHighLevelDfa_1`
   \   0000001A   018C               MOVW    R17:R16, R25:R24
   \   0000001C   ........           CALL    `??operator delete`
   \                     `?~CPreventiveAlarmHighLevelDfa_1`:
   \   00000020   E0E4               LDI     R30, 4
   \   00000022   ........           JMP     ?EPILOGUE_B4_L09
    219          //-----------------------------------------------------------------------------------------------------
    220          
    221          
    222          
    223          
    224          
    225          
    226          
    227          
    228          //-----------------------------------------------------------------------------------------------------

   \                                 In  segment CODE, align 2, keep-with-next
    229          CEmergencyAlarmLowLevelDfa::CEmergencyAlarmLowLevelDfa()
   \                     ??CEmergencyAlarmLowLevelDfa:
   \   00000000   93BA               ST      -Y, R27
   \   00000002   93AA               ST      -Y, R26
   \   00000004   01D8               MOVW    R27:R26, R17:R16
    230          {
   \   00000006   018D               MOVW    R17:R16, R27:R26
   \   00000008   ....               RCALL   ??CAlarmDfa
   \   0000000A   ....               LDI     R16, LOW(??__vtbl_5)
   \   0000000C   ....               LDI     R17, (??__vtbl_5) >> 8
   \   0000000E   01FD               MOVW    R31:R30, R27:R26
   \   00000010   8301               STD     Z+1, R16
   \   00000012   8312               STD     Z+2, R17
    231              SetFsmState(ACTIVE_STATE_WAITING);
   \   00000014   E021               LDI     R18, 1
   \   00000016   018D               MOVW    R17:R16, R27:R26
   \   00000018   ........           CALL    ??SetFsmState
    232          }
   \   0000001C   018D               MOVW    R17:R16, R27:R26
   \   0000001E   91A9               LD      R26, Y+
   \   00000020   91B9               LD      R27, Y+
   \   00000022   9508               RET
    233          
    234          //-----------------------------------------------------------------------------------------------------

   \                                 In  segment CODE, align 2, keep-with-next
    235          CEmergencyAlarmLowLevelDfa::~CEmergencyAlarmLowLevelDfa()
   \                     `?~CEmergencyAlarmLowLevelDfa`:
    236          {
   \   00000000   ........           CALL    ?PROLOGUE4_L09
   \   00000004   01C8               MOVW    R25:R24, R17:R16
   \   00000006   01D9               MOVW    R27:R26, R19:R18
   \   00000008   2F08               MOV     R16, R24
   \   0000000A   2B09               OR      R16, R25
   \   0000000C   F049               BREQ    `?~CEmergencyAlarmLowLevelDfa_1`
    237              //dtor
    238          }
   \   0000000E   E020               LDI     R18, 0
   \   00000010   E030               LDI     R19, 0
   \   00000012   018C               MOVW    R17:R16, R25:R24
   \   00000014   ....               RCALL   `?~CAlarmDfa`
   \   00000016   FBA0               BST     R26, 0
   \   00000018   F41E               BRTC    `?~CEmergencyAlarmLowLevelDfa_1`
   \   0000001A   018C               MOVW    R17:R16, R25:R24
   \   0000001C   ........           CALL    `??operator delete`
   \                     `?~CEmergencyAlarmLowLevelDfa_1`:
   \   00000020   E0E4               LDI     R30, 4
   \   00000022   ........           JMP     ?EPILOGUE_B4_L09
    239          
    240          //-----------------------------------------------------------------------------------------------------

   \                                 In  segment CODE, align 2, keep-with-next
    241          CEmergencyAlarmHighLevelDfa::CEmergencyAlarmHighLevelDfa()
   \                     ??CEmergencyAlarmHighLevelDfa:
   \   00000000   93BA               ST      -Y, R27
   \   00000002   93AA               ST      -Y, R26
   \   00000004   01D8               MOVW    R27:R26, R17:R16
    242          {
   \   00000006   018D               MOVW    R17:R16, R27:R26
   \   00000008   ....               RCALL   ??CAlarmDfa
   \   0000000A   ....               LDI     R16, LOW(??__vtbl_6)
   \   0000000C   ....               LDI     R17, (??__vtbl_6) >> 8
   \   0000000E   01FD               MOVW    R31:R30, R27:R26
   \   00000010   8301               STD     Z+1, R16
   \   00000012   8312               STD     Z+2, R17
    243              SetFsmState(ACTIVE_STATE_WAITING);
   \   00000014   E021               LDI     R18, 1
   \   00000016   018D               MOVW    R17:R16, R27:R26
   \   00000018   ........           CALL    ??SetFsmState
    244          }
   \   0000001C   018D               MOVW    R17:R16, R27:R26
   \   0000001E   91A9               LD      R26, Y+
   \   00000020   91B9               LD      R27, Y+
   \   00000022   9508               RET
    245          
    246          //-----------------------------------------------------------------------------------------------------

   \                                 In  segment CODE, align 2, keep-with-next
    247          CEmergencyAlarmHighLevelDfa::~CEmergencyAlarmHighLevelDfa()
   \                     `?~CEmergencyAlarmHighLevelDfa`:
    248          {
   \   00000000   ........           CALL    ?PROLOGUE4_L09
   \   00000004   01C8               MOVW    R25:R24, R17:R16
   \   00000006   01D9               MOVW    R27:R26, R19:R18
   \   00000008   2F08               MOV     R16, R24
   \   0000000A   2B09               OR      R16, R25
   \   0000000C   F049               BREQ    `?~CEmergencyAlarmHighLevelDfa_1`
    249              //dtor
    250          }
   \   0000000E   E020               LDI     R18, 0
   \   00000010   E030               LDI     R19, 0
   \   00000012   018C               MOVW    R17:R16, R25:R24
   \   00000014   ....               RCALL   `?~CAlarmDfa`
   \   00000016   FBA0               BST     R26, 0
   \   00000018   F41E               BRTC    `?~CEmergencyAlarmHighLevelDfa_1`
   \   0000001A   018C               MOVW    R17:R16, R25:R24
   \   0000001C   ........           CALL    `??operator delete`
   \                     `?~CEmergencyAlarmHighLevelDfa_1`:
   \   00000020   E0E4               LDI     R30, 4
   \   00000022   ........           JMP     ?EPILOGUE_B4_L09
    251          //-----------------------------------------------------------------------------------------------------
    252          
    253          
    254          
    255          
    256          
    257          
    258          
    259          
    260          //-----------------------------------------------------------------------------------------------------

   \                                 In  segment CODE, align 2, keep-with-next
    261          CIndicationAlarmLowLevelDfa::CIndicationAlarmLowLevelDfa()
   \                     ??CIndicationAlarmLowLevelDfa:
   \   00000000   93BA               ST      -Y, R27
   \   00000002   93AA               ST      -Y, R26
   \   00000004   01D8               MOVW    R27:R26, R17:R16
    262          {
   \   00000006   018D               MOVW    R17:R16, R27:R26
   \   00000008   ....               RCALL   ??CAlarmDfa
   \   0000000A   ....               LDI     R16, LOW(??__vtbl_7)
   \   0000000C   ....               LDI     R17, (??__vtbl_7) >> 8
   \   0000000E   01FD               MOVW    R31:R30, R27:R26
   \   00000010   8301               STD     Z+1, R16
   \   00000012   8312               STD     Z+2, R17
    263              SetFsmState(ACTIVE_STATE_WAITING);
   \   00000014   E021               LDI     R18, 1
   \   00000016   018D               MOVW    R17:R16, R27:R26
   \   00000018   ........           CALL    ??SetFsmState
    264          }
   \   0000001C   018D               MOVW    R17:R16, R27:R26
   \   0000001E   91A9               LD      R26, Y+
   \   00000020   91B9               LD      R27, Y+
   \   00000022   9508               RET
    265          
    266          //-----------------------------------------------------------------------------------------------------

   \                                 In  segment CODE, align 2, keep-with-next
    267          CIndicationAlarmLowLevelDfa::~CIndicationAlarmLowLevelDfa()
   \                     `?~CIndicationAlarmLowLevelDfa`:
    268          {
   \   00000000   ........           CALL    ?PROLOGUE4_L09
   \   00000004   01C8               MOVW    R25:R24, R17:R16
   \   00000006   01D9               MOVW    R27:R26, R19:R18
   \   00000008   2F08               MOV     R16, R24
   \   0000000A   2B09               OR      R16, R25
   \   0000000C   F049               BREQ    `?~CIndicationAlarmLowLevelDfa_1`
    269              //dtor
    270          }
   \   0000000E   E020               LDI     R18, 0
   \   00000010   E030               LDI     R19, 0
   \   00000012   018C               MOVW    R17:R16, R25:R24
   \   00000014   ....               RCALL   `?~CAlarmDfa`
   \   00000016   FBA0               BST     R26, 0
   \   00000018   F41E               BRTC    `?~CIndicationAlarmLowLevelDfa_1`
   \   0000001A   018C               MOVW    R17:R16, R25:R24
   \   0000001C   ........           CALL    `??operator delete`
   \                     `?~CIndicationAlarmLowLevelDfa_1`:
   \   00000020   E0E4               LDI     R30, 4
   \   00000022   ........           JMP     ?EPILOGUE_B4_L09
    271          
    272          //-----------------------------------------------------------------------------------------------------
    273          // јвтомат обработки сигнализации дискретного сигнала.

   \                                 In  segment CODE, align 2, keep-with-next
    274          void CIndicationAlarmLowLevelDfa::Fsm(void)
   \                     ??Fsm_1:
    275          {
   \   00000000   ........           CALL    ?PROLOGUE5_L09
   \   00000004                      REQUIRE ?Register_R4_is_cg_reg
   \   00000004   01D8               MOVW    R27:R26, R17:R16
    276              switch (GetFsmState())
   \   00000006   018D               MOVW    R17:R16, R27:R26
   \   00000008   ........           CALL    ??GetFsmState
   \   0000000C   5000               SUBI    R16, 0
   \   0000000E   F031               BREQ    ??Fsm_36
   \   00000010   950A               DEC     R16
   \   00000012   F029               BREQ    ??Fsm_37
   \   00000014   5006               SUBI    R16, 6
   \   00000016   F409               BRNE    $+2+2
   \   00000018   C054               RJMP    ??Fsm_38
   \   0000001A   C087               RJMP    ??Fsm_39
    277              {
    278              case START:
    279                  break;
   \                     ??Fsm_36:
   \   0000001C   C086               RJMP    ??Fsm_39
    280          
    281              case ACTIVE_STATE_WAITING:
    282                  // ƒискретный сигнал активен?
    283                  if (CPss21::GetDiscreteInputState(GetDiscreteStateIndex()) ^ ACTIVE_LEVEL())
   \                     ??Fsm_37:
   \   0000001E   01FD               MOVW    R31:R30, R27:R26
   \   00000020   8181               LDD     R24, Z+1
   \   00000022   8192               LDD     R25, Z+2
   \   00000024   9606               ADIW    R25:R24, 6
   \   00000026   018D               MOVW    R17:R16, R27:R26
   \   00000028   ........           CALL    ??GetDiscreteStateIndex
   \   0000002C   ........           CALL    ??GetDiscreteInputState
   \   00000030   2E40               MOV     R4, R16
   \   00000032   018D               MOVW    R17:R16, R27:R26
   \   00000034   01FC               MOVW    R31:R30, R25:R24
   \   00000036   9125               LPM     R18, Z+
   \   00000038   9134               LPM     R19, Z
   \   0000003A   9731               SBIW    R31:R30, 1
   \   0000003C   01F9               MOVW    R31:R30, R19:R18
   \   0000003E   9509               ICALL
   \   00000040   2640               EOR     R4, R16
   \   00000042   2044               TST     R4
   \   00000044   F011               BREQ    ??Fsm_40
   \   00000046   E001               LDI     R16, 1
   \   00000048   C001               RJMP    ??Fsm_41
   \                     ??Fsm_40:
   \   0000004A   E000               LDI     R16, 0
   \                     ??Fsm_41:
   \   0000004C   2300               TST     R16
   \   0000004E   F1C1               BREQ    ??Fsm_42
    284                  {
    285                      // ”становим св€занные дискретный выходы - новое нарушение.
    286                      CPss21::DiscreteOutputsSet(GetLinkedDiscreteOutputsPointer(), NEW_VIOLATION);
   \   00000050   018D               MOVW    R17:R16, R27:R26
   \   00000052   ........           CALL    ??GetLinkedDiscreteOutputsPointer
   \   00000056   E021               LDI     R18, 1
   \   00000058   ........           CALL    ??DiscreteOutputsSet
    287                      // ”становим тип сигнализации св€занному окну в массиве управлени€ окнами извещател€.
    288                      CPss21::SetAlarmWindowType(GetAlarmWindowIndex(), ALARM_TYPE());
   \   0000005C   018D               MOVW    R17:R16, R27:R26
   \   0000005E   9611               ADIW    R27:R26, 1
   \   00000060   91ED               LD      R30, X+
   \   00000062   91FC               LD      R31, X
   \   00000064   9712               SBIW    R27:R26, 2
   \   00000066   9634               ADIW    R31:R30, 4
   \   00000068   9125               LPM     R18, Z+
   \   0000006A   9134               LPM     R19, Z
   \   0000006C   9735               SBIW    R31:R30, 5
   \   0000006E   01F9               MOVW    R31:R30, R19:R18
   \   00000070   9509               ICALL
   \   00000072   2F80               MOV     R24, R16
   \   00000074   018D               MOVW    R17:R16, R27:R26
   \   00000076   ........           CALL    ??GetAlarmWindowIndex
   \   0000007A   2F18               MOV     R17, R24
   \   0000007C   ........           CALL    ??SetAlarmWindowType
    289                      CPss21::SetAlarmWindowColor(GetAlarmWindowIndex(), ALARM_TYPE());
   \   00000080   018D               MOVW    R17:R16, R27:R26
   \   00000082   9611               ADIW    R27:R26, 1
   \   00000084   91ED               LD      R30, X+
   \   00000086   91FC               LD      R31, X
   \   00000088   9712               SBIW    R27:R26, 2
   \   0000008A   9634               ADIW    R31:R30, 4
   \   0000008C   9125               LPM     R18, Z+
   \   0000008E   9134               LPM     R19, Z
   \   00000090   9735               SBIW    R31:R30, 5
   \   00000092   01F9               MOVW    R31:R30, R19:R18
   \   00000094   9509               ICALL
   \   00000096   2F80               MOV     R24, R16
   \   00000098   018D               MOVW    R17:R16, R27:R26
   \   0000009A   ........           CALL    ??GetAlarmWindowIndex
   \   0000009E   2F18               MOV     R17, R24
   \   000000A0   ........           CALL    ??SetAlarmWindowColor
    290                      // јктивизируем окно сигнализации, дл€ отображени€ извещателем.
    291                      CPss21::GetAlarmWindowControlPointer(GetAlarmWindowIndex()) -> SetActivityState(1);
   \   000000A4   018D               MOVW    R17:R16, R27:R26
   \   000000A6   ........           CALL    ??GetAlarmWindowIndex
   \   000000AA   ........           CALL    ??GetAlarmWindowControlPointer
   \   000000AE   E021               LDI     R18, 1
   \   000000B0   ........           CALL    ??SetActivityState
    292                      CPss21::BoardWindowsUpdate();
   \   000000B4   ........           CALL    ??BoardWindowsUpdate
    293                      SetFsmState(NOT_ACTIVE_STATE_WAITING);
   \   000000B8   E027               LDI     R18, 7
   \   000000BA   018D               MOVW    R17:R16, R27:R26
   \   000000BC   ........           CALL    ??SetFsmState
    294                  }
    295                  break;
   \                     ??Fsm_42:
   \   000000C0   C034               RJMP    ??Fsm_39
    296          
    297              case NOT_ACTIVE_STATE_WAITING:
    298                  // ƒискретный сигнал не активен?
    299                  if (!(CPss21::GetDiscreteInputState(GetDiscreteStateIndex()) ^ ACTIVE_LEVEL()))
   \                     ??Fsm_38:
   \   000000C2   01FD               MOVW    R31:R30, R27:R26
   \   000000C4   8181               LDD     R24, Z+1
   \   000000C6   8192               LDD     R25, Z+2
   \   000000C8   9606               ADIW    R25:R24, 6
   \   000000CA   018D               MOVW    R17:R16, R27:R26
   \   000000CC   ........           CALL    ??GetDiscreteStateIndex
   \   000000D0   ........           CALL    ??GetDiscreteInputState
   \   000000D4   2E40               MOV     R4, R16
   \   000000D6   018D               MOVW    R17:R16, R27:R26
   \   000000D8   01FC               MOVW    R31:R30, R25:R24
   \   000000DA   9125               LPM     R18, Z+
   \   000000DC   9134               LPM     R19, Z
   \   000000DE   9731               SBIW    R31:R30, 1
   \   000000E0   01F9               MOVW    R31:R30, R19:R18
   \   000000E2   9509               ICALL
   \   000000E4   2640               EOR     R4, R16
   \   000000E6   2044               TST     R4
   \   000000E8   F411               BRNE    ??Fsm_43
   \   000000EA   E001               LDI     R16, 1
   \   000000EC   C001               RJMP    ??Fsm_44
   \                     ??Fsm_43:
   \   000000EE   E000               LDI     R16, 0
   \                     ??Fsm_44:
   \   000000F0   2300               TST     R16
   \   000000F2   F0A9               BREQ    ??Fsm_45
    300                  {
    301                      // ”становим тип сигнализации св€занному окну в массиве управлени€ окнами извещател€.
    302                      CPss21::SetAlarmWindowType(GetAlarmWindowIndex(), NORMAL);
   \   000000F4   018D               MOVW    R17:R16, R27:R26
   \   000000F6   ........           CALL    ??GetAlarmWindowIndex
   \   000000FA   E010               LDI     R17, 0
   \   000000FC   ........           CALL    ??SetAlarmWindowType
    303                      // ƒеактмвируем окно сигнализации, дл€ прекращени€ отображени€ извещателем.
    304                      CPss21::GetAlarmWindowControlPointer(GetAlarmWindowIndex()) -> SetActivityState(0);
   \   00000100   018D               MOVW    R17:R16, R27:R26
   \   00000102   ........           CALL    ??GetAlarmWindowIndex
   \   00000106   ........           CALL    ??GetAlarmWindowControlPointer
   \   0000010A   E020               LDI     R18, 0
   \   0000010C   ........           CALL    ??SetActivityState
    305                      CPss21::BoardWindowsUpdate();
   \   00000110   ........           CALL    ??BoardWindowsUpdate
    306                      SetFsmState(ACTIVE_STATE_WAITING);
   \   00000114   E021               LDI     R18, 1
   \   00000116   018D               MOVW    R17:R16, R27:R26
   \   00000118   ........           CALL    ??SetFsmState
   \   0000011C   C006               RJMP    ??Fsm_39
    307                  }
    308                  else
    309                  {
    310                      // ”становим св€занные дискретный выходы - не новое нарушение.
    311                      CPss21::DiscreteOutputsSet(GetLinkedDiscreteOutputsPointer(), NOT_NEW_VIOLATION);
   \                     ??Fsm_45:
   \   0000011E   018D               MOVW    R17:R16, R27:R26
   \   00000120   ........           CALL    ??GetLinkedDiscreteOutputsPointer
   \   00000124   E020               LDI     R18, 0
   \   00000126   ........           CALL    ??DiscreteOutputsSet
    312                  }
    313                  break;
    314          
    315              default:
    316                  break;
    317              }
    318          }
   \                     ??Fsm_39:
   \   0000012A   E0E5               LDI     R30, 5
   \   0000012C   ........           JMP     ?EPILOGUE_B5_L09
    319          //-----------------------------------------------------------------------------------------------------
    320          
    321          
    322          
    323          
    324          
    325          
    326          
    327          
    328          //-----------------------------------------------------------------------------------------------------

   \                                 In  segment CODE, align 2, keep-with-next
    329          CIndicationAlarmHighLevelDfa::CIndicationAlarmHighLevelDfa()
   \                     ??CIndicationAlarmHighLevelDfa:
   \   00000000   93BA               ST      -Y, R27
   \   00000002   93AA               ST      -Y, R26
   \   00000004   01D8               MOVW    R27:R26, R17:R16
    330          {
   \   00000006   018D               MOVW    R17:R16, R27:R26
   \   00000008   ....               RCALL   ??CIndicationAlarmLowLevelDfa
   \   0000000A   ....               LDI     R16, LOW(??__vtbl_8)
   \   0000000C   ....               LDI     R17, (??__vtbl_8) >> 8
   \   0000000E   01FD               MOVW    R31:R30, R27:R26
   \   00000010   8301               STD     Z+1, R16
   \   00000012   8312               STD     Z+2, R17
    331              SetFsmState(ACTIVE_STATE_WAITING);
   \   00000014   E021               LDI     R18, 1
   \   00000016   018D               MOVW    R17:R16, R27:R26
   \   00000018   ........           CALL    ??SetFsmState
    332          }
   \   0000001C   018D               MOVW    R17:R16, R27:R26
   \   0000001E   91A9               LD      R26, Y+
   \   00000020   91B9               LD      R27, Y+
   \   00000022   9508               RET
    333          
    334          //-----------------------------------------------------------------------------------------------------

   \                                 In  segment CODE, align 2, keep-with-next
    335          CIndicationAlarmHighLevelDfa::~CIndicationAlarmHighLevelDfa()
   \                     `?~CIndicationAlarmHighLevelDfa`:
    336          {
   \   00000000   ........           CALL    ?PROLOGUE4_L09
   \   00000004   01C8               MOVW    R25:R24, R17:R16
   \   00000006   01D9               MOVW    R27:R26, R19:R18
   \   00000008   2F08               MOV     R16, R24
   \   0000000A   2B09               OR      R16, R25
   \   0000000C   F049               BREQ    `?~CIndicationAlarmHighLevelDfa_1`
    337              //dtor
    338          }
   \   0000000E   E020               LDI     R18, 0
   \   00000010   E030               LDI     R19, 0
   \   00000012   018C               MOVW    R17:R16, R25:R24
   \   00000014   ....               RCALL   `?~CIndicationAlarmLowLevelDfa`
   \   00000016   FBA0               BST     R26, 0
   \   00000018   F41E               BRTC    `?~CIndicationAlarmHighLevelDfa_1`
   \   0000001A   018C               MOVW    R17:R16, R25:R24
   \   0000001C   ........           CALL    `??operator delete`
   \                     `?~CIndicationAlarmHighLevelDfa_1`:
   \   00000020   E0E4               LDI     R30, 4
   \   00000022   ........           JMP     ?EPILOGUE_B4_L09
    339          //-----------------------------------------------------------------------------------------------------
    340          
    341          
    342          
    343          
    344          
    345          
    346          
    347          
    348          //-----------------------------------------------------------------------------------------------------

   \                                 In  segment CODE, align 2, keep-with-next
    349          CErrorAlarmDfa::CErrorAlarmDfa()
   \                     ??CErrorAlarmDfa:
   \   00000000   93BA               ST      -Y, R27
   \   00000002   93AA               ST      -Y, R26
   \   00000004   01D8               MOVW    R27:R26, R17:R16
    350          {
   \   00000006   018D               MOVW    R17:R16, R27:R26
   \   00000008   ........           CALL    ??CDfaLite
   \   0000000C   ....               LDI     R16, LOW(??__vtbl_9)
   \   0000000E   ....               LDI     R17, (??__vtbl_9) >> 8
   \   00000010   01FD               MOVW    R31:R30, R27:R26
   \   00000012   8301               STD     Z+1, R16
   \   00000014   8312               STD     Z+2, R17
    351              SetFsmState(ACTIVE_STATE_WAITING);
   \   00000016   E021               LDI     R18, 1
   \   00000018   018D               MOVW    R17:R16, R27:R26
   \   0000001A   ........           CALL    ??SetFsmState
    352          }
   \   0000001E   018D               MOVW    R17:R16, R27:R26
   \   00000020   91A9               LD      R26, Y+
   \   00000022   91B9               LD      R27, Y+
   \   00000024   9508               RET
    353          
    354          //-----------------------------------------------------------------------------------------------------

   \                                 In  segment CODE, align 2, keep-with-next
    355          CErrorAlarmDfa::~CErrorAlarmDfa()
   \                     `?~CErrorAlarmDfa`:
    356          {
   \   00000000   ........           CALL    ?PROLOGUE4_L09
   \   00000004   01C8               MOVW    R25:R24, R17:R16
   \   00000006   01D9               MOVW    R27:R26, R19:R18
   \   00000008   2F08               MOV     R16, R24
   \   0000000A   2B09               OR      R16, R25
   \   0000000C   F051               BREQ    `?~CErrorAlarmDfa_1`
    357              //dtor
    358          }
   \   0000000E   E020               LDI     R18, 0
   \   00000010   E030               LDI     R19, 0
   \   00000012   018C               MOVW    R17:R16, R25:R24
   \   00000014   ........           CALL    `?~CDfaLite`
   \   00000018   FBA0               BST     R26, 0
   \   0000001A   F41E               BRTC    `?~CErrorAlarmDfa_1`
   \   0000001C   018C               MOVW    R17:R16, R25:R24
   \   0000001E   ........           CALL    `??operator delete`
   \                     `?~CErrorAlarmDfa_1`:
   \   00000022   E0E4               LDI     R30, 4
   \   00000024   ........           JMP     ?EPILOGUE_B4_L09
    359          
    360          //-----------------------------------------------------------------------------------------------------
    361          // јвтомат обработки системных ошибок.

   \                                 In  segment CODE, align 2, keep-with-next
    362          void CErrorAlarmDfa::Fsm(void)
   \                     ??Fsm_2:
    363          {
   \   00000000   ........           CALL    ?PROLOGUE5_L09
   \   00000004                      REQUIRE ?Register_R4_is_cg_reg
   \   00000004   01D8               MOVW    R27:R26, R17:R16
    364              switch (GetFsmState())
   \   00000006   018D               MOVW    R17:R16, R27:R26
   \   00000008   ........           CALL    ??GetFsmState
   \   0000000C   5000               SUBI    R16, 0
   \   0000000E   F049               BREQ    ??Fsm_46
   \   00000010   950A               DEC     R16
   \   00000012   F041               BREQ    ??Fsm_47
   \   00000014   950A               DEC     R16
   \   00000016   F409               BRNE    $+2+2
   \   00000018   C063               RJMP    ??Fsm_48
   \   0000001A   950A               DEC     R16
   \   0000001C   F409               BRNE    $+2+2
   \   0000001E   C06B               RJMP    ??Fsm_49
   \   00000020   C08B               RJMP    ??Fsm_50
    365              {
    366              case START:
    367                  break;
   \                     ??Fsm_46:
   \   00000022   C08A               RJMP    ??Fsm_50
    368          
    369              case ACTIVE_STATE_WAITING:
    370                  // ƒискретный сигнал активен?
    371                  if (CPss21::GetErrorAlarmState(GetDiscreteStateIndex()) ^ ACTIVE_LEVEL())
   \                     ??Fsm_47:
   \   00000024   01FD               MOVW    R31:R30, R27:R26
   \   00000026   8181               LDD     R24, Z+1
   \   00000028   8192               LDD     R25, Z+2
   \   0000002A   9606               ADIW    R25:R24, 6
   \   0000002C   018D               MOVW    R17:R16, R27:R26
   \   0000002E   ........           CALL    ??GetDiscreteStateIndex_1
   \   00000032   ........           CALL    ??GetErrorAlarmState
   \   00000036   2E40               MOV     R4, R16
   \   00000038   018D               MOVW    R17:R16, R27:R26
   \   0000003A   01FC               MOVW    R31:R30, R25:R24
   \   0000003C   9125               LPM     R18, Z+
   \   0000003E   9134               LPM     R19, Z
   \   00000040   9731               SBIW    R31:R30, 1
   \   00000042   01F9               MOVW    R31:R30, R19:R18
   \   00000044   9509               ICALL
   \   00000046   2640               EOR     R4, R16
   \   00000048   2044               TST     R4
   \   0000004A   F011               BREQ    ??Fsm_51
   \   0000004C   E001               LDI     R16, 1
   \   0000004E   C001               RJMP    ??Fsm_52
   \                     ??Fsm_51:
   \   00000050   E000               LDI     R16, 0
   \                     ??Fsm_52:
   \   00000052   2300               TST     R16
   \   00000054   F409               BRNE    $+2+2
   \   00000056   C070               RJMP    ??Fsm_50
    372                  {
    373                      // “ип запрограммированной сигнализации дискретного сигнала имеет более высокий приоритет,
    374                      // чем тип общей сигнализации?
    375                      if ((CPss21::GetCommonAlarmType() != ERROR) &&
    376                              (CPss21::GetCommonAlarmType() < ALARM_TYPE()))
   \   00000058   ........           CALL    ??GetCommonAlarmType
   \   0000005C   3006               CPI     R16, 6
   \   0000005E   F121               BREQ    ??Fsm_53
   \   00000060   01FD               MOVW    R31:R30, R27:R26
   \   00000062   8181               LDD     R24, Z+1
   \   00000064   8192               LDD     R25, Z+2
   \   00000066   9604               ADIW    R25:R24, 4
   \   00000068   ........           CALL    ??GetCommonAlarmType
   \   0000006C   2E40               MOV     R4, R16
   \   0000006E   018D               MOVW    R17:R16, R27:R26
   \   00000070   01FC               MOVW    R31:R30, R25:R24
   \   00000072   9125               LPM     R18, Z+
   \   00000074   9134               LPM     R19, Z
   \   00000076   9731               SBIW    R31:R30, 1
   \   00000078   01F9               MOVW    R31:R30, R19:R18
   \   0000007A   9509               ICALL
   \   0000007C   1640               CP      R4, R16
   \   0000007E   F010               BRCS    ??Fsm_54
   \   00000080   E001               LDI     R16, 1
   \   00000082   C001               RJMP    ??Fsm_55
   \                     ??Fsm_54:
   \   00000084   E000               LDI     R16, 0
   \                     ??Fsm_55:
   \   00000086   2300               TST     R16
   \   00000088   F479               BRNE    ??Fsm_53
    377                      {
    378                          // ”становим тип общей сигнализацию.
    379                          CPss21::SetCommonAlarmType(ALARM_TYPE());
   \   0000008A   018D               MOVW    R17:R16, R27:R26
   \   0000008C   9611               ADIW    R27:R26, 1
   \   0000008E   91ED               LD      R30, X+
   \   00000090   91FC               LD      R31, X
   \   00000092   9712               SBIW    R27:R26, 2
   \   00000094   9634               ADIW    R31:R30, 4
   \   00000096   9125               LPM     R18, Z+
   \   00000098   9134               LPM     R19, Z
   \   0000009A   9735               SBIW    R31:R30, 5
   \   0000009C   01F9               MOVW    R31:R30, R19:R18
   \   0000009E   9509               ICALL
   \   000000A0   ........           CALL    ??SetCommonAlarmType
    380          
    381                          // »зменим тип общей сигнализацию.
    382                          CPss21::AlarmTypeErrorChange();
   \   000000A4   ........           CALL    ??AlarmTypeErrorChange
    383                      }
    384          
    385                      CPss21::SetAlarmWindowColor(GetAlarmWindowIndex(), ALARM_TYPE());
   \                     ??Fsm_53:
   \   000000A8   018D               MOVW    R17:R16, R27:R26
   \   000000AA   9611               ADIW    R27:R26, 1
   \   000000AC   91ED               LD      R30, X+
   \   000000AE   91FC               LD      R31, X
   \   000000B0   9712               SBIW    R27:R26, 2
   \   000000B2   9634               ADIW    R31:R30, 4
   \   000000B4   9125               LPM     R18, Z+
   \   000000B6   9134               LPM     R19, Z
   \   000000B8   9735               SBIW    R31:R30, 5
   \   000000BA   01F9               MOVW    R31:R30, R19:R18
   \   000000BC   9509               ICALL
   \   000000BE   2F80               MOV     R24, R16
   \   000000C0   018D               MOVW    R17:R16, R27:R26
   \   000000C2   ........           CALL    ??GetAlarmWindowIndex_1
   \   000000C6   2F18               MOV     R17, R24
   \   000000C8   ........           CALL    ??SetAlarmWindowColor
    386          //            // ”становим тип сигнализации св€занному окну в массиве управлени€ окнами извещател€.
    387                      CPss21::ErrorWindowOn(GetAlarmWindowIndex());
   \   000000CC   018D               MOVW    R17:R16, R27:R26
   \   000000CE   ........           CALL    ??GetAlarmWindowIndex_1
   \   000000D2   ........           CALL    ??ErrorWindowOn
    388                      SetFsmState(RECEIPT_WAITING);
   \   000000D6   E022               LDI     R18, 2
   \   000000D8   018D               MOVW    R17:R16, R27:R26
   \   000000DA   ........           CALL    ??SetFsmState
    389                  }
    390                  break;
   \   000000DE   C02C               RJMP    ??Fsm_50
    391          
    392              case RECEIPT_WAITING:
    393                  // —обытие квитировано?
    394                  if (CPss21::GetDiscreteSignalsReceipt())
   \                     ??Fsm_48:
   \   000000E0   ........           CALL    ??GetDiscreteSignalsReceipt
   \   000000E4   2300               TST     R16
   \   000000E6   F141               BREQ    ??Fsm_50
    395                  {
    396                      // ѕереведЄм автоматы сигнализаций в состо€ние - квитировано.
    397                      CPss21::AlarmTypeReceipt();
   \   000000E8   ........           CALL    ??AlarmTypeReceipt
    398                      SetFsmState(RECEIPTED_NOT_ACTIVE_STATE_WAITING);
   \   000000EC   E023               LDI     R18, 3
   \   000000EE   018D               MOVW    R17:R16, R27:R26
   \   000000F0   ........           CALL    ??SetFsmState
    399                  }
    400                  break;
   \   000000F4   C021               RJMP    ??Fsm_50
    401          
    402              case RECEIPTED_NOT_ACTIVE_STATE_WAITING:
    403                  // ƒискретный сигнал не активен?
    404                  if (!(CPss21::GetErrorAlarmState(GetDiscreteStateIndex()) ^ ACTIVE_LEVEL()))
   \                     ??Fsm_49:
   \   000000F6   01FD               MOVW    R31:R30, R27:R26
   \   000000F8   8181               LDD     R24, Z+1
   \   000000FA   8192               LDD     R25, Z+2
   \   000000FC   9606               ADIW    R25:R24, 6
   \   000000FE   018D               MOVW    R17:R16, R27:R26
   \   00000100   ........           CALL    ??GetDiscreteStateIndex_1
   \   00000104   ........           CALL    ??GetErrorAlarmState
   \   00000108   2E40               MOV     R4, R16
   \   0000010A   018D               MOVW    R17:R16, R27:R26
   \   0000010C   01FC               MOVW    R31:R30, R25:R24
   \   0000010E   9125               LPM     R18, Z+
   \   00000110   9134               LPM     R19, Z
   \   00000112   9731               SBIW    R31:R30, 1
   \   00000114   01F9               MOVW    R31:R30, R19:R18
   \   00000116   9509               ICALL
   \   00000118   2640               EOR     R4, R16
   \   0000011A   2044               TST     R4
   \   0000011C   F411               BRNE    ??Fsm_56
   \   0000011E   E001               LDI     R16, 1
   \   00000120   C001               RJMP    ??Fsm_57
   \                     ??Fsm_56:
   \   00000122   E000               LDI     R16, 0
   \                     ??Fsm_57:
   \   00000124   2300               TST     R16
   \   00000126   F041               BREQ    ??Fsm_50
    405                  {
    406                      // ѕереведЄм автоматы сигнализаций в состо€ние - сброшено.
    407                      CPss21::AlarmTypeReset();
   \   00000128   ........           CALL    ??AlarmTypeReset
    408                      CPss21::AllAlarmWindowOff();
   \   0000012C   ........           CALL    ??AllAlarmWindowOff
    409                      SetFsmState(ACTIVE_STATE_WAITING);
   \   00000130   E021               LDI     R18, 1
   \   00000132   018D               MOVW    R17:R16, R27:R26
   \   00000134   ........           CALL    ??SetFsmState
    410                  }
    411                  break;
    412          
    413              default:
    414                  break;
    415              }
    416          }
   \                     ??Fsm_50:
   \   00000138   E0E5               LDI     R30, 5
   \   0000013A   ........           JMP     ?EPILOGUE_B5_L09

   \                                 In  segment CODE, align 2, keep-with-next
   \   __version_3 CAlarmDfa &CAlarmDfa::new CAlarmDfa()
   \                     `??new CAlarmDfa`:
   \   00000000   E006               LDI     R16, 6
   \   00000002   E010               LDI     R17, 0
   \   00000004   ........           CALL    `??operator new`
   \   00000008   2F20               MOV     R18, R16
   \   0000000A   2B21               OR      R18, R17
   \   0000000C   F011               BREQ    `??new CAlarmDfa_1`
   \   0000000E   ....               RCALL   ??CAlarmDfa
   \   00000010   9508               RET
   \                     `??new CAlarmDfa_1`:
   \   00000012   E000               LDI     R16, 0
   \   00000014   E010               LDI     R17, 0
   \   00000016   9508               RET

   \                                 In  segment CODE, align 2, keep-with-next
   \   __version_3 CNormalAlarmDfa &CNormalAlarmDfa::new CNormalAlarmDfa()
   \                     `??new CNormalAlarmDfa`:
   \   00000000   E006               LDI     R16, 6
   \   00000002   E010               LDI     R17, 0
   \   00000004   ........           CALL    `??operator new`
   \   00000008   2F20               MOV     R18, R16
   \   0000000A   2B21               OR      R18, R17
   \   0000000C   F011               BREQ    `??new CNormalAlarmDfa_1`
   \   0000000E   ....               RCALL   ??CNormalAlarmDfa
   \   00000010   9508               RET
   \                     `??new CNormalAlarmDfa_1`:
   \   00000012   E000               LDI     R16, 0
   \   00000014   E010               LDI     R17, 0
   \   00000016   9508               RET

   \                                 In  segment CODE, align 2, keep-with-next
   \   __version_3 CPreventiveAlarmLowLevelDfa &CPreventiveAlarmLowLevelDfa::new CPreventiveAlarmLowLevelDfa()
   \                     `??new CPreventiveAlarmLowLevelDfa`:
   \   00000000   E006               LDI     R16, 6
   \   00000002   E010               LDI     R17, 0
   \   00000004   ........           CALL    `??operator new`
   \   00000008   2F20               MOV     R18, R16
   \   0000000A   2B21               OR      R18, R17
   \   0000000C   F011               BREQ    `??new CPreventiveAlarmLowLevelDfa_1`
   \   0000000E   ....               RCALL   ??CPreventiveAlarmLowLevelDfa
   \   00000010   9508               RET
   \                     `??new CPreventiveAlarmLowLevelDfa_1`:
   \   00000012   E000               LDI     R16, 0
   \   00000014   E010               LDI     R17, 0
   \   00000016   9508               RET

   \                                 In  segment CODE, align 2, keep-with-next
   \   __version_3 CPreventiveAlarmHighLevelDfa &CPreventiveAlarmHighLevelDfa::new CPreventiveAlarmHighLevelDfa()
   \                     `??new CPreventiveAlarmHighLevelDfa`:
   \   00000000   E006               LDI     R16, 6
   \   00000002   E010               LDI     R17, 0
   \   00000004   ........           CALL    `??operator new`
   \   00000008   2F20               MOV     R18, R16
   \   0000000A   2B21               OR      R18, R17
   \   0000000C   F011               BREQ    `??new CPreventiveAlarmHighLevelDfa_1`
   \   0000000E   ....               RCALL   ??CPreventiveAlarmHighLevelDfa
   \   00000010   9508               RET
   \                     `??new CPreventiveAlarmHighLevelDfa_1`:
   \   00000012   E000               LDI     R16, 0
   \   00000014   E010               LDI     R17, 0
   \   00000016   9508               RET

   \                                 In  segment CODE, align 2, keep-with-next
   \   __version_3 CEmergencyAlarmLowLevelDfa &CEmergencyAlarmLowLevelDfa::new CEmergencyAlarmLowLevelDfa()
   \                     `??new CEmergencyAlarmLowLevelDfa`:
   \   00000000   E006               LDI     R16, 6
   \   00000002   E010               LDI     R17, 0
   \   00000004   ........           CALL    `??operator new`
   \   00000008   2F20               MOV     R18, R16
   \   0000000A   2B21               OR      R18, R17
   \   0000000C   F011               BREQ    `??new CEmergencyAlarmLowLevelDfa_1`
   \   0000000E   ....               RCALL   ??CEmergencyAlarmLowLevelDfa
   \   00000010   9508               RET
   \                     `??new CEmergencyAlarmLowLevelDfa_1`:
   \   00000012   E000               LDI     R16, 0
   \   00000014   E010               LDI     R17, 0
   \   00000016   9508               RET

   \                                 In  segment CODE, align 2, keep-with-next
   \   __version_3 CEmergencyAlarmHighLevelDfa &CEmergencyAlarmHighLevelDfa::new CEmergencyAlarmHighLevelDfa()
   \                     `??new CEmergencyAlarmHighLevelDfa`:
   \   00000000   E006               LDI     R16, 6
   \   00000002   E010               LDI     R17, 0
   \   00000004   ........           CALL    `??operator new`
   \   00000008   2F20               MOV     R18, R16
   \   0000000A   2B21               OR      R18, R17
   \   0000000C   F011               BREQ    `??new CEmergencyAlarmHighLevelDfa_1`
   \   0000000E   ....               RCALL   ??CEmergencyAlarmHighLevelDfa
   \   00000010   9508               RET
   \                     `??new CEmergencyAlarmHighLevelDfa_1`:
   \   00000012   E000               LDI     R16, 0
   \   00000014   E010               LDI     R17, 0
   \   00000016   9508               RET

   \                                 In  segment CODE, align 2, keep-with-next
   \   __version_3 CIndicationAlarmLowLevelDfa &CIndicationAlarmLowLevelDfa::new CIndicationAlarmLowLevelDfa()
   \                     `??new CIndicationAlarmLowLevelDfa`:
   \   00000000   E006               LDI     R16, 6
   \   00000002   E010               LDI     R17, 0
   \   00000004   ........           CALL    `??operator new`
   \   00000008   2F20               MOV     R18, R16
   \   0000000A   2B21               OR      R18, R17
   \   0000000C   F011               BREQ    `??new CIndicationAlarmLowLevelDfa_1`
   \   0000000E   ....               RCALL   ??CIndicationAlarmLowLevelDfa
   \   00000010   9508               RET
   \                     `??new CIndicationAlarmLowLevelDfa_1`:
   \   00000012   E000               LDI     R16, 0
   \   00000014   E010               LDI     R17, 0
   \   00000016   9508               RET

   \                                 In  segment CODE, align 2, keep-with-next
   \   __version_3 CIndicationAlarmHighLevelDfa &CIndicationAlarmHighLevelDfa::new CIndicationAlarmHighLevelDfa()
   \                     `??new CIndicationAlarmHighLevelDfa`:
   \   00000000   E006               LDI     R16, 6
   \   00000002   E010               LDI     R17, 0
   \   00000004   ........           CALL    `??operator new`
   \   00000008   2F20               MOV     R18, R16
   \   0000000A   2B21               OR      R18, R17
   \   0000000C   F011               BREQ    `??new CIndicationAlarmHighLevelDfa_1`
   \   0000000E   ....               RCALL   ??CIndicationAlarmHighLevelDfa
   \   00000010   9508               RET
   \                     `??new CIndicationAlarmHighLevelDfa_1`:
   \   00000012   E000               LDI     R16, 0
   \   00000014   E010               LDI     R17, 0
   \   00000016   9508               RET

   \                                 In  segment CODE, align 2, keep-with-next
   \   __version_3 CErrorAlarmDfa &CErrorAlarmDfa::new CErrorAlarmDfa()
   \                     `??new CErrorAlarmDfa`:
   \   00000000   E005               LDI     R16, 5
   \   00000002   E010               LDI     R17, 0
   \   00000004   ........           CALL    `??operator new`
   \   00000008   2F20               MOV     R18, R16
   \   0000000A   2B21               OR      R18, R17
   \   0000000C   F011               BREQ    `??new CErrorAlarmDfa_1`
   \   0000000E   ....               RCALL   ??CErrorAlarmDfa
   \   00000010   9508               RET
   \                     `??new CErrorAlarmDfa_1`:
   \   00000012   E000               LDI     R16, 0
   \   00000014   E010               LDI     R17, 0
   \   00000016   9508               RET
    417          //-----------------------------------------------------------------------------------------------------
    418          
    419          
    420          
    421          
    422          
    423          
    424          
    425          
    426          
    427          ////-----------------------------------------------------------------------------------------------------
    428          //CInputModuleErrorAlarmDfa::CInputModuleErrorAlarmDfa()
    429          //{
    430          //    SetFsmState(START);
    431          //}
    432          //
    433          ////-----------------------------------------------------------------------------------------------------
    434          //CInputModuleErrorAlarmDfa::~CInputModuleErrorAlarmDfa()
    435          //{
    436          //    //dtor
    437          //}
    438          //
    439          ////-----------------------------------------------------------------------------------------------------
    440          //
    441          //
    442          //
    443          //
    444          //
    445          //
    446          //
    447          //
    448          ////-----------------------------------------------------------------------------------------------------
    449          //COutpuModuleErrorAlarmDfa::COutpuModuleErrorAlarmDfa()
    450          //{
    451          //    SetFsmState(START);
    452          //}
    453          //
    454          ////-----------------------------------------------------------------------------------------------------
    455          //COutpuModuleErrorAlarmDfa::~COutpuModuleErrorAlarmDfa()
    456          //{
    457          //    //dtor
    458          //}
    459          //
    460          ////-----------------------------------------------------------------------------------------------------
    461          
    462          
    463          
    464          
    465          
    466          
    467          

   Maximum stack usage in bytes:

   CSTACK RSTACK Function
   ------ ------ --------
      0      2   CAlarmDfa::ACTIVE_LEVEL()
      0      2   CAlarmDfa::ALARM_TYPE()
      2      2   CAlarmDfa::CAlarmDfa()
        2      2   -> CDfaLite::CDfaLite()
      5      2   CAlarmDfa::Fsm()
        5      2   -- Indirect call
        5      2   -> CAlarmDfa::GetAlarmWindowIndex()
        5      2   -> CAlarmDfa::GetDiscreteStateIndex()
        5      2   -> CAlarmDfa::GetLinkedDiscreteOutputsPointer()
        5      2   -> CDfaLite::GetFsmState()
        5      2   -> CDfaLite::SetFsmState(uint8_t)
        5      2   -> CPss21::DiscreteOutputsSet(uint8_t *, uint8_t)
        5      2   -> CPss21::GetDiscreteInputState(uint8_t)
        5      2   -> CPss21::GetDiscreteSignalsReceipt()
        5      2   -> CPss21::GetDiscreteSignalsReset()
        5      2   -> CPss21::SetAlarmWindowColor(uint8_t, uint8_t)
        5      2   -> CPss21::SetAlarmWindowType(uint8_t, uint8_t)
      0      2   CAlarmDfa::GetAlarmWindowIndex()
      0      2   CAlarmDfa::GetDiscreteStateIndex()
      0      2   CAlarmDfa::GetLinkedDiscreteOutputsPointer()
      0      2   CAlarmDfa::new CAlarmDfa()
        0      2   -> CAlarmDfa::CAlarmDfa()
        0      2   -> operator new(unsigned int)
      4      2   CAlarmDfa::~CAlarmDfa()
        4      2   -> CDfaLite::~CDfaLite()
        4      2   -> operator delete(void *)
      0      2   CAlarmWindow::SetActivityState(uint8_t)
      0      2   CDfaLite::GetFsmState()
      0      2   CDfaLite::SetFsmState(uint8_t)
      0      2   CEmergencyAlarmHighLevelDfa::ACTIVE_LEVEL()
      0      2   CEmergencyAlarmHighLevelDfa::ALARM_TYPE()
      2      2   CEmergencyAlarmHighLevelDfa::CEmergencyAlarmHighLevelDfa()
        2      2   -> CAlarmDfa::CAlarmDfa()
        2      2   -> CDfaLite::SetFsmState(uint8_t)
      0      2   CEmergencyAlarmHighLevelDfa::new CEmergencyAlarmHighLevelDfa()
        0      2   -> CEmergencyAlarmHighLevelDfa::CEmergencyAlarmHighLevelDfa()
        0      2   -> operator new(unsigned int)
      4      2   CEmergencyAlarmHighLevelDfa::~CEmergencyAlarmHighLevelDfa()
        4      2   -> CAlarmDfa::~CAlarmDfa()
        4      2   -> operator delete(void *)
      0      2   CEmergencyAlarmLowLevelDfa::ACTIVE_LEVEL()
      0      2   CEmergencyAlarmLowLevelDfa::ALARM_TYPE()
      2      2   CEmergencyAlarmLowLevelDfa::CEmergencyAlarmLowLevelDfa()
        2      2   -> CAlarmDfa::CAlarmDfa()
        2      2   -> CDfaLite::SetFsmState(uint8_t)
      0      2   CEmergencyAlarmLowLevelDfa::new CEmergencyAlarmLowLevelDfa()
        0      2   -> CEmergencyAlarmLowLevelDfa::CEmergencyAlarmLowLevelDfa()
        0      2   -> operator new(unsigned int)
      4      2   CEmergencyAlarmLowLevelDfa::~CEmergencyAlarmLowLevelDfa()
        4      2   -> CAlarmDfa::~CAlarmDfa()
        4      2   -> operator delete(void *)
      0      2   CErrorAlarmDfa::ACTIVE_LEVEL()
      0      2   CErrorAlarmDfa::ALARM_TYPE()
      2      2   CErrorAlarmDfa::CErrorAlarmDfa()
        2      2   -> CDfaLite::CDfaLite()
        2      2   -> CDfaLite::SetFsmState(uint8_t)
      5      2   CErrorAlarmDfa::Fsm()
        5      2   -- Indirect call
        5      2   -> CDfaLite::GetFsmState()
        5      2   -> CDfaLite::SetFsmState(uint8_t)
        5      2   -> CErrorAlarmDfa::GetAlarmWindowIndex()
        5      2   -> CErrorAlarmDfa::GetDiscreteStateIndex()
        5      2   -> CPss21::AlarmTypeErrorChange()
        5      2   -> CPss21::AlarmTypeReceipt()
        5      2   -> CPss21::AlarmTypeReset()
        5      2   -> CPss21::AllAlarmWindowOff()
        5      2   -> CPss21::ErrorWindowOn(uint8_t)
        5      2   -> CPss21::GetCommonAlarmType()
        5      2   -> CPss21::GetDiscreteSignalsReceipt()
        5      2   -> CPss21::GetErrorAlarmState(uint8_t)
        5      2   -> CPss21::SetAlarmWindowColor(uint8_t, uint8_t)
        5      2   -> CPss21::SetCommonAlarmType(uint8_t)
      0      2   CErrorAlarmDfa::GetAlarmWindowIndex()
      0      2   CErrorAlarmDfa::GetDiscreteStateIndex()
      0      2   CErrorAlarmDfa::new CErrorAlarmDfa()
        0      2   -> CErrorAlarmDfa::CErrorAlarmDfa()
        0      2   -> operator new(unsigned int)
      4      2   CErrorAlarmDfa::~CErrorAlarmDfa()
        4      2   -> CDfaLite::~CDfaLite()
        4      2   -> operator delete(void *)
      0      2   CIndicationAlarmHighLevelDfa::ACTIVE_LEVEL()
      0      2   CIndicationAlarmHighLevelDfa::ALARM_TYPE()
      2      2   CIndicationAlarmHighLevelDfa::CIndicationAlarmHighLevelDfa()
        2      2   -> CDfaLite::SetFsmState(uint8_t)
        2      2   -> CIndicationAlarmLowLevelDfa::CIndicationAlarmLowLevelDfa()
      0      2   CIndicationAlarmHighLevelDfa::new CIndicationAlarmHighLevelDfa()
        0      2   -> CIndicationAlarmHighLevelDfa::CIndicationAlarmHighLevelDfa()
        0      2   -> operator new(unsigned int)
      4      2   CIndicationAlarmHighLevelDfa::~CIndicationAlarmHighLevelDfa()
        4      2   -> CIndicationAlarmLowLevelDfa::~CIndicationAlarmLowLevelDfa()
        4      2   -> operator delete(void *)
      0      2   CIndicationAlarmLowLevelDfa::ACTIVE_LEVEL()
      0      2   CIndicationAlarmLowLevelDfa::ALARM_TYPE()
      2      2   CIndicationAlarmLowLevelDfa::CIndicationAlarmLowLevelDfa()
        2      2   -> CAlarmDfa::CAlarmDfa()
        2      2   -> CDfaLite::SetFsmState(uint8_t)
      5      2   CIndicationAlarmLowLevelDfa::Fsm()
        5      2   -- Indirect call
        5      2   -> CAlarmDfa::GetAlarmWindowIndex()
        5      2   -> CAlarmDfa::GetDiscreteStateIndex()
        5      2   -> CAlarmDfa::GetLinkedDiscreteOutputsPointer()
        5      2   -> CAlarmWindow::SetActivityState(uint8_t)
        5      2   -> CDfaLite::GetFsmState()
        5      2   -> CDfaLite::SetFsmState(uint8_t)
        5      2   -> CPss21::BoardWindowsUpdate()
        5      2   -> CPss21::DiscreteOutputsSet(uint8_t *, uint8_t)
        5      2   -> CPss21::GetAlarmWindowControlPointer(uint8_t)
        5      2   -> CPss21::GetDiscreteInputState(uint8_t)
        5      2   -> CPss21::SetAlarmWindowColor(uint8_t, uint8_t)
        5      2   -> CPss21::SetAlarmWindowType(uint8_t, uint8_t)
      0      2   CIndicationAlarmLowLevelDfa::new CIndicationAlarmLowLevelDfa()
        0      2   -> CIndicationAlarmLowLevelDfa::CIndicationAlarmLowLevelDfa()
        0      2   -> operator new(unsigned int)
      4      2   CIndicationAlarmLowLevelDfa::~CIndicationAlarmLowLevelDfa()
        4      2   -> CAlarmDfa::~CAlarmDfa()
        4      2   -> operator delete(void *)
      0      2   CNormalAlarmDfa::ACTIVE_LEVEL()
      0      2   CNormalAlarmDfa::ALARM_TYPE()
      2      2   CNormalAlarmDfa::CNormalAlarmDfa()
        2      2   -> CAlarmDfa::CAlarmDfa()
        2      2   -> CDfaLite::SetFsmState(uint8_t)
      0      2   CNormalAlarmDfa::new CNormalAlarmDfa()
        0      2   -> CNormalAlarmDfa::CNormalAlarmDfa()
        0      2   -> operator new(unsigned int)
      4      2   CNormalAlarmDfa::~CNormalAlarmDfa()
        4      2   -> CAlarmDfa::~CAlarmDfa()
        4      2   -> operator delete(void *)
      0      2   CPreventiveAlarmHighLevelDfa::ACTIVE_LEVEL()
      0      2   CPreventiveAlarmHighLevelDfa::ALARM_TYPE()
      2      2   CPreventiveAlarmHighLevelDfa::CPreventiveAlarmHighLevelDfa()
        2      2   -> CAlarmDfa::CAlarmDfa()
        2      2   -> CDfaLite::SetFsmState(uint8_t)
      0      2   CPreventiveAlarmHighLevelDfa::new CPreventiveAlarmHighLevelDfa()
        0      2   -> CPreventiveAlarmHighLevelDfa::CPreventiveAlarmHighLevelDfa()
        0      2   -> operator new(unsigned int)
      4      2   CPreventiveAlarmHighLevelDfa::~CPreventiveAlarmHighLevelDfa()
        4      2   -> CAlarmDfa::~CAlarmDfa()
        4      2   -> operator delete(void *)
      0      2   CPreventiveAlarmLowLevelDfa::ACTIVE_LEVEL()
      0      2   CPreventiveAlarmLowLevelDfa::ALARM_TYPE()
      2      2   CPreventiveAlarmLowLevelDfa::CPreventiveAlarmLowLevelDfa()
        2      2   -> CAlarmDfa::CAlarmDfa()
        2      2   -> CDfaLite::SetFsmState(uint8_t)
      0      2   CPreventiveAlarmLowLevelDfa::new CPreventiveAlarmLowLevelDfa()
        0      2   -> CPreventiveAlarmLowLevelDfa::CPreventiveAlarmLowLevelDfa()
        0      2   -> operator new(unsigned int)
      4      2   CPreventiveAlarmLowLevelDfa::~CPreventiveAlarmLowLevelDfa()
        4      2   -> CAlarmDfa::~CAlarmDfa()
        4      2   -> operator delete(void *)
      0      2   CPss21::GetAlarmWindowControlPointer(uint8_t)
        0      2 ?S_EC_MUL_L02
      0      2   CPss21::GetCommonAlarmType()
      0      2   CPss21::GetDiscreteSignalsReceipt()
      0      2   CPss21::GetDiscreteSignalsReset()
      0      2   CPss21::SetCommonAlarmType(uint8_t)


   Segment part sizes:

   Bytes  Function/Label
   -----  --------------
       6  CAlarmDfa::ACTIVE_LEVEL()
       6  CAlarmDfa::ALARM_TYPE()
      30  CAlarmDfa::CAlarmDfa()
     760  CAlarmDfa::Fsm()
       6  CAlarmDfa::GetAlarmWindowIndex()
       6  CAlarmDfa::GetDiscreteStateIndex()
       6  CAlarmDfa::GetLinkedDiscreteOutputsPointer()
      24  CAlarmDfa::new CAlarmDfa()
      40  CAlarmDfa::~CAlarmDfa()
       6  CAlarmWindow::SetActivityState(uint8_t)
       6  CDfaLite::GetFsmState()
       6  CDfaLite::SetFsmState(uint8_t)
       6  CEmergencyAlarmHighLevelDfa::ACTIVE_LEVEL()
       6  CEmergencyAlarmHighLevelDfa::ALARM_TYPE()
      36  CEmergencyAlarmHighLevelDfa::CEmergencyAlarmHighLevelDfa()
      24  CEmergencyAlarmHighLevelDfa::new CEmergencyAlarmHighLevelDfa()
      38  CEmergencyAlarmHighLevelDfa::~CEmergencyAlarmHighLevelDfa()
       6  CEmergencyAlarmLowLevelDfa::ACTIVE_LEVEL()
       6  CEmergencyAlarmLowLevelDfa::ALARM_TYPE()
      36  CEmergencyAlarmLowLevelDfa::CEmergencyAlarmLowLevelDfa()
      24  CEmergencyAlarmLowLevelDfa::new CEmergencyAlarmLowLevelDfa()
      38  CEmergencyAlarmLowLevelDfa::~CEmergencyAlarmLowLevelDfa()
       6  CErrorAlarmDfa::ACTIVE_LEVEL()
       6  CErrorAlarmDfa::ALARM_TYPE()
      38  CErrorAlarmDfa::CErrorAlarmDfa()
     318  CErrorAlarmDfa::Fsm()
       6  CErrorAlarmDfa::GetAlarmWindowIndex()
       6  CErrorAlarmDfa::GetDiscreteStateIndex()
      24  CErrorAlarmDfa::new CErrorAlarmDfa()
      40  CErrorAlarmDfa::~CErrorAlarmDfa()
       6  CIndicationAlarmHighLevelDfa::ACTIVE_LEVEL()
       6  CIndicationAlarmHighLevelDfa::ALARM_TYPE()
      36  CIndicationAlarmHighLevelDfa::CIndicationAlarmHighLevelDfa()
      24  CIndicationAlarmHighLevelDfa::new CIndicationAlarmHighLevelDfa()
      38  CIndicationAlarmHighLevelDfa::~CIndicationAlarmHighLevelDfa()
       6  CIndicationAlarmLowLevelDfa::ACTIVE_LEVEL()
       6  CIndicationAlarmLowLevelDfa::ALARM_TYPE()
      36  CIndicationAlarmLowLevelDfa::CIndicationAlarmLowLevelDfa()
     304  CIndicationAlarmLowLevelDfa::Fsm()
      24  CIndicationAlarmLowLevelDfa::new CIndicationAlarmLowLevelDfa()
      38  CIndicationAlarmLowLevelDfa::~CIndicationAlarmLowLevelDfa()
       6  CNormalAlarmDfa::ACTIVE_LEVEL()
       6  CNormalAlarmDfa::ALARM_TYPE()
      36  CNormalAlarmDfa::CNormalAlarmDfa()
      24  CNormalAlarmDfa::new CNormalAlarmDfa()
      38  CNormalAlarmDfa::~CNormalAlarmDfa()
       6  CPreventiveAlarmHighLevelDfa::ACTIVE_LEVEL()
       6  CPreventiveAlarmHighLevelDfa::ALARM_TYPE()
      36  CPreventiveAlarmHighLevelDfa::CPreventiveAlarmHighLevelDfa()
      24  CPreventiveAlarmHighLevelDfa::new CPreventiveAlarmHighLevelDfa()
      38  CPreventiveAlarmHighLevelDfa::~CPreventiveAlarmHighLevelDfa()
       6  CPreventiveAlarmLowLevelDfa::ACTIVE_LEVEL()
       6  CPreventiveAlarmLowLevelDfa::ALARM_TYPE()
      36  CPreventiveAlarmLowLevelDfa::CPreventiveAlarmLowLevelDfa()
      24  CPreventiveAlarmLowLevelDfa::new CPreventiveAlarmLowLevelDfa()
      38  CPreventiveAlarmLowLevelDfa::~CPreventiveAlarmLowLevelDfa()
      22  CPss21::GetAlarmWindowControlPointer(uint8_t)
       6  CPss21::GetCommonAlarmType()
       6  CPss21::GetDiscreteSignalsReceipt()
       6  CPss21::GetDiscreteSignalsReset()
       6  CPss21::SetCommonAlarmType(uint8_t)
       1  _A_ACSR
       2  _A_ADC
       1  _A_ADCSRA
       1  _A_ADMUX
       1  _A_ASSR
       1  _A_DDRA
       1  _A_DDRB
       1  _A_DDRC
       1  _A_DDRD
       1  _A_DDRE
       1  _A_DDRF
       1  _A_DDRG
       2  _A_EEAR
       1  _A_EECR
       1  _A_EEDR
       1  _A_EICRA
       1  _A_EICRB
       1  _A_EIFR
       1  _A_EIMSK
       1  _A_ETIFR
       1  _A_ETIMSK
       2  _A_ICR1
       2  _A_ICR3
       1  _A_MCUCR
       1  _A_MCUCSR
       1  _A_OCDR
       1  _A_OCR0
       2  _A_OCR1A
       2  _A_OCR1B
       2  _A_OCR1C
       1  _A_OCR2
       2  _A_OCR3A
       2  _A_OCR3B
       2  _A_OCR3C
       1  _A_OSCCAL
       1  _A_PINA
       1  _A_PINB
       1  _A_PINC
       1  _A_PIND
       1  _A_PINE
       1  _A_PINF
       1  _A_PING
       1  _A_PORTA
       1  _A_PORTB
       1  _A_PORTC
       1  _A_PORTD
       1  _A_PORTE
       1  _A_PORTF
       1  _A_PORTG
       1  _A_RAMPZ
       1  _A_SFIOR
       2  _A_SP
       1  _A_SPCR
       1  _A_SPDR
       1  _A_SPMCSR
       1  _A_SPSR
       1  _A_SREG
       1  _A_TCCR0
       1  _A_TCCR1A
       1  _A_TCCR1B
       1  _A_TCCR1C
       1  _A_TCCR2
       1  _A_TCCR3A
       1  _A_TCCR3B
       1  _A_TCCR3C
       1  _A_TCNT0
       2  _A_TCNT1
       1  _A_TCNT2
       2  _A_TCNT3
       1  _A_TIFR
       1  _A_TIMSK
       1  _A_TWAR
       1  _A_TWBR
       1  _A_TWCR
       1  _A_TWDR
       1  _A_TWSR
       1  _A_UBRR0H
       1  _A_UBRR0L
       1  _A_UBRR1H
       1  _A_UBRR1L
       1  _A_UCSR0A
       1  _A_UCSR0B
       1  _A_UCSR0C
       1  _A_UCSR1A
       1  _A_UCSR1B
       1  _A_UCSR1C
       1  _A_UDR0
       1  _A_UDR1
       1  _A_WDTCR
       1  _A_XDIV
       1  _A_XMCRA
       1  _A_XMCRB
      94  -- Other

 
   105 bytes in segment ABSOLUTE
 2 466 bytes in segment CODE
    94 bytes in segment NEAR_F
 
 2 286 bytes of CODE memory (+ 274 bytes shared)
     0 bytes of DATA memory (+ 105 bytes shared)

Errors: none
Warnings: 7
