###############################################################################
#
# IAR C/C++ Compiler V7.10.6.1378 for Atmel AVR           13/Oct/2024  05:07:27
# Copyright 1996-2018 IAR Systems AB.
#
#    Source file  =  
#        D:\Projects\CurrentProjects\CautoProjects\PSS48Color\src\Alarm.cpp
#    Command line =  
#        -f C:\Users\Admin\AppData\Local\Temp\EW4FEA.tmp
#        (--string_literals_in_flash
#        D:\Projects\CurrentProjects\CautoProjects\PSS48Color\src\Alarm.cpp
#        --cpu=m128a -ms -o
#        D:\Projects\CurrentProjects\CautoProjects\PSS48Color\Debug\Obj -lC
#        D:\Projects\CurrentProjects\CautoProjects\PSS48Color\Debug\List -lB
#        D:\Projects\CurrentProjects\CautoProjects\PSS48Color\Debug\List -y
#        --initializers_in_flash --root_variables --no_cse --no_inline
#        --no_code_motion --no_cross_call --no_clustering --no_tbaa --debug
#        -DENABLE_BIT_DEFINITIONS -e -I
#        D:\Projects\CurrentProjects\CautoProjects\PSS48Color\Modbus\ -I
#        D:\Projects\CurrentProjects\CautoProjects\PSS48Color\include\
#        --eeprom_size 4096 --dlib --dlib_config "C:\Program Files (x86)\IAR
#        Systems\Embedded Workbench 8.0\avr\LIB\DLIB\dlAVR-3s-ec_mul-n.h" -On
#        --eec++)
#    Locale       =  Russian_RUS.1251
#    List file    =  
#        D:\Projects\CurrentProjects\CautoProjects\PSS48Color\Debug\List\Alarm.lst
#    Object file  =  
#        D:\Projects\CurrentProjects\CautoProjects\PSS48Color\Debug\Obj\Alarm.r90
#
###############################################################################

D:\Projects\CurrentProjects\CautoProjects\PSS48Color\src\Alarm.cpp
      1          //-----------------------------------------------------------------------------------------------------
      2          //  Source      : FileName.cpp
      3          //  Created     : 01.06.2022
      4          //  Author      : Alexandr Volvenkin
      5          //  email       : aav-36@mail.ru
      6          //  GitHub      : https://github.com/AlexandrVolvenkin
      7          //-----------------------------------------------------------------------------------------------------
      8          #include "Dfa.h"

   \                                 In  segment CODE, align 2, keep-with-next
   \   __version_3 void CDfaLite::SetFsmState(uint8_t)
   \                     ??SetFsmState:
   \   00000000   01F8               MOVW    R31:R30, R17:R16
   \   00000002   8320               ST      Z, R18
   \   00000004   9508               RET

   \                                 In  segment CODE, align 2, keep-with-next
   \   __version_3 uint8_t CDfaLite::GetFsmState()
   \                     ??GetFsmState:
   \   00000000   01F8               MOVW    R31:R30, R17:R16
   \   00000002   8100               LD      R16, Z
   \   00000004   9508               RET
      9          #include "Platform.h"

   \                                 In  segment ABSOLUTE, at 0x9d, root
   \   union <unnamed> volatile __io _A_UCSR1C
   \                     _A_UCSR1C:
   \   00000000                      DS8 1

   \                                 In  segment ABSOLUTE, at 0x9c, root
   \   union <unnamed> volatile __io _A_UDR1
   \                     _A_UDR1:
   \   00000000                      DS8 1

   \                                 In  segment ABSOLUTE, at 0x9b, root
   \   union <unnamed> volatile __io _A_UCSR1A
   \                     _A_UCSR1A:
   \   00000000                      DS8 1

   \                                 In  segment ABSOLUTE, at 0x9a, root
   \   union <unnamed> volatile __io _A_UCSR1B
   \                     _A_UCSR1B:
   \   00000000                      DS8 1

   \                                 In  segment ABSOLUTE, at 0x99, root
   \   union <unnamed> volatile __io _A_UBRR1L
   \                     _A_UBRR1L:
   \   00000000                      DS8 1

   \                                 In  segment ABSOLUTE, at 0x98, root
   \   union <unnamed> volatile __io _A_UBRR1H
   \                     _A_UBRR1H:
   \   00000000                      DS8 1

   \                                 In  segment ABSOLUTE, at 0x95, root
   \   union <unnamed> volatile __io _A_UCSR0C
   \                     _A_UCSR0C:
   \   00000000                      DS8 1

   \                                 In  segment ABSOLUTE, at 0x90, root
   \   union <unnamed> volatile __io _A_UBRR0H
   \                     _A_UBRR0H:
   \   00000000                      DS8 1

   \                                 In  segment ABSOLUTE, at 0x8c, root
   \   union <unnamed> volatile __io _A_TCCR3C
   \                     _A_TCCR3C:
   \   00000000                      DS8 1

   \                                 In  segment ABSOLUTE, at 0x8b, root
   \   union <unnamed> volatile __io _A_TCCR3A
   \                     _A_TCCR3A:
   \   00000000                      DS8 1

   \                                 In  segment ABSOLUTE, at 0x8a, root
   \   union <unnamed> volatile __io _A_TCCR3B
   \                     _A_TCCR3B:
   \   00000000                      DS8 1

   \                                 In  segment ABSOLUTE, at 0x88, root
   \   union <unnamed> volatile __io _A_TCNT3
   \                     _A_TCNT3:
   \   00000000                      DS8 2

   \                                 In  segment ABSOLUTE, at 0x86, root
   \   union <unnamed> volatile __io _A_OCR3A
   \                     _A_OCR3A:
   \   00000000                      DS8 2

   \                                 In  segment ABSOLUTE, at 0x84, root
   \   union <unnamed> volatile __io _A_OCR3B
   \                     _A_OCR3B:
   \   00000000                      DS8 2

   \                                 In  segment ABSOLUTE, at 0x82, root
   \   union <unnamed> volatile __io _A_OCR3C
   \                     _A_OCR3C:
   \   00000000                      DS8 2

   \                                 In  segment ABSOLUTE, at 0x80, root
   \   union <unnamed> volatile __io _A_ICR3
   \                     _A_ICR3:
   \   00000000                      DS8 2

   \                                 In  segment ABSOLUTE, at 0x7d, root
   \   union <unnamed> volatile __io _A_ETIMSK
   \                     _A_ETIMSK:
   \   00000000                      DS8 1

   \                                 In  segment ABSOLUTE, at 0x7c, root
   \   union <unnamed> volatile __io _A_ETIFR
   \                     _A_ETIFR:
   \   00000000                      DS8 1

   \                                 In  segment ABSOLUTE, at 0x7a, root
   \   union <unnamed> volatile __io _A_TCCR1C
   \                     _A_TCCR1C:
   \   00000000                      DS8 1

   \                                 In  segment ABSOLUTE, at 0x78, root
   \   union <unnamed> volatile __io _A_OCR1C
   \                     _A_OCR1C:
   \   00000000                      DS8 2

   \                                 In  segment ABSOLUTE, at 0x74, root
   \   union <unnamed> volatile __io _A_TWCR
   \                     _A_TWCR:
   \   00000000                      DS8 1

   \                                 In  segment ABSOLUTE, at 0x73, root
   \   union <unnamed> volatile __io _A_TWDR
   \                     _A_TWDR:
   \   00000000                      DS8 1

   \                                 In  segment ABSOLUTE, at 0x72, root
   \   union <unnamed> volatile __io _A_TWAR
   \                     _A_TWAR:
   \   00000000                      DS8 1

   \                                 In  segment ABSOLUTE, at 0x71, root
   \   union <unnamed> volatile __io _A_TWSR
   \                     _A_TWSR:
   \   00000000                      DS8 1

   \                                 In  segment ABSOLUTE, at 0x70, root
   \   union <unnamed> volatile __io _A_TWBR
   \                     _A_TWBR:
   \   00000000                      DS8 1

   \                                 In  segment ABSOLUTE, at 0x6f, root
   \   union <unnamed> volatile __io _A_OSCCAL
   \                     _A_OSCCAL:
   \   00000000                      DS8 1

   \                                 In  segment ABSOLUTE, at 0x6d, root
   \   union <unnamed> volatile __io _A_XMCRA
   \                     _A_XMCRA:
   \   00000000                      DS8 1

   \                                 In  segment ABSOLUTE, at 0x6c, root
   \   union <unnamed> volatile __io _A_XMCRB
   \                     _A_XMCRB:
   \   00000000                      DS8 1

   \                                 In  segment ABSOLUTE, at 0x6a, root
   \   union <unnamed> volatile __io _A_EICRA
   \                     _A_EICRA:
   \   00000000                      DS8 1

   \                                 In  segment ABSOLUTE, at 0x68, root
   \   union <unnamed> volatile __io _A_SPMCSR
   \                     _A_SPMCSR:
   \   00000000                      DS8 1

   \                                 In  segment ABSOLUTE, at 0x65, root
   \   union <unnamed> volatile __io _A_PORTG
   \                     _A_PORTG:
   \   00000000                      DS8 1

   \                                 In  segment ABSOLUTE, at 0x64, root
   \   union <unnamed> volatile __io _A_DDRG
   \                     _A_DDRG:
   \   00000000                      DS8 1

   \                                 In  segment ABSOLUTE, at 0x63, root
   \   union <unnamed> volatile __io _A_PING
   \                     _A_PING:
   \   00000000                      DS8 1

   \                                 In  segment ABSOLUTE, at 0x62, root
   \   union <unnamed> volatile __io _A_PORTF
   \                     _A_PORTF:
   \   00000000                      DS8 1

   \                                 In  segment ABSOLUTE, at 0x61, root
   \   union <unnamed> volatile __io _A_DDRF
   \                     _A_DDRF:
   \   00000000                      DS8 1

   \                                 In  segment ABSOLUTE, at 0x5f, root
   \   union <unnamed> volatile __io _A_SREG
   \                     _A_SREG:
   \   00000000                      DS8 1

   \                                 In  segment ABSOLUTE, at 0x5d, root
   \   union <unnamed> volatile __io _A_SP
   \                     _A_SP:
   \   00000000                      DS8 2

   \                                 In  segment ABSOLUTE, at 0x5c, root
   \   union <unnamed> volatile __io _A_XDIV
   \                     _A_XDIV:
   \   00000000                      DS8 1

   \                                 In  segment ABSOLUTE, at 0x5b, root
   \   union <unnamed> volatile __io _A_RAMPZ
   \                     _A_RAMPZ:
   \   00000000                      DS8 1

   \                                 In  segment ABSOLUTE, at 0x5a, root
   \   union <unnamed> volatile __io _A_EICRB
   \                     _A_EICRB:
   \   00000000                      DS8 1

   \                                 In  segment ABSOLUTE, at 0x59, root
   \   union <unnamed> volatile __io _A_EIMSK
   \                     _A_EIMSK:
   \   00000000                      DS8 1

   \                                 In  segment ABSOLUTE, at 0x58, root
   \   union <unnamed> volatile __io _A_EIFR
   \                     _A_EIFR:
   \   00000000                      DS8 1

   \                                 In  segment ABSOLUTE, at 0x57, root
   \   union <unnamed> volatile __io _A_TIMSK
   \                     _A_TIMSK:
   \   00000000                      DS8 1

   \                                 In  segment ABSOLUTE, at 0x56, root
   \   union <unnamed> volatile __io _A_TIFR
   \                     _A_TIFR:
   \   00000000                      DS8 1

   \                                 In  segment ABSOLUTE, at 0x55, root
   \   union <unnamed> volatile __io _A_MCUCR
   \                     _A_MCUCR:
   \   00000000                      DS8 1

   \                                 In  segment ABSOLUTE, at 0x54, root
   \   union <unnamed> volatile __io _A_MCUCSR
   \                     _A_MCUCSR:
   \   00000000                      DS8 1

   \                                 In  segment ABSOLUTE, at 0x53, root
   \   union <unnamed> volatile __io _A_TCCR0
   \                     _A_TCCR0:
   \   00000000                      DS8 1

   \                                 In  segment ABSOLUTE, at 0x52, root
   \   union <unnamed> volatile __io _A_TCNT0
   \                     _A_TCNT0:
   \   00000000                      DS8 1

   \                                 In  segment ABSOLUTE, at 0x51, root
   \   union <unnamed> volatile __io _A_OCR0
   \                     _A_OCR0:
   \   00000000                      DS8 1

   \                                 In  segment ABSOLUTE, at 0x50, root
   \   union <unnamed> volatile __io _A_ASSR
   \                     _A_ASSR:
   \   00000000                      DS8 1

   \                                 In  segment ABSOLUTE, at 0x4f, root
   \   union <unnamed> volatile __io _A_TCCR1A
   \                     _A_TCCR1A:
   \   00000000                      DS8 1

   \                                 In  segment ABSOLUTE, at 0x4e, root
   \   union <unnamed> volatile __io _A_TCCR1B
   \                     _A_TCCR1B:
   \   00000000                      DS8 1

   \                                 In  segment ABSOLUTE, at 0x4c, root
   \   union <unnamed> volatile __io _A_TCNT1
   \                     _A_TCNT1:
   \   00000000                      DS8 2

   \                                 In  segment ABSOLUTE, at 0x4a, root
   \   union <unnamed> volatile __io _A_OCR1A
   \                     _A_OCR1A:
   \   00000000                      DS8 2

   \                                 In  segment ABSOLUTE, at 0x48, root
   \   union <unnamed> volatile __io _A_OCR1B
   \                     _A_OCR1B:
   \   00000000                      DS8 2

   \                                 In  segment ABSOLUTE, at 0x46, root
   \   union <unnamed> volatile __io _A_ICR1
   \                     _A_ICR1:
   \   00000000                      DS8 2

   \                                 In  segment ABSOLUTE, at 0x45, root
   \   union <unnamed> volatile __io _A_TCCR2
   \                     _A_TCCR2:
   \   00000000                      DS8 1

   \                                 In  segment ABSOLUTE, at 0x44, root
   \   union <unnamed> volatile __io _A_TCNT2
   \                     _A_TCNT2:
   \   00000000                      DS8 1

   \                                 In  segment ABSOLUTE, at 0x43, root
   \   union <unnamed> volatile __io _A_OCR2
   \                     _A_OCR2:
   \   00000000                      DS8 1

   \                                 In  segment ABSOLUTE, at 0x42, root
   \   union <unnamed> volatile __io _A_OCDR
   \                     _A_OCDR:
   \   00000000                      DS8 1

   \                                 In  segment ABSOLUTE, at 0x41, root
   \   union <unnamed> volatile __io _A_WDTCR
   \                     _A_WDTCR:
   \   00000000                      DS8 1

   \                                 In  segment ABSOLUTE, at 0x40, root
   \   union <unnamed> volatile __io _A_SFIOR
   \                     _A_SFIOR:
   \   00000000                      DS8 1

   \                                 In  segment ABSOLUTE, at 0x3e, root
   \   union <unnamed> volatile __io _A_EEAR
   \                     _A_EEAR:
   \   00000000                      DS8 2

   \                                 In  segment ABSOLUTE, at 0x3d, root
   \   union <unnamed> volatile __io _A_EEDR
   \                     _A_EEDR:
   \   00000000                      DS8 1

   \                                 In  segment ABSOLUTE, at 0x3c, root
   \   union <unnamed> volatile __io _A_EECR
   \                     _A_EECR:
   \   00000000                      DS8 1

   \                                 In  segment ABSOLUTE, at 0x3b, root
   \   union <unnamed> volatile __io _A_PORTA
   \                     _A_PORTA:
   \   00000000                      DS8 1

   \                                 In  segment ABSOLUTE, at 0x3a, root
   \   union <unnamed> volatile __io _A_DDRA
   \                     _A_DDRA:
   \   00000000                      DS8 1

   \                                 In  segment ABSOLUTE, at 0x39, root
   \   union <unnamed> volatile __io _A_PINA
   \                     _A_PINA:
   \   00000000                      DS8 1

   \                                 In  segment ABSOLUTE, at 0x38, root
   \   union <unnamed> volatile __io _A_PORTB
   \                     _A_PORTB:
   \   00000000                      DS8 1

   \                                 In  segment ABSOLUTE, at 0x37, root
   \   union <unnamed> volatile __io _A_DDRB
   \                     _A_DDRB:
   \   00000000                      DS8 1

   \                                 In  segment ABSOLUTE, at 0x36, root
   \   union <unnamed> volatile __io _A_PINB
   \                     _A_PINB:
   \   00000000                      DS8 1

   \                                 In  segment ABSOLUTE, at 0x35, root
   \   union <unnamed> volatile __io _A_PORTC
   \                     _A_PORTC:
   \   00000000                      DS8 1

   \                                 In  segment ABSOLUTE, at 0x34, root
   \   union <unnamed> volatile __io _A_DDRC
   \                     _A_DDRC:
   \   00000000                      DS8 1

   \                                 In  segment ABSOLUTE, at 0x33, root
   \   union <unnamed> volatile __io _A_PINC
   \                     _A_PINC:
   \   00000000                      DS8 1

   \                                 In  segment ABSOLUTE, at 0x32, root
   \   union <unnamed> volatile __io _A_PORTD
   \                     _A_PORTD:
   \   00000000                      DS8 1

   \                                 In  segment ABSOLUTE, at 0x31, root
   \   union <unnamed> volatile __io _A_DDRD
   \                     _A_DDRD:
   \   00000000                      DS8 1

   \                                 In  segment ABSOLUTE, at 0x30, root
   \   union <unnamed> volatile __io _A_PIND
   \                     _A_PIND:
   \   00000000                      DS8 1

   \                                 In  segment ABSOLUTE, at 0x2f, root
   \   union <unnamed> volatile __io _A_SPDR
   \                     _A_SPDR:
   \   00000000                      DS8 1

   \                                 In  segment ABSOLUTE, at 0x2e, root
   \   union <unnamed> volatile __io _A_SPSR
   \                     _A_SPSR:
   \   00000000                      DS8 1

   \                                 In  segment ABSOLUTE, at 0x2d, root
   \   union <unnamed> volatile __io _A_SPCR
   \                     _A_SPCR:
   \   00000000                      DS8 1

   \                                 In  segment ABSOLUTE, at 0x2c, root
   \   union <unnamed> volatile __io _A_UDR0
   \                     _A_UDR0:
   \   00000000                      DS8 1

   \                                 In  segment ABSOLUTE, at 0x2b, root
   \   union <unnamed> volatile __io _A_UCSR0A
   \                     _A_UCSR0A:
   \   00000000                      DS8 1

   \                                 In  segment ABSOLUTE, at 0x2a, root
   \   union <unnamed> volatile __io _A_UCSR0B
   \                     _A_UCSR0B:
   \   00000000                      DS8 1

   \                                 In  segment ABSOLUTE, at 0x29, root
   \   union <unnamed> volatile __io _A_UBRR0L
   \                     _A_UBRR0L:
   \   00000000                      DS8 1

   \                                 In  segment ABSOLUTE, at 0x28, root
   \   union <unnamed> volatile __io _A_ACSR
   \                     _A_ACSR:
   \   00000000                      DS8 1

   \                                 In  segment ABSOLUTE, at 0x27, root
   \   union <unnamed> volatile __io _A_ADMUX
   \                     _A_ADMUX:
   \   00000000                      DS8 1

   \                                 In  segment ABSOLUTE, at 0x26, root
   \   union <unnamed> volatile __io _A_ADCSRA
   \                     _A_ADCSRA:
   \   00000000                      DS8 1

   \                                 In  segment ABSOLUTE, at 0x24, root
   \   union <unnamed> volatile __io _A_ADC
   \                     _A_ADC:
   \   00000000                      DS8 2

   \                                 In  segment ABSOLUTE, at 0x23, root
   \   union <unnamed> volatile __io _A_PORTE
   \                     _A_PORTE:
   \   00000000                      DS8 1

   \                                 In  segment ABSOLUTE, at 0x22, root
   \   union <unnamed> volatile __io _A_DDRE
   \                     _A_DDRE:
   \   00000000                      DS8 1

   \                                 In  segment ABSOLUTE, at 0x21, root
   \   union <unnamed> volatile __io _A_PINE
   \                     _A_PINE:
   \   00000000                      DS8 1

   \                                 In  segment ABSOLUTE, at 0x20, root
   \   union <unnamed> volatile __io _A_PINF
   \                     _A_PINF:
   \   00000000                      DS8 1

      static __flash TDataBase CFlash::xMainDataBase;
                               ^
"D:\Projects\CurrentProjects\CautoProjects\PSS48Color\include\Platform.h",366  Warning[Pe427]: 
          qualified name is not allowed in member declaration

      static __flash TDataBaseBlockPositionData CFlash::axDataBaseBlocksPositionData[];
                                                ^
"D:\Projects\CurrentProjects\CautoProjects\PSS48Color\include\Platform.h",367  Warning[Pe427]: 
          qualified name is not allowed in member declaration
     10          #include "Pss21.h"

   \                                 In  segment CODE, align 2, keep-with-next
   \   __version_3 void CAlarmWindow::SetActivityState(uint8_t)
   \                     ??SetActivityState:
   \   00000000   01F8               MOVW    R31:R30, R17:R16
   \   00000002   8320               ST      Z, R18
   \   00000004   9508               RET

   \                                 In  segment CODE, align 2, keep-with-next
   \   __version_3 uint8_t CAlarmDfa::ALARM_TYPE()
   \                     ??ALARM_TYPE:
   \   00000000   0198               MOVW    R19:R18, R17:R16
   \   00000002   E000               LDI     R16, 0
   \   00000004   9508               RET

   \                                 In  segment CODE, align 2, keep-with-next
   \   __version_3 uint8_t CAlarmDfa::ACTIVE_LEVEL()
   \                     ??ACTIVE_LEVEL:
   \   00000000   0198               MOVW    R19:R18, R17:R16
   \   00000002   E000               LDI     R16, 0
   \   00000004   9508               RET

   \                                 In  segment CODE, align 2, keep-with-next
   \   __version_3 uint8_t CAlarmDfa::IS_NAMUR_ON()
   \                     ??IS_NAMUR_ON:
   \   00000000   0198               MOVW    R19:R18, R17:R16
   \   00000002   E000               LDI     R16, 0
   \   00000004   9508               RET

   \                                 In  segment CODE, align 2, keep-with-next
   \   __version_3 uint8_t CAlarmDfa::GetDiscreteStateIndex()
   \                     ??GetDiscreteStateIndex:
   \   00000000   01F8               MOVW    R31:R30, R17:R16
   \   00000002   8105               LDD     R16, Z+5
   \   00000004   9508               RET

   \                                 In  segment CODE, align 2, keep-with-next
   \   __version_3 uint8_t CAlarmDfa::GetAlarmWindowIndex()
   \                     ??GetAlarmWindowIndex:
   \   00000000   01F8               MOVW    R31:R30, R17:R16
   \   00000002   8103               LDD     R16, Z+3
   \   00000004   9508               RET

   \                                 In  segment CODE, align 2, keep-with-next
   \   __version_3 uint8_t *CAlarmDfa::GetLinkedDiscreteOutputsPointer()
   \                     ??GetLinkedDiscreteOutputsPointer:
   \   00000000   5F0C               SUBI    R16, 252
   \   00000002   4F1F               SBCI    R17, 255
   \   00000004   9508               RET

   \                                 In  segment CODE, align 2, keep-with-next
   \   __version_3 uint8_t CNormalAlarmDfa::ALARM_TYPE()
   \                     ??ALARM_TYPE_1:
   \   00000000   0198               MOVW    R19:R18, R17:R16
   \   00000002   E000               LDI     R16, 0
   \   00000004   9508               RET

   \                                 In  segment CODE, align 2, keep-with-next
   \   __version_3 uint8_t CNormalAlarmDfa::ACTIVE_LEVEL()
   \                     ??ACTIVE_LEVEL_1:
   \   00000000   0198               MOVW    R19:R18, R17:R16
   \   00000002   E000               LDI     R16, 0
   \   00000004   9508               RET

   \                                 In  segment CODE, align 2, keep-with-next
   \   __version_3 uint8_t CNormalAlarmDfa::IS_NAMUR_ON()
   \                     ??IS_NAMUR_ON_1:
   \   00000000   0198               MOVW    R19:R18, R17:R16
   \   00000002   E000               LDI     R16, 0
   \   00000004   9508               RET

   \                                 In  segment CODE, align 2, keep-with-next
   \   __version_3 uint8_t CPreventiveAlarmLowLevelDfa::ALARM_TYPE()
   \                     ??ALARM_TYPE_2:
   \   00000000   0198               MOVW    R19:R18, R17:R16
   \   00000002   E002               LDI     R16, 2
   \   00000004   9508               RET

   \                                 In  segment CODE, align 2, keep-with-next
   \   __version_3 uint8_t CPreventiveAlarmLowLevelDfa::ACTIVE_LEVEL()
   \                     ??ACTIVE_LEVEL_2:
   \   00000000   0198               MOVW    R19:R18, R17:R16
   \   00000002   E000               LDI     R16, 0
   \   00000004   9508               RET

   \                                 In  segment CODE, align 2, keep-with-next
   \   __version_3 uint8_t CPreventiveAlarmLowLevelDfa::IS_NAMUR_ON()
   \                     ??IS_NAMUR_ON_2:
   \   00000000   0198               MOVW    R19:R18, R17:R16
   \   00000002   E000               LDI     R16, 0
   \   00000004   9508               RET

   \                                 In  segment CODE, align 2, keep-with-next
   \   __version_3 uint8_t CPreventiveAlarmHighLevelDfa::ALARM_TYPE()
   \                     ??ALARM_TYPE_3:
   \   00000000   0198               MOVW    R19:R18, R17:R16
   \   00000002   E002               LDI     R16, 2
   \   00000004   9508               RET

   \                                 In  segment CODE, align 2, keep-with-next
   \   __version_3 uint8_t CPreventiveAlarmHighLevelDfa::ACTIVE_LEVEL()
   \                     ??ACTIVE_LEVEL_3:
   \   00000000   0198               MOVW    R19:R18, R17:R16
   \   00000002   E001               LDI     R16, 1
   \   00000004   9508               RET

   \                                 In  segment CODE, align 2, keep-with-next
   \   __version_3 uint8_t CPreventiveAlarmHighLevelDfa::IS_NAMUR_ON()
   \                     ??IS_NAMUR_ON_3:
   \   00000000   0198               MOVW    R19:R18, R17:R16
   \   00000002   E000               LDI     R16, 0
   \   00000004   9508               RET

   \                                 In  segment CODE, align 2, keep-with-next
   \   __version_3 uint8_t CPreventiveAlarmLowLevelNamurDfa::ALARM_TYPE()
   \                     ??ALARM_TYPE_4:
   \   00000000   0198               MOVW    R19:R18, R17:R16
   \   00000002   E002               LDI     R16, 2
   \   00000004   9508               RET

   \                                 In  segment CODE, align 2, keep-with-next
   \   __version_3 uint8_t CPreventiveAlarmLowLevelNamurDfa::ACTIVE_LEVEL()
   \                     ??ACTIVE_LEVEL_4:
   \   00000000   0198               MOVW    R19:R18, R17:R16
   \   00000002   E000               LDI     R16, 0
   \   00000004   9508               RET

   \                                 In  segment CODE, align 2, keep-with-next
   \   __version_3 uint8_t CPreventiveAlarmLowLevelNamurDfa::IS_NAMUR_ON()
   \                     ??IS_NAMUR_ON_4:
   \   00000000   0198               MOVW    R19:R18, R17:R16
   \   00000002   E001               LDI     R16, 1
   \   00000004   9508               RET

   \                                 In  segment CODE, align 2, keep-with-next
   \   __version_3 uint8_t CPreventiveAlarmHighLevelNamurDfa::ALARM_TYPE()
   \                     ??ALARM_TYPE_5:
   \   00000000   0198               MOVW    R19:R18, R17:R16
   \   00000002   E002               LDI     R16, 2
   \   00000004   9508               RET

   \                                 In  segment CODE, align 2, keep-with-next
   \   __version_3 uint8_t CPreventiveAlarmHighLevelNamurDfa::ACTIVE_LEVEL()
   \                     ??ACTIVE_LEVEL_5:
   \   00000000   0198               MOVW    R19:R18, R17:R16
   \   00000002   E001               LDI     R16, 1
   \   00000004   9508               RET

   \                                 In  segment CODE, align 2, keep-with-next
   \   __version_3 uint8_t CPreventiveAlarmHighLevelNamurDfa::IS_NAMUR_ON()
   \                     ??IS_NAMUR_ON_5:
   \   00000000   0198               MOVW    R19:R18, R17:R16
   \   00000002   E001               LDI     R16, 1
   \   00000004   9508               RET

   \                                 In  segment CODE, align 2, keep-with-next
   \   __version_3 uint8_t CEmergencyAlarmLowLevelDfa::ALARM_TYPE()
   \                     ??ALARM_TYPE_6:
   \   00000000   0198               MOVW    R19:R18, R17:R16
   \   00000002   E003               LDI     R16, 3
   \   00000004   9508               RET

   \                                 In  segment CODE, align 2, keep-with-next
   \   __version_3 uint8_t CEmergencyAlarmLowLevelDfa::ACTIVE_LEVEL()
   \                     ??ACTIVE_LEVEL_6:
   \   00000000   0198               MOVW    R19:R18, R17:R16
   \   00000002   E000               LDI     R16, 0
   \   00000004   9508               RET

   \                                 In  segment CODE, align 2, keep-with-next
   \   __version_3 uint8_t CEmergencyAlarmLowLevelDfa::IS_NAMUR_ON()
   \                     ??IS_NAMUR_ON_6:
   \   00000000   0198               MOVW    R19:R18, R17:R16
   \   00000002   E000               LDI     R16, 0
   \   00000004   9508               RET

   \                                 In  segment CODE, align 2, keep-with-next
   \   __version_3 uint8_t CEmergencyAlarmHighLevelDfa::ALARM_TYPE()
   \                     ??ALARM_TYPE_7:
   \   00000000   0198               MOVW    R19:R18, R17:R16
   \   00000002   E003               LDI     R16, 3
   \   00000004   9508               RET

   \                                 In  segment CODE, align 2, keep-with-next
   \   __version_3 uint8_t CEmergencyAlarmHighLevelDfa::ACTIVE_LEVEL()
   \                     ??ACTIVE_LEVEL_7:
   \   00000000   0198               MOVW    R19:R18, R17:R16
   \   00000002   E001               LDI     R16, 1
   \   00000004   9508               RET

   \                                 In  segment CODE, align 2, keep-with-next
   \   __version_3 uint8_t CEmergencyAlarmHighLevelDfa::IS_NAMUR_ON()
   \                     ??IS_NAMUR_ON_7:
   \   00000000   0198               MOVW    R19:R18, R17:R16
   \   00000002   E000               LDI     R16, 0
   \   00000004   9508               RET

   \                                 In  segment CODE, align 2, keep-with-next
   \   __version_3 uint8_t CEmergencyAlarmLowLevelNamurDfa::ALARM_TYPE()
   \                     ??ALARM_TYPE_8:
   \   00000000   0198               MOVW    R19:R18, R17:R16
   \   00000002   E003               LDI     R16, 3
   \   00000004   9508               RET

   \                                 In  segment CODE, align 2, keep-with-next
   \   __version_3 uint8_t CEmergencyAlarmLowLevelNamurDfa::ACTIVE_LEVEL()
   \                     ??ACTIVE_LEVEL_8:
   \   00000000   0198               MOVW    R19:R18, R17:R16
   \   00000002   E000               LDI     R16, 0
   \   00000004   9508               RET

   \                                 In  segment CODE, align 2, keep-with-next
   \   __version_3 uint8_t CEmergencyAlarmLowLevelNamurDfa::IS_NAMUR_ON()
   \                     ??IS_NAMUR_ON_8:
   \   00000000   0198               MOVW    R19:R18, R17:R16
   \   00000002   E001               LDI     R16, 1
   \   00000004   9508               RET

   \                                 In  segment CODE, align 2, keep-with-next
   \   __version_3 uint8_t CEmergencyAlarmHighLevelNamurDfa::ALARM_TYPE()
   \                     ??ALARM_TYPE_9:
   \   00000000   0198               MOVW    R19:R18, R17:R16
   \   00000002   E003               LDI     R16, 3
   \   00000004   9508               RET

   \                                 In  segment CODE, align 2, keep-with-next
   \   __version_3 uint8_t CEmergencyAlarmHighLevelNamurDfa::ACTIVE_LEVEL()
   \                     ??ACTIVE_LEVEL_9:
   \   00000000   0198               MOVW    R19:R18, R17:R16
   \   00000002   E001               LDI     R16, 1
   \   00000004   9508               RET

   \                                 In  segment CODE, align 2, keep-with-next
   \   __version_3 uint8_t CEmergencyAlarmHighLevelNamurDfa::IS_NAMUR_ON()
   \                     ??IS_NAMUR_ON_9:
   \   00000000   0198               MOVW    R19:R18, R17:R16
   \   00000002   E001               LDI     R16, 1
   \   00000004   9508               RET

   \                                 In  segment CODE, align 2, keep-with-next
   \   __version_3 uint8_t CIndicationAlarmLowLevelDfa::ALARM_TYPE()
   \                     ??ALARM_TYPE_10:
   \   00000000   0198               MOVW    R19:R18, R17:R16
   \   00000002   E001               LDI     R16, 1
   \   00000004   9508               RET

   \                                 In  segment CODE, align 2, keep-with-next
   \   __version_3 uint8_t CIndicationAlarmLowLevelDfa::ACTIVE_LEVEL()
   \                     ??ACTIVE_LEVEL_10:
   \   00000000   0198               MOVW    R19:R18, R17:R16
   \   00000002   E000               LDI     R16, 0
   \   00000004   9508               RET

   \                                 In  segment CODE, align 2, keep-with-next
   \   __version_3 uint8_t CIndicationAlarmLowLevelDfa::IS_NAMUR_ON()
   \                     ??IS_NAMUR_ON_10:
   \   00000000   0198               MOVW    R19:R18, R17:R16
   \   00000002   E000               LDI     R16, 0
   \   00000004   9508               RET

   \                                 In  segment CODE, align 2, keep-with-next
   \   __version_3 uint8_t CIndicationAlarmHighLevelDfa::ALARM_TYPE()
   \                     ??ALARM_TYPE_11:
   \   00000000   0198               MOVW    R19:R18, R17:R16
   \   00000002   E001               LDI     R16, 1
   \   00000004   9508               RET

   \                                 In  segment CODE, align 2, keep-with-next
   \   __version_3 uint8_t CIndicationAlarmHighLevelDfa::ACTIVE_LEVEL()
   \                     ??ACTIVE_LEVEL_11:
   \   00000000   0198               MOVW    R19:R18, R17:R16
   \   00000002   E001               LDI     R16, 1
   \   00000004   9508               RET

   \                                 In  segment CODE, align 2, keep-with-next
   \   __version_3 uint8_t CIndicationAlarmHighLevelDfa::IS_NAMUR_ON()
   \                     ??IS_NAMUR_ON_11:
   \   00000000   0198               MOVW    R19:R18, R17:R16
   \   00000002   E000               LDI     R16, 0
   \   00000004   9508               RET

   \                                 In  segment CODE, align 2, keep-with-next
   \   __version_3 uint8_t CIndicationAlarmLowLevelNamurDfa::ALARM_TYPE()
   \                     ??ALARM_TYPE_12:
   \   00000000   0198               MOVW    R19:R18, R17:R16
   \   00000002   E001               LDI     R16, 1
   \   00000004   9508               RET

   \                                 In  segment CODE, align 2, keep-with-next
   \   __version_3 uint8_t CIndicationAlarmLowLevelNamurDfa::ACTIVE_LEVEL()
   \                     ??ACTIVE_LEVEL_12:
   \   00000000   0198               MOVW    R19:R18, R17:R16
   \   00000002   E000               LDI     R16, 0
   \   00000004   9508               RET

   \                                 In  segment CODE, align 2, keep-with-next
   \   __version_3 uint8_t CIndicationAlarmLowLevelNamurDfa::IS_NAMUR_ON()
   \                     ??IS_NAMUR_ON_12:
   \   00000000   0198               MOVW    R19:R18, R17:R16
   \   00000002   E001               LDI     R16, 1
   \   00000004   9508               RET

   \                                 In  segment CODE, align 2, keep-with-next
   \   __version_3 uint8_t CIndicationAlarmHighLevelNamurDfa::ALARM_TYPE()
   \                     ??ALARM_TYPE_13:
   \   00000000   0198               MOVW    R19:R18, R17:R16
   \   00000002   E001               LDI     R16, 1
   \   00000004   9508               RET

   \                                 In  segment CODE, align 2, keep-with-next
   \   __version_3 uint8_t CIndicationAlarmHighLevelNamurDfa::ACTIVE_LEVEL()
   \                     ??ACTIVE_LEVEL_13:
   \   00000000   0198               MOVW    R19:R18, R17:R16
   \   00000002   E001               LDI     R16, 1
   \   00000004   9508               RET

   \                                 In  segment CODE, align 2, keep-with-next
   \   __version_3 uint8_t CIndicationAlarmHighLevelNamurDfa::IS_NAMUR_ON()
   \                     ??IS_NAMUR_ON_13:
   \   00000000   0198               MOVW    R19:R18, R17:R16
   \   00000002   E001               LDI     R16, 1
   \   00000004   9508               RET

   \                                 In  segment CODE, align 2, keep-with-next
   \   __version_3 uint8_t CErrorAlarmDfa::ALARM_TYPE()
   \                     ??ALARM_TYPE_14:
   \   00000000   0198               MOVW    R19:R18, R17:R16
   \   00000002   E007               LDI     R16, 7
   \   00000004   9508               RET

   \                                 In  segment CODE, align 2, keep-with-next
   \   __version_3 uint8_t CErrorAlarmDfa::ACTIVE_LEVEL()
   \                     ??ACTIVE_LEVEL_14:
   \   00000000   0198               MOVW    R19:R18, R17:R16
   \   00000002   E000               LDI     R16, 0
   \   00000004   9508               RET

   \                                 In  segment CODE, align 2, keep-with-next
   \   __version_3 uint8_t CErrorAlarmDfa::GetDiscreteStateIndex()
   \                     ??GetDiscreteStateIndex_1:
   \   00000000   01F8               MOVW    R31:R30, R17:R16
   \   00000002   8104               LDD     R16, Z+4
   \   00000004   9508               RET

   \                                 In  segment CODE, align 2, keep-with-next
   \   __version_3 uint8_t CErrorAlarmDfa::GetAlarmWindowIndex()
   \                     ??GetAlarmWindowIndex_1:
   \   00000000   01F8               MOVW    R31:R30, R17:R16
   \   00000002   8103               LDD     R16, Z+3
   \   00000004   9508               RET

      virtual bool IsSolved(void) {};
                                   ^
"D:\Projects\CurrentProjects\CautoProjects\PSS48Color\include\Task.h",20  Warning[Pe940]: 
          missing return statement at end of non-void function
          "CTaskInterface::IsSolved"

      virtual bool IsSourceStateActive(void) {};
                                              ^
"D:\Projects\CurrentProjects\CautoProjects\PSS48Color\include\Task.h",23  Warning[Pe940]: 
          missing return statement at end of non-void function
          "CTaskInterface::IsSourceStateActive"

      bool IsSolved(void) {};
                           ^
"D:\Projects\CurrentProjects\CautoProjects\PSS48Color\include\Task.h",58  Warning[Pe940]: 
          missing return statement at end of non-void function
          "CIsRegularButtonPressedInterface::IsSolved"

      virtual bool IsSourceStateActive(void) {};
                                              ^
"D:\Projects\CurrentProjects\CautoProjects\PSS48Color\include\Task.h",61  Warning[Pe940]: 
          missing return statement at end of non-void function
          "CIsRegularButtonPressedInterface::IsSourceStateActive"

      virtual uint16_t KEY_PRESSED_TIME(void) {};
                                               ^
"D:\Projects\CurrentProjects\CautoProjects\PSS48Color\include\Task.h",63  Warning[Pe940]: 
          missing return statement at end of non-void function
          "CIsRegularButtonPressedInterface::KEY_PRESSED_TIME"

   \                                 In  segment CODE, align 2, keep-with-next
   \   __version_3 uint8_t CPss21::GetDiscreteSignalsReceipt()
   \                     ??GetDiscreteSignalsReceipt:
   \   00000000   9100....           LDS     R16, ??m_uiDiscreteSignalsReceipt
   \   00000004   9508               RET

   \                                 In  segment CODE, align 2, keep-with-next
   \   __version_3 uint8_t CPss21::GetDiscreteSignalsReset()
   \                     ??GetDiscreteSignalsReset:
   \   00000000   9100....           LDS     R16, ??m_uiDiscreteSignalsReset
   \   00000004   9508               RET

   \                                 In  segment CODE, align 2, keep-with-next
   \   __version_3 void CPss21::SetCommonAlarmType(uint8_t)
   \                     ??SetCommonAlarmType:
   \   00000000   9300....           STS     ??m_uiCommonAlarmType, R16
   \   00000004   9508               RET

   \                                 In  segment CODE, align 2, keep-with-next
   \   __version_3 uint8_t CPss21::GetCommonAlarmType()
   \                     ??GetCommonAlarmType:
   \   00000000   9100....           LDS     R16, ??m_uiCommonAlarmType
   \   00000004   9508               RET

   \                                 In  segment CODE, align 2, keep-with-next
   \   __version_3 CAlarmWindow *CPss21::GetAlarmWindowControlPointer(uint8_t)
   \                     ??GetAlarmWindowControlPointer:
   \   00000000   E010               LDI     R17, 0
   \   00000002   E048               LDI     R20, 8
   \   00000004   E050               LDI     R21, 0
   \   00000006   ........           CALL    ?S_EC_MUL_L02
   \   0000000A   0198               MOVW    R19:R18, R17:R16
   \   0000000C   ....               LDI     R16, LOW(??m_axAlarmWindowControl)
   \   0000000E   ....               LDI     R17, (??m_axAlarmWindowControl) >> 8
   \   00000010   0F02               ADD     R16, R18
   \   00000012   1F13               ADC     R17, R19
   \   00000014   9508               RET
     11          
     12          //-----------------------------------------------------------------------------------------------------

   \                                 In  segment CODE, align 2, keep-with-next
     13          CAlarmDfa::CAlarmDfa()
   \                     ??CAlarmDfa:
   \   00000000   93BA               ST      -Y, R27
   \   00000002   93AA               ST      -Y, R26
   \   00000004   01D8               MOVW    R27:R26, R17:R16
     14          {
   \   00000006   018D               MOVW    R17:R16, R27:R26
   \   00000008   ........           CALL    ??CDfaLite
   \   0000000C   ....               LDI     R16, LOW(??__vtbl_1)
   \   0000000E   ....               LDI     R17, (??__vtbl_1) >> 8
   \   00000010   01FD               MOVW    R31:R30, R27:R26
   \   00000012   8301               STD     Z+1, R16
   \   00000014   8312               STD     Z+2, R17
     15              //ctor
     16          }
   \   00000016   018D               MOVW    R17:R16, R27:R26
   \   00000018   91A9               LD      R26, Y+
   \   0000001A   91B9               LD      R27, Y+
   \   0000001C   9508               RET
     17          
     18          //-----------------------------------------------------------------------------------------------------

   \                                 In  segment CODE, align 2, keep-with-next
     19          CAlarmDfa::~CAlarmDfa()
   \                     `?~CAlarmDfa`:
     20          {
   \   00000000   ........           CALL    ?PROLOGUE4_L09
   \   00000004   01C8               MOVW    R25:R24, R17:R16
   \   00000006   01D9               MOVW    R27:R26, R19:R18
   \   00000008   2F08               MOV     R16, R24
   \   0000000A   2B09               OR      R16, R25
   \   0000000C   F051               BREQ    `?~CAlarmDfa_1`
     21              //dtor
     22          }
   \   0000000E   E020               LDI     R18, 0
   \   00000010   E030               LDI     R19, 0
   \   00000012   018C               MOVW    R17:R16, R25:R24
   \   00000014   ........           CALL    `?~CDfaLite`
   \   00000018   FBA0               BST     R26, 0
   \   0000001A   F41E               BRTC    `?~CAlarmDfa_1`
   \   0000001C   018C               MOVW    R17:R16, R25:R24
   \   0000001E   ........           CALL    `??operator delete`
   \                     `?~CAlarmDfa_1`:
   \   00000022   E0E4               LDI     R30, 4
   \   00000024   ........           JMP     ?EPILOGUE_B4_L09
     23          
     24          //-----------------------------------------------------------------------------------------------------
     25          // Автомат обработки сигнализации дискретного сигнала.

   \                                 In  segment CODE, align 2, keep-with-next
     26          void CAlarmDfa::Fsm(void)
   \                     ??Fsm:
     27          {
   \   00000000   ........           CALL    ?PROLOGUE4_L09
   \   00000004   01D8               MOVW    R27:R26, R17:R16
     28              uint8_t uiDiscreteSignalState = DISCRETE_SIGNAL_IS_INVALID;
   \   00000006   E083               LDI     R24, 3
     29          
     30              // дискретный сигнал этого объекта автомата сигнализации привязан
     31              // к дискретному входу модуля ввода?
     32              if (GetDiscreteStateIndex() < DISCRETE_INPUTS_NUMBER)
   \   00000008   018D               MOVW    R17:R16, R27:R26
   \   0000000A   ........           CALL    ??GetDiscreteStateIndex
   \   0000000E   3300               CPI     R16, 48
   \   00000010   F008               BRCS    $+2+2
   \   00000012   C0D5               RJMP    ??Fsm_3
     33              {
     34                  // дискретный вход недостоверен?
     35                  if ((CPss21::GetDiscreteInputsBadState(GetDiscreteStateIndex()) & 0x07) == INPUT_IS_INVALID)
   \   00000014   018D               MOVW    R17:R16, R27:R26
   \   00000016   ........           CALL    ??GetDiscreteStateIndex
   \   0000001A   ........           CALL    ??GetDiscreteInputsBadState
   \   0000001E   7007               ANDI    R16, 0x07
   \   00000020   3004               CPI     R16, 4
   \   00000022   F411               BRNE    ??Fsm_4
     36                  {
     37                      uiDiscreteSignalState = DISCRETE_SIGNAL_IS_INVALID;
   \   00000024   E083               LDI     R24, 3
   \   00000026   C0D5               RJMP    ??Fsm_5
     38                  }
     39                  else
     40                  {
     41                      // тип текущего дискретного сигнала namur?
     42                      if (IS_NAMUR_ON())
   \                     ??Fsm_4:
   \   00000028   018D               MOVW    R17:R16, R27:R26
   \   0000002A   01FD               MOVW    R31:R30, R27:R26
   \   0000002C   8121               LDD     R18, Z+1
   \   0000002E   8132               LDD     R19, Z+2
   \   00000030   01F9               MOVW    R31:R30, R19:R18
   \   00000032   9638               ADIW    R31:R30, 8
   \   00000034   9125               LPM     R18, Z+
   \   00000036   9134               LPM     R19, Z
   \   00000038   9739               SBIW    R31:R30, 9
   \   0000003A   01F9               MOVW    R31:R30, R19:R18
   \   0000003C   9509               ICALL
   \   0000003E   2300               TST     R16
   \   00000040   F011               BREQ    ??Fsm_6
   \   00000042   E001               LDI     R16, 1
   \   00000044   C001               RJMP    ??Fsm_7
   \                     ??Fsm_6:
   \   00000046   E000               LDI     R16, 0
   \                     ??Fsm_7:
   \   00000048   2300               TST     R16
   \   0000004A   F409               BRNE    $+2+2
   \   0000004C   C060               RJMP    ??Fsm_8
     43                      {
     44                          switch (CPss21::GetDiscreteInputsBadState(GetDiscreteStateIndex()))
   \   0000004E   018D               MOVW    R17:R16, R27:R26
   \   00000050   ........           CALL    ??GetDiscreteStateIndex
   \   00000054   ........           CALL    ??GetDiscreteInputsBadState
   \   00000058   5000               SUBI    R16, 0
   \   0000005A   F049               BREQ    ??Fsm_9
   \   0000005C   950A               DEC     R16
   \   0000005E   F039               BREQ    ??Fsm_9
   \   00000060   950A               DEC     R16
   \   00000062   F409               BRNE    $+2+2
   \   00000064   C04C               RJMP    ??Fsm_10
   \   00000066   950A               DEC     R16
   \   00000068   F409               BRNE    $+2+2
   \   0000006A   C049               RJMP    ??Fsm_10
   \   0000006C   C0B2               RJMP    ??Fsm_5
     45                          {
     46                          case OFF:
     47                          case ON:
     48                              // Дискретный сигнал активен?
     49                              // уровень сигналы типа "NAMUR" определяем по состояниям дискретного входа:
     50          //	- состояния "0" (OFF) - "РАЗОМКНУТО"
     51          //	- состояния "1" (ON) - "ЗАМКНУТО"
     52                              if ((CPss21::GetDiscreteInputsBadState(GetDiscreteStateIndex()) & 0x03) == OFF)
   \                     ??Fsm_9:
   \   0000006E   018D               MOVW    R17:R16, R27:R26
   \   00000070   ........           CALL    ??GetDiscreteStateIndex
   \   00000074   ........           CALL    ??GetDiscreteInputsBadState
   \   00000078   7003               ANDI    R16, 0x03
   \   0000007A   2300               TST     R16
   \   0000007C   F4E1               BRNE    ??Fsm_11
     53                              {
     54                                  // установим значение текущего дискретного входа отображаемое в пространстве модбас
     55                                  // интерпретированное с учетом условия активности.
     56                                  CPss21::SetDiscreteInputState(GetDiscreteStateIndex(), 0);
   \   0000007E   018D               MOVW    R17:R16, R27:R26
   \   00000080   ........           CALL    ??GetDiscreteStateIndex
   \   00000084   E010               LDI     R17, 0
   \   00000086   ........           CALL    ??SetDiscreteInputState
     57          
     58                                  if (ACTIVE_LEVEL())
   \   0000008A   018D               MOVW    R17:R16, R27:R26
   \   0000008C   01FD               MOVW    R31:R30, R27:R26
   \   0000008E   8121               LDD     R18, Z+1
   \   00000090   8132               LDD     R19, Z+2
   \   00000092   01F9               MOVW    R31:R30, R19:R18
   \   00000094   9636               ADIW    R31:R30, 6
   \   00000096   9125               LPM     R18, Z+
   \   00000098   9134               LPM     R19, Z
   \   0000009A   9737               SBIW    R31:R30, 7
   \   0000009C   01F9               MOVW    R31:R30, R19:R18
   \   0000009E   9509               ICALL
   \   000000A0   2300               TST     R16
   \   000000A2   F011               BREQ    ??Fsm_12
   \   000000A4   E001               LDI     R16, 1
   \   000000A6   C001               RJMP    ??Fsm_13
   \                     ??Fsm_12:
   \   000000A8   E000               LDI     R16, 0
   \                     ??Fsm_13:
   \   000000AA   2300               TST     R16
   \   000000AC   F011               BREQ    ??Fsm_14
     59                                  {
     60                                      uiDiscreteSignalState = DISCRETE_SIGNAL_IS_ACTIVE;
   \   000000AE   E081               LDI     R24, 1
   \   000000B0   C090               RJMP    ??Fsm_5
     61                                  }
     62                                  else
     63                                  {
     64                                      uiDiscreteSignalState = DISCRETE_SIGNAL_IS_NOT_ACTIVE;
   \                     ??Fsm_14:
   \   000000B2   E080               LDI     R24, 0
   \   000000B4   C08E               RJMP    ??Fsm_5
     65                                  }
     66                              }
     67                              else if ((CPss21::GetDiscreteInputsBadState(GetDiscreteStateIndex()) & 0x03) == ON)
   \                     ??Fsm_11:
   \   000000B6   018D               MOVW    R17:R16, R27:R26
   \   000000B8   ........           CALL    ??GetDiscreteStateIndex
   \   000000BC   ........           CALL    ??GetDiscreteInputsBadState
   \   000000C0   7003               ANDI    R16, 0x03
   \   000000C2   3001               CPI     R16, 1
   \   000000C4   F4D9               BRNE    ??Fsm_15
     68                              {
     69                                  // установим значение текущего дискретного входа отображаемое в пространстве модбас
     70                                  // интерпретированное с учетом условия активности.
     71                                  CPss21::SetDiscreteInputState(GetDiscreteStateIndex(), 1);
   \   000000C6   018D               MOVW    R17:R16, R27:R26
   \   000000C8   ........           CALL    ??GetDiscreteStateIndex
   \   000000CC   E011               LDI     R17, 1
   \   000000CE   ........           CALL    ??SetDiscreteInputState
     72          
     73                                  if (ACTIVE_LEVEL())
   \   000000D2   018D               MOVW    R17:R16, R27:R26
   \   000000D4   01FD               MOVW    R31:R30, R27:R26
   \   000000D6   8121               LDD     R18, Z+1
   \   000000D8   8132               LDD     R19, Z+2
   \   000000DA   01F9               MOVW    R31:R30, R19:R18
   \   000000DC   9636               ADIW    R31:R30, 6
   \   000000DE   9125               LPM     R18, Z+
   \   000000E0   9134               LPM     R19, Z
   \   000000E2   9737               SBIW    R31:R30, 7
   \   000000E4   01F9               MOVW    R31:R30, R19:R18
   \   000000E6   9509               ICALL
   \   000000E8   2300               TST     R16
   \   000000EA   F011               BREQ    ??Fsm_16
   \   000000EC   E001               LDI     R16, 1
   \   000000EE   C001               RJMP    ??Fsm_17
   \                     ??Fsm_16:
   \   000000F0   E000               LDI     R16, 0
   \                     ??Fsm_17:
   \   000000F2   2300               TST     R16
   \   000000F4   F011               BREQ    ??Fsm_18
     74                                  {
     75                                      uiDiscreteSignalState = DISCRETE_SIGNAL_IS_NOT_ACTIVE;
   \   000000F6   E080               LDI     R24, 0
   \   000000F8   C06C               RJMP    ??Fsm_5
     76                                  }
     77                                  else
     78                                  {
     79                                      uiDiscreteSignalState = DISCRETE_SIGNAL_IS_ACTIVE;
   \                     ??Fsm_18:
   \   000000FA   E081               LDI     R24, 1
     80                                  }
     81                              }
     82                              break;
   \                     ??Fsm_15:
   \   000000FC   C06A               RJMP    ??Fsm_5
     83          
     84                          case WIRE_BREAK:
     85                          case SHORT_CIRCUIT:
     86                              uiDiscreteSignalState = DISCRETE_SIGNAL_IS_NAMUR_ERROR;
   \                     ??Fsm_10:
   \   000000FE   E082               LDI     R24, 2
     87                              // установим значение текущего дискретного входа отображаемое в пространстве модбас
     88                              // интерпретированное с учетом условия активности.
     89                              CPss21::SetDiscreteInputState(GetDiscreteStateIndex(), 0);
   \   00000100   018D               MOVW    R17:R16, R27:R26
   \   00000102   ........           CALL    ??GetDiscreteStateIndex
   \   00000106   E010               LDI     R17, 0
   \   00000108   ........           CALL    ??SetDiscreteInputState
     90                              break;
   \   0000010C   C062               RJMP    ??Fsm_5
     91          
     92                          default:
     93                              break;
     94                          }
     95                      }
     96                      else
     97                      {
     98                          // Дискретный сигнал активен?
     99                          // уровень сигналы типа "СУХОЙ КОНТАКТ" (СК) определяем по состояниям дискретного входа:
    100                          //        1.3. В алгоритме обработки сигналов типа "СУХОЙ КОНТАКТ" (СК) должно быть:
    101          //	- состояния "0" (OFF) и "3" (КЗ) - "ЗАМКНУТО"
    102          //	- состояния "1" (ON) и "2" (ОБРЫВ) - "РАЗОМКНУТО"
    103                          if (((CPss21::GetDiscreteInputsBadState(GetDiscreteStateIndex()) & 0x03) == WIRE_BREAK) ||
    104                                  ((CPss21::GetDiscreteInputsBadState(GetDiscreteStateIndex()) & 0x03) == ON))
   \                     ??Fsm_8:
   \   0000010E   018D               MOVW    R17:R16, R27:R26
   \   00000110   ........           CALL    ??GetDiscreteStateIndex
   \   00000114   ........           CALL    ??GetDiscreteInputsBadState
   \   00000118   7003               ANDI    R16, 0x03
   \   0000011A   3002               CPI     R16, 2
   \   0000011C   F041               BREQ    ??Fsm_19
   \   0000011E   018D               MOVW    R17:R16, R27:R26
   \   00000120   ........           CALL    ??GetDiscreteStateIndex
   \   00000124   ........           CALL    ??GetDiscreteInputsBadState
   \   00000128   7003               ANDI    R16, 0x03
   \   0000012A   3001               CPI     R16, 1
   \   0000012C   F4E1               BRNE    ??Fsm_20
    105                          {
    106                              // установим значение текущего дискретного входа отображаемое в пространстве модбас
    107                              // интерпретированное с учетом условия активности.
    108                              CPss21::SetDiscreteInputState(GetDiscreteStateIndex(), 0);
   \                     ??Fsm_19:
   \   0000012E   018D               MOVW    R17:R16, R27:R26
   \   00000130   ........           CALL    ??GetDiscreteStateIndex
   \   00000134   E010               LDI     R17, 0
   \   00000136   ........           CALL    ??SetDiscreteInputState
    109          
    110                              if (ACTIVE_LEVEL())
   \   0000013A   018D               MOVW    R17:R16, R27:R26
   \   0000013C   01FD               MOVW    R31:R30, R27:R26
   \   0000013E   8121               LDD     R18, Z+1
   \   00000140   8132               LDD     R19, Z+2
   \   00000142   01F9               MOVW    R31:R30, R19:R18
   \   00000144   9636               ADIW    R31:R30, 6
   \   00000146   9125               LPM     R18, Z+
   \   00000148   9134               LPM     R19, Z
   \   0000014A   9737               SBIW    R31:R30, 7
   \   0000014C   01F9               MOVW    R31:R30, R19:R18
   \   0000014E   9509               ICALL
   \   00000150   2300               TST     R16
   \   00000152   F011               BREQ    ??Fsm_21
   \   00000154   E001               LDI     R16, 1
   \   00000156   C001               RJMP    ??Fsm_22
   \                     ??Fsm_21:
   \   00000158   E000               LDI     R16, 0
   \                     ??Fsm_22:
   \   0000015A   2300               TST     R16
   \   0000015C   F011               BREQ    ??Fsm_23
    111                              {
    112                                  uiDiscreteSignalState = DISCRETE_SIGNAL_IS_ACTIVE;
   \   0000015E   E081               LDI     R24, 1
   \   00000160   C038               RJMP    ??Fsm_5
    113                              }
    114                              else
    115                              {
    116                                  uiDiscreteSignalState = DISCRETE_SIGNAL_IS_NOT_ACTIVE;
   \                     ??Fsm_23:
   \   00000162   E080               LDI     R24, 0
   \   00000164   C036               RJMP    ??Fsm_5
    117                              }
    118                          }
    119                          else if (((CPss21::GetDiscreteInputsBadState(GetDiscreteStateIndex()) & 0x03) == SHORT_CIRCUIT) ||
    120                                   ((CPss21::GetDiscreteInputsBadState(GetDiscreteStateIndex()) & 0x03) == OFF))
   \                     ??Fsm_20:
   \   00000166   018D               MOVW    R17:R16, R27:R26
   \   00000168   ........           CALL    ??GetDiscreteStateIndex
   \   0000016C   ........           CALL    ??GetDiscreteInputsBadState
   \   00000170   7003               ANDI    R16, 0x03
   \   00000172   3003               CPI     R16, 3
   \   00000174   F041               BREQ    ??Fsm_24
   \   00000176   018D               MOVW    R17:R16, R27:R26
   \   00000178   ........           CALL    ??GetDiscreteStateIndex
   \   0000017C   ........           CALL    ??GetDiscreteInputsBadState
   \   00000180   7003               ANDI    R16, 0x03
   \   00000182   2300               TST     R16
   \   00000184   F531               BRNE    ??Fsm_5
    121                          {
    122                              // установим значение текущего дискретного входа отображаемое в пространстве модбас
    123                              // интерпретированное с учетом условия активности.
    124                              CPss21::SetDiscreteInputState(GetDiscreteStateIndex(), 1);
   \                     ??Fsm_24:
   \   00000186   018D               MOVW    R17:R16, R27:R26
   \   00000188   ........           CALL    ??GetDiscreteStateIndex
   \   0000018C   E011               LDI     R17, 1
   \   0000018E   ........           CALL    ??SetDiscreteInputState
    125          
    126                              if (ACTIVE_LEVEL())
   \   00000192   018D               MOVW    R17:R16, R27:R26
   \   00000194   01FD               MOVW    R31:R30, R27:R26
   \   00000196   8121               LDD     R18, Z+1
   \   00000198   8132               LDD     R19, Z+2
   \   0000019A   01F9               MOVW    R31:R30, R19:R18
   \   0000019C   9636               ADIW    R31:R30, 6
   \   0000019E   9125               LPM     R18, Z+
   \   000001A0   9134               LPM     R19, Z
   \   000001A2   9737               SBIW    R31:R30, 7
   \   000001A4   01F9               MOVW    R31:R30, R19:R18
   \   000001A6   9509               ICALL
   \   000001A8   2300               TST     R16
   \   000001AA   F011               BREQ    ??Fsm_25
   \   000001AC   E001               LDI     R16, 1
   \   000001AE   C001               RJMP    ??Fsm_26
   \                     ??Fsm_25:
   \   000001B0   E000               LDI     R16, 0
   \                     ??Fsm_26:
   \   000001B2   2300               TST     R16
   \   000001B4   F011               BREQ    ??Fsm_27
    127                              {
    128                                  uiDiscreteSignalState = DISCRETE_SIGNAL_IS_NOT_ACTIVE;
   \   000001B6   E080               LDI     R24, 0
   \   000001B8   C00C               RJMP    ??Fsm_5
    129                              }
    130                              else
    131                              {
    132                                  uiDiscreteSignalState = DISCRETE_SIGNAL_IS_ACTIVE;
   \                     ??Fsm_27:
   \   000001BA   E081               LDI     R24, 1
   \   000001BC   C00A               RJMP    ??Fsm_5
    133                              }
    134                          }
    135                      }
    136                  }
    137              }
    138              // дискретный сигнал этого объекта автомата сигнализации привязан
    139              // к состоянию ячейки модбас.
    140              else
    141              {
    142                  if ((CPss21::GetDiscreteInputsBadState(GetDiscreteStateIndex()) & 0x01) == 1)
   \                     ??Fsm_3:
   \   000001BE   018D               MOVW    R17:R16, R27:R26
   \   000001C0   ........           CALL    ??GetDiscreteStateIndex
   \   000001C4   ........           CALL    ??GetDiscreteInputsBadState
   \   000001C8   FB00               BST     R16, 0
   \   000001CA   F416               BRTC    ??Fsm_28
    143                  {
    144                      uiDiscreteSignalState = DISCRETE_SIGNAL_IS_ACTIVE;
   \   000001CC   E081               LDI     R24, 1
   \   000001CE   C001               RJMP    ??Fsm_5
    145                  }
    146                  else
    147                  {
    148                      uiDiscreteSignalState = DISCRETE_SIGNAL_IS_NOT_ACTIVE;
   \                     ??Fsm_28:
   \   000001D0   E080               LDI     R24, 0
    149                  }
    150              }
    151          
    152              switch (GetFsmState())
   \                     ??Fsm_5:
   \   000001D2   018D               MOVW    R17:R16, R27:R26
   \   000001D4   ........           CALL    ??GetFsmState
   \   000001D8   ....               LDI     R30, LOW(`?<Jumptable for Fsm>_0`)
   \   000001DA   ....               LDI     R31, (`?<Jumptable for Fsm>_0`) >> 16
   \   000001DC   BFFB               OUT     0x3B, R31
   \   000001DE   ....               LDI     R31, HIGH(`?<Jumptable for Fsm>_0`)
   \   000001E0   ........           JMP     ?CV_SWITCH_L06
    153              {
    154              case START:
    155                  break;
    156          
    157          //    case ACTIVE_STATE_CHECK:
    158          //        break;
    159          
    160              case ACTIVE_STATE_WAITING:
    161          //        CPss21::m_aucRtuHoldingRegistersArray[0] = CPss21::m_aucDiscreteInputsBadState[0];
    162                  // тип текущего дискретного сигнала namur?
    163                  if (IS_NAMUR_ON())
   \                     ??Fsm_29:
   \   000001E4   018D               MOVW    R17:R16, R27:R26
   \   000001E6   01FD               MOVW    R31:R30, R27:R26
   \   000001E8   8121               LDD     R18, Z+1
   \   000001EA   8132               LDD     R19, Z+2
   \   000001EC   01F9               MOVW    R31:R30, R19:R18
   \   000001EE   9638               ADIW    R31:R30, 8
   \   000001F0   9125               LPM     R18, Z+
   \   000001F2   9134               LPM     R19, Z
   \   000001F4   9739               SBIW    R31:R30, 9
   \   000001F6   01F9               MOVW    R31:R30, R19:R18
   \   000001F8   9509               ICALL
   \   000001FA   2300               TST     R16
   \   000001FC   F011               BREQ    ??Fsm_30
   \   000001FE   E001               LDI     R16, 1
   \   00000200   C001               RJMP    ??Fsm_31
   \                     ??Fsm_30:
   \   00000202   E000               LDI     R16, 0
   \                     ??Fsm_31:
   \   00000204   2300               TST     R16
   \   00000206   F409               BRNE    $+2+2
   \   00000208   C04B               RJMP    ??Fsm_32
    164                  {
    165                      // Дискретный сигнал NAMUR в обрыве или кз?
    166                      if (uiDiscreteSignalState == DISCRETE_SIGNAL_IS_NAMUR_ERROR)
   \   0000020A   3082               CPI     R24, 2
   \   0000020C   F429               BRNE    ??Fsm_33
    167                      {
    168                          SetFsmState(NAMUR_STATE_ON);
   \   0000020E   E028               LDI     R18, 8
   \   00000210   018D               MOVW    R17:R16, R27:R26
   \   00000212   ........           CALL    ??SetFsmState
   \   00000216   C188               RJMP    ??Fsm_34
    169                      }
    170                      else
    171                      {
    172                          // Дискретный сигнал активен?
    173                          if (uiDiscreteSignalState == DISCRETE_SIGNAL_IS_ACTIVE)
   \                     ??Fsm_33:
   \   00000218   3081               CPI     R24, 1
   \   0000021A   F009               BREQ    $+2+2
   \   0000021C   C185               RJMP    ??Fsm_34
    174                          {
    175                              // Установим связанные дискретный выходы - новое нарушение.
    176                              CPss21::DiscreteOutputsSet(GetLinkedDiscreteOutputsPointer(), NEW_VIOLATION);
   \   0000021E   018D               MOVW    R17:R16, R27:R26
   \   00000220   ........           CALL    ??GetLinkedDiscreteOutputsPointer
   \   00000224   E021               LDI     R18, 1
   \   00000226   ........           CALL    ??DiscreteOutputsSet
    177                              // Установим тип сигнализации связанному окну в массиве управления окнами извещателя.
    178                              CPss21::SetAlarmWindowType(GetAlarmWindowIndex(), ALARM_TYPE());
   \   0000022A   018D               MOVW    R17:R16, R27:R26
   \   0000022C   01FD               MOVW    R31:R30, R27:R26
   \   0000022E   8121               LDD     R18, Z+1
   \   00000230   8132               LDD     R19, Z+2
   \   00000232   01F9               MOVW    R31:R30, R19:R18
   \   00000234   9634               ADIW    R31:R30, 4
   \   00000236   9125               LPM     R18, Z+
   \   00000238   9134               LPM     R19, Z
   \   0000023A   9735               SBIW    R31:R30, 5
   \   0000023C   01F9               MOVW    R31:R30, R19:R18
   \   0000023E   9509               ICALL
   \   00000240   2F90               MOV     R25, R16
   \   00000242   018D               MOVW    R17:R16, R27:R26
   \   00000244   ........           CALL    ??GetAlarmWindowIndex
   \   00000248   2F19               MOV     R17, R25
   \   0000024A   ........           CALL    ??SetAlarmWindowType
    179                              CPss21::SetAlarmWindowColor(GetAlarmWindowIndex(), ALARM_TYPE());
   \   0000024E   018D               MOVW    R17:R16, R27:R26
   \   00000250   01FD               MOVW    R31:R30, R27:R26
   \   00000252   8121               LDD     R18, Z+1
   \   00000254   8132               LDD     R19, Z+2
   \   00000256   01F9               MOVW    R31:R30, R19:R18
   \   00000258   9634               ADIW    R31:R30, 4
   \   0000025A   9125               LPM     R18, Z+
   \   0000025C   9134               LPM     R19, Z
   \   0000025E   9735               SBIW    R31:R30, 5
   \   00000260   01F9               MOVW    R31:R30, R19:R18
   \   00000262   9509               ICALL
   \   00000264   2F90               MOV     R25, R16
   \   00000266   018D               MOVW    R17:R16, R27:R26
   \   00000268   ........           CALL    ??GetAlarmWindowIndex
   \   0000026C   2F19               MOV     R17, R25
   \   0000026E   ........           CALL    ??SetAlarmWindowColor
    180                              CPss21::GetAlarmWindowControlPointer(GetAlarmWindowIndex()) -> SetActivityState(1);
   \   00000272   018D               MOVW    R17:R16, R27:R26
   \   00000274   ........           CALL    ??GetAlarmWindowIndex
   \   00000278   ........           CALL    ??GetAlarmWindowControlPointer
   \   0000027C   E021               LDI     R18, 1
   \   0000027E   ........           CALL    ??SetActivityState
    181                              // Запрограммирован режим автоматического сброса предупредительой и аварийной
    182                              // сигнализации при переходе дискретного сигнала в неактивное состояние?
    183                              if (CPss21::m_xDeviceConfiguration.AutoUnset)
   \   00000282   ....               LDI     R30, LOW(??m_xDeviceConfiguration)
   \   00000284   ....               LDI     R31, (??m_xDeviceConfiguration) >> 8
   \   00000286   8103               LDD     R16, Z+3
   \   00000288   FF03               SBRS    R16, 3
   \   0000028A   C005               RJMP    ??Fsm_35
    184                              {
    185                                  SetFsmState(RECEIPT_OR_RESET_OR_AUTOUNSET_WAITING);
   \   0000028C   E023               LDI     R18, 3
   \   0000028E   018D               MOVW    R17:R16, R27:R26
   \   00000290   ........           CALL    ??SetFsmState
   \   00000294   C149               RJMP    ??Fsm_34
    186                              }
    187                              else
    188                              {
    189                                  SetFsmState(RECEIPT_OR_RESET_WAITING);
   \                     ??Fsm_35:
   \   00000296   E022               LDI     R18, 2
   \   00000298   018D               MOVW    R17:R16, R27:R26
   \   0000029A   ........           CALL    ??SetFsmState
   \   0000029E   C144               RJMP    ??Fsm_34
    190                              }
    191                          }
    192                      }
    193                  }
    194                  else
    195                  {
    196                      // Дискретный сигнал активен?
    197                      // уровень сигналы типа "СУХОЙ КОНТАКТ" (СК) определяем по состояниям дискретного входа:
    198                      // 2 - обрыв(разомкнуто), и 3 - КЗ(замкнуто).
    199                      if (uiDiscreteSignalState == DISCRETE_SIGNAL_IS_ACTIVE)
   \                     ??Fsm_32:
   \   000002A0   3081               CPI     R24, 1
   \   000002A2   F009               BREQ    $+2+2
   \   000002A4   C040               RJMP    ??Fsm_36
    200                      {
    201                          // Установим связанные дискретный выходы - новое нарушение.
    202                          CPss21::DiscreteOutputsSet(GetLinkedDiscreteOutputsPointer(), NEW_VIOLATION);
   \   000002A6   018D               MOVW    R17:R16, R27:R26
   \   000002A8   ........           CALL    ??GetLinkedDiscreteOutputsPointer
   \   000002AC   E021               LDI     R18, 1
   \   000002AE   ........           CALL    ??DiscreteOutputsSet
    203                          // Установим тип сигнализации связанному окну в массиве управления окнами извещателя.
    204                          CPss21::SetAlarmWindowType(GetAlarmWindowIndex(), ALARM_TYPE());
   \   000002B2   018D               MOVW    R17:R16, R27:R26
   \   000002B4   01FD               MOVW    R31:R30, R27:R26
   \   000002B6   8121               LDD     R18, Z+1
   \   000002B8   8132               LDD     R19, Z+2
   \   000002BA   01F9               MOVW    R31:R30, R19:R18
   \   000002BC   9634               ADIW    R31:R30, 4
   \   000002BE   9125               LPM     R18, Z+
   \   000002C0   9134               LPM     R19, Z
   \   000002C2   9735               SBIW    R31:R30, 5
   \   000002C4   01F9               MOVW    R31:R30, R19:R18
   \   000002C6   9509               ICALL
   \   000002C8   2F90               MOV     R25, R16
   \   000002CA   018D               MOVW    R17:R16, R27:R26
   \   000002CC   ........           CALL    ??GetAlarmWindowIndex
   \   000002D0   2F19               MOV     R17, R25
   \   000002D2   ........           CALL    ??SetAlarmWindowType
    205                          CPss21::SetAlarmWindowColor(GetAlarmWindowIndex(), ALARM_TYPE());
   \   000002D6   018D               MOVW    R17:R16, R27:R26
   \   000002D8   01FD               MOVW    R31:R30, R27:R26
   \   000002DA   8121               LDD     R18, Z+1
   \   000002DC   8132               LDD     R19, Z+2
   \   000002DE   01F9               MOVW    R31:R30, R19:R18
   \   000002E0   9634               ADIW    R31:R30, 4
   \   000002E2   9125               LPM     R18, Z+
   \   000002E4   9134               LPM     R19, Z
   \   000002E6   9735               SBIW    R31:R30, 5
   \   000002E8   01F9               MOVW    R31:R30, R19:R18
   \   000002EA   9509               ICALL
   \   000002EC   2F90               MOV     R25, R16
   \   000002EE   018D               MOVW    R17:R16, R27:R26
   \   000002F0   ........           CALL    ??GetAlarmWindowIndex
   \   000002F4   2F19               MOV     R17, R25
   \   000002F6   ........           CALL    ??SetAlarmWindowColor
    206                          CPss21::GetAlarmWindowControlPointer(GetAlarmWindowIndex()) -> SetActivityState(1);
   \   000002FA   018D               MOVW    R17:R16, R27:R26
   \   000002FC   ........           CALL    ??GetAlarmWindowIndex
   \   00000300   ........           CALL    ??GetAlarmWindowControlPointer
   \   00000304   E021               LDI     R18, 1
   \   00000306   ........           CALL    ??SetActivityState
    207                          // Запрограммирован режим автоматического сброса предупредительой и аварийной
    208                          // сигнализации при переходе дискретного сигнала в неактивное состояние?
    209                          if (CPss21::m_xDeviceConfiguration.AutoUnset)
   \   0000030A   ....               LDI     R30, LOW(??m_xDeviceConfiguration)
   \   0000030C   ....               LDI     R31, (??m_xDeviceConfiguration) >> 8
   \   0000030E   8103               LDD     R16, Z+3
   \   00000310   FF03               SBRS    R16, 3
   \   00000312   C005               RJMP    ??Fsm_37
    210                          {
    211                              SetFsmState(RECEIPT_OR_RESET_OR_AUTOUNSET_WAITING);
   \   00000314   E023               LDI     R18, 3
   \   00000316   018D               MOVW    R17:R16, R27:R26
   \   00000318   ........           CALL    ??SetFsmState
   \   0000031C   C105               RJMP    ??Fsm_34
    212                          }
    213                          else
    214                          {
    215                              SetFsmState(RECEIPT_OR_RESET_WAITING);
   \                     ??Fsm_37:
   \   0000031E   E022               LDI     R18, 2
   \   00000320   018D               MOVW    R17:R16, R27:R26
   \   00000322   ........           CALL    ??SetFsmState
    216                          }
    217                      }
    218                  }
    219                  break;
   \                     ??Fsm_36:
   \   00000326   C100               RJMP    ??Fsm_34
    220          
    221              case RECEIPT_OR_RESET_OR_AUTOUNSET_WAITING:
    222                  // Запрограммирован режим автоматического сброса предупредительой и аварийной
    223                  // сигнализации при переходе дискретного сигнала в неактивное состояние.
    224                  // Дискретный сигнал активен?
    225                  if (uiDiscreteSignalState == DISCRETE_SIGNAL_IS_ACTIVE)
   \                     ??Fsm_38:
   \   00000328   3081               CPI     R24, 1
   \   0000032A   F439               BRNE    ??Fsm_39
    226                  {
    227                      // Установим связанные дискретный выходы - не новое нарушение.
    228                      CPss21::DiscreteOutputsSet(GetLinkedDiscreteOutputsPointer(), NOT_NEW_VIOLATION);
   \   0000032C   018D               MOVW    R17:R16, R27:R26
   \   0000032E   ........           CALL    ??GetLinkedDiscreteOutputsPointer
   \   00000332   E020               LDI     R18, 0
   \   00000334   ........           CALL    ??DiscreteOutputsSet
   \   00000338   C01B               RJMP    ??Fsm_40
    229                  }
    230                  else if (uiDiscreteSignalState == DISCRETE_SIGNAL_IS_NOT_ACTIVE)
   \                     ??Fsm_39:
   \   0000033A   2388               TST     R24
   \   0000033C   F499               BRNE    ??Fsm_41
    231                  {
    232                      // Установим тип сигнализации связанному окну в массиве управления окнами извещателя.
    233                      CPss21::SetAlarmWindowType(GetAlarmWindowIndex(), NORMAL);
   \   0000033E   018D               MOVW    R17:R16, R27:R26
   \   00000340   ........           CALL    ??GetAlarmWindowIndex
   \   00000344   E010               LDI     R17, 0
   \   00000346   ........           CALL    ??SetAlarmWindowType
    234                      CPss21::GetAlarmWindowControlPointer(GetAlarmWindowIndex()) -> SetActivityState(0);
   \   0000034A   018D               MOVW    R17:R16, R27:R26
   \   0000034C   ........           CALL    ??GetAlarmWindowIndex
   \   00000350   ........           CALL    ??GetAlarmWindowControlPointer
   \   00000354   E020               LDI     R18, 0
   \   00000356   ........           CALL    ??SetActivityState
    235                      SetFsmState(ACTIVE_STATE_WAITING);
   \   0000035A   E021               LDI     R18, 1
   \   0000035C   018D               MOVW    R17:R16, R27:R26
   \   0000035E   ........           CALL    ??SetFsmState
    236                      break;
   \   00000362   C0E2               RJMP    ??Fsm_34
    237                  }
    238                  else if (uiDiscreteSignalState == DISCRETE_SIGNAL_IS_NAMUR_ERROR)
   \                     ??Fsm_41:
   \   00000364   3082               CPI     R24, 2
   \   00000366   F421               BRNE    ??Fsm_40
    239                  {
    240                      SetFsmState(NAMUR_STATE_ON);
   \   00000368   E028               LDI     R18, 8
   \   0000036A   018D               MOVW    R17:R16, R27:R26
   \   0000036C   ........           CALL    ??SetFsmState
    241                  }
    242          
    243                  // Событие сброшено?
    244                  if (CPss21::GetDiscreteSignalsReset())
   \                     ??Fsm_40:
   \   00000370   ........           CALL    ??GetDiscreteSignalsReset
   \   00000374   2300               TST     R16
   \   00000376   F059               BREQ    ??Fsm_42
    245                  {
    246                      // Установим тип сигнализации связанному окну в массиве управления окнами извещателя.
    247                      CPss21::SetAlarmWindowType(GetAlarmWindowIndex(), INDICATION);
   \   00000378   018D               MOVW    R17:R16, R27:R26
   \   0000037A   ........           CALL    ??GetAlarmWindowIndex
   \   0000037E   E011               LDI     R17, 1
   \   00000380   ........           CALL    ??SetAlarmWindowType
    248                      SetFsmState(RESETED_NOT_ACTIVE_STATE_WAITING);
   \   00000384   E025               LDI     R18, 5
   \   00000386   018D               MOVW    R17:R16, R27:R26
   \   00000388   ........           CALL    ??SetFsmState
   \   0000038C   C0CD               RJMP    ??Fsm_34
    249                  }
    250                  // Событие квитировано?
    251                  else if (CPss21::GetDiscreteSignalsReceipt())
   \                     ??Fsm_42:
   \   0000038E   ........           CALL    ??GetDiscreteSignalsReceipt
   \   00000392   2300               TST     R16
   \   00000394   F051               BREQ    ??Fsm_43
    252                  {
    253                      // Установим тип сигнализации связанному окну в массиве управления окнами извещателя.
    254                      CPss21::SetAlarmWindowType(GetAlarmWindowIndex(), INDICATION);
   \   00000396   018D               MOVW    R17:R16, R27:R26
   \   00000398   ........           CALL    ??GetAlarmWindowIndex
   \   0000039C   E011               LDI     R17, 1
   \   0000039E   ........           CALL    ??SetAlarmWindowType
    255                      SetFsmState(RECEIPTED_RESET_OR_NOT_ACTIVE_STATE_WAITING);
   \   000003A2   E024               LDI     R18, 4
   \   000003A4   018D               MOVW    R17:R16, R27:R26
   \   000003A6   ........           CALL    ??SetFsmState
    256                  }
    257                  break;
   \                     ??Fsm_43:
   \   000003AA   C0BE               RJMP    ??Fsm_34
    258          
    259              case RECEIPT_OR_RESET_WAITING:
    260                  // Дискретный сигнал активен?
    261                  if (uiDiscreteSignalState == DISCRETE_SIGNAL_IS_ACTIVE)
   \                     ??Fsm_44:
   \   000003AC   3081               CPI     R24, 1
   \   000003AE   F431               BRNE    ??Fsm_45
    262                  {
    263                      // Установим связанные дискретный выходы - не новое нарушение.
    264                      CPss21::DiscreteOutputsSet(GetLinkedDiscreteOutputsPointer(), NOT_NEW_VIOLATION);
   \   000003B0   018D               MOVW    R17:R16, R27:R26
   \   000003B2   ........           CALL    ??GetLinkedDiscreteOutputsPointer
   \   000003B6   E020               LDI     R18, 0
   \   000003B8   ........           CALL    ??DiscreteOutputsSet
    265                  }
    266          
    267                  // Событие сброшено?
    268                  if (CPss21::GetDiscreteSignalsReset())
   \                     ??Fsm_45:
   \   000003BC   ........           CALL    ??GetDiscreteSignalsReset
   \   000003C0   2300               TST     R16
   \   000003C2   F059               BREQ    ??Fsm_46
    269                  {
    270                      // Установим тип сигнализации связанному окну в массиве управления окнами извещателя.
    271                      CPss21::SetAlarmWindowType(GetAlarmWindowIndex(), INDICATION);
   \   000003C4   018D               MOVW    R17:R16, R27:R26
   \   000003C6   ........           CALL    ??GetAlarmWindowIndex
   \   000003CA   E011               LDI     R17, 1
   \   000003CC   ........           CALL    ??SetAlarmWindowType
    272                      SetFsmState(RESETED_NOT_ACTIVE_STATE_WAITING);
   \   000003D0   E025               LDI     R18, 5
   \   000003D2   018D               MOVW    R17:R16, R27:R26
   \   000003D4   ........           CALL    ??SetFsmState
   \   000003D8   C0A7               RJMP    ??Fsm_34
    273                  }
    274                  // Событие квитировано?
    275                  else if (CPss21::GetDiscreteSignalsReceipt())
   \                     ??Fsm_46:
   \   000003DA   ........           CALL    ??GetDiscreteSignalsReceipt
   \   000003DE   2300               TST     R16
   \   000003E0   F051               BREQ    ??Fsm_47
    276                  {
    277                      // Установим тип сигнализации связанному окну в массиве управления окнами извещателя.
    278                      CPss21::SetAlarmWindowType(GetAlarmWindowIndex(), INDICATION);
   \   000003E2   018D               MOVW    R17:R16, R27:R26
   \   000003E4   ........           CALL    ??GetAlarmWindowIndex
   \   000003E8   E011               LDI     R17, 1
   \   000003EA   ........           CALL    ??SetAlarmWindowType
    279                      SetFsmState(RECEIPTED_RESET_OR_NOT_ACTIVE_STATE_WAITING);
   \   000003EE   E024               LDI     R18, 4
   \   000003F0   018D               MOVW    R17:R16, R27:R26
   \   000003F2   ........           CALL    ??SetFsmState
    280                  }
    281                  break;
   \                     ??Fsm_47:
   \   000003F6   C098               RJMP    ??Fsm_34
    282          
    283              case RECEIPTED_RESET_OR_NOT_ACTIVE_STATE_WAITING:
    284                  // Событие сброшено?
    285                  if (CPss21::GetDiscreteSignalsReset())
   \                     ??Fsm_48:
   \   000003F8   ........           CALL    ??GetDiscreteSignalsReset
   \   000003FC   2300               TST     R16
   \   000003FE   F029               BREQ    ??Fsm_49
    286                  {
    287                      SetFsmState(RESETED_NOT_ACTIVE_STATE_WAITING);
   \   00000400   E025               LDI     R18, 5
   \   00000402   018D               MOVW    R17:R16, R27:R26
   \   00000404   ........           CALL    ??SetFsmState
   \   00000408   C08F               RJMP    ??Fsm_34
    288                  }
    289                  // Дискретный сигнал не активен?
    290                  else if (uiDiscreteSignalState == DISCRETE_SIGNAL_IS_NOT_ACTIVE)
   \                     ??Fsm_49:
   \   0000040A   2388               TST     R24
   \   0000040C   F429               BRNE    ??Fsm_50
    291                  {
    292                      SetFsmState(RECEIPTED_RESET_WAITING);
   \   0000040E   E026               LDI     R18, 6
   \   00000410   018D               MOVW    R17:R16, R27:R26
   \   00000412   ........           CALL    ??SetFsmState
   \   00000416   C088               RJMP    ??Fsm_34
    293                  }
    294                  else if (uiDiscreteSignalState == DISCRETE_SIGNAL_IS_ACTIVE)
   \                     ??Fsm_50:
   \   00000418   3081               CPI     R24, 1
   \   0000041A   F439               BRNE    ??Fsm_51
    295                  {
    296                      // Установим связанные дискретный выходы - не новое нарушение.
    297                      CPss21::DiscreteOutputsSet(GetLinkedDiscreteOutputsPointer(), NOT_NEW_VIOLATION);
   \   0000041C   018D               MOVW    R17:R16, R27:R26
   \   0000041E   ........           CALL    ??GetLinkedDiscreteOutputsPointer
   \   00000422   E020               LDI     R18, 0
   \   00000424   ........           CALL    ??DiscreteOutputsSet
   \   00000428   C07F               RJMP    ??Fsm_34
    298                  }
    299                  else if (uiDiscreteSignalState == DISCRETE_SIGNAL_IS_NAMUR_ERROR)
   \                     ??Fsm_51:
   \   0000042A   3082               CPI     R24, 2
   \   0000042C   F421               BRNE    ??Fsm_52
    300                  {
    301                      SetFsmState(NAMUR_STATE_ON);
   \   0000042E   E028               LDI     R18, 8
   \   00000430   018D               MOVW    R17:R16, R27:R26
   \   00000432   ........           CALL    ??SetFsmState
    302                  }
    303                  break;
   \                     ??Fsm_52:
   \   00000436   C078               RJMP    ??Fsm_34
    304          
    305              case RESETED_NOT_ACTIVE_STATE_WAITING:
    306                  // Дискретный сигнал не активен?
    307                  if (uiDiscreteSignalState == DISCRETE_SIGNAL_IS_NOT_ACTIVE)
   \                     ??Fsm_53:
   \   00000438   2388               TST     R24
   \   0000043A   F499               BRNE    ??Fsm_54
    308                  {
    309                      // Установим тип сигнализации связанному окну в массиве управления окнами извещателя.
    310                      CPss21::SetAlarmWindowType(GetAlarmWindowIndex(), NORMAL);
   \   0000043C   018D               MOVW    R17:R16, R27:R26
   \   0000043E   ........           CALL    ??GetAlarmWindowIndex
   \   00000442   E010               LDI     R17, 0
   \   00000444   ........           CALL    ??SetAlarmWindowType
    311                      CPss21::GetAlarmWindowControlPointer(GetAlarmWindowIndex()) -> SetActivityState(0);
   \   00000448   018D               MOVW    R17:R16, R27:R26
   \   0000044A   ........           CALL    ??GetAlarmWindowIndex
   \   0000044E   ........           CALL    ??GetAlarmWindowControlPointer
   \   00000452   E020               LDI     R18, 0
   \   00000454   ........           CALL    ??SetActivityState
    312                      SetFsmState(ACTIVE_STATE_WAITING);
   \   00000458   E021               LDI     R18, 1
   \   0000045A   018D               MOVW    R17:R16, R27:R26
   \   0000045C   ........           CALL    ??SetFsmState
   \   00000460   C063               RJMP    ??Fsm_34
    313                  }
    314                  else if (uiDiscreteSignalState == DISCRETE_SIGNAL_IS_ACTIVE)
   \                     ??Fsm_54:
   \   00000462   3081               CPI     R24, 1
   \   00000464   F439               BRNE    ??Fsm_55
    315                  {
    316                      // Установим связанные дискретный выходы - не новое нарушение.
    317                      CPss21::DiscreteOutputsSet(GetLinkedDiscreteOutputsPointer(), NOT_NEW_VIOLATION);
   \   00000466   018D               MOVW    R17:R16, R27:R26
   \   00000468   ........           CALL    ??GetLinkedDiscreteOutputsPointer
   \   0000046C   E020               LDI     R18, 0
   \   0000046E   ........           CALL    ??DiscreteOutputsSet
   \   00000472   C05A               RJMP    ??Fsm_34
    318                  }
    319                  else if (uiDiscreteSignalState == DISCRETE_SIGNAL_IS_NAMUR_ERROR)
   \                     ??Fsm_55:
   \   00000474   3082               CPI     R24, 2
   \   00000476   F421               BRNE    ??Fsm_56
    320                  {
    321                      SetFsmState(NAMUR_STATE_ON);
   \   00000478   E028               LDI     R18, 8
   \   0000047A   018D               MOVW    R17:R16, R27:R26
   \   0000047C   ........           CALL    ??SetFsmState
    322                  }
    323                  break;
   \                     ??Fsm_56:
   \   00000480   C053               RJMP    ??Fsm_34
    324          
    325              case RECEIPTED_RESET_WAITING:
    326                  // Дискретный сигнал активен?
    327                  if (uiDiscreteSignalState == DISCRETE_SIGNAL_IS_ACTIVE)
   \                     ??Fsm_57:
   \   00000482   3081               CPI     R24, 1
   \   00000484   F439               BRNE    ??Fsm_58
    328                  {
    329                      // Установим связанные дискретный выходы - не новое нарушение.
    330                      CPss21::DiscreteOutputsSet(GetLinkedDiscreteOutputsPointer(), NOT_NEW_VIOLATION);
   \   00000486   018D               MOVW    R17:R16, R27:R26
   \   00000488   ........           CALL    ??GetLinkedDiscreteOutputsPointer
   \   0000048C   E020               LDI     R18, 0
   \   0000048E   ........           CALL    ??DiscreteOutputsSet
   \   00000492   C006               RJMP    ??Fsm_59
    331                  }
    332                  else if (uiDiscreteSignalState == DISCRETE_SIGNAL_IS_NAMUR_ERROR)
   \                     ??Fsm_58:
   \   00000494   3082               CPI     R24, 2
   \   00000496   F421               BRNE    ??Fsm_59
    333                  {
    334                      SetFsmState(NAMUR_STATE_ON);
   \   00000498   E028               LDI     R18, 8
   \   0000049A   018D               MOVW    R17:R16, R27:R26
   \   0000049C   ........           CALL    ??SetFsmState
    335                  }
    336          
    337                  // Событие сброшено?
    338                  if (CPss21::GetDiscreteSignalsReset())
   \                     ??Fsm_59:
   \   000004A0   ........           CALL    ??GetDiscreteSignalsReset
   \   000004A4   2300               TST     R16
   \   000004A6   F091               BREQ    ??Fsm_60
    339                  {
    340                      // Установим тип сигнализации связанному окну в массиве управления окнами извещателя.
    341                      CPss21::SetAlarmWindowType(GetAlarmWindowIndex(), NORMAL);
   \   000004A8   018D               MOVW    R17:R16, R27:R26
   \   000004AA   ........           CALL    ??GetAlarmWindowIndex
   \   000004AE   E010               LDI     R17, 0
   \   000004B0   ........           CALL    ??SetAlarmWindowType
    342                      CPss21::GetAlarmWindowControlPointer(GetAlarmWindowIndex()) -> SetActivityState(0);
   \   000004B4   018D               MOVW    R17:R16, R27:R26
   \   000004B6   ........           CALL    ??GetAlarmWindowIndex
   \   000004BA   ........           CALL    ??GetAlarmWindowControlPointer
   \   000004BE   E020               LDI     R18, 0
   \   000004C0   ........           CALL    ??SetActivityState
    343                      SetFsmState(ACTIVE_STATE_WAITING);
   \   000004C4   E021               LDI     R18, 1
   \   000004C6   018D               MOVW    R17:R16, R27:R26
   \   000004C8   ........           CALL    ??SetFsmState
    344                  }
    345                  break;
   \                     ??Fsm_60:
   \   000004CC   C02D               RJMP    ??Fsm_34
    346          
    347              case NAMUR_STATE_ON:
    348                  // Установим тип сигнализации связанному окну в массиве управления окнами извещателя.
    349                  CPss21::SetAlarmWindowType(GetAlarmWindowIndex(), INDICATION);
   \                     ??Fsm_61:
   \   000004CE   018D               MOVW    R17:R16, R27:R26
   \   000004D0   ........           CALL    ??GetAlarmWindowIndex
   \   000004D4   E011               LDI     R17, 1
   \   000004D6   ........           CALL    ??SetAlarmWindowType
    350                  CPss21::SetAlarmWindowColor(GetAlarmWindowIndex(), NAMUR_INDICATION);
   \   000004DA   018D               MOVW    R17:R16, R27:R26
   \   000004DC   ........           CALL    ??GetAlarmWindowIndex
   \   000004E0   E016               LDI     R17, 6
   \   000004E2   ........           CALL    ??SetAlarmWindowColor
    351                  CPss21::GetAlarmWindowControlPointer(GetAlarmWindowIndex()) -> SetActivityState(1);
   \   000004E6   018D               MOVW    R17:R16, R27:R26
   \   000004E8   ........           CALL    ??GetAlarmWindowIndex
   \   000004EC   ........           CALL    ??GetAlarmWindowControlPointer
   \   000004F0   E021               LDI     R18, 1
   \   000004F2   ........           CALL    ??SetActivityState
    352          //        CPss21::BoardWindowsUpdate();
    353                  SetFsmState(NAMUR_INPUT_CORRECT_STATE_WAITING);
   \   000004F6   E029               LDI     R18, 9
   \   000004F8   018D               MOVW    R17:R16, R27:R26
   \   000004FA   ........           CALL    ??SetFsmState
    354                  break;
   \   000004FE   C014               RJMP    ??Fsm_34
    355          
    356              case NAMUR_INPUT_CORRECT_STATE_WAITING:
    357                  // Дискретный сигнал NAMUR достоверен?
    358                  if (uiDiscreteSignalState != DISCRETE_SIGNAL_IS_NAMUR_ERROR)
   \                     ??Fsm_62:
   \   00000500   3082               CPI     R24, 2
   \   00000502   F091               BREQ    ??Fsm_34
    359                  {
    360                      // Установим тип сигнализации связанному окну в массиве управления окнами извещателя.
    361                      CPss21::SetAlarmWindowType(GetAlarmWindowIndex(), NORMAL);
   \   00000504   018D               MOVW    R17:R16, R27:R26
   \   00000506   ........           CALL    ??GetAlarmWindowIndex
   \   0000050A   E010               LDI     R17, 0
   \   0000050C   ........           CALL    ??SetAlarmWindowType
    362                      CPss21::GetAlarmWindowControlPointer(GetAlarmWindowIndex()) -> SetActivityState(0);
   \   00000510   018D               MOVW    R17:R16, R27:R26
   \   00000512   ........           CALL    ??GetAlarmWindowIndex
   \   00000516   ........           CALL    ??GetAlarmWindowControlPointer
   \   0000051A   E020               LDI     R18, 0
   \   0000051C   ........           CALL    ??SetActivityState
    363          //            CPss21::BoardWindowsUpdate();
    364                      SetFsmState(ACTIVE_STATE_WAITING);
   \   00000520   E021               LDI     R18, 1
   \   00000522   018D               MOVW    R17:R16, R27:R26
   \   00000524   ........           CALL    ??SetFsmState
    365                  }
    366                  break;
    367          
    368              default:
    369                  break;
    370              }
    371          }
   \                     ??Fsm_34:
   \   00000528   E0E4               LDI     R30, 4
   \   0000052A   ........           JMP     ?EPILOGUE_B4_L09
    372          //-----------------------------------------------------------------------------------------------------
    373          
    374          
    375          
    376          
    377          
    378          
    379          
    380          
    381          //-----------------------------------------------------------------------------------------------------

   \                                 In  segment CODE, align 2, keep-with-next
    382          CNormalAlarmDfa::CNormalAlarmDfa()
   \                     ??CNormalAlarmDfa:
   \   00000000   93BA               ST      -Y, R27
   \   00000002   93AA               ST      -Y, R26
   \   00000004   01D8               MOVW    R27:R26, R17:R16
    383          {
   \   00000006   018D               MOVW    R17:R16, R27:R26
   \   00000008   ....               RCALL   ??CAlarmDfa
   \   0000000A   ....               LDI     R16, LOW(??__vtbl_2)
   \   0000000C   ....               LDI     R17, (??__vtbl_2) >> 8
   \   0000000E   01FD               MOVW    R31:R30, R27:R26
   \   00000010   8301               STD     Z+1, R16
   \   00000012   8312               STD     Z+2, R17
    384              SetFsmState(START);
   \   00000014   E020               LDI     R18, 0
   \   00000016   018D               MOVW    R17:R16, R27:R26
   \   00000018   ........           CALL    ??SetFsmState
    385          }
   \   0000001C   018D               MOVW    R17:R16, R27:R26
   \   0000001E   91A9               LD      R26, Y+
   \   00000020   91B9               LD      R27, Y+
   \   00000022   9508               RET
    386          
    387          //-----------------------------------------------------------------------------------------------------

   \                                 In  segment CODE, align 2, keep-with-next
    388          CNormalAlarmDfa::~CNormalAlarmDfa()
   \                     `?~CNormalAlarmDfa`:
    389          {
   \   00000000   ........           CALL    ?PROLOGUE4_L09
   \   00000004   01C8               MOVW    R25:R24, R17:R16
   \   00000006   01D9               MOVW    R27:R26, R19:R18
   \   00000008   2F08               MOV     R16, R24
   \   0000000A   2B09               OR      R16, R25
   \   0000000C   F049               BREQ    `?~CNormalAlarmDfa_1`
    390              //dtor
    391          }
   \   0000000E   E020               LDI     R18, 0
   \   00000010   E030               LDI     R19, 0
   \   00000012   018C               MOVW    R17:R16, R25:R24
   \   00000014   ....               RCALL   `?~CAlarmDfa`
   \   00000016   FBA0               BST     R26, 0
   \   00000018   F41E               BRTC    `?~CNormalAlarmDfa_1`
   \   0000001A   018C               MOVW    R17:R16, R25:R24
   \   0000001C   ........           CALL    `??operator delete`
   \                     `?~CNormalAlarmDfa_1`:
   \   00000020   E0E4               LDI     R30, 4
   \   00000022   ........           JMP     ?EPILOGUE_B4_L09
    392          
    393          //-----------------------------------------------------------------------------------------------------
    394          
    395          
    396          
    397          
    398          
    399          
    400          
    401          
    402          //-----------------------------------------------------------------------------------------------------

   \                                 In  segment CODE, align 2, keep-with-next
    403          CPreventiveAlarmLowLevelDfa::CPreventiveAlarmLowLevelDfa()
   \                     ??CPreventiveAlarmLowLevelDfa:
   \   00000000   93BA               ST      -Y, R27
   \   00000002   93AA               ST      -Y, R26
   \   00000004   01D8               MOVW    R27:R26, R17:R16
    404          {
   \   00000006   018D               MOVW    R17:R16, R27:R26
   \   00000008   ....               RCALL   ??CAlarmDfa
   \   0000000A   ....               LDI     R16, LOW(??__vtbl_3)
   \   0000000C   ....               LDI     R17, (??__vtbl_3) >> 8
   \   0000000E   01FD               MOVW    R31:R30, R27:R26
   \   00000010   8301               STD     Z+1, R16
   \   00000012   8312               STD     Z+2, R17
    405              SetFsmState(ACTIVE_STATE_WAITING);
   \   00000014   E021               LDI     R18, 1
   \   00000016   018D               MOVW    R17:R16, R27:R26
   \   00000018   ........           CALL    ??SetFsmState
    406          }
   \   0000001C   018D               MOVW    R17:R16, R27:R26
   \   0000001E   91A9               LD      R26, Y+
   \   00000020   91B9               LD      R27, Y+
   \   00000022   9508               RET
    407          
    408          //-----------------------------------------------------------------------------------------------------

   \                                 In  segment CODE, align 2, keep-with-next
    409          CPreventiveAlarmLowLevelDfa::~CPreventiveAlarmLowLevelDfa()
   \                     `?~CPreventiveAlarmLowLevelDfa`:
    410          {
   \   00000000   ........           CALL    ?PROLOGUE4_L09
   \   00000004   01C8               MOVW    R25:R24, R17:R16
   \   00000006   01D9               MOVW    R27:R26, R19:R18
   \   00000008   2F08               MOV     R16, R24
   \   0000000A   2B09               OR      R16, R25
   \   0000000C   F049               BREQ    `?~CPreventiveAlarmLowLevelDfa_1`
    411              //dtor
    412          }
   \   0000000E   E020               LDI     R18, 0
   \   00000010   E030               LDI     R19, 0
   \   00000012   018C               MOVW    R17:R16, R25:R24
   \   00000014   ....               RCALL   `?~CAlarmDfa`
   \   00000016   FBA0               BST     R26, 0
   \   00000018   F41E               BRTC    `?~CPreventiveAlarmLowLevelDfa_1`
   \   0000001A   018C               MOVW    R17:R16, R25:R24
   \   0000001C   ........           CALL    `??operator delete`
   \                     `?~CPreventiveAlarmLowLevelDfa_1`:
   \   00000020   E0E4               LDI     R30, 4
   \   00000022   ........           JMP     ?EPILOGUE_B4_L09
    413          
    414          //-----------------------------------------------------------------------------------------------------

   \                                 In  segment CODE, align 2, keep-with-next
    415          CPreventiveAlarmHighLevelDfa::CPreventiveAlarmHighLevelDfa()
   \                     ??CPreventiveAlarmHighLevelDfa:
   \   00000000   93BA               ST      -Y, R27
   \   00000002   93AA               ST      -Y, R26
   \   00000004   01D8               MOVW    R27:R26, R17:R16
    416          {
   \   00000006   018D               MOVW    R17:R16, R27:R26
   \   00000008   ....               RCALL   ??CAlarmDfa
   \   0000000A   ....               LDI     R16, LOW(??__vtbl_4)
   \   0000000C   ....               LDI     R17, (??__vtbl_4) >> 8
   \   0000000E   01FD               MOVW    R31:R30, R27:R26
   \   00000010   8301               STD     Z+1, R16
   \   00000012   8312               STD     Z+2, R17
    417              SetFsmState(ACTIVE_STATE_WAITING);
   \   00000014   E021               LDI     R18, 1
   \   00000016   018D               MOVW    R17:R16, R27:R26
   \   00000018   ........           CALL    ??SetFsmState
    418          }
   \   0000001C   018D               MOVW    R17:R16, R27:R26
   \   0000001E   91A9               LD      R26, Y+
   \   00000020   91B9               LD      R27, Y+
   \   00000022   9508               RET
    419          
    420          //-----------------------------------------------------------------------------------------------------

   \                                 In  segment CODE, align 2, keep-with-next
    421          CPreventiveAlarmHighLevelDfa::~CPreventiveAlarmHighLevelDfa()
   \                     `?~CPreventiveAlarmHighLevelDfa`:
    422          {
   \   00000000   ........           CALL    ?PROLOGUE4_L09
   \   00000004   01C8               MOVW    R25:R24, R17:R16
   \   00000006   01D9               MOVW    R27:R26, R19:R18
   \   00000008   2F08               MOV     R16, R24
   \   0000000A   2B09               OR      R16, R25
   \   0000000C   F049               BREQ    `?~CPreventiveAlarmHighLevelDfa_1`
    423              //dtor
    424          }
   \   0000000E   E020               LDI     R18, 0
   \   00000010   E030               LDI     R19, 0
   \   00000012   018C               MOVW    R17:R16, R25:R24
   \   00000014   ....               RCALL   `?~CAlarmDfa`
   \   00000016   FBA0               BST     R26, 0
   \   00000018   F41E               BRTC    `?~CPreventiveAlarmHighLevelDfa_1`
   \   0000001A   018C               MOVW    R17:R16, R25:R24
   \   0000001C   ........           CALL    `??operator delete`
   \                     `?~CPreventiveAlarmHighLevelDfa_1`:
   \   00000020   E0E4               LDI     R30, 4
   \   00000022   ........           JMP     ?EPILOGUE_B4_L09
    425          
    426          //-----------------------------------------------------------------------------------------------------

   \                                 In  segment CODE, align 2, keep-with-next
    427          CPreventiveAlarmLowLevelNamurDfa::CPreventiveAlarmLowLevelNamurDfa()
   \                     ??CPreventiveAlarmLowLevelNamurDfa:
   \   00000000   93BA               ST      -Y, R27
   \   00000002   93AA               ST      -Y, R26
   \   00000004   01D8               MOVW    R27:R26, R17:R16
    428          {
   \   00000006   018D               MOVW    R17:R16, R27:R26
   \   00000008   ....               RCALL   ??CAlarmDfa
   \   0000000A   ....               LDI     R16, LOW(??__vtbl_5)
   \   0000000C   ....               LDI     R17, (??__vtbl_5) >> 8
   \   0000000E   01FD               MOVW    R31:R30, R27:R26
   \   00000010   8301               STD     Z+1, R16
   \   00000012   8312               STD     Z+2, R17
    429              SetFsmState(ACTIVE_STATE_WAITING);
   \   00000014   E021               LDI     R18, 1
   \   00000016   018D               MOVW    R17:R16, R27:R26
   \   00000018   ........           CALL    ??SetFsmState
    430          }
   \   0000001C   018D               MOVW    R17:R16, R27:R26
   \   0000001E   91A9               LD      R26, Y+
   \   00000020   91B9               LD      R27, Y+
   \   00000022   9508               RET
    431          
    432          //-----------------------------------------------------------------------------------------------------

   \                                 In  segment CODE, align 2, keep-with-next
    433          CPreventiveAlarmLowLevelNamurDfa::~CPreventiveAlarmLowLevelNamurDfa()
   \                     `?~CPreventiveAlarmLowLevelNamurDfa`:
    434          {
   \   00000000   ........           CALL    ?PROLOGUE4_L09
   \   00000004   01C8               MOVW    R25:R24, R17:R16
   \   00000006   01D9               MOVW    R27:R26, R19:R18
   \   00000008   2F08               MOV     R16, R24
   \   0000000A   2B09               OR      R16, R25
   \   0000000C   F049               BREQ    `?~CPreventiveAlarmLowLevelNamurDfa_1`
    435              //dtor
    436          }
   \   0000000E   E020               LDI     R18, 0
   \   00000010   E030               LDI     R19, 0
   \   00000012   018C               MOVW    R17:R16, R25:R24
   \   00000014   ....               RCALL   `?~CAlarmDfa`
   \   00000016   FBA0               BST     R26, 0
   \   00000018   F41E               BRTC    `?~CPreventiveAlarmLowLevelNamurDfa_1`
   \   0000001A   018C               MOVW    R17:R16, R25:R24
   \   0000001C   ........           CALL    `??operator delete`
   \                     `?~CPreventiveAlarmLowLevelNamurDfa_1`:
   \   00000020   E0E4               LDI     R30, 4
   \   00000022   ........           JMP     ?EPILOGUE_B4_L09
    437          
    438          //-----------------------------------------------------------------------------------------------------

   \                                 In  segment CODE, align 2, keep-with-next
    439          CPreventiveAlarmHighLevelNamurDfa::CPreventiveAlarmHighLevelNamurDfa()
   \                     ??CPreventiveAlarmHighLevelNamurDfa:
   \   00000000   93BA               ST      -Y, R27
   \   00000002   93AA               ST      -Y, R26
   \   00000004   01D8               MOVW    R27:R26, R17:R16
    440          {
   \   00000006   018D               MOVW    R17:R16, R27:R26
   \   00000008   ....               RCALL   ??CAlarmDfa
   \   0000000A   ....               LDI     R16, LOW(??__vtbl_6)
   \   0000000C   ....               LDI     R17, (??__vtbl_6) >> 8
   \   0000000E   01FD               MOVW    R31:R30, R27:R26
   \   00000010   8301               STD     Z+1, R16
   \   00000012   8312               STD     Z+2, R17
    441              SetFsmState(ACTIVE_STATE_WAITING);
   \   00000014   E021               LDI     R18, 1
   \   00000016   018D               MOVW    R17:R16, R27:R26
   \   00000018   ........           CALL    ??SetFsmState
    442          }
   \   0000001C   018D               MOVW    R17:R16, R27:R26
   \   0000001E   91A9               LD      R26, Y+
   \   00000020   91B9               LD      R27, Y+
   \   00000022   9508               RET
    443          
    444          //-----------------------------------------------------------------------------------------------------

   \                                 In  segment CODE, align 2, keep-with-next
    445          CPreventiveAlarmHighLevelNamurDfa::~CPreventiveAlarmHighLevelNamurDfa()
   \                     `?~CPreventiveAlarmHighLevelNamurDfa`:
    446          {
   \   00000000   ........           CALL    ?PROLOGUE4_L09
   \   00000004   01C8               MOVW    R25:R24, R17:R16
   \   00000006   01D9               MOVW    R27:R26, R19:R18
   \   00000008   2F08               MOV     R16, R24
   \   0000000A   2B09               OR      R16, R25
   \   0000000C   F049               BREQ    `?~CPreventiveAlarmHighLevelNamurDfa_1`
    447              //dtor
    448          }
   \   0000000E   E020               LDI     R18, 0
   \   00000010   E030               LDI     R19, 0
   \   00000012   018C               MOVW    R17:R16, R25:R24
   \   00000014   ....               RCALL   `?~CAlarmDfa`
   \   00000016   FBA0               BST     R26, 0
   \   00000018   F41E               BRTC    `?~CPreventiveAlarmHighLevelNamurDfa_1`
   \   0000001A   018C               MOVW    R17:R16, R25:R24
   \   0000001C   ........           CALL    `??operator delete`
   \                     `?~CPreventiveAlarmHighLevelNamurDfa_1`:
   \   00000020   E0E4               LDI     R30, 4
   \   00000022   ........           JMP     ?EPILOGUE_B4_L09
    449          //-----------------------------------------------------------------------------------------------------
    450          
    451          
    452          
    453          
    454          
    455          
    456          
    457          //-----------------------------------------------------------------------------------------------------

   \                                 In  segment CODE, align 2, keep-with-next
    458          CEmergencyAlarmLowLevelDfa::CEmergencyAlarmLowLevelDfa()
   \                     ??CEmergencyAlarmLowLevelDfa:
   \   00000000   93BA               ST      -Y, R27
   \   00000002   93AA               ST      -Y, R26
   \   00000004   01D8               MOVW    R27:R26, R17:R16
    459          {
   \   00000006   018D               MOVW    R17:R16, R27:R26
   \   00000008   ....               RCALL   ??CAlarmDfa
   \   0000000A   ....               LDI     R16, LOW(??__vtbl_7)
   \   0000000C   ....               LDI     R17, (??__vtbl_7) >> 8
   \   0000000E   01FD               MOVW    R31:R30, R27:R26
   \   00000010   8301               STD     Z+1, R16
   \   00000012   8312               STD     Z+2, R17
    460              SetFsmState(ACTIVE_STATE_WAITING);
   \   00000014   E021               LDI     R18, 1
   \   00000016   018D               MOVW    R17:R16, R27:R26
   \   00000018   ........           CALL    ??SetFsmState
    461          }
   \   0000001C   018D               MOVW    R17:R16, R27:R26
   \   0000001E   91A9               LD      R26, Y+
   \   00000020   91B9               LD      R27, Y+
   \   00000022   9508               RET
    462          
    463          //-----------------------------------------------------------------------------------------------------

   \                                 In  segment CODE, align 2, keep-with-next
    464          CEmergencyAlarmLowLevelDfa::~CEmergencyAlarmLowLevelDfa()
   \                     `?~CEmergencyAlarmLowLevelDfa`:
    465          {
   \   00000000   ........           CALL    ?PROLOGUE4_L09
   \   00000004   01C8               MOVW    R25:R24, R17:R16
   \   00000006   01D9               MOVW    R27:R26, R19:R18
   \   00000008   2F08               MOV     R16, R24
   \   0000000A   2B09               OR      R16, R25
   \   0000000C   F049               BREQ    `?~CEmergencyAlarmLowLevelDfa_1`
    466              //dtor
    467          }
   \   0000000E   E020               LDI     R18, 0
   \   00000010   E030               LDI     R19, 0
   \   00000012   018C               MOVW    R17:R16, R25:R24
   \   00000014   ....               RCALL   `?~CAlarmDfa`
   \   00000016   FBA0               BST     R26, 0
   \   00000018   F41E               BRTC    `?~CEmergencyAlarmLowLevelDfa_1`
   \   0000001A   018C               MOVW    R17:R16, R25:R24
   \   0000001C   ........           CALL    `??operator delete`
   \                     `?~CEmergencyAlarmLowLevelDfa_1`:
   \   00000020   E0E4               LDI     R30, 4
   \   00000022   ........           JMP     ?EPILOGUE_B4_L09
    468          
    469          //-----------------------------------------------------------------------------------------------------

   \                                 In  segment CODE, align 2, keep-with-next
    470          CEmergencyAlarmHighLevelDfa::CEmergencyAlarmHighLevelDfa()
   \                     ??CEmergencyAlarmHighLevelDfa:
   \   00000000   93BA               ST      -Y, R27
   \   00000002   93AA               ST      -Y, R26
   \   00000004   01D8               MOVW    R27:R26, R17:R16
    471          {
   \   00000006   018D               MOVW    R17:R16, R27:R26
   \   00000008   ....               RCALL   ??CAlarmDfa
   \   0000000A   ....               LDI     R16, LOW(??__vtbl_8)
   \   0000000C   ....               LDI     R17, (??__vtbl_8) >> 8
   \   0000000E   01FD               MOVW    R31:R30, R27:R26
   \   00000010   8301               STD     Z+1, R16
   \   00000012   8312               STD     Z+2, R17
    472              SetFsmState(ACTIVE_STATE_WAITING);
   \   00000014   E021               LDI     R18, 1
   \   00000016   018D               MOVW    R17:R16, R27:R26
   \   00000018   ........           CALL    ??SetFsmState
    473          }
   \   0000001C   018D               MOVW    R17:R16, R27:R26
   \   0000001E   91A9               LD      R26, Y+
   \   00000020   91B9               LD      R27, Y+
   \   00000022   9508               RET
    474          
    475          //-----------------------------------------------------------------------------------------------------

   \                                 In  segment CODE, align 2, keep-with-next
    476          CEmergencyAlarmHighLevelDfa::~CEmergencyAlarmHighLevelDfa()
   \                     `?~CEmergencyAlarmHighLevelDfa`:
    477          {
   \   00000000   ........           CALL    ?PROLOGUE4_L09
   \   00000004   01C8               MOVW    R25:R24, R17:R16
   \   00000006   01D9               MOVW    R27:R26, R19:R18
   \   00000008   2F08               MOV     R16, R24
   \   0000000A   2B09               OR      R16, R25
   \   0000000C   F049               BREQ    `?~CEmergencyAlarmHighLevelDfa_1`
    478              //dtor
    479          }
   \   0000000E   E020               LDI     R18, 0
   \   00000010   E030               LDI     R19, 0
   \   00000012   018C               MOVW    R17:R16, R25:R24
   \   00000014   ....               RCALL   `?~CAlarmDfa`
   \   00000016   FBA0               BST     R26, 0
   \   00000018   F41E               BRTC    `?~CEmergencyAlarmHighLevelDfa_1`
   \   0000001A   018C               MOVW    R17:R16, R25:R24
   \   0000001C   ........           CALL    `??operator delete`
   \                     `?~CEmergencyAlarmHighLevelDfa_1`:
   \   00000020   E0E4               LDI     R30, 4
   \   00000022   ........           JMP     ?EPILOGUE_B4_L09
    480          
    481          
    482          //-----------------------------------------------------------------------------------------------------

   \                                 In  segment CODE, align 2, keep-with-next
    483          CEmergencyAlarmLowLevelNamurDfa::CEmergencyAlarmLowLevelNamurDfa()
   \                     ??CEmergencyAlarmLowLevelNamurDfa:
   \   00000000   93BA               ST      -Y, R27
   \   00000002   93AA               ST      -Y, R26
   \   00000004   01D8               MOVW    R27:R26, R17:R16
    484          {
   \   00000006   018D               MOVW    R17:R16, R27:R26
   \   00000008   ....               RCALL   ??CAlarmDfa
   \   0000000A   ....               LDI     R16, LOW(??__vtbl_9)
   \   0000000C   ....               LDI     R17, (??__vtbl_9) >> 8
   \   0000000E   01FD               MOVW    R31:R30, R27:R26
   \   00000010   8301               STD     Z+1, R16
   \   00000012   8312               STD     Z+2, R17
    485              SetFsmState(ACTIVE_STATE_WAITING);
   \   00000014   E021               LDI     R18, 1
   \   00000016   018D               MOVW    R17:R16, R27:R26
   \   00000018   ........           CALL    ??SetFsmState
    486          }
   \   0000001C   018D               MOVW    R17:R16, R27:R26
   \   0000001E   91A9               LD      R26, Y+
   \   00000020   91B9               LD      R27, Y+
   \   00000022   9508               RET
    487          
    488          //-----------------------------------------------------------------------------------------------------

   \                                 In  segment CODE, align 2, keep-with-next
    489          CEmergencyAlarmLowLevelNamurDfa::~CEmergencyAlarmLowLevelNamurDfa()
   \                     `?~CEmergencyAlarmLowLevelNamurDfa`:
    490          {
   \   00000000   ........           CALL    ?PROLOGUE4_L09
   \   00000004   01C8               MOVW    R25:R24, R17:R16
   \   00000006   01D9               MOVW    R27:R26, R19:R18
   \   00000008   2F08               MOV     R16, R24
   \   0000000A   2B09               OR      R16, R25
   \   0000000C   F049               BREQ    `?~CEmergencyAlarmLowLevelNamurDfa_1`
    491              //dtor
    492          }
   \   0000000E   E020               LDI     R18, 0
   \   00000010   E030               LDI     R19, 0
   \   00000012   018C               MOVW    R17:R16, R25:R24
   \   00000014   ....               RCALL   `?~CAlarmDfa`
   \   00000016   FBA0               BST     R26, 0
   \   00000018   F41E               BRTC    `?~CEmergencyAlarmLowLevelNamurDfa_1`
   \   0000001A   018C               MOVW    R17:R16, R25:R24
   \   0000001C   ........           CALL    `??operator delete`
   \                     `?~CEmergencyAlarmLowLevelNamurDfa_1`:
   \   00000020   E0E4               LDI     R30, 4
   \   00000022   ........           JMP     ?EPILOGUE_B4_L09
    493          
    494          //-----------------------------------------------------------------------------------------------------

   \                                 In  segment CODE, align 2, keep-with-next
    495          CEmergencyAlarmHighLevelNamurDfa::CEmergencyAlarmHighLevelNamurDfa()
   \                     ??CEmergencyAlarmHighLevelNamurDfa:
   \   00000000   93BA               ST      -Y, R27
   \   00000002   93AA               ST      -Y, R26
   \   00000004   01D8               MOVW    R27:R26, R17:R16
    496          {
   \   00000006   018D               MOVW    R17:R16, R27:R26
   \   00000008   ....               RCALL   ??CAlarmDfa
   \   0000000A   ....               LDI     R16, LOW(??__vtbl_10)
   \   0000000C   ....               LDI     R17, (??__vtbl_10) >> 8
   \   0000000E   01FD               MOVW    R31:R30, R27:R26
   \   00000010   8301               STD     Z+1, R16
   \   00000012   8312               STD     Z+2, R17
    497              SetFsmState(ACTIVE_STATE_WAITING);
   \   00000014   E021               LDI     R18, 1
   \   00000016   018D               MOVW    R17:R16, R27:R26
   \   00000018   ........           CALL    ??SetFsmState
    498          }
   \   0000001C   018D               MOVW    R17:R16, R27:R26
   \   0000001E   91A9               LD      R26, Y+
   \   00000020   91B9               LD      R27, Y+
   \   00000022   9508               RET
    499          
    500          //-----------------------------------------------------------------------------------------------------

   \                                 In  segment CODE, align 2, keep-with-next
    501          CEmergencyAlarmHighLevelNamurDfa::~CEmergencyAlarmHighLevelNamurDfa()
   \                     `?~CEmergencyAlarmHighLevelNamurDfa`:
    502          {
   \   00000000   ........           CALL    ?PROLOGUE4_L09
   \   00000004   01C8               MOVW    R25:R24, R17:R16
   \   00000006   01D9               MOVW    R27:R26, R19:R18
   \   00000008   2F08               MOV     R16, R24
   \   0000000A   2B09               OR      R16, R25
   \   0000000C   F049               BREQ    `?~CEmergencyAlarmHighLevelNamurDfa_1`
    503              //dtor
    504          }
   \   0000000E   E020               LDI     R18, 0
   \   00000010   E030               LDI     R19, 0
   \   00000012   018C               MOVW    R17:R16, R25:R24
   \   00000014   ....               RCALL   `?~CAlarmDfa`
   \   00000016   FBA0               BST     R26, 0
   \   00000018   F41E               BRTC    `?~CEmergencyAlarmHighLevelNamurDfa_1`
   \   0000001A   018C               MOVW    R17:R16, R25:R24
   \   0000001C   ........           CALL    `??operator delete`
   \                     `?~CEmergencyAlarmHighLevelNamurDfa_1`:
   \   00000020   E0E4               LDI     R30, 4
   \   00000022   ........           JMP     ?EPILOGUE_B4_L09
    505          //-----------------------------------------------------------------------------------------------------
    506          
    507          
    508          
    509          
    510          
    511          
    512          
    513          
    514          //-----------------------------------------------------------------------------------------------------

   \                                 In  segment CODE, align 2, keep-with-next
    515          CIndicationAlarmLowLevelDfa::CIndicationAlarmLowLevelDfa()
   \                     ??CIndicationAlarmLowLevelDfa:
   \   00000000   93BA               ST      -Y, R27
   \   00000002   93AA               ST      -Y, R26
   \   00000004   01D8               MOVW    R27:R26, R17:R16
    516          {
   \   00000006   018D               MOVW    R17:R16, R27:R26
   \   00000008   ....               RCALL   ??CAlarmDfa
   \   0000000A   ....               LDI     R16, LOW(??__vtbl_11)
   \   0000000C   ....               LDI     R17, (??__vtbl_11) >> 8
   \   0000000E   01FD               MOVW    R31:R30, R27:R26
   \   00000010   8301               STD     Z+1, R16
   \   00000012   8312               STD     Z+2, R17
    517              SetFsmState(ACTIVE_STATE_WAITING);
   \   00000014   E021               LDI     R18, 1
   \   00000016   018D               MOVW    R17:R16, R27:R26
   \   00000018   ........           CALL    ??SetFsmState
    518          }
   \   0000001C   018D               MOVW    R17:R16, R27:R26
   \   0000001E   91A9               LD      R26, Y+
   \   00000020   91B9               LD      R27, Y+
   \   00000022   9508               RET
    519          
    520          //-----------------------------------------------------------------------------------------------------

   \                                 In  segment CODE, align 2, keep-with-next
    521          CIndicationAlarmLowLevelDfa::~CIndicationAlarmLowLevelDfa()
   \                     `?~CIndicationAlarmLowLevelDfa`:
    522          {
   \   00000000   ........           CALL    ?PROLOGUE4_L09
   \   00000004   01C8               MOVW    R25:R24, R17:R16
   \   00000006   01D9               MOVW    R27:R26, R19:R18
   \   00000008   2F08               MOV     R16, R24
   \   0000000A   2B09               OR      R16, R25
   \   0000000C   F049               BREQ    `?~CIndicationAlarmLowLevelDfa_1`
    523              //dtor
    524          }
   \   0000000E   E020               LDI     R18, 0
   \   00000010   E030               LDI     R19, 0
   \   00000012   018C               MOVW    R17:R16, R25:R24
   \   00000014   ....               RCALL   `?~CAlarmDfa`
   \   00000016   FBA0               BST     R26, 0
   \   00000018   F41E               BRTC    `?~CIndicationAlarmLowLevelDfa_1`
   \   0000001A   018C               MOVW    R17:R16, R25:R24
   \   0000001C   ........           CALL    `??operator delete`
   \                     `?~CIndicationAlarmLowLevelDfa_1`:
   \   00000020   E0E4               LDI     R30, 4
   \   00000022   ........           JMP     ?EPILOGUE_B4_L09
    525          
    526          //-----------------------------------------------------------------------------------------------------
    527          // Автомат обработки сигнализации дискретного сигнала.

   \                                 In  segment CODE, align 2, keep-with-next
    528          void CIndicationAlarmLowLevelDfa::Fsm(void)
   \                     ??Fsm_1:
    529          {
   \   00000000   ........           CALL    ?PROLOGUE4_L09
   \   00000004   01D8               MOVW    R27:R26, R17:R16
    530              uint8_t uiDiscreteSignalState = DISCRETE_SIGNAL_IS_INVALID;
   \   00000006   E083               LDI     R24, 3
    531          
    532              // дискретный сигнал этого объекта автомата сигнализации привязан
    533              // к дискретному входу модуля ввода?
    534              if (GetDiscreteStateIndex() < DISCRETE_INPUTS_NUMBER)
   \   00000008   018D               MOVW    R17:R16, R27:R26
   \   0000000A   ........           CALL    ??GetDiscreteStateIndex
   \   0000000E   3300               CPI     R16, 48
   \   00000010   F008               BRCS    $+2+2
   \   00000012   C0D5               RJMP    ??Fsm_63
    535              {
    536                  // дискретный вход недостоверен?
    537                  if ((CPss21::GetDiscreteInputsBadState(GetDiscreteStateIndex()) & 0x07) == INPUT_IS_INVALID)
   \   00000014   018D               MOVW    R17:R16, R27:R26
   \   00000016   ........           CALL    ??GetDiscreteStateIndex
   \   0000001A   ........           CALL    ??GetDiscreteInputsBadState
   \   0000001E   7007               ANDI    R16, 0x07
   \   00000020   3004               CPI     R16, 4
   \   00000022   F411               BRNE    ??Fsm_64
    538                  {
    539                      uiDiscreteSignalState = DISCRETE_SIGNAL_IS_INVALID;
   \   00000024   E083               LDI     R24, 3
   \   00000026   C0D5               RJMP    ??Fsm_65
    540                  }
    541                  else
    542                  {
    543                      // тип текущего дискретного сигнала namur?
    544                      if (IS_NAMUR_ON())
   \                     ??Fsm_64:
   \   00000028   018D               MOVW    R17:R16, R27:R26
   \   0000002A   01FD               MOVW    R31:R30, R27:R26
   \   0000002C   8121               LDD     R18, Z+1
   \   0000002E   8132               LDD     R19, Z+2
   \   00000030   01F9               MOVW    R31:R30, R19:R18
   \   00000032   9638               ADIW    R31:R30, 8
   \   00000034   9125               LPM     R18, Z+
   \   00000036   9134               LPM     R19, Z
   \   00000038   9739               SBIW    R31:R30, 9
   \   0000003A   01F9               MOVW    R31:R30, R19:R18
   \   0000003C   9509               ICALL
   \   0000003E   2300               TST     R16
   \   00000040   F011               BREQ    ??Fsm_66
   \   00000042   E001               LDI     R16, 1
   \   00000044   C001               RJMP    ??Fsm_67
   \                     ??Fsm_66:
   \   00000046   E000               LDI     R16, 0
   \                     ??Fsm_67:
   \   00000048   2300               TST     R16
   \   0000004A   F409               BRNE    $+2+2
   \   0000004C   C060               RJMP    ??Fsm_68
    545                      {
    546                          switch (CPss21::GetDiscreteInputsBadState(GetDiscreteStateIndex()))
   \   0000004E   018D               MOVW    R17:R16, R27:R26
   \   00000050   ........           CALL    ??GetDiscreteStateIndex
   \   00000054   ........           CALL    ??GetDiscreteInputsBadState
   \   00000058   5000               SUBI    R16, 0
   \   0000005A   F049               BREQ    ??Fsm_69
   \   0000005C   950A               DEC     R16
   \   0000005E   F039               BREQ    ??Fsm_69
   \   00000060   950A               DEC     R16
   \   00000062   F409               BRNE    $+2+2
   \   00000064   C04C               RJMP    ??Fsm_70
   \   00000066   950A               DEC     R16
   \   00000068   F409               BRNE    $+2+2
   \   0000006A   C049               RJMP    ??Fsm_70
   \   0000006C   C0B2               RJMP    ??Fsm_65
    547                          {
    548                          case OFF:
    549                          case ON:
    550                              // Дискретный сигнал активен?
    551                              // уровень сигналы типа "NAMUR" определяем по состояниям дискретного входа:
    552          //	- состояния "0" (OFF) - "РАЗОМКНУТО"
    553          //	- состояния "1" (ON) - "ЗАМКНУТО"
    554                              if ((CPss21::GetDiscreteInputsBadState(GetDiscreteStateIndex()) & 0x03) == OFF)
   \                     ??Fsm_69:
   \   0000006E   018D               MOVW    R17:R16, R27:R26
   \   00000070   ........           CALL    ??GetDiscreteStateIndex
   \   00000074   ........           CALL    ??GetDiscreteInputsBadState
   \   00000078   7003               ANDI    R16, 0x03
   \   0000007A   2300               TST     R16
   \   0000007C   F4E1               BRNE    ??Fsm_71
    555                              {
    556                                  // установим значение текущего дискретного входа отображаемое в пространстве модбас
    557                                  // интерпретированное с учетом условия активности.
    558                                  CPss21::SetDiscreteInputState(GetDiscreteStateIndex(), 0);
   \   0000007E   018D               MOVW    R17:R16, R27:R26
   \   00000080   ........           CALL    ??GetDiscreteStateIndex
   \   00000084   E010               LDI     R17, 0
   \   00000086   ........           CALL    ??SetDiscreteInputState
    559          
    560                                  if (ACTIVE_LEVEL())
   \   0000008A   018D               MOVW    R17:R16, R27:R26
   \   0000008C   01FD               MOVW    R31:R30, R27:R26
   \   0000008E   8121               LDD     R18, Z+1
   \   00000090   8132               LDD     R19, Z+2
   \   00000092   01F9               MOVW    R31:R30, R19:R18
   \   00000094   9636               ADIW    R31:R30, 6
   \   00000096   9125               LPM     R18, Z+
   \   00000098   9134               LPM     R19, Z
   \   0000009A   9737               SBIW    R31:R30, 7
   \   0000009C   01F9               MOVW    R31:R30, R19:R18
   \   0000009E   9509               ICALL
   \   000000A0   2300               TST     R16
   \   000000A2   F011               BREQ    ??Fsm_72
   \   000000A4   E001               LDI     R16, 1
   \   000000A6   C001               RJMP    ??Fsm_73
   \                     ??Fsm_72:
   \   000000A8   E000               LDI     R16, 0
   \                     ??Fsm_73:
   \   000000AA   2300               TST     R16
   \   000000AC   F011               BREQ    ??Fsm_74
    561                                  {
    562                                      uiDiscreteSignalState = DISCRETE_SIGNAL_IS_ACTIVE;
   \   000000AE   E081               LDI     R24, 1
   \   000000B0   C090               RJMP    ??Fsm_65
    563                                  }
    564                                  else
    565                                  {
    566                                      uiDiscreteSignalState = DISCRETE_SIGNAL_IS_NOT_ACTIVE;
   \                     ??Fsm_74:
   \   000000B2   E080               LDI     R24, 0
   \   000000B4   C08E               RJMP    ??Fsm_65
    567                                  }
    568                              }
    569                              else if ((CPss21::GetDiscreteInputsBadState(GetDiscreteStateIndex()) & 0x03) == ON)
   \                     ??Fsm_71:
   \   000000B6   018D               MOVW    R17:R16, R27:R26
   \   000000B8   ........           CALL    ??GetDiscreteStateIndex
   \   000000BC   ........           CALL    ??GetDiscreteInputsBadState
   \   000000C0   7003               ANDI    R16, 0x03
   \   000000C2   3001               CPI     R16, 1
   \   000000C4   F4D9               BRNE    ??Fsm_75
    570                              {
    571                                  // установим значение текущего дискретного входа отображаемое в пространстве модбас
    572                                  // интерпретированное с учетом условия активности.
    573                                  CPss21::SetDiscreteInputState(GetDiscreteStateIndex(), 1);
   \   000000C6   018D               MOVW    R17:R16, R27:R26
   \   000000C8   ........           CALL    ??GetDiscreteStateIndex
   \   000000CC   E011               LDI     R17, 1
   \   000000CE   ........           CALL    ??SetDiscreteInputState
    574          
    575                                  if (ACTIVE_LEVEL())
   \   000000D2   018D               MOVW    R17:R16, R27:R26
   \   000000D4   01FD               MOVW    R31:R30, R27:R26
   \   000000D6   8121               LDD     R18, Z+1
   \   000000D8   8132               LDD     R19, Z+2
   \   000000DA   01F9               MOVW    R31:R30, R19:R18
   \   000000DC   9636               ADIW    R31:R30, 6
   \   000000DE   9125               LPM     R18, Z+
   \   000000E0   9134               LPM     R19, Z
   \   000000E2   9737               SBIW    R31:R30, 7
   \   000000E4   01F9               MOVW    R31:R30, R19:R18
   \   000000E6   9509               ICALL
   \   000000E8   2300               TST     R16
   \   000000EA   F011               BREQ    ??Fsm_76
   \   000000EC   E001               LDI     R16, 1
   \   000000EE   C001               RJMP    ??Fsm_77
   \                     ??Fsm_76:
   \   000000F0   E000               LDI     R16, 0
   \                     ??Fsm_77:
   \   000000F2   2300               TST     R16
   \   000000F4   F011               BREQ    ??Fsm_78
    576                                  {
    577                                      uiDiscreteSignalState = DISCRETE_SIGNAL_IS_NOT_ACTIVE;
   \   000000F6   E080               LDI     R24, 0
   \   000000F8   C06C               RJMP    ??Fsm_65
    578                                  }
    579                                  else
    580                                  {
    581                                      uiDiscreteSignalState = DISCRETE_SIGNAL_IS_ACTIVE;
   \                     ??Fsm_78:
   \   000000FA   E081               LDI     R24, 1
    582                                  }
    583                              }
    584                              break;
   \                     ??Fsm_75:
   \   000000FC   C06A               RJMP    ??Fsm_65
    585          
    586                          case WIRE_BREAK:
    587                          case SHORT_CIRCUIT:
    588                              uiDiscreteSignalState = DISCRETE_SIGNAL_IS_NAMUR_ERROR;
   \                     ??Fsm_70:
   \   000000FE   E082               LDI     R24, 2
    589                              // установим значение текущего дискретного входа отображаемое в пространстве модбас
    590                              // интерпретированное с учетом условия активности.
    591                              CPss21::SetDiscreteInputState(GetDiscreteStateIndex(), 0);
   \   00000100   018D               MOVW    R17:R16, R27:R26
   \   00000102   ........           CALL    ??GetDiscreteStateIndex
   \   00000106   E010               LDI     R17, 0
   \   00000108   ........           CALL    ??SetDiscreteInputState
    592                              break;
   \   0000010C   C062               RJMP    ??Fsm_65
    593          
    594                          default:
    595                              break;
    596                          }
    597                      }
    598                      else
    599                      {
    600                          // Дискретный сигнал активен?
    601                          // уровень сигналы типа "СУХОЙ КОНТАКТ" (СК) определяем по состояниям дискретного входа:
    602                          //        1.3. В алгоритме обработки сигналов типа "СУХОЙ КОНТАКТ" (СК) должно быть:
    603          //	- состояния "0" (OFF) и "3" (КЗ) - "ЗАМКНУТО"
    604          //	- состояния "1" (ON) и "2" (ОБРЫВ) - "РАЗОМКНУТО"
    605                          if (((CPss21::GetDiscreteInputsBadState(GetDiscreteStateIndex()) & 0x03) == WIRE_BREAK) ||
    606                                  ((CPss21::GetDiscreteInputsBadState(GetDiscreteStateIndex()) & 0x03) == ON))
   \                     ??Fsm_68:
   \   0000010E   018D               MOVW    R17:R16, R27:R26
   \   00000110   ........           CALL    ??GetDiscreteStateIndex
   \   00000114   ........           CALL    ??GetDiscreteInputsBadState
   \   00000118   7003               ANDI    R16, 0x03
   \   0000011A   3002               CPI     R16, 2
   \   0000011C   F041               BREQ    ??Fsm_79
   \   0000011E   018D               MOVW    R17:R16, R27:R26
   \   00000120   ........           CALL    ??GetDiscreteStateIndex
   \   00000124   ........           CALL    ??GetDiscreteInputsBadState
   \   00000128   7003               ANDI    R16, 0x03
   \   0000012A   3001               CPI     R16, 1
   \   0000012C   F4E1               BRNE    ??Fsm_80
    607                          {
    608                              // установим значение текущего дискретного входа отображаемое в пространстве модбас
    609                              // интерпретированное с учетом условия активности.
    610                              CPss21::SetDiscreteInputState(GetDiscreteStateIndex(), 0);
   \                     ??Fsm_79:
   \   0000012E   018D               MOVW    R17:R16, R27:R26
   \   00000130   ........           CALL    ??GetDiscreteStateIndex
   \   00000134   E010               LDI     R17, 0
   \   00000136   ........           CALL    ??SetDiscreteInputState
    611          
    612                              if (ACTIVE_LEVEL())
   \   0000013A   018D               MOVW    R17:R16, R27:R26
   \   0000013C   01FD               MOVW    R31:R30, R27:R26
   \   0000013E   8121               LDD     R18, Z+1
   \   00000140   8132               LDD     R19, Z+2
   \   00000142   01F9               MOVW    R31:R30, R19:R18
   \   00000144   9636               ADIW    R31:R30, 6
   \   00000146   9125               LPM     R18, Z+
   \   00000148   9134               LPM     R19, Z
   \   0000014A   9737               SBIW    R31:R30, 7
   \   0000014C   01F9               MOVW    R31:R30, R19:R18
   \   0000014E   9509               ICALL
   \   00000150   2300               TST     R16
   \   00000152   F011               BREQ    ??Fsm_81
   \   00000154   E001               LDI     R16, 1
   \   00000156   C001               RJMP    ??Fsm_82
   \                     ??Fsm_81:
   \   00000158   E000               LDI     R16, 0
   \                     ??Fsm_82:
   \   0000015A   2300               TST     R16
   \   0000015C   F011               BREQ    ??Fsm_83
    613                              {
    614                                  uiDiscreteSignalState = DISCRETE_SIGNAL_IS_ACTIVE;
   \   0000015E   E081               LDI     R24, 1
   \   00000160   C038               RJMP    ??Fsm_65
    615                              }
    616                              else
    617                              {
    618                                  uiDiscreteSignalState = DISCRETE_SIGNAL_IS_NOT_ACTIVE;
   \                     ??Fsm_83:
   \   00000162   E080               LDI     R24, 0
   \   00000164   C036               RJMP    ??Fsm_65
    619                              }
    620                          }
    621                          else if (((CPss21::GetDiscreteInputsBadState(GetDiscreteStateIndex()) & 0x03) == SHORT_CIRCUIT) ||
    622                                   ((CPss21::GetDiscreteInputsBadState(GetDiscreteStateIndex()) & 0x03) == OFF))
   \                     ??Fsm_80:
   \   00000166   018D               MOVW    R17:R16, R27:R26
   \   00000168   ........           CALL    ??GetDiscreteStateIndex
   \   0000016C   ........           CALL    ??GetDiscreteInputsBadState
   \   00000170   7003               ANDI    R16, 0x03
   \   00000172   3003               CPI     R16, 3
   \   00000174   F041               BREQ    ??Fsm_84
   \   00000176   018D               MOVW    R17:R16, R27:R26
   \   00000178   ........           CALL    ??GetDiscreteStateIndex
   \   0000017C   ........           CALL    ??GetDiscreteInputsBadState
   \   00000180   7003               ANDI    R16, 0x03
   \   00000182   2300               TST     R16
   \   00000184   F531               BRNE    ??Fsm_65
    623                          {
    624                              // установим значение текущего дискретного входа отображаемое в пространстве модбас
    625                              // интерпретированное с учетом условия активности.
    626                              CPss21::SetDiscreteInputState(GetDiscreteStateIndex(), 1);
   \                     ??Fsm_84:
   \   00000186   018D               MOVW    R17:R16, R27:R26
   \   00000188   ........           CALL    ??GetDiscreteStateIndex
   \   0000018C   E011               LDI     R17, 1
   \   0000018E   ........           CALL    ??SetDiscreteInputState
    627          
    628                              if (ACTIVE_LEVEL())
   \   00000192   018D               MOVW    R17:R16, R27:R26
   \   00000194   01FD               MOVW    R31:R30, R27:R26
   \   00000196   8121               LDD     R18, Z+1
   \   00000198   8132               LDD     R19, Z+2
   \   0000019A   01F9               MOVW    R31:R30, R19:R18
   \   0000019C   9636               ADIW    R31:R30, 6
   \   0000019E   9125               LPM     R18, Z+
   \   000001A0   9134               LPM     R19, Z
   \   000001A2   9737               SBIW    R31:R30, 7
   \   000001A4   01F9               MOVW    R31:R30, R19:R18
   \   000001A6   9509               ICALL
   \   000001A8   2300               TST     R16
   \   000001AA   F011               BREQ    ??Fsm_85
   \   000001AC   E001               LDI     R16, 1
   \   000001AE   C001               RJMP    ??Fsm_86
   \                     ??Fsm_85:
   \   000001B0   E000               LDI     R16, 0
   \                     ??Fsm_86:
   \   000001B2   2300               TST     R16
   \   000001B4   F011               BREQ    ??Fsm_87
    629                              {
    630                                  uiDiscreteSignalState = DISCRETE_SIGNAL_IS_NOT_ACTIVE;
   \   000001B6   E080               LDI     R24, 0
   \   000001B8   C00C               RJMP    ??Fsm_65
    631                              }
    632                              else
    633                              {
    634                                  uiDiscreteSignalState = DISCRETE_SIGNAL_IS_ACTIVE;
   \                     ??Fsm_87:
   \   000001BA   E081               LDI     R24, 1
   \   000001BC   C00A               RJMP    ??Fsm_65
    635                              }
    636                          }
    637                      }
    638                  }
    639              }
    640              // дискретный сигнал этого объекта автомата сигнализации привязан
    641              // к состоянию ячейки модбас.
    642              else
    643              {
    644                  if ((CPss21::GetDiscreteInputsBadState(GetDiscreteStateIndex()) & 0x01) == 1)
   \                     ??Fsm_63:
   \   000001BE   018D               MOVW    R17:R16, R27:R26
   \   000001C0   ........           CALL    ??GetDiscreteStateIndex
   \   000001C4   ........           CALL    ??GetDiscreteInputsBadState
   \   000001C8   FB00               BST     R16, 0
   \   000001CA   F416               BRTC    ??Fsm_88
    645                  {
    646                      uiDiscreteSignalState = DISCRETE_SIGNAL_IS_ACTIVE;
   \   000001CC   E081               LDI     R24, 1
   \   000001CE   C001               RJMP    ??Fsm_65
    647                  }
    648                  else
    649                  {
    650                      uiDiscreteSignalState = DISCRETE_SIGNAL_IS_NOT_ACTIVE;
   \                     ??Fsm_88:
   \   000001D0   E080               LDI     R24, 0
    651                  }
    652              }
    653          
    654          
    655          //    if (GetAlarmWindowIndex() == 1)
    656          //    {
    657          //        if ((CPss21::GetDiscreteInputsBadState(GetDiscreteStateIndex()) & 0x03) == 1)
    658          //        {
    659          //            uiDiscreteSignalState = DISCRETE_SIGNAL_IS_ACTIVE;
    660          //        }
    661          //        else
    662          //        {
    663          //            uiDiscreteSignalState = DISCRETE_SIGNAL_IS_NOT_ACTIVE;
    664          //        }
    665          //
    666          ////        uiDiscreteSignalState = DISCRETE_SIGNAL_IS_ACTIVE;
    667          //        CPss21::m_aucRtuHoldingRegistersArray[0] = 7;//CPss21::m_aucDiscreteInputsBadState[0];
    668          //        CPss21::m_aucRtuHoldingRegistersArray[1] = ALARM_TYPE();
    669          //        CPss21::m_aucRtuHoldingRegistersArray[2] = CPss21::GetAlarmWindowControlPointer(GetAlarmWindowIndex()) -> GetActivityState();
    670          ////                // Установим связанные дискретный выходы - новое нарушение.
    671          ////                CPss21::DiscreteOutputsSet(GetLinkedDiscreteOutputsPointer(), NEW_VIOLATION);
    672          ////                // Установим тип сигнализации связанному окну в массиве управления окнами извещателя.
    673          ////                CPss21::SetAlarmWindowType(GetAlarmWindowIndex(), ALARM_TYPE());
    674          ////                CPss21::SetAlarmWindowColor(GetAlarmWindowIndex(), ALARM_TYPE());
    675          ////                // Активизируем окно сигнализации, для отображения извещателем.
    676          ////                CPss21::GetAlarmWindowControlPointer(GetAlarmWindowIndex()) -> SetActivityState(1);
    677          ////                SetFsmState(NOT_ACTIVE_STATE_WAITING);
    678          //    }
    679          
    680              switch (GetFsmState())
   \                     ??Fsm_65:
   \   000001D2   018D               MOVW    R17:R16, R27:R26
   \   000001D4   ........           CALL    ??GetFsmState
   \   000001D8   5000               SUBI    R16, 0
   \   000001DA   F061               BREQ    ??Fsm_89
   \   000001DC   950A               DEC     R16
   \   000001DE   F059               BREQ    ??Fsm_90
   \   000001E0   5006               SUBI    R16, 6
   \   000001E2   F409               BRNE    $+2+2
   \   000001E4   C095               RJMP    ??Fsm_91
   \   000001E6   950A               DEC     R16
   \   000001E8   F409               BRNE    $+2+2
   \   000001EA   C0E7               RJMP    ??Fsm_92
   \   000001EC   950A               DEC     R16
   \   000001EE   F409               BRNE    $+2+2
   \   000001F0   C0FD               RJMP    ??Fsm_93
   \   000001F2   C110               RJMP    ??Fsm_94
    681              {
    682              case START:
    683                  break;
   \                     ??Fsm_89:
   \   000001F4   C10F               RJMP    ??Fsm_94
    684          
    685              case ACTIVE_STATE_WAITING:
    686          //        CPss21::m_aucRtuHoldingRegistersArray[0] = 7;//CPss21::m_aucDiscreteInputsBadState[0];
    687                  // тип текущего дискретного сигнала namur?
    688                  if (IS_NAMUR_ON())
   \                     ??Fsm_90:
   \   000001F6   018D               MOVW    R17:R16, R27:R26
   \   000001F8   01FD               MOVW    R31:R30, R27:R26
   \   000001FA   8121               LDD     R18, Z+1
   \   000001FC   8132               LDD     R19, Z+2
   \   000001FE   01F9               MOVW    R31:R30, R19:R18
   \   00000200   9638               ADIW    R31:R30, 8
   \   00000202   9125               LPM     R18, Z+
   \   00000204   9134               LPM     R19, Z
   \   00000206   9739               SBIW    R31:R30, 9
   \   00000208   01F9               MOVW    R31:R30, R19:R18
   \   0000020A   9509               ICALL
   \   0000020C   2300               TST     R16
   \   0000020E   F011               BREQ    ??Fsm_95
   \   00000210   E001               LDI     R16, 1
   \   00000212   C001               RJMP    ??Fsm_96
   \                     ??Fsm_95:
   \   00000214   E000               LDI     R16, 0
   \                     ??Fsm_96:
   \   00000216   2300               TST     R16
   \   00000218   F409               BRNE    $+2+2
   \   0000021A   C041               RJMP    ??Fsm_97
    689                  {
    690                      // Дискретный сигнал NAMUR в обрыве или кз?
    691                      if (uiDiscreteSignalState == DISCRETE_SIGNAL_IS_NAMUR_ERROR)
   \   0000021C   3082               CPI     R24, 2
   \   0000021E   F429               BRNE    ??Fsm_98
    692                      {
    693                          SetFsmState(NAMUR_STATE_ON);
   \   00000220   E028               LDI     R18, 8
   \   00000222   018D               MOVW    R17:R16, R27:R26
   \   00000224   ........           CALL    ??SetFsmState
   \   00000228   C0F5               RJMP    ??Fsm_94
    694                      }
    695                      else
    696                      {
    697                          // Дискретный сигнал активен?
    698                          if (uiDiscreteSignalState == DISCRETE_SIGNAL_IS_ACTIVE)
   \                     ??Fsm_98:
   \   0000022A   3081               CPI     R24, 1
   \   0000022C   F009               BREQ    $+2+2
   \   0000022E   C0F2               RJMP    ??Fsm_94
    699                          {
    700                              // Установим связанные дискретный выходы - новое нарушение.
    701                              CPss21::DiscreteOutputsSet(GetLinkedDiscreteOutputsPointer(), NEW_VIOLATION);
   \   00000230   018D               MOVW    R17:R16, R27:R26
   \   00000232   ........           CALL    ??GetLinkedDiscreteOutputsPointer
   \   00000236   E021               LDI     R18, 1
   \   00000238   ........           CALL    ??DiscreteOutputsSet
    702                              // Установим тип сигнализации связанному окну в массиве управления окнами извещателя.
    703                              CPss21::SetAlarmWindowType(GetAlarmWindowIndex(), ALARM_TYPE());
   \   0000023C   018D               MOVW    R17:R16, R27:R26
   \   0000023E   01FD               MOVW    R31:R30, R27:R26
   \   00000240   8121               LDD     R18, Z+1
   \   00000242   8132               LDD     R19, Z+2
   \   00000244   01F9               MOVW    R31:R30, R19:R18
   \   00000246   9634               ADIW    R31:R30, 4
   \   00000248   9125               LPM     R18, Z+
   \   0000024A   9134               LPM     R19, Z
   \   0000024C   9735               SBIW    R31:R30, 5
   \   0000024E   01F9               MOVW    R31:R30, R19:R18
   \   00000250   9509               ICALL
   \   00000252   2F90               MOV     R25, R16
   \   00000254   018D               MOVW    R17:R16, R27:R26
   \   00000256   ........           CALL    ??GetAlarmWindowIndex
   \   0000025A   2F19               MOV     R17, R25
   \   0000025C   ........           CALL    ??SetAlarmWindowType
    704                              CPss21::SetAlarmWindowColor(GetAlarmWindowIndex(), ALARM_TYPE());
   \   00000260   018D               MOVW    R17:R16, R27:R26
   \   00000262   01FD               MOVW    R31:R30, R27:R26
   \   00000264   8121               LDD     R18, Z+1
   \   00000266   8132               LDD     R19, Z+2
   \   00000268   01F9               MOVW    R31:R30, R19:R18
   \   0000026A   9634               ADIW    R31:R30, 4
   \   0000026C   9125               LPM     R18, Z+
   \   0000026E   9134               LPM     R19, Z
   \   00000270   9735               SBIW    R31:R30, 5
   \   00000272   01F9               MOVW    R31:R30, R19:R18
   \   00000274   9509               ICALL
   \   00000276   2F90               MOV     R25, R16
   \   00000278   018D               MOVW    R17:R16, R27:R26
   \   0000027A   ........           CALL    ??GetAlarmWindowIndex
   \   0000027E   2F19               MOV     R17, R25
   \   00000280   ........           CALL    ??SetAlarmWindowColor
    705                              // Активизируем окно сигнализации, для отображения извещателем.
    706                              CPss21::GetAlarmWindowControlPointer(GetAlarmWindowIndex()) -> SetActivityState(1);
   \   00000284   018D               MOVW    R17:R16, R27:R26
   \   00000286   ........           CALL    ??GetAlarmWindowIndex
   \   0000028A   ........           CALL    ??GetAlarmWindowControlPointer
   \   0000028E   E021               LDI     R18, 1
   \   00000290   ........           CALL    ??SetActivityState
    707                              SetFsmState(NOT_ACTIVE_STATE_WAITING);
   \   00000294   E027               LDI     R18, 7
   \   00000296   018D               MOVW    R17:R16, R27:R26
   \   00000298   ........           CALL    ??SetFsmState
   \   0000029C   C0BB               RJMP    ??Fsm_94
    708                          }
    709                      }
    710                  }
    711                  else
    712                  {
    713                      // Дискретный сигнал активен?
    714                      // уровень сигналы типа "СУХОЙ КОНТАКТ" (СК) определяем по состояниям дискретного входа:
    715                      // 2 - обрыв(разомкнуто), и 3 - КЗ(замкнуто).
    716                      if (uiDiscreteSignalState == DISCRETE_SIGNAL_IS_ACTIVE)
   \                     ??Fsm_97:
   \   0000029E   3081               CPI     R24, 1
   \   000002A0   F5B1               BRNE    ??Fsm_99
    717                      {
    718                          // Установим связанные дискретный выходы - новое нарушение.
    719                          CPss21::DiscreteOutputsSet(GetLinkedDiscreteOutputsPointer(), NEW_VIOLATION);
   \   000002A2   018D               MOVW    R17:R16, R27:R26
   \   000002A4   ........           CALL    ??GetLinkedDiscreteOutputsPointer
   \   000002A8   E021               LDI     R18, 1
   \   000002AA   ........           CALL    ??DiscreteOutputsSet
    720                          // Установим тип сигнализации связанному окну в массиве управления окнами извещателя.
    721                          CPss21::SetAlarmWindowType(GetAlarmWindowIndex(), ALARM_TYPE());
   \   000002AE   018D               MOVW    R17:R16, R27:R26
   \   000002B0   01FD               MOVW    R31:R30, R27:R26
   \   000002B2   8121               LDD     R18, Z+1
   \   000002B4   8132               LDD     R19, Z+2
   \   000002B6   01F9               MOVW    R31:R30, R19:R18
   \   000002B8   9634               ADIW    R31:R30, 4
   \   000002BA   9125               LPM     R18, Z+
   \   000002BC   9134               LPM     R19, Z
   \   000002BE   9735               SBIW    R31:R30, 5
   \   000002C0   01F9               MOVW    R31:R30, R19:R18
   \   000002C2   9509               ICALL
   \   000002C4   2F90               MOV     R25, R16
   \   000002C6   018D               MOVW    R17:R16, R27:R26
   \   000002C8   ........           CALL    ??GetAlarmWindowIndex
   \   000002CC   2F19               MOV     R17, R25
   \   000002CE   ........           CALL    ??SetAlarmWindowType
    722                          CPss21::SetAlarmWindowColor(GetAlarmWindowIndex(), ALARM_TYPE());
   \   000002D2   018D               MOVW    R17:R16, R27:R26
   \   000002D4   01FD               MOVW    R31:R30, R27:R26
   \   000002D6   8121               LDD     R18, Z+1
   \   000002D8   8132               LDD     R19, Z+2
   \   000002DA   01F9               MOVW    R31:R30, R19:R18
   \   000002DC   9634               ADIW    R31:R30, 4
   \   000002DE   9125               LPM     R18, Z+
   \   000002E0   9134               LPM     R19, Z
   \   000002E2   9735               SBIW    R31:R30, 5
   \   000002E4   01F9               MOVW    R31:R30, R19:R18
   \   000002E6   9509               ICALL
   \   000002E8   2F90               MOV     R25, R16
   \   000002EA   018D               MOVW    R17:R16, R27:R26
   \   000002EC   ........           CALL    ??GetAlarmWindowIndex
   \   000002F0   2F19               MOV     R17, R25
   \   000002F2   ........           CALL    ??SetAlarmWindowColor
    723                          // Активизируем окно сигнализации, для отображения извещателем.
    724                          CPss21::GetAlarmWindowControlPointer(GetAlarmWindowIndex()) -> SetActivityState(1);
   \   000002F6   018D               MOVW    R17:R16, R27:R26
   \   000002F8   ........           CALL    ??GetAlarmWindowIndex
   \   000002FC   ........           CALL    ??GetAlarmWindowControlPointer
   \   00000300   E021               LDI     R18, 1
   \   00000302   ........           CALL    ??SetActivityState
    725                          SetFsmState(NOT_ACTIVE_STATE_WAITING);
   \   00000306   E027               LDI     R18, 7
   \   00000308   018D               MOVW    R17:R16, R27:R26
   \   0000030A   ........           CALL    ??SetFsmState
    726                      }
    727                  }
    728          
    729                  break;
   \                     ??Fsm_99:
   \   0000030E   C082               RJMP    ??Fsm_94
    730          
    731              case NOT_ACTIVE_STATE_WAITING:
    732                  // тип текущего дискретного сигнала namur?
    733                  if (IS_NAMUR_ON())
   \                     ??Fsm_91:
   \   00000310   018D               MOVW    R17:R16, R27:R26
   \   00000312   01FD               MOVW    R31:R30, R27:R26
   \   00000314   8121               LDD     R18, Z+1
   \   00000316   8132               LDD     R19, Z+2
   \   00000318   01F9               MOVW    R31:R30, R19:R18
   \   0000031A   9638               ADIW    R31:R30, 8
   \   0000031C   9125               LPM     R18, Z+
   \   0000031E   9134               LPM     R19, Z
   \   00000320   9739               SBIW    R31:R30, 9
   \   00000322   01F9               MOVW    R31:R30, R19:R18
   \   00000324   9509               ICALL
   \   00000326   2300               TST     R16
   \   00000328   F011               BREQ    ??Fsm_100
   \   0000032A   E001               LDI     R16, 1
   \   0000032C   C001               RJMP    ??Fsm_101
   \                     ??Fsm_100:
   \   0000032E   E000               LDI     R16, 0
   \                     ??Fsm_101:
   \   00000330   2300               TST     R16
   \   00000332   F129               BREQ    ??Fsm_102
    734                  {
    735                      if (uiDiscreteSignalState == DISCRETE_SIGNAL_IS_NAMUR_ERROR)
   \   00000334   3082               CPI     R24, 2
   \   00000336   F429               BRNE    ??Fsm_103
    736                      {
    737                          SetFsmState(NAMUR_STATE_ON);
   \   00000338   E028               LDI     R18, 8
   \   0000033A   018D               MOVW    R17:R16, R27:R26
   \   0000033C   ........           CALL    ??SetFsmState
   \   00000340   C069               RJMP    ??Fsm_94
    738                      }
    739                      else
    740                      {
    741                          // Дискретный сигнал не активен?
    742                          if (uiDiscreteSignalState == DISCRETE_SIGNAL_IS_NOT_ACTIVE)
   \                     ??Fsm_103:
   \   00000342   2388               TST     R24
   \   00000344   F499               BRNE    ??Fsm_104
    743                          {
    744                              // Установим тип сигнализации связанному окну в массиве управления окнами извещателя.
    745                              CPss21::SetAlarmWindowType(GetAlarmWindowIndex(), NORMAL);
   \   00000346   018D               MOVW    R17:R16, R27:R26
   \   00000348   ........           CALL    ??GetAlarmWindowIndex
   \   0000034C   E010               LDI     R17, 0
   \   0000034E   ........           CALL    ??SetAlarmWindowType
    746                              // Деактмвируем окно сигнализации, для прекращения отображения извещателем.
    747                              CPss21::GetAlarmWindowControlPointer(GetAlarmWindowIndex()) -> SetActivityState(0);
   \   00000352   018D               MOVW    R17:R16, R27:R26
   \   00000354   ........           CALL    ??GetAlarmWindowIndex
   \   00000358   ........           CALL    ??GetAlarmWindowControlPointer
   \   0000035C   E020               LDI     R18, 0
   \   0000035E   ........           CALL    ??SetActivityState
    748                              SetFsmState(ACTIVE_STATE_WAITING);
   \   00000362   E021               LDI     R18, 1
   \   00000364   018D               MOVW    R17:R16, R27:R26
   \   00000366   ........           CALL    ??SetFsmState
   \   0000036A   C054               RJMP    ??Fsm_94
    749                          }
    750                          else if (uiDiscreteSignalState == DISCRETE_SIGNAL_IS_ACTIVE)
   \                     ??Fsm_104:
   \   0000036C   3081               CPI     R24, 1
   \   0000036E   F521               BRNE    ??Fsm_105
    751                          {
    752                              // Установим связанные дискретный выходы - не новое нарушение.
    753                              CPss21::DiscreteOutputsSet(GetLinkedDiscreteOutputsPointer(), NOT_NEW_VIOLATION);
   \   00000370   018D               MOVW    R17:R16, R27:R26
   \   00000372   ........           CALL    ??GetLinkedDiscreteOutputsPointer
   \   00000376   E020               LDI     R18, 0
   \   00000378   ........           CALL    ??DiscreteOutputsSet
   \   0000037C   C04B               RJMP    ??Fsm_94
    754                          }
    755                      }
    756                  }
    757                  else
    758                  {
    759                      // Дискретный сигнал не активен?
    760                      if (uiDiscreteSignalState == DISCRETE_SIGNAL_IS_NOT_ACTIVE)
   \                     ??Fsm_102:
   \   0000037E   2388               TST     R24
   \   00000380   F499               BRNE    ??Fsm_106
    761                      {
    762                          // Установим тип сигнализации связанному окну в массиве управления окнами извещателя.
    763                          CPss21::SetAlarmWindowType(GetAlarmWindowIndex(), NORMAL);
   \   00000382   018D               MOVW    R17:R16, R27:R26
   \   00000384   ........           CALL    ??GetAlarmWindowIndex
   \   00000388   E010               LDI     R17, 0
   \   0000038A   ........           CALL    ??SetAlarmWindowType
    764                          // Деактмвируем окно сигнализации, для прекращения отображения извещателем.
    765                          CPss21::GetAlarmWindowControlPointer(GetAlarmWindowIndex()) -> SetActivityState(0);
   \   0000038E   018D               MOVW    R17:R16, R27:R26
   \   00000390   ........           CALL    ??GetAlarmWindowIndex
   \   00000394   ........           CALL    ??GetAlarmWindowControlPointer
   \   00000398   E020               LDI     R18, 0
   \   0000039A   ........           CALL    ??SetActivityState
    766                          SetFsmState(ACTIVE_STATE_WAITING);
   \   0000039E   E021               LDI     R18, 1
   \   000003A0   018D               MOVW    R17:R16, R27:R26
   \   000003A2   ........           CALL    ??SetFsmState
   \   000003A6   C036               RJMP    ??Fsm_94
    767                      }
    768                      else if (uiDiscreteSignalState == DISCRETE_SIGNAL_IS_ACTIVE)
   \                     ??Fsm_106:
   \   000003A8   3081               CPI     R24, 1
   \   000003AA   F5A1               BRNE    ??Fsm_94
    769                      {
    770                          // Установим связанные дискретный выходы - не новое нарушение.
    771                          CPss21::DiscreteOutputsSet(GetLinkedDiscreteOutputsPointer(), NOT_NEW_VIOLATION);
   \   000003AC   018D               MOVW    R17:R16, R27:R26
   \   000003AE   ........           CALL    ??GetLinkedDiscreteOutputsPointer
   \   000003B2   E020               LDI     R18, 0
   \   000003B4   ........           CALL    ??DiscreteOutputsSet
    772                      }
    773                  }
    774                  break;
   \                     ??Fsm_105:
   \   000003B8   C02D               RJMP    ??Fsm_94
    775          
    776              case NAMUR_STATE_ON:
    777                  // Установим тип сигнализации связанному окну в массиве управления окнами извещателя.
    778                  CPss21::SetAlarmWindowType(GetAlarmWindowIndex(), INDICATION);
   \                     ??Fsm_92:
   \   000003BA   018D               MOVW    R17:R16, R27:R26
   \   000003BC   ........           CALL    ??GetAlarmWindowIndex
   \   000003C0   E011               LDI     R17, 1
   \   000003C2   ........           CALL    ??SetAlarmWindowType
    779                  CPss21::SetAlarmWindowColor(GetAlarmWindowIndex(), NAMUR_INDICATION);
   \   000003C6   018D               MOVW    R17:R16, R27:R26
   \   000003C8   ........           CALL    ??GetAlarmWindowIndex
   \   000003CC   E016               LDI     R17, 6
   \   000003CE   ........           CALL    ??SetAlarmWindowColor
    780                  CPss21::GetAlarmWindowControlPointer(GetAlarmWindowIndex()) -> SetActivityState(1);
   \   000003D2   018D               MOVW    R17:R16, R27:R26
   \   000003D4   ........           CALL    ??GetAlarmWindowIndex
   \   000003D8   ........           CALL    ??GetAlarmWindowControlPointer
   \   000003DC   E021               LDI     R18, 1
   \   000003DE   ........           CALL    ??SetActivityState
    781                  SetFsmState(NAMUR_INPUT_CORRECT_STATE_WAITING);
   \   000003E2   E029               LDI     R18, 9
   \   000003E4   018D               MOVW    R17:R16, R27:R26
   \   000003E6   ........           CALL    ??SetFsmState
    782                  break;
   \   000003EA   C014               RJMP    ??Fsm_94
    783          
    784              case NAMUR_INPUT_CORRECT_STATE_WAITING:
    785                  // Дискретный сигнал NAMUR достоверен?
    786                  if (uiDiscreteSignalState != DISCRETE_SIGNAL_IS_NAMUR_ERROR)
   \                     ??Fsm_93:
   \   000003EC   3082               CPI     R24, 2
   \   000003EE   F091               BREQ    ??Fsm_94
    787                  {
    788                      // Установим тип сигнализации связанному окну в массиве управления окнами извещателя.
    789                      CPss21::SetAlarmWindowType(GetAlarmWindowIndex(), NORMAL);
   \   000003F0   018D               MOVW    R17:R16, R27:R26
   \   000003F2   ........           CALL    ??GetAlarmWindowIndex
   \   000003F6   E010               LDI     R17, 0
   \   000003F8   ........           CALL    ??SetAlarmWindowType
    790                      CPss21::GetAlarmWindowControlPointer(GetAlarmWindowIndex()) -> SetActivityState(0);
   \   000003FC   018D               MOVW    R17:R16, R27:R26
   \   000003FE   ........           CALL    ??GetAlarmWindowIndex
   \   00000402   ........           CALL    ??GetAlarmWindowControlPointer
   \   00000406   E020               LDI     R18, 0
   \   00000408   ........           CALL    ??SetActivityState
    791                      SetFsmState(ACTIVE_STATE_WAITING);
   \   0000040C   E021               LDI     R18, 1
   \   0000040E   018D               MOVW    R17:R16, R27:R26
   \   00000410   ........           CALL    ??SetFsmState
    792                  }
    793                  break;
    794          
    795              default:
    796                  break;
    797              }
    798          }
   \                     ??Fsm_94:
   \   00000414   E0E4               LDI     R30, 4
   \   00000416   ........           JMP     ?EPILOGUE_B4_L09
    799          //-----------------------------------------------------------------------------------------------------
    800          
    801          
    802          
    803          
    804          
    805          
    806          
    807          
    808          //-----------------------------------------------------------------------------------------------------

   \                                 In  segment CODE, align 2, keep-with-next
    809          CIndicationAlarmHighLevelDfa::CIndicationAlarmHighLevelDfa()
   \                     ??CIndicationAlarmHighLevelDfa:
   \   00000000   93BA               ST      -Y, R27
   \   00000002   93AA               ST      -Y, R26
   \   00000004   01D8               MOVW    R27:R26, R17:R16
    810          {
   \   00000006   018D               MOVW    R17:R16, R27:R26
   \   00000008   ....               RCALL   ??CIndicationAlarmLowLevelDfa
   \   0000000A   ....               LDI     R16, LOW(??__vtbl_12)
   \   0000000C   ....               LDI     R17, (??__vtbl_12) >> 8
   \   0000000E   01FD               MOVW    R31:R30, R27:R26
   \   00000010   8301               STD     Z+1, R16
   \   00000012   8312               STD     Z+2, R17
    811              SetFsmState(ACTIVE_STATE_WAITING);
   \   00000014   E021               LDI     R18, 1
   \   00000016   018D               MOVW    R17:R16, R27:R26
   \   00000018   ........           CALL    ??SetFsmState
    812          }
   \   0000001C   018D               MOVW    R17:R16, R27:R26
   \   0000001E   91A9               LD      R26, Y+
   \   00000020   91B9               LD      R27, Y+
   \   00000022   9508               RET
    813          
    814          //-----------------------------------------------------------------------------------------------------

   \                                 In  segment CODE, align 2, keep-with-next
    815          CIndicationAlarmHighLevelDfa::~CIndicationAlarmHighLevelDfa()
   \                     `?~CIndicationAlarmHighLevelDfa`:
    816          {
   \   00000000   ........           CALL    ?PROLOGUE4_L09
   \   00000004   01C8               MOVW    R25:R24, R17:R16
   \   00000006   01D9               MOVW    R27:R26, R19:R18
   \   00000008   2F08               MOV     R16, R24
   \   0000000A   2B09               OR      R16, R25
   \   0000000C   F049               BREQ    `?~CIndicationAlarmHighLevelDfa_1`
    817              //dtor
    818          }
   \   0000000E   E020               LDI     R18, 0
   \   00000010   E030               LDI     R19, 0
   \   00000012   018C               MOVW    R17:R16, R25:R24
   \   00000014   ....               RCALL   `?~CIndicationAlarmLowLevelDfa`
   \   00000016   FBA0               BST     R26, 0
   \   00000018   F41E               BRTC    `?~CIndicationAlarmHighLevelDfa_1`
   \   0000001A   018C               MOVW    R17:R16, R25:R24
   \   0000001C   ........           CALL    `??operator delete`
   \                     `?~CIndicationAlarmHighLevelDfa_1`:
   \   00000020   E0E4               LDI     R30, 4
   \   00000022   ........           JMP     ?EPILOGUE_B4_L09
    819          //-----------------------------------------------------------------------------------------------------
    820          
    821          
    822          //-----------------------------------------------------------------------------------------------------

   \                                 In  segment CODE, align 2, keep-with-next
    823          CIndicationAlarmLowLevelNamurDfa::CIndicationAlarmLowLevelNamurDfa()
   \                     ??CIndicationAlarmLowLevelNamurDfa:
   \   00000000   93BA               ST      -Y, R27
   \   00000002   93AA               ST      -Y, R26
   \   00000004   01D8               MOVW    R27:R26, R17:R16
    824          {
   \   00000006   018D               MOVW    R17:R16, R27:R26
   \   00000008   ....               RCALL   ??CIndicationAlarmLowLevelDfa
   \   0000000A   ....               LDI     R16, LOW(??__vtbl_13)
   \   0000000C   ....               LDI     R17, (??__vtbl_13) >> 8
   \   0000000E   01FD               MOVW    R31:R30, R27:R26
   \   00000010   8301               STD     Z+1, R16
   \   00000012   8312               STD     Z+2, R17
    825              SetFsmState(ACTIVE_STATE_WAITING);
   \   00000014   E021               LDI     R18, 1
   \   00000016   018D               MOVW    R17:R16, R27:R26
   \   00000018   ........           CALL    ??SetFsmState
    826          }
   \   0000001C   018D               MOVW    R17:R16, R27:R26
   \   0000001E   91A9               LD      R26, Y+
   \   00000020   91B9               LD      R27, Y+
   \   00000022   9508               RET
    827          
    828          //-----------------------------------------------------------------------------------------------------

   \                                 In  segment CODE, align 2, keep-with-next
    829          CIndicationAlarmLowLevelNamurDfa::~CIndicationAlarmLowLevelNamurDfa()
   \                     `?~CIndicationAlarmLowLevelNamurDfa`:
    830          {
   \   00000000   ........           CALL    ?PROLOGUE4_L09
   \   00000004   01C8               MOVW    R25:R24, R17:R16
   \   00000006   01D9               MOVW    R27:R26, R19:R18
   \   00000008   2F08               MOV     R16, R24
   \   0000000A   2B09               OR      R16, R25
   \   0000000C   F049               BREQ    `?~CIndicationAlarmLowLevelNamurDfa_1`
    831              //dtor
    832          }
   \   0000000E   E020               LDI     R18, 0
   \   00000010   E030               LDI     R19, 0
   \   00000012   018C               MOVW    R17:R16, R25:R24
   \   00000014   ....               RCALL   `?~CIndicationAlarmLowLevelDfa`
   \   00000016   FBA0               BST     R26, 0
   \   00000018   F41E               BRTC    `?~CIndicationAlarmLowLevelNamurDfa_1`
   \   0000001A   018C               MOVW    R17:R16, R25:R24
   \   0000001C   ........           CALL    `??operator delete`
   \                     `?~CIndicationAlarmLowLevelNamurDfa_1`:
   \   00000020   E0E4               LDI     R30, 4
   \   00000022   ........           JMP     ?EPILOGUE_B4_L09
    833          //-----------------------------------------------------------------------------------------------------

   \                                 In  segment CODE, align 2, keep-with-next
    834          CIndicationAlarmHighLevelNamurDfa::CIndicationAlarmHighLevelNamurDfa()
   \                     ??CIndicationAlarmHighLevelNamurDfa:
   \   00000000   93BA               ST      -Y, R27
   \   00000002   93AA               ST      -Y, R26
   \   00000004   01D8               MOVW    R27:R26, R17:R16
    835          {
   \   00000006   018D               MOVW    R17:R16, R27:R26
   \   00000008   ....               RCALL   ??CIndicationAlarmLowLevelDfa
   \   0000000A   ....               LDI     R16, LOW(??__vtbl_14)
   \   0000000C   ....               LDI     R17, (??__vtbl_14) >> 8
   \   0000000E   01FD               MOVW    R31:R30, R27:R26
   \   00000010   8301               STD     Z+1, R16
   \   00000012   8312               STD     Z+2, R17
    836              SetFsmState(ACTIVE_STATE_WAITING);
   \   00000014   E021               LDI     R18, 1
   \   00000016   018D               MOVW    R17:R16, R27:R26
   \   00000018   ........           CALL    ??SetFsmState
    837          }
   \   0000001C   018D               MOVW    R17:R16, R27:R26
   \   0000001E   91A9               LD      R26, Y+
   \   00000020   91B9               LD      R27, Y+
   \   00000022   9508               RET
    838          
    839          //-----------------------------------------------------------------------------------------------------

   \                                 In  segment CODE, align 2, keep-with-next
    840          CIndicationAlarmHighLevelNamurDfa::~CIndicationAlarmHighLevelNamurDfa()
   \                     `?~CIndicationAlarmHighLevelNamurDfa`:
    841          {
   \   00000000   ........           CALL    ?PROLOGUE4_L09
   \   00000004   01C8               MOVW    R25:R24, R17:R16
   \   00000006   01D9               MOVW    R27:R26, R19:R18
   \   00000008   2F08               MOV     R16, R24
   \   0000000A   2B09               OR      R16, R25
   \   0000000C   F049               BREQ    `?~CIndicationAlarmHighLevelNamurDfa_1`
    842              //dtor
    843          }
   \   0000000E   E020               LDI     R18, 0
   \   00000010   E030               LDI     R19, 0
   \   00000012   018C               MOVW    R17:R16, R25:R24
   \   00000014   ....               RCALL   `?~CIndicationAlarmLowLevelDfa`
   \   00000016   FBA0               BST     R26, 0
   \   00000018   F41E               BRTC    `?~CIndicationAlarmHighLevelNamurDfa_1`
   \   0000001A   018C               MOVW    R17:R16, R25:R24
   \   0000001C   ........           CALL    `??operator delete`
   \                     `?~CIndicationAlarmHighLevelNamurDfa_1`:
   \   00000020   E0E4               LDI     R30, 4
   \   00000022   ........           JMP     ?EPILOGUE_B4_L09
    844          
    845          
    846          
    847          
    848          
    849          
    850          
    851          //-----------------------------------------------------------------------------------------------------

   \                                 In  segment CODE, align 2, keep-with-next
    852          CErrorAlarmDfa::CErrorAlarmDfa()
   \                     ??CErrorAlarmDfa:
   \   00000000   93BA               ST      -Y, R27
   \   00000002   93AA               ST      -Y, R26
   \   00000004   01D8               MOVW    R27:R26, R17:R16
    853          {
   \   00000006   018D               MOVW    R17:R16, R27:R26
   \   00000008   ........           CALL    ??CDfaLite
   \   0000000C   ....               LDI     R16, LOW(??__vtbl_15)
   \   0000000E   ....               LDI     R17, (??__vtbl_15) >> 8
   \   00000010   01FD               MOVW    R31:R30, R27:R26
   \   00000012   8301               STD     Z+1, R16
   \   00000014   8312               STD     Z+2, R17
    854              SetFsmState(ACTIVE_STATE_WAITING);
   \   00000016   E021               LDI     R18, 1
   \   00000018   018D               MOVW    R17:R16, R27:R26
   \   0000001A   ........           CALL    ??SetFsmState
    855          }
   \   0000001E   018D               MOVW    R17:R16, R27:R26
   \   00000020   91A9               LD      R26, Y+
   \   00000022   91B9               LD      R27, Y+
   \   00000024   9508               RET
    856          
    857          //-----------------------------------------------------------------------------------------------------

   \                                 In  segment CODE, align 2, keep-with-next
    858          CErrorAlarmDfa::~CErrorAlarmDfa()
   \                     `?~CErrorAlarmDfa`:
    859          {
   \   00000000   ........           CALL    ?PROLOGUE4_L09
   \   00000004   01C8               MOVW    R25:R24, R17:R16
   \   00000006   01D9               MOVW    R27:R26, R19:R18
   \   00000008   2F08               MOV     R16, R24
   \   0000000A   2B09               OR      R16, R25
   \   0000000C   F051               BREQ    `?~CErrorAlarmDfa_1`
    860              //dtor
    861          }
   \   0000000E   E020               LDI     R18, 0
   \   00000010   E030               LDI     R19, 0
   \   00000012   018C               MOVW    R17:R16, R25:R24
   \   00000014   ........           CALL    `?~CDfaLite`
   \   00000018   FBA0               BST     R26, 0
   \   0000001A   F41E               BRTC    `?~CErrorAlarmDfa_1`
   \   0000001C   018C               MOVW    R17:R16, R25:R24
   \   0000001E   ........           CALL    `??operator delete`
   \                     `?~CErrorAlarmDfa_1`:
   \   00000022   E0E4               LDI     R30, 4
   \   00000024   ........           JMP     ?EPILOGUE_B4_L09
    862          
    863          //-----------------------------------------------------------------------------------------------------
    864          // Автомат обработки системных ошибок.

   \                                 In  segment CODE, align 2, keep-with-next
    865          void CErrorAlarmDfa::Fsm(void)
   \                     ??Fsm_2:
    866          {
   \   00000000   ........           CALL    ?PROLOGUE5_L09
   \   00000004                      REQUIRE ?Register_R4_is_cg_reg
   \   00000004   01D8               MOVW    R27:R26, R17:R16
    867              switch (GetFsmState())
   \   00000006   018D               MOVW    R17:R16, R27:R26
   \   00000008   ........           CALL    ??GetFsmState
   \   0000000C   5000               SUBI    R16, 0
   \   0000000E   F049               BREQ    ??Fsm_107
   \   00000010   950A               DEC     R16
   \   00000012   F041               BREQ    ??Fsm_108
   \   00000014   950A               DEC     R16
   \   00000016   F409               BRNE    $+2+2
   \   00000018   C063               RJMP    ??Fsm_109
   \   0000001A   950A               DEC     R16
   \   0000001C   F409               BRNE    $+2+2
   \   0000001E   C06B               RJMP    ??Fsm_110
   \   00000020   C08B               RJMP    ??Fsm_111
    868              {
    869              case START:
    870                  break;
   \                     ??Fsm_107:
   \   00000022   C08A               RJMP    ??Fsm_111
    871          
    872              case ACTIVE_STATE_WAITING:
    873                  // Дискретный сигнал активен?
    874                  if (CPss21::GetErrorAlarmState(GetDiscreteStateIndex()) ^ ACTIVE_LEVEL())
   \                     ??Fsm_108:
   \   00000024   01FD               MOVW    R31:R30, R27:R26
   \   00000026   8181               LDD     R24, Z+1
   \   00000028   8192               LDD     R25, Z+2
   \   0000002A   9606               ADIW    R25:R24, 6
   \   0000002C   018D               MOVW    R17:R16, R27:R26
   \   0000002E   ........           CALL    ??GetDiscreteStateIndex_1
   \   00000032   ........           CALL    ??GetErrorAlarmState
   \   00000036   2E40               MOV     R4, R16
   \   00000038   018D               MOVW    R17:R16, R27:R26
   \   0000003A   01FC               MOVW    R31:R30, R25:R24
   \   0000003C   9125               LPM     R18, Z+
   \   0000003E   9134               LPM     R19, Z
   \   00000040   9731               SBIW    R31:R30, 1
   \   00000042   01F9               MOVW    R31:R30, R19:R18
   \   00000044   9509               ICALL
   \   00000046   2640               EOR     R4, R16
   \   00000048   2044               TST     R4
   \   0000004A   F011               BREQ    ??Fsm_112
   \   0000004C   E001               LDI     R16, 1
   \   0000004E   C001               RJMP    ??Fsm_113
   \                     ??Fsm_112:
   \   00000050   E000               LDI     R16, 0
   \                     ??Fsm_113:
   \   00000052   2300               TST     R16
   \   00000054   F409               BRNE    $+2+2
   \   00000056   C070               RJMP    ??Fsm_111
    875                  {
    876                      // Тип запрограммированной сигнализации дискретного сигнала имеет более высокий приоритет,
    877                      // чем тип общей сигнализации?
    878                      if ((CPss21::GetCommonAlarmType() != ERROR) &&
    879                              (CPss21::GetCommonAlarmType() < ALARM_TYPE()))
   \   00000058   ........           CALL    ??GetCommonAlarmType
   \   0000005C   3007               CPI     R16, 7
   \   0000005E   F121               BREQ    ??Fsm_114
   \   00000060   01FD               MOVW    R31:R30, R27:R26
   \   00000062   8181               LDD     R24, Z+1
   \   00000064   8192               LDD     R25, Z+2
   \   00000066   9604               ADIW    R25:R24, 4
   \   00000068   ........           CALL    ??GetCommonAlarmType
   \   0000006C   2E40               MOV     R4, R16
   \   0000006E   018D               MOVW    R17:R16, R27:R26
   \   00000070   01FC               MOVW    R31:R30, R25:R24
   \   00000072   9125               LPM     R18, Z+
   \   00000074   9134               LPM     R19, Z
   \   00000076   9731               SBIW    R31:R30, 1
   \   00000078   01F9               MOVW    R31:R30, R19:R18
   \   0000007A   9509               ICALL
   \   0000007C   1640               CP      R4, R16
   \   0000007E   F010               BRCS    ??Fsm_115
   \   00000080   E001               LDI     R16, 1
   \   00000082   C001               RJMP    ??Fsm_116
   \                     ??Fsm_115:
   \   00000084   E000               LDI     R16, 0
   \                     ??Fsm_116:
   \   00000086   2300               TST     R16
   \   00000088   F479               BRNE    ??Fsm_114
    880                      {
    881                          // Установим тип общей сигнализацию.
    882                          CPss21::SetCommonAlarmType(ALARM_TYPE());
   \   0000008A   018D               MOVW    R17:R16, R27:R26
   \   0000008C   9611               ADIW    R27:R26, 1
   \   0000008E   91ED               LD      R30, X+
   \   00000090   91FC               LD      R31, X
   \   00000092   9712               SBIW    R27:R26, 2
   \   00000094   9634               ADIW    R31:R30, 4
   \   00000096   9125               LPM     R18, Z+
   \   00000098   9134               LPM     R19, Z
   \   0000009A   9735               SBIW    R31:R30, 5
   \   0000009C   01F9               MOVW    R31:R30, R19:R18
   \   0000009E   9509               ICALL
   \   000000A0   ........           CALL    ??SetCommonAlarmType
    883          
    884                          // Изменим тип общей сигнализацию.
    885                          CPss21::AlarmTypeErrorChange();
   \   000000A4   ........           CALL    ??AlarmTypeErrorChange
    886                      }
    887          
    888                      CPss21::SetAlarmWindowColor(GetAlarmWindowIndex(), ALARM_TYPE());
   \                     ??Fsm_114:
   \   000000A8   018D               MOVW    R17:R16, R27:R26
   \   000000AA   9611               ADIW    R27:R26, 1
   \   000000AC   91ED               LD      R30, X+
   \   000000AE   91FC               LD      R31, X
   \   000000B0   9712               SBIW    R27:R26, 2
   \   000000B2   9634               ADIW    R31:R30, 4
   \   000000B4   9125               LPM     R18, Z+
   \   000000B6   9134               LPM     R19, Z
   \   000000B8   9735               SBIW    R31:R30, 5
   \   000000BA   01F9               MOVW    R31:R30, R19:R18
   \   000000BC   9509               ICALL
   \   000000BE   2F80               MOV     R24, R16
   \   000000C0   018D               MOVW    R17:R16, R27:R26
   \   000000C2   ........           CALL    ??GetAlarmWindowIndex_1
   \   000000C6   2F18               MOV     R17, R24
   \   000000C8   ........           CALL    ??SetAlarmWindowColor
    889          //            // Установим тип сигнализации связанному окну в массиве управления окнами извещателя.
    890                      CPss21::ErrorWindowOn(GetAlarmWindowIndex());
   \   000000CC   018D               MOVW    R17:R16, R27:R26
   \   000000CE   ........           CALL    ??GetAlarmWindowIndex_1
   \   000000D2   ........           CALL    ??ErrorWindowOn
    891                      SetFsmState(RECEIPT_WAITING);
   \   000000D6   E022               LDI     R18, 2
   \   000000D8   018D               MOVW    R17:R16, R27:R26
   \   000000DA   ........           CALL    ??SetFsmState
    892                  }
    893                  break;
   \   000000DE   C02C               RJMP    ??Fsm_111
    894          
    895              case RECEIPT_WAITING:
    896                  // Событие квитировано?
    897                  if (CPss21::GetDiscreteSignalsReceipt())
   \                     ??Fsm_109:
   \   000000E0   ........           CALL    ??GetDiscreteSignalsReceipt
   \   000000E4   2300               TST     R16
   \   000000E6   F141               BREQ    ??Fsm_111
    898                  {
    899                      // Переведём автоматы сигнализаций в состояние - квитировано.
    900                      CPss21::AlarmTypeReceipt();
   \   000000E8   ........           CALL    ??AlarmTypeReceipt
    901                      SetFsmState(RECEIPTED_NOT_ACTIVE_STATE_WAITING);
   \   000000EC   E023               LDI     R18, 3
   \   000000EE   018D               MOVW    R17:R16, R27:R26
   \   000000F0   ........           CALL    ??SetFsmState
    902                  }
    903                  break;
   \   000000F4   C021               RJMP    ??Fsm_111
    904          
    905              case RECEIPTED_NOT_ACTIVE_STATE_WAITING:
    906                  // Дискретный сигнал не активен?
    907                  if (!(CPss21::GetErrorAlarmState(GetDiscreteStateIndex()) ^ ACTIVE_LEVEL()))
   \                     ??Fsm_110:
   \   000000F6   01FD               MOVW    R31:R30, R27:R26
   \   000000F8   8181               LDD     R24, Z+1
   \   000000FA   8192               LDD     R25, Z+2
   \   000000FC   9606               ADIW    R25:R24, 6
   \   000000FE   018D               MOVW    R17:R16, R27:R26
   \   00000100   ........           CALL    ??GetDiscreteStateIndex_1
   \   00000104   ........           CALL    ??GetErrorAlarmState
   \   00000108   2E40               MOV     R4, R16
   \   0000010A   018D               MOVW    R17:R16, R27:R26
   \   0000010C   01FC               MOVW    R31:R30, R25:R24
   \   0000010E   9125               LPM     R18, Z+
   \   00000110   9134               LPM     R19, Z
   \   00000112   9731               SBIW    R31:R30, 1
   \   00000114   01F9               MOVW    R31:R30, R19:R18
   \   00000116   9509               ICALL
   \   00000118   2640               EOR     R4, R16
   \   0000011A   2044               TST     R4
   \   0000011C   F411               BRNE    ??Fsm_117
   \   0000011E   E001               LDI     R16, 1
   \   00000120   C001               RJMP    ??Fsm_118
   \                     ??Fsm_117:
   \   00000122   E000               LDI     R16, 0
   \                     ??Fsm_118:
   \   00000124   2300               TST     R16
   \   00000126   F041               BREQ    ??Fsm_111
    908                  {
    909                      // Переведём автоматы сигнализаций в состояние - сброшено.
    910                      CPss21::AlarmTypeReset();
   \   00000128   ........           CALL    ??AlarmTypeReset
    911                      CPss21::AllAlarmWindowOff();
   \   0000012C   ........           CALL    ??AllAlarmWindowOff
    912                      SetFsmState(ACTIVE_STATE_WAITING);
   \   00000130   E021               LDI     R18, 1
   \   00000132   018D               MOVW    R17:R16, R27:R26
   \   00000134   ........           CALL    ??SetFsmState
    913                  }
    914                  break;
    915          
    916              default:
    917                  break;
    918              }
    919          }
   \                     ??Fsm_111:
   \   00000138   E0E5               LDI     R30, 5
   \   0000013A   ........           JMP     ?EPILOGUE_B5_L09

   \                                 In  segment SWITCH, align 2, keep-with-next
   \                     `?<Jumptable for Fsm>_0`:
   \   00000000   00                 DB      0
   \   00000001   00                 DB      0
   \   00000002   ....               DW      (??Fsm_34) /2
   \   00000004   000A               DW      10
   \   00000006   ....               DW      (??Fsm_34) /2
   \   00000008   ....               DW      (??Fsm_29) /2
   \   0000000A   ....               DW      (??Fsm_44) /2
   \   0000000C   ....               DW      (??Fsm_38) /2
   \   0000000E   ....               DW      (??Fsm_48) /2
   \   00000010   ....               DW      (??Fsm_53) /2
   \   00000012   ....               DW      (??Fsm_57) /2
   \   00000014   ....               DW      (??Fsm_34) /2
   \   00000016   ....               DW      (??Fsm_61) /2
   \   00000018   ....               DW      (??Fsm_62) /2

   \                                 In  segment CODE, align 2, keep-with-next
   \   __version_3 CAlarmDfa &CAlarmDfa::new CAlarmDfa()
   \                     `??new CAlarmDfa`:
   \   00000000   E006               LDI     R16, 6
   \   00000002   E010               LDI     R17, 0
   \   00000004   ........           CALL    `??operator new`
   \   00000008   2F20               MOV     R18, R16
   \   0000000A   2B21               OR      R18, R17
   \   0000000C   F011               BREQ    `??new CAlarmDfa_1`
   \   0000000E   ....               RCALL   ??CAlarmDfa
   \   00000010   9508               RET
   \                     `??new CAlarmDfa_1`:
   \   00000012   E000               LDI     R16, 0
   \   00000014   E010               LDI     R17, 0
   \   00000016   9508               RET

   \                                 In  segment CODE, align 2, keep-with-next
   \   __version_3 CNormalAlarmDfa &CNormalAlarmDfa::new CNormalAlarmDfa()
   \                     `??new CNormalAlarmDfa`:
   \   00000000   E006               LDI     R16, 6
   \   00000002   E010               LDI     R17, 0
   \   00000004   ........           CALL    `??operator new`
   \   00000008   2F20               MOV     R18, R16
   \   0000000A   2B21               OR      R18, R17
   \   0000000C   F011               BREQ    `??new CNormalAlarmDfa_1`
   \   0000000E   ....               RCALL   ??CNormalAlarmDfa
   \   00000010   9508               RET
   \                     `??new CNormalAlarmDfa_1`:
   \   00000012   E000               LDI     R16, 0
   \   00000014   E010               LDI     R17, 0
   \   00000016   9508               RET

   \                                 In  segment CODE, align 2, keep-with-next
   \   __version_3 CPreventiveAlarmLowLevelDfa &CPreventiveAlarmLowLevelDfa::new CPreventiveAlarmLowLevelDfa()
   \                     `??new CPreventiveAlarmLowLevelDfa`:
   \   00000000   E006               LDI     R16, 6
   \   00000002   E010               LDI     R17, 0
   \   00000004   ........           CALL    `??operator new`
   \   00000008   2F20               MOV     R18, R16
   \   0000000A   2B21               OR      R18, R17
   \   0000000C   F011               BREQ    `??new CPreventiveAlarmLowLevelDfa_1`
   \   0000000E   ....               RCALL   ??CPreventiveAlarmLowLevelDfa
   \   00000010   9508               RET
   \                     `??new CPreventiveAlarmLowLevelDfa_1`:
   \   00000012   E000               LDI     R16, 0
   \   00000014   E010               LDI     R17, 0
   \   00000016   9508               RET

   \                                 In  segment CODE, align 2, keep-with-next
   \   __version_3 CPreventiveAlarmHighLevelDfa &CPreventiveAlarmHighLevelDfa::new CPreventiveAlarmHighLevelDfa()
   \                     `??new CPreventiveAlarmHighLevelDfa`:
   \   00000000   E006               LDI     R16, 6
   \   00000002   E010               LDI     R17, 0
   \   00000004   ........           CALL    `??operator new`
   \   00000008   2F20               MOV     R18, R16
   \   0000000A   2B21               OR      R18, R17
   \   0000000C   F011               BREQ    `??new CPreventiveAlarmHighLevelDfa_1`
   \   0000000E   ....               RCALL   ??CPreventiveAlarmHighLevelDfa
   \   00000010   9508               RET
   \                     `??new CPreventiveAlarmHighLevelDfa_1`:
   \   00000012   E000               LDI     R16, 0
   \   00000014   E010               LDI     R17, 0
   \   00000016   9508               RET

   \                                 In  segment CODE, align 2, keep-with-next
   \   __version_3 CPreventiveAlarmLowLevelNamurDfa &CPreventiveAlarmLowLevelNamurDfa::new CPreventiveAlarmLowLevelNamurDfa()
   \                     `??new CPreventiveAlarmLowLevelNamurDfa`:
   \   00000000   E006               LDI     R16, 6
   \   00000002   E010               LDI     R17, 0
   \   00000004   ........           CALL    `??operator new`
   \   00000008   2F20               MOV     R18, R16
   \   0000000A   2B21               OR      R18, R17
   \   0000000C   F011               BREQ    `??new CPreventiveAlarmLowLevelNamurDfa_1`
   \   0000000E   ....               RCALL   ??CPreventiveAlarmLowLevelNamurDfa
   \   00000010   9508               RET
   \                     `??new CPreventiveAlarmLowLevelNamurDfa_1`:
   \   00000012   E000               LDI     R16, 0
   \   00000014   E010               LDI     R17, 0
   \   00000016   9508               RET

   \                                 In  segment CODE, align 2, keep-with-next
   \   __version_3 CPreventiveAlarmHighLevelNamurDfa &CPreventiveAlarmHighLevelNamurDfa::new CPreventiveAlarmHighLevelNamurDfa()
   \                     `??new CPreventiveAlarmHighLevelNamurDfa`:
   \   00000000   E006               LDI     R16, 6
   \   00000002   E010               LDI     R17, 0
   \   00000004   ........           CALL    `??operator new`
   \   00000008   2F20               MOV     R18, R16
   \   0000000A   2B21               OR      R18, R17
   \   0000000C   F011               BREQ    `??new CPreventiveAlarmHighLevelNamurDfa_1`
   \   0000000E   ....               RCALL   ??CPreventiveAlarmHighLevelNamurDfa
   \   00000010   9508               RET
   \                     `??new CPreventiveAlarmHighLevelNamurDfa_1`:
   \   00000012   E000               LDI     R16, 0
   \   00000014   E010               LDI     R17, 0
   \   00000016   9508               RET

   \                                 In  segment CODE, align 2, keep-with-next
   \   __version_3 CEmergencyAlarmLowLevelDfa &CEmergencyAlarmLowLevelDfa::new CEmergencyAlarmLowLevelDfa()
   \                     `??new CEmergencyAlarmLowLevelDfa`:
   \   00000000   E006               LDI     R16, 6
   \   00000002   E010               LDI     R17, 0
   \   00000004   ........           CALL    `??operator new`
   \   00000008   2F20               MOV     R18, R16
   \   0000000A   2B21               OR      R18, R17
   \   0000000C   F011               BREQ    `??new CEmergencyAlarmLowLevelDfa_1`
   \   0000000E   ....               RCALL   ??CEmergencyAlarmLowLevelDfa
   \   00000010   9508               RET
   \                     `??new CEmergencyAlarmLowLevelDfa_1`:
   \   00000012   E000               LDI     R16, 0
   \   00000014   E010               LDI     R17, 0
   \   00000016   9508               RET

   \                                 In  segment CODE, align 2, keep-with-next
   \   __version_3 CEmergencyAlarmHighLevelDfa &CEmergencyAlarmHighLevelDfa::new CEmergencyAlarmHighLevelDfa()
   \                     `??new CEmergencyAlarmHighLevelDfa`:
   \   00000000   E006               LDI     R16, 6
   \   00000002   E010               LDI     R17, 0
   \   00000004   ........           CALL    `??operator new`
   \   00000008   2F20               MOV     R18, R16
   \   0000000A   2B21               OR      R18, R17
   \   0000000C   F011               BREQ    `??new CEmergencyAlarmHighLevelDfa_1`
   \   0000000E   ....               RCALL   ??CEmergencyAlarmHighLevelDfa
   \   00000010   9508               RET
   \                     `??new CEmergencyAlarmHighLevelDfa_1`:
   \   00000012   E000               LDI     R16, 0
   \   00000014   E010               LDI     R17, 0
   \   00000016   9508               RET

   \                                 In  segment CODE, align 2, keep-with-next
   \   __version_3 CEmergencyAlarmLowLevelNamurDfa &CEmergencyAlarmLowLevelNamurDfa::new CEmergencyAlarmLowLevelNamurDfa()
   \                     `??new CEmergencyAlarmLowLevelNamurDfa`:
   \   00000000   E006               LDI     R16, 6
   \   00000002   E010               LDI     R17, 0
   \   00000004   ........           CALL    `??operator new`
   \   00000008   2F20               MOV     R18, R16
   \   0000000A   2B21               OR      R18, R17
   \   0000000C   F011               BREQ    `??new CEmergencyAlarmLowLevelNamurDfa_1`
   \   0000000E   ....               RCALL   ??CEmergencyAlarmLowLevelNamurDfa
   \   00000010   9508               RET
   \                     `??new CEmergencyAlarmLowLevelNamurDfa_1`:
   \   00000012   E000               LDI     R16, 0
   \   00000014   E010               LDI     R17, 0
   \   00000016   9508               RET

   \                                 In  segment CODE, align 2, keep-with-next
   \   __version_3 CEmergencyAlarmHighLevelNamurDfa &CEmergencyAlarmHighLevelNamurDfa::new CEmergencyAlarmHighLevelNamurDfa()
   \                     `??new CEmergencyAlarmHighLevelNamurDfa`:
   \   00000000   E006               LDI     R16, 6
   \   00000002   E010               LDI     R17, 0
   \   00000004   ........           CALL    `??operator new`
   \   00000008   2F20               MOV     R18, R16
   \   0000000A   2B21               OR      R18, R17
   \   0000000C   F011               BREQ    `??new CEmergencyAlarmHighLevelNamurDfa_1`
   \   0000000E   ....               RCALL   ??CEmergencyAlarmHighLevelNamurDfa
   \   00000010   9508               RET
   \                     `??new CEmergencyAlarmHighLevelNamurDfa_1`:
   \   00000012   E000               LDI     R16, 0
   \   00000014   E010               LDI     R17, 0
   \   00000016   9508               RET

   \                                 In  segment CODE, align 2, keep-with-next
   \   __version_3 CIndicationAlarmLowLevelDfa &CIndicationAlarmLowLevelDfa::new CIndicationAlarmLowLevelDfa()
   \                     `??new CIndicationAlarmLowLevelDfa`:
   \   00000000   E006               LDI     R16, 6
   \   00000002   E010               LDI     R17, 0
   \   00000004   ........           CALL    `??operator new`
   \   00000008   2F20               MOV     R18, R16
   \   0000000A   2B21               OR      R18, R17
   \   0000000C   F011               BREQ    `??new CIndicationAlarmLowLevelDfa_1`
   \   0000000E   ....               RCALL   ??CIndicationAlarmLowLevelDfa
   \   00000010   9508               RET
   \                     `??new CIndicationAlarmLowLevelDfa_1`:
   \   00000012   E000               LDI     R16, 0
   \   00000014   E010               LDI     R17, 0
   \   00000016   9508               RET

   \                                 In  segment CODE, align 2, keep-with-next
   \   __version_3 CIndicationAlarmHighLevelDfa &CIndicationAlarmHighLevelDfa::new CIndicationAlarmHighLevelDfa()
   \                     `??new CIndicationAlarmHighLevelDfa`:
   \   00000000   E006               LDI     R16, 6
   \   00000002   E010               LDI     R17, 0
   \   00000004   ........           CALL    `??operator new`
   \   00000008   2F20               MOV     R18, R16
   \   0000000A   2B21               OR      R18, R17
   \   0000000C   F011               BREQ    `??new CIndicationAlarmHighLevelDfa_1`
   \   0000000E   ....               RCALL   ??CIndicationAlarmHighLevelDfa
   \   00000010   9508               RET
   \                     `??new CIndicationAlarmHighLevelDfa_1`:
   \   00000012   E000               LDI     R16, 0
   \   00000014   E010               LDI     R17, 0
   \   00000016   9508               RET

   \                                 In  segment CODE, align 2, keep-with-next
   \   __version_3 CIndicationAlarmLowLevelNamurDfa &CIndicationAlarmLowLevelNamurDfa::new CIndicationAlarmLowLevelNamurDfa()
   \                     `??new CIndicationAlarmLowLevelNamurDfa`:
   \   00000000   E006               LDI     R16, 6
   \   00000002   E010               LDI     R17, 0
   \   00000004   ........           CALL    `??operator new`
   \   00000008   2F20               MOV     R18, R16
   \   0000000A   2B21               OR      R18, R17
   \   0000000C   F011               BREQ    `??new CIndicationAlarmLowLevelNamurDfa_1`
   \   0000000E   ....               RCALL   ??CIndicationAlarmLowLevelNamurDfa
   \   00000010   9508               RET
   \                     `??new CIndicationAlarmLowLevelNamurDfa_1`:
   \   00000012   E000               LDI     R16, 0
   \   00000014   E010               LDI     R17, 0
   \   00000016   9508               RET

   \                                 In  segment CODE, align 2, keep-with-next
   \   __version_3 CIndicationAlarmHighLevelNamurDfa &CIndicationAlarmHighLevelNamurDfa::new CIndicationAlarmHighLevelNamurDfa()
   \                     `??new CIndicationAlarmHighLevelNamurDfa`:
   \   00000000   E006               LDI     R16, 6
   \   00000002   E010               LDI     R17, 0
   \   00000004   ........           CALL    `??operator new`
   \   00000008   2F20               MOV     R18, R16
   \   0000000A   2B21               OR      R18, R17
   \   0000000C   F011               BREQ    `??new CIndicationAlarmHighLevelNamurDfa_1`
   \   0000000E   ....               RCALL   ??CIndicationAlarmHighLevelNamurDfa
   \   00000010   9508               RET
   \                     `??new CIndicationAlarmHighLevelNamurDfa_1`:
   \   00000012   E000               LDI     R16, 0
   \   00000014   E010               LDI     R17, 0
   \   00000016   9508               RET

   \                                 In  segment CODE, align 2, keep-with-next
   \   __version_3 CErrorAlarmDfa &CErrorAlarmDfa::new CErrorAlarmDfa()
   \                     `??new CErrorAlarmDfa`:
   \   00000000   E005               LDI     R16, 5
   \   00000002   E010               LDI     R17, 0
   \   00000004   ........           CALL    `??operator new`
   \   00000008   2F20               MOV     R18, R16
   \   0000000A   2B21               OR      R18, R17
   \   0000000C   F011               BREQ    `??new CErrorAlarmDfa_1`
   \   0000000E   ....               RCALL   ??CErrorAlarmDfa
   \   00000010   9508               RET
   \                     `??new CErrorAlarmDfa_1`:
   \   00000012   E000               LDI     R16, 0
   \   00000014   E010               LDI     R17, 0
   \   00000016   9508               RET
    920          //-----------------------------------------------------------------------------------------------------
    921          
    922          
    923          
    924          
    925          
    926          
    927          
    928          
    929          
    930          ////-----------------------------------------------------------------------------------------------------
    931          //CInputModuleErrorAlarmDfa::CInputModuleErrorAlarmDfa()
    932          //{
    933          //    SetFsmState(START);
    934          //}
    935          //
    936          ////-----------------------------------------------------------------------------------------------------
    937          //CInputModuleErrorAlarmDfa::~CInputModuleErrorAlarmDfa()
    938          //{
    939          //    //dtor
    940          //}
    941          //
    942          ////-----------------------------------------------------------------------------------------------------
    943          //
    944          //
    945          //
    946          //
    947          //
    948          //
    949          //
    950          //
    951          ////-----------------------------------------------------------------------------------------------------
    952          //COutpuModuleErrorAlarmDfa::COutpuModuleErrorAlarmDfa()
    953          //{
    954          //    SetFsmState(START);
    955          //}
    956          //
    957          ////-----------------------------------------------------------------------------------------------------
    958          //COutpuModuleErrorAlarmDfa::~COutpuModuleErrorAlarmDfa()
    959          //{
    960          //    //dtor
    961          //}
    962          //
    963          ////-----------------------------------------------------------------------------------------------------
    964          
    965          
    966          
    967          
    968          
    969          
    970          

   Maximum stack usage in bytes:

   CSTACK RSTACK Function
   ------ ------ --------
      0      2   CAlarmDfa::ACTIVE_LEVEL()
      0      2   CAlarmDfa::ALARM_TYPE()
      2      2   CAlarmDfa::CAlarmDfa()
        2      2   -> CDfaLite::CDfaLite()
      4      2   CAlarmDfa::Fsm()
        4      2   -- Indirect call
        4      2   -> CAlarmDfa::GetAlarmWindowIndex()
        4      2   -> CAlarmDfa::GetDiscreteStateIndex()
        4      2   -> CAlarmDfa::GetLinkedDiscreteOutputsPointer()
        4      2   -> CAlarmWindow::SetActivityState(uint8_t)
        4      2   -> CDfaLite::GetFsmState()
        4      2   -> CDfaLite::SetFsmState(uint8_t)
        4      2   -> CPss21::DiscreteOutputsSet(uint8_t *, uint8_t)
        4      2   -> CPss21::GetAlarmWindowControlPointer(uint8_t)
        4      2   -> CPss21::GetDiscreteInputsBadState(uint8_t)
        4      2   -> CPss21::GetDiscreteSignalsReceipt()
        4      2   -> CPss21::GetDiscreteSignalsReset()
        4      2   -> CPss21::SetAlarmWindowColor(uint8_t, uint8_t)
        4      2   -> CPss21::SetAlarmWindowType(uint8_t, uint8_t)
        4      2   -> CPss21::SetDiscreteInputState(uint8_t, uint8_t)
        4      2 ?CV_SWITCH_L06
      0      2   CAlarmDfa::GetAlarmWindowIndex()
      0      2   CAlarmDfa::GetDiscreteStateIndex()
      0      2   CAlarmDfa::GetLinkedDiscreteOutputsPointer()
      0      2   CAlarmDfa::IS_NAMUR_ON()
      0      2   CAlarmDfa::new CAlarmDfa()
        0      2   -> CAlarmDfa::CAlarmDfa()
        0      2   -> operator new(unsigned int)
      4      2   CAlarmDfa::~CAlarmDfa()
        4      2   -> CDfaLite::~CDfaLite()
        4      2   -> operator delete(void *)
      0      2   CAlarmWindow::SetActivityState(uint8_t)
      0      2   CDfaLite::GetFsmState()
      0      2   CDfaLite::SetFsmState(uint8_t)
      0      2   CEmergencyAlarmHighLevelDfa::ACTIVE_LEVEL()
      0      2   CEmergencyAlarmHighLevelDfa::ALARM_TYPE()
      2      2   CEmergencyAlarmHighLevelDfa::CEmergencyAlarmHighLevelDfa()
        2      2   -> CAlarmDfa::CAlarmDfa()
        2      2   -> CDfaLite::SetFsmState(uint8_t)
      0      2   CEmergencyAlarmHighLevelDfa::IS_NAMUR_ON()
      0      2   CEmergencyAlarmHighLevelDfa::new CEmergencyAlarmHighLevelDfa()
        0      2   -> CEmergencyAlarmHighLevelDfa::CEmergencyAlarmHighLevelDfa()
        0      2   -> operator new(unsigned int)
      4      2   CEmergencyAlarmHighLevelDfa::~CEmergencyAlarmHighLevelDfa()
        4      2   -> CAlarmDfa::~CAlarmDfa()
        4      2   -> operator delete(void *)
      0      2   CEmergencyAlarmHighLevelNamurDfa::ACTIVE_LEVEL()
      0      2   CEmergencyAlarmHighLevelNamurDfa::ALARM_TYPE()
      2      2   CEmergencyAlarmHighLevelNamurDfa::CEmergencyAlarmHighLevelNamurDfa()
        2      2   -> CAlarmDfa::CAlarmDfa()
        2      2   -> CDfaLite::SetFsmState(uint8_t)
      0      2   CEmergencyAlarmHighLevelNamurDfa::IS_NAMUR_ON()
      0      2   CEmergencyAlarmHighLevelNamurDfa::new CEmergencyAlarmHighLevelNamurDfa()
        0      2   -> CEmergencyAlarmHighLevelNamurDfa::CEmergencyAlarmHighLevelNamurDfa()
        0      2   -> operator new(unsigned int)
      4      2   CEmergencyAlarmHighLevelNamurDfa::~CEmergencyAlarmHighLevelNamurDfa()
        4      2   -> CAlarmDfa::~CAlarmDfa()
        4      2   -> operator delete(void *)
      0      2   CEmergencyAlarmLowLevelDfa::ACTIVE_LEVEL()
      0      2   CEmergencyAlarmLowLevelDfa::ALARM_TYPE()
      2      2   CEmergencyAlarmLowLevelDfa::CEmergencyAlarmLowLevelDfa()
        2      2   -> CAlarmDfa::CAlarmDfa()
        2      2   -> CDfaLite::SetFsmState(uint8_t)
      0      2   CEmergencyAlarmLowLevelDfa::IS_NAMUR_ON()
      0      2   CEmergencyAlarmLowLevelDfa::new CEmergencyAlarmLowLevelDfa()
        0      2   -> CEmergencyAlarmLowLevelDfa::CEmergencyAlarmLowLevelDfa()
        0      2   -> operator new(unsigned int)
      4      2   CEmergencyAlarmLowLevelDfa::~CEmergencyAlarmLowLevelDfa()
        4      2   -> CAlarmDfa::~CAlarmDfa()
        4      2   -> operator delete(void *)
      0      2   CEmergencyAlarmLowLevelNamurDfa::ACTIVE_LEVEL()
      0      2   CEmergencyAlarmLowLevelNamurDfa::ALARM_TYPE()
      2      2   CEmergencyAlarmLowLevelNamurDfa::CEmergencyAlarmLowLevelNamurDfa()
        2      2   -> CAlarmDfa::CAlarmDfa()
        2      2   -> CDfaLite::SetFsmState(uint8_t)
      0      2   CEmergencyAlarmLowLevelNamurDfa::IS_NAMUR_ON()
      0      2   CEmergencyAlarmLowLevelNamurDfa::new CEmergencyAlarmLowLevelNamurDfa()
        0      2   -> CEmergencyAlarmLowLevelNamurDfa::CEmergencyAlarmLowLevelNamurDfa()
        0      2   -> operator new(unsigned int)
      4      2   CEmergencyAlarmLowLevelNamurDfa::~CEmergencyAlarmLowLevelNamurDfa()
        4      2   -> CAlarmDfa::~CAlarmDfa()
        4      2   -> operator delete(void *)
      0      2   CErrorAlarmDfa::ACTIVE_LEVEL()
      0      2   CErrorAlarmDfa::ALARM_TYPE()
      2      2   CErrorAlarmDfa::CErrorAlarmDfa()
        2      2   -> CDfaLite::CDfaLite()
        2      2   -> CDfaLite::SetFsmState(uint8_t)
      5      2   CErrorAlarmDfa::Fsm()
        5      2   -- Indirect call
        5      2   -> CDfaLite::GetFsmState()
        5      2   -> CDfaLite::SetFsmState(uint8_t)
        5      2   -> CErrorAlarmDfa::GetAlarmWindowIndex()
        5      2   -> CErrorAlarmDfa::GetDiscreteStateIndex()
        5      2   -> CPss21::AlarmTypeErrorChange()
        5      2   -> CPss21::AlarmTypeReceipt()
        5      2   -> CPss21::AlarmTypeReset()
        5      2   -> CPss21::AllAlarmWindowOff()
        5      2   -> CPss21::ErrorWindowOn(uint8_t)
        5      2   -> CPss21::GetCommonAlarmType()
        5      2   -> CPss21::GetDiscreteSignalsReceipt()
        5      2   -> CPss21::GetErrorAlarmState(uint8_t)
        5      2   -> CPss21::SetAlarmWindowColor(uint8_t, uint8_t)
        5      2   -> CPss21::SetCommonAlarmType(uint8_t)
      0      2   CErrorAlarmDfa::GetAlarmWindowIndex()
      0      2   CErrorAlarmDfa::GetDiscreteStateIndex()
      0      2   CErrorAlarmDfa::new CErrorAlarmDfa()
        0      2   -> CErrorAlarmDfa::CErrorAlarmDfa()
        0      2   -> operator new(unsigned int)
      4      2   CErrorAlarmDfa::~CErrorAlarmDfa()
        4      2   -> CDfaLite::~CDfaLite()
        4      2   -> operator delete(void *)
      0      2   CIndicationAlarmHighLevelDfa::ACTIVE_LEVEL()
      0      2   CIndicationAlarmHighLevelDfa::ALARM_TYPE()
      2      2   CIndicationAlarmHighLevelDfa::CIndicationAlarmHighLevelDfa()
        2      2   -> CDfaLite::SetFsmState(uint8_t)
        2      2   -> CIndicationAlarmLowLevelDfa::CIndicationAlarmLowLevelDfa()
      0      2   CIndicationAlarmHighLevelDfa::IS_NAMUR_ON()
      0      2   CIndicationAlarmHighLevelDfa::new CIndicationAlarmHighLevelDfa()
        0      2   -> CIndicationAlarmHighLevelDfa::CIndicationAlarmHighLevelDfa()
        0      2   -> operator new(unsigned int)
      4      2   CIndicationAlarmHighLevelDfa::~CIndicationAlarmHighLevelDfa()
        4      2   -> CIndicationAlarmLowLevelDfa::~CIndicationAlarmLowLevelDfa()
        4      2   -> operator delete(void *)
      0      2   CIndicationAlarmHighLevelNamurDfa::ACTIVE_LEVEL()
      0      2   CIndicationAlarmHighLevelNamurDfa::ALARM_TYPE()
      2      2   CIndicationAlarmHighLevelNamurDfa::CIndicationAlarmHighLevelNamurDfa()
        2      2   -> CDfaLite::SetFsmState(uint8_t)
        2      2   -> CIndicationAlarmLowLevelDfa::CIndicationAlarmLowLevelDfa()
      0      2   CIndicationAlarmHighLevelNamurDfa::IS_NAMUR_ON()
      0      2   CIndicationAlarmHighLevelNamurDfa::new CIndicationAlarmHighLevelNamurDfa()
        0      2   -> CIndicationAlarmHighLevelNamurDfa::CIndicationAlarmHighLevelNamurDfa()
        0      2   -> operator new(unsigned int)
      4      2   CIndicationAlarmHighLevelNamurDfa::~CIndicationAlarmHighLevelNamurDfa()
        4      2   -> CIndicationAlarmLowLevelDfa::~CIndicationAlarmLowLevelDfa()
        4      2   -> operator delete(void *)
      0      2   CIndicationAlarmLowLevelDfa::ACTIVE_LEVEL()
      0      2   CIndicationAlarmLowLevelDfa::ALARM_TYPE()
      2      2   CIndicationAlarmLowLevelDfa::CIndicationAlarmLowLevelDfa()
        2      2   -> CAlarmDfa::CAlarmDfa()
        2      2   -> CDfaLite::SetFsmState(uint8_t)
      4      2   CIndicationAlarmLowLevelDfa::Fsm()
        4      2   -- Indirect call
        4      2   -> CAlarmDfa::GetAlarmWindowIndex()
        4      2   -> CAlarmDfa::GetDiscreteStateIndex()
        4      2   -> CAlarmDfa::GetLinkedDiscreteOutputsPointer()
        4      2   -> CAlarmWindow::SetActivityState(uint8_t)
        4      2   -> CDfaLite::GetFsmState()
        4      2   -> CDfaLite::SetFsmState(uint8_t)
        4      2   -> CPss21::DiscreteOutputsSet(uint8_t *, uint8_t)
        4      2   -> CPss21::GetAlarmWindowControlPointer(uint8_t)
        4      2   -> CPss21::GetDiscreteInputsBadState(uint8_t)
        4      2   -> CPss21::SetAlarmWindowColor(uint8_t, uint8_t)
        4      2   -> CPss21::SetAlarmWindowType(uint8_t, uint8_t)
        4      2   -> CPss21::SetDiscreteInputState(uint8_t, uint8_t)
      0      2   CIndicationAlarmLowLevelDfa::IS_NAMUR_ON()
      0      2   CIndicationAlarmLowLevelDfa::new CIndicationAlarmLowLevelDfa()
        0      2   -> CIndicationAlarmLowLevelDfa::CIndicationAlarmLowLevelDfa()
        0      2   -> operator new(unsigned int)
      4      2   CIndicationAlarmLowLevelDfa::~CIndicationAlarmLowLevelDfa()
        4      2   -> CAlarmDfa::~CAlarmDfa()
        4      2   -> operator delete(void *)
      0      2   CIndicationAlarmLowLevelNamurDfa::ACTIVE_LEVEL()
      0      2   CIndicationAlarmLowLevelNamurDfa::ALARM_TYPE()
      2      2   CIndicationAlarmLowLevelNamurDfa::CIndicationAlarmLowLevelNamurDfa()
        2      2   -> CDfaLite::SetFsmState(uint8_t)
        2      2   -> CIndicationAlarmLowLevelDfa::CIndicationAlarmLowLevelDfa()
      0      2   CIndicationAlarmLowLevelNamurDfa::IS_NAMUR_ON()
      0      2   CIndicationAlarmLowLevelNamurDfa::new CIndicationAlarmLowLevelNamurDfa()
        0      2   -> CIndicationAlarmLowLevelNamurDfa::CIndicationAlarmLowLevelNamurDfa()
        0      2   -> operator new(unsigned int)
      4      2   CIndicationAlarmLowLevelNamurDfa::~CIndicationAlarmLowLevelNamurDfa()
        4      2   -> CIndicationAlarmLowLevelDfa::~CIndicationAlarmLowLevelDfa()
        4      2   -> operator delete(void *)
      0      2   CNormalAlarmDfa::ACTIVE_LEVEL()
      0      2   CNormalAlarmDfa::ALARM_TYPE()
      2      2   CNormalAlarmDfa::CNormalAlarmDfa()
        2      2   -> CAlarmDfa::CAlarmDfa()
        2      2   -> CDfaLite::SetFsmState(uint8_t)
      0      2   CNormalAlarmDfa::IS_NAMUR_ON()
      0      2   CNormalAlarmDfa::new CNormalAlarmDfa()
        0      2   -> CNormalAlarmDfa::CNormalAlarmDfa()
        0      2   -> operator new(unsigned int)
      4      2   CNormalAlarmDfa::~CNormalAlarmDfa()
        4      2   -> CAlarmDfa::~CAlarmDfa()
        4      2   -> operator delete(void *)
      0      2   CPreventiveAlarmHighLevelDfa::ACTIVE_LEVEL()
      0      2   CPreventiveAlarmHighLevelDfa::ALARM_TYPE()
      2      2   CPreventiveAlarmHighLevelDfa::CPreventiveAlarmHighLevelDfa()
        2      2   -> CAlarmDfa::CAlarmDfa()
        2      2   -> CDfaLite::SetFsmState(uint8_t)
      0      2   CPreventiveAlarmHighLevelDfa::IS_NAMUR_ON()
      0      2   CPreventiveAlarmHighLevelDfa::new CPreventiveAlarmHighLevelDfa()
        0      2   -> CPreventiveAlarmHighLevelDfa::CPreventiveAlarmHighLevelDfa()
        0      2   -> operator new(unsigned int)
      4      2   CPreventiveAlarmHighLevelDfa::~CPreventiveAlarmHighLevelDfa()
        4      2   -> CAlarmDfa::~CAlarmDfa()
        4      2   -> operator delete(void *)
      0      2   CPreventiveAlarmHighLevelNamurDfa::ACTIVE_LEVEL()
      0      2   CPreventiveAlarmHighLevelNamurDfa::ALARM_TYPE()
      2      2   CPreventiveAlarmHighLevelNamurDfa::CPreventiveAlarmHighLevelNamurDfa()
        2      2   -> CAlarmDfa::CAlarmDfa()
        2      2   -> CDfaLite::SetFsmState(uint8_t)
      0      2   CPreventiveAlarmHighLevelNamurDfa::IS_NAMUR_ON()
      0      2   CPreventiveAlarmHighLevelNamurDfa::new CPreventiveAlarmHighLevelNamurDfa()
        0      2   -> CPreventiveAlarmHighLevelNamurDfa::CPreventiveAlarmHighLevelNamurDfa()
        0      2   -> operator new(unsigned int)
      4      2   CPreventiveAlarmHighLevelNamurDfa::~CPreventiveAlarmHighLevelNamurDfa()
        4      2   -> CAlarmDfa::~CAlarmDfa()
        4      2   -> operator delete(void *)
      0      2   CPreventiveAlarmLowLevelDfa::ACTIVE_LEVEL()
      0      2   CPreventiveAlarmLowLevelDfa::ALARM_TYPE()
      2      2   CPreventiveAlarmLowLevelDfa::CPreventiveAlarmLowLevelDfa()
        2      2   -> CAlarmDfa::CAlarmDfa()
        2      2   -> CDfaLite::SetFsmState(uint8_t)
      0      2   CPreventiveAlarmLowLevelDfa::IS_NAMUR_ON()
      0      2   CPreventiveAlarmLowLevelDfa::new CPreventiveAlarmLowLevelDfa()
        0      2   -> CPreventiveAlarmLowLevelDfa::CPreventiveAlarmLowLevelDfa()
        0      2   -> operator new(unsigned int)
      4      2   CPreventiveAlarmLowLevelDfa::~CPreventiveAlarmLowLevelDfa()
        4      2   -> CAlarmDfa::~CAlarmDfa()
        4      2   -> operator delete(void *)
      0      2   CPreventiveAlarmLowLevelNamurDfa::ACTIVE_LEVEL()
      0      2   CPreventiveAlarmLowLevelNamurDfa::ALARM_TYPE()
      2      2   CPreventiveAlarmLowLevelNamurDfa::CPreventiveAlarmLowLevelNamurDfa()
        2      2   -> CAlarmDfa::CAlarmDfa()
        2      2   -> CDfaLite::SetFsmState(uint8_t)
      0      2   CPreventiveAlarmLowLevelNamurDfa::IS_NAMUR_ON()
      0      2   CPreventiveAlarmLowLevelNamurDfa::new CPreventiveAlarmLowLevelNamurDfa()
        0      2   -> CPreventiveAlarmLowLevelNamurDfa::CPreventiveAlarmLowLevelNamurDfa()
        0      2   -> operator new(unsigned int)
      4      2   CPreventiveAlarmLowLevelNamurDfa::~CPreventiveAlarmLowLevelNamurDfa()
        4      2   -> CAlarmDfa::~CAlarmDfa()
        4      2   -> operator delete(void *)
      0      2   CPss21::GetAlarmWindowControlPointer(uint8_t)
        0      2 ?S_EC_MUL_L02
      0      2   CPss21::GetCommonAlarmType()
      0      2   CPss21::GetDiscreteSignalsReceipt()
      0      2   CPss21::GetDiscreteSignalsReset()
      0      2   CPss21::SetCommonAlarmType(uint8_t)


   Segment part sizes:

   Bytes  Function/Label
   -----  --------------
      26  ?<Jumptable for Fsm>_0
       6  CAlarmDfa::ACTIVE_LEVEL()
       6  CAlarmDfa::ALARM_TYPE()
      30  CAlarmDfa::CAlarmDfa()
    1326  CAlarmDfa::Fsm()
       6  CAlarmDfa::GetAlarmWindowIndex()
       6  CAlarmDfa::GetDiscreteStateIndex()
       6  CAlarmDfa::GetLinkedDiscreteOutputsPointer()
       6  CAlarmDfa::IS_NAMUR_ON()
      24  CAlarmDfa::new CAlarmDfa()
      40  CAlarmDfa::~CAlarmDfa()
       6  CAlarmWindow::SetActivityState(uint8_t)
       6  CDfaLite::GetFsmState()
       6  CDfaLite::SetFsmState(uint8_t)
       6  CEmergencyAlarmHighLevelDfa::ACTIVE_LEVEL()
       6  CEmergencyAlarmHighLevelDfa::ALARM_TYPE()
      36  CEmergencyAlarmHighLevelDfa::CEmergencyAlarmHighLevelDfa()
       6  CEmergencyAlarmHighLevelDfa::IS_NAMUR_ON()
      24  CEmergencyAlarmHighLevelDfa::new CEmergencyAlarmHighLevelDfa()
      38  CEmergencyAlarmHighLevelDfa::~CEmergencyAlarmHighLevelDfa()
       6  CEmergencyAlarmHighLevelNamurDfa::ACTIVE_LEVEL()
       6  CEmergencyAlarmHighLevelNamurDfa::ALARM_TYPE()
      36  CEmergencyAlarmHighLevelNamurDfa::CEmergencyAlarmHighLevelNamurDfa()
       6  CEmergencyAlarmHighLevelNamurDfa::IS_NAMUR_ON()
      24  CEmergencyAlarmHighLevelNamurDfa::new CEmergencyAlarmHighLevelNamurDfa()
      38  CEmergencyAlarmHighLevelNamurDfa::~CEmergencyAlarmHighLevelNamurDfa()
       6  CEmergencyAlarmLowLevelDfa::ACTIVE_LEVEL()
       6  CEmergencyAlarmLowLevelDfa::ALARM_TYPE()
      36  CEmergencyAlarmLowLevelDfa::CEmergencyAlarmLowLevelDfa()
       6  CEmergencyAlarmLowLevelDfa::IS_NAMUR_ON()
      24  CEmergencyAlarmLowLevelDfa::new CEmergencyAlarmLowLevelDfa()
      38  CEmergencyAlarmLowLevelDfa::~CEmergencyAlarmLowLevelDfa()
       6  CEmergencyAlarmLowLevelNamurDfa::ACTIVE_LEVEL()
       6  CEmergencyAlarmLowLevelNamurDfa::ALARM_TYPE()
      36  CEmergencyAlarmLowLevelNamurDfa::CEmergencyAlarmLowLevelNamurDfa()
       6  CEmergencyAlarmLowLevelNamurDfa::IS_NAMUR_ON()
      24  CEmergencyAlarmLowLevelNamurDfa::new CEmergencyAlarmLowLevelNamurDfa()
      38  CEmergencyAlarmLowLevelNamurDfa::~CEmergencyAlarmLowLevelNamurDfa()
       6  CErrorAlarmDfa::ACTIVE_LEVEL()
       6  CErrorAlarmDfa::ALARM_TYPE()
      38  CErrorAlarmDfa::CErrorAlarmDfa()
     318  CErrorAlarmDfa::Fsm()
       6  CErrorAlarmDfa::GetAlarmWindowIndex()
       6  CErrorAlarmDfa::GetDiscreteStateIndex()
      24  CErrorAlarmDfa::new CErrorAlarmDfa()
      40  CErrorAlarmDfa::~CErrorAlarmDfa()
       6  CIndicationAlarmHighLevelDfa::ACTIVE_LEVEL()
       6  CIndicationAlarmHighLevelDfa::ALARM_TYPE()
      36  CIndicationAlarmHighLevelDfa::CIndicationAlarmHighLevelDfa()
       6  CIndicationAlarmHighLevelDfa::IS_NAMUR_ON()
      24  CIndicationAlarmHighLevelDfa::new CIndicationAlarmHighLevelDfa()
      38  CIndicationAlarmHighLevelDfa::~CIndicationAlarmHighLevelDfa()
       6  CIndicationAlarmHighLevelNamurDfa::ACTIVE_LEVEL()
       6  CIndicationAlarmHighLevelNamurDfa::ALARM_TYPE()
      36  CIndicationAlarmHighLevelNamurDfa::CIndicationAlarmHighLevelNamurDfa()
       6  CIndicationAlarmHighLevelNamurDfa::IS_NAMUR_ON()
      24  CIndicationAlarmHighLevelNamurDfa::new CIndicationAlarmHighLevelNamurDfa()
      38  CIndicationAlarmHighLevelNamurDfa::~CIndicationAlarmHighLevelNamurDfa()
       6  CIndicationAlarmLowLevelDfa::ACTIVE_LEVEL()
       6  CIndicationAlarmLowLevelDfa::ALARM_TYPE()
      36  CIndicationAlarmLowLevelDfa::CIndicationAlarmLowLevelDfa()
    1050  CIndicationAlarmLowLevelDfa::Fsm()
       6  CIndicationAlarmLowLevelDfa::IS_NAMUR_ON()
      24  CIndicationAlarmLowLevelDfa::new CIndicationAlarmLowLevelDfa()
      38  CIndicationAlarmLowLevelDfa::~CIndicationAlarmLowLevelDfa()
       6  CIndicationAlarmLowLevelNamurDfa::ACTIVE_LEVEL()
       6  CIndicationAlarmLowLevelNamurDfa::ALARM_TYPE()
      36  CIndicationAlarmLowLevelNamurDfa::CIndicationAlarmLowLevelNamurDfa()
       6  CIndicationAlarmLowLevelNamurDfa::IS_NAMUR_ON()
      24  CIndicationAlarmLowLevelNamurDfa::new CIndicationAlarmLowLevelNamurDfa()
      38  CIndicationAlarmLowLevelNamurDfa::~CIndicationAlarmLowLevelNamurDfa()
       6  CNormalAlarmDfa::ACTIVE_LEVEL()
       6  CNormalAlarmDfa::ALARM_TYPE()
      36  CNormalAlarmDfa::CNormalAlarmDfa()
       6  CNormalAlarmDfa::IS_NAMUR_ON()
      24  CNormalAlarmDfa::new CNormalAlarmDfa()
      38  CNormalAlarmDfa::~CNormalAlarmDfa()
       6  CPreventiveAlarmHighLevelDfa::ACTIVE_LEVEL()
       6  CPreventiveAlarmHighLevelDfa::ALARM_TYPE()
      36  CPreventiveAlarmHighLevelDfa::CPreventiveAlarmHighLevelDfa()
       6  CPreventiveAlarmHighLevelDfa::IS_NAMUR_ON()
      24  CPreventiveAlarmHighLevelDfa::new CPreventiveAlarmHighLevelDfa()
      38  CPreventiveAlarmHighLevelDfa::~CPreventiveAlarmHighLevelDfa()
       6  CPreventiveAlarmHighLevelNamurDfa::ACTIVE_LEVEL()
       6  CPreventiveAlarmHighLevelNamurDfa::ALARM_TYPE()
      36  CPreventiveAlarmHighLevelNamurDfa::CPreventiveAlarmHighLevelNamurDfa()
       6  CPreventiveAlarmHighLevelNamurDfa::IS_NAMUR_ON()
      24  CPreventiveAlarmHighLevelNamurDfa::new CPreventiveAlarmHighLevelNamurDfa()
      38  CPreventiveAlarmHighLevelNamurDfa::~CPreventiveAlarmHighLevelNamurDfa()
       6  CPreventiveAlarmLowLevelDfa::ACTIVE_LEVEL()
       6  CPreventiveAlarmLowLevelDfa::ALARM_TYPE()
      36  CPreventiveAlarmLowLevelDfa::CPreventiveAlarmLowLevelDfa()
       6  CPreventiveAlarmLowLevelDfa::IS_NAMUR_ON()
      24  CPreventiveAlarmLowLevelDfa::new CPreventiveAlarmLowLevelDfa()
      38  CPreventiveAlarmLowLevelDfa::~CPreventiveAlarmLowLevelDfa()
       6  CPreventiveAlarmLowLevelNamurDfa::ACTIVE_LEVEL()
       6  CPreventiveAlarmLowLevelNamurDfa::ALARM_TYPE()
      36  CPreventiveAlarmLowLevelNamurDfa::CPreventiveAlarmLowLevelNamurDfa()
       6  CPreventiveAlarmLowLevelNamurDfa::IS_NAMUR_ON()
      24  CPreventiveAlarmLowLevelNamurDfa::new CPreventiveAlarmLowLevelNamurDfa()
      38  CPreventiveAlarmLowLevelNamurDfa::~CPreventiveAlarmLowLevelNamurDfa()
      22  CPss21::GetAlarmWindowControlPointer(uint8_t)
       6  CPss21::GetCommonAlarmType()
       6  CPss21::GetDiscreteSignalsReceipt()
       6  CPss21::GetDiscreteSignalsReset()
       6  CPss21::SetCommonAlarmType(uint8_t)
       1  _A_ACSR
       2  _A_ADC
       1  _A_ADCSRA
       1  _A_ADMUX
       1  _A_ASSR
       1  _A_DDRA
       1  _A_DDRB
       1  _A_DDRC
       1  _A_DDRD
       1  _A_DDRE
       1  _A_DDRF
       1  _A_DDRG
       2  _A_EEAR
       1  _A_EECR
       1  _A_EEDR
       1  _A_EICRA
       1  _A_EICRB
       1  _A_EIFR
       1  _A_EIMSK
       1  _A_ETIFR
       1  _A_ETIMSK
       2  _A_ICR1
       2  _A_ICR3
       1  _A_MCUCR
       1  _A_MCUCSR
       1  _A_OCDR
       1  _A_OCR0
       2  _A_OCR1A
       2  _A_OCR1B
       2  _A_OCR1C
       1  _A_OCR2
       2  _A_OCR3A
       2  _A_OCR3B
       2  _A_OCR3C
       1  _A_OSCCAL
       1  _A_PINA
       1  _A_PINB
       1  _A_PINC
       1  _A_PIND
       1  _A_PINE
       1  _A_PINF
       1  _A_PING
       1  _A_PORTA
       1  _A_PORTB
       1  _A_PORTC
       1  _A_PORTD
       1  _A_PORTE
       1  _A_PORTF
       1  _A_PORTG
       1  _A_RAMPZ
       1  _A_SFIOR
       2  _A_SP
       1  _A_SPCR
       1  _A_SPDR
       1  _A_SPMCSR
       1  _A_SPSR
       1  _A_SREG
       1  _A_TCCR0
       1  _A_TCCR1A
       1  _A_TCCR1B
       1  _A_TCCR1C
       1  _A_TCCR2
       1  _A_TCCR3A
       1  _A_TCCR3B
       1  _A_TCCR3C
       1  _A_TCNT0
       2  _A_TCNT1
       1  _A_TCNT2
       2  _A_TCNT3
       1  _A_TIFR
       1  _A_TIMSK
       1  _A_TWAR
       1  _A_TWBR
       1  _A_TWCR
       1  _A_TWDR
       1  _A_TWSR
       1  _A_UBRR0H
       1  _A_UBRR0L
       1  _A_UBRR1H
       1  _A_UBRR1L
       1  _A_UCSR0A
       1  _A_UCSR0B
       1  _A_UCSR0C
       1  _A_UCSR1A
       1  _A_UCSR1B
       1  _A_UCSR1C
       1  _A_UDR0
       1  _A_UDR1
       1  _A_WDTCR
       1  _A_XDIV
       1  _A_XMCRA
       1  _A_XMCRB
     170  -- Other

 
   105 bytes in segment ABSOLUTE
 4 522 bytes in segment CODE
   170 bytes in segment NEAR_F
    26 bytes in segment SWITCH
 
 4 212 bytes of CODE memory (+ 506 bytes shared)
     0 bytes of DATA memory (+ 105 bytes shared)

Errors: none
Warnings: 7
