###############################################################################
#
# IAR C/C++ Compiler V7.10.6.1378 for Atmel AVR           10/Sep/2024  08:30:04
# Copyright 1996-2018 IAR Systems AB.
#
#    Source file  =  
#        D:\Projects\CurrentProjects\CautoProjects\PSS48Color\src\Alarm.cpp
#    Command line =  
#        -f C:\Users\Admin\AppData\Local\Temp\EW9274.tmp
#        (--string_literals_in_flash
#        D:\Projects\CurrentProjects\CautoProjects\PSS48Color\src\Alarm.cpp
#        --cpu=m128a -ms -o
#        D:\Projects\CurrentProjects\CautoProjects\PSS48Color\Debug\Obj -lC
#        D:\Projects\CurrentProjects\CautoProjects\PSS48Color\Debug\List -lB
#        D:\Projects\CurrentProjects\CautoProjects\PSS48Color\Debug\List -y
#        --initializers_in_flash --root_variables --no_cse --no_inline
#        --no_code_motion --no_cross_call --no_clustering --no_tbaa --debug
#        -DENABLE_BIT_DEFINITIONS -e -I
#        D:\Projects\CurrentProjects\CautoProjects\PSS48Color\Modbus\ -I
#        D:\Projects\CurrentProjects\CautoProjects\PSS48Color\include\
#        --eeprom_size 4096 --dlib --dlib_config "C:\Program Files (x86)\IAR
#        Systems\Embedded Workbench 8.0\avr\LIB\DLIB\dlAVR-3s-ec_mul-n.h" -On
#        --eec++)
#    Locale       =  Russian_RUS.1251
#    List file    =  
#        D:\Projects\CurrentProjects\CautoProjects\PSS48Color\Debug\List\Alarm.lst
#    Object file  =  
#        D:\Projects\CurrentProjects\CautoProjects\PSS48Color\Debug\Obj\Alarm.r90
#
###############################################################################

D:\Projects\CurrentProjects\CautoProjects\PSS48Color\src\Alarm.cpp
      1          //-----------------------------------------------------------------------------------------------------
      2          //  Source      : FileName.cpp
      3          //  Created     : 01.06.2022
      4          //  Author      : Alexandr Volvenkin
      5          //  email       : aav-36@mail.ru
      6          //  GitHub      : https://github.com/AlexandrVolvenkin
      7          //-----------------------------------------------------------------------------------------------------
      8          #include "Dfa.h"

   \                                 In  segment CODE, align 2, keep-with-next
   \   __version_3 void CDfaLite::SetFsmState(uint8_t)
   \                     ??SetFsmState:
   \   00000000   01F8               MOVW    R31:R30, R17:R16
   \   00000002   8320               ST      Z, R18
   \   00000004   9508               RET

   \                                 In  segment CODE, align 2, keep-with-next
   \   __version_3 uint8_t CDfaLite::GetFsmState()
   \                     ??GetFsmState:
   \   00000000   01F8               MOVW    R31:R30, R17:R16
   \   00000002   8100               LD      R16, Z
   \   00000004   9508               RET
      9          #include "Platform.h"

   \                                 In  segment ABSOLUTE, at 0x9d, root
   \   union <unnamed> volatile __io _A_UCSR1C
   \                     _A_UCSR1C:
   \   00000000                      DS8 1

   \                                 In  segment ABSOLUTE, at 0x9c, root
   \   union <unnamed> volatile __io _A_UDR1
   \                     _A_UDR1:
   \   00000000                      DS8 1

   \                                 In  segment ABSOLUTE, at 0x9b, root
   \   union <unnamed> volatile __io _A_UCSR1A
   \                     _A_UCSR1A:
   \   00000000                      DS8 1

   \                                 In  segment ABSOLUTE, at 0x9a, root
   \   union <unnamed> volatile __io _A_UCSR1B
   \                     _A_UCSR1B:
   \   00000000                      DS8 1

   \                                 In  segment ABSOLUTE, at 0x99, root
   \   union <unnamed> volatile __io _A_UBRR1L
   \                     _A_UBRR1L:
   \   00000000                      DS8 1

   \                                 In  segment ABSOLUTE, at 0x98, root
   \   union <unnamed> volatile __io _A_UBRR1H
   \                     _A_UBRR1H:
   \   00000000                      DS8 1

   \                                 In  segment ABSOLUTE, at 0x95, root
   \   union <unnamed> volatile __io _A_UCSR0C
   \                     _A_UCSR0C:
   \   00000000                      DS8 1

   \                                 In  segment ABSOLUTE, at 0x90, root
   \   union <unnamed> volatile __io _A_UBRR0H
   \                     _A_UBRR0H:
   \   00000000                      DS8 1

   \                                 In  segment ABSOLUTE, at 0x8c, root
   \   union <unnamed> volatile __io _A_TCCR3C
   \                     _A_TCCR3C:
   \   00000000                      DS8 1

   \                                 In  segment ABSOLUTE, at 0x8b, root
   \   union <unnamed> volatile __io _A_TCCR3A
   \                     _A_TCCR3A:
   \   00000000                      DS8 1

   \                                 In  segment ABSOLUTE, at 0x8a, root
   \   union <unnamed> volatile __io _A_TCCR3B
   \                     _A_TCCR3B:
   \   00000000                      DS8 1

   \                                 In  segment ABSOLUTE, at 0x88, root
   \   union <unnamed> volatile __io _A_TCNT3
   \                     _A_TCNT3:
   \   00000000                      DS8 2

   \                                 In  segment ABSOLUTE, at 0x86, root
   \   union <unnamed> volatile __io _A_OCR3A
   \                     _A_OCR3A:
   \   00000000                      DS8 2

   \                                 In  segment ABSOLUTE, at 0x84, root
   \   union <unnamed> volatile __io _A_OCR3B
   \                     _A_OCR3B:
   \   00000000                      DS8 2

   \                                 In  segment ABSOLUTE, at 0x82, root
   \   union <unnamed> volatile __io _A_OCR3C
   \                     _A_OCR3C:
   \   00000000                      DS8 2

   \                                 In  segment ABSOLUTE, at 0x80, root
   \   union <unnamed> volatile __io _A_ICR3
   \                     _A_ICR3:
   \   00000000                      DS8 2

   \                                 In  segment ABSOLUTE, at 0x7d, root
   \   union <unnamed> volatile __io _A_ETIMSK
   \                     _A_ETIMSK:
   \   00000000                      DS8 1

   \                                 In  segment ABSOLUTE, at 0x7c, root
   \   union <unnamed> volatile __io _A_ETIFR
   \                     _A_ETIFR:
   \   00000000                      DS8 1

   \                                 In  segment ABSOLUTE, at 0x7a, root
   \   union <unnamed> volatile __io _A_TCCR1C
   \                     _A_TCCR1C:
   \   00000000                      DS8 1

   \                                 In  segment ABSOLUTE, at 0x78, root
   \   union <unnamed> volatile __io _A_OCR1C
   \                     _A_OCR1C:
   \   00000000                      DS8 2

   \                                 In  segment ABSOLUTE, at 0x74, root
   \   union <unnamed> volatile __io _A_TWCR
   \                     _A_TWCR:
   \   00000000                      DS8 1

   \                                 In  segment ABSOLUTE, at 0x73, root
   \   union <unnamed> volatile __io _A_TWDR
   \                     _A_TWDR:
   \   00000000                      DS8 1

   \                                 In  segment ABSOLUTE, at 0x72, root
   \   union <unnamed> volatile __io _A_TWAR
   \                     _A_TWAR:
   \   00000000                      DS8 1

   \                                 In  segment ABSOLUTE, at 0x71, root
   \   union <unnamed> volatile __io _A_TWSR
   \                     _A_TWSR:
   \   00000000                      DS8 1

   \                                 In  segment ABSOLUTE, at 0x70, root
   \   union <unnamed> volatile __io _A_TWBR
   \                     _A_TWBR:
   \   00000000                      DS8 1

   \                                 In  segment ABSOLUTE, at 0x6f, root
   \   union <unnamed> volatile __io _A_OSCCAL
   \                     _A_OSCCAL:
   \   00000000                      DS8 1

   \                                 In  segment ABSOLUTE, at 0x6d, root
   \   union <unnamed> volatile __io _A_XMCRA
   \                     _A_XMCRA:
   \   00000000                      DS8 1

   \                                 In  segment ABSOLUTE, at 0x6c, root
   \   union <unnamed> volatile __io _A_XMCRB
   \                     _A_XMCRB:
   \   00000000                      DS8 1

   \                                 In  segment ABSOLUTE, at 0x6a, root
   \   union <unnamed> volatile __io _A_EICRA
   \                     _A_EICRA:
   \   00000000                      DS8 1

   \                                 In  segment ABSOLUTE, at 0x68, root
   \   union <unnamed> volatile __io _A_SPMCSR
   \                     _A_SPMCSR:
   \   00000000                      DS8 1

   \                                 In  segment ABSOLUTE, at 0x65, root
   \   union <unnamed> volatile __io _A_PORTG
   \                     _A_PORTG:
   \   00000000                      DS8 1

   \                                 In  segment ABSOLUTE, at 0x64, root
   \   union <unnamed> volatile __io _A_DDRG
   \                     _A_DDRG:
   \   00000000                      DS8 1

   \                                 In  segment ABSOLUTE, at 0x63, root
   \   union <unnamed> volatile __io _A_PING
   \                     _A_PING:
   \   00000000                      DS8 1

   \                                 In  segment ABSOLUTE, at 0x62, root
   \   union <unnamed> volatile __io _A_PORTF
   \                     _A_PORTF:
   \   00000000                      DS8 1

   \                                 In  segment ABSOLUTE, at 0x61, root
   \   union <unnamed> volatile __io _A_DDRF
   \                     _A_DDRF:
   \   00000000                      DS8 1

   \                                 In  segment ABSOLUTE, at 0x5f, root
   \   union <unnamed> volatile __io _A_SREG
   \                     _A_SREG:
   \   00000000                      DS8 1

   \                                 In  segment ABSOLUTE, at 0x5d, root
   \   union <unnamed> volatile __io _A_SP
   \                     _A_SP:
   \   00000000                      DS8 2

   \                                 In  segment ABSOLUTE, at 0x5c, root
   \   union <unnamed> volatile __io _A_XDIV
   \                     _A_XDIV:
   \   00000000                      DS8 1

   \                                 In  segment ABSOLUTE, at 0x5b, root
   \   union <unnamed> volatile __io _A_RAMPZ
   \                     _A_RAMPZ:
   \   00000000                      DS8 1

   \                                 In  segment ABSOLUTE, at 0x5a, root
   \   union <unnamed> volatile __io _A_EICRB
   \                     _A_EICRB:
   \   00000000                      DS8 1

   \                                 In  segment ABSOLUTE, at 0x59, root
   \   union <unnamed> volatile __io _A_EIMSK
   \                     _A_EIMSK:
   \   00000000                      DS8 1

   \                                 In  segment ABSOLUTE, at 0x58, root
   \   union <unnamed> volatile __io _A_EIFR
   \                     _A_EIFR:
   \   00000000                      DS8 1

   \                                 In  segment ABSOLUTE, at 0x57, root
   \   union <unnamed> volatile __io _A_TIMSK
   \                     _A_TIMSK:
   \   00000000                      DS8 1

   \                                 In  segment ABSOLUTE, at 0x56, root
   \   union <unnamed> volatile __io _A_TIFR
   \                     _A_TIFR:
   \   00000000                      DS8 1

   \                                 In  segment ABSOLUTE, at 0x55, root
   \   union <unnamed> volatile __io _A_MCUCR
   \                     _A_MCUCR:
   \   00000000                      DS8 1

   \                                 In  segment ABSOLUTE, at 0x54, root
   \   union <unnamed> volatile __io _A_MCUCSR
   \                     _A_MCUCSR:
   \   00000000                      DS8 1

   \                                 In  segment ABSOLUTE, at 0x53, root
   \   union <unnamed> volatile __io _A_TCCR0
   \                     _A_TCCR0:
   \   00000000                      DS8 1

   \                                 In  segment ABSOLUTE, at 0x52, root
   \   union <unnamed> volatile __io _A_TCNT0
   \                     _A_TCNT0:
   \   00000000                      DS8 1

   \                                 In  segment ABSOLUTE, at 0x51, root
   \   union <unnamed> volatile __io _A_OCR0
   \                     _A_OCR0:
   \   00000000                      DS8 1

   \                                 In  segment ABSOLUTE, at 0x50, root
   \   union <unnamed> volatile __io _A_ASSR
   \                     _A_ASSR:
   \   00000000                      DS8 1

   \                                 In  segment ABSOLUTE, at 0x4f, root
   \   union <unnamed> volatile __io _A_TCCR1A
   \                     _A_TCCR1A:
   \   00000000                      DS8 1

   \                                 In  segment ABSOLUTE, at 0x4e, root
   \   union <unnamed> volatile __io _A_TCCR1B
   \                     _A_TCCR1B:
   \   00000000                      DS8 1

   \                                 In  segment ABSOLUTE, at 0x4c, root
   \   union <unnamed> volatile __io _A_TCNT1
   \                     _A_TCNT1:
   \   00000000                      DS8 2

   \                                 In  segment ABSOLUTE, at 0x4a, root
   \   union <unnamed> volatile __io _A_OCR1A
   \                     _A_OCR1A:
   \   00000000                      DS8 2

   \                                 In  segment ABSOLUTE, at 0x48, root
   \   union <unnamed> volatile __io _A_OCR1B
   \                     _A_OCR1B:
   \   00000000                      DS8 2

   \                                 In  segment ABSOLUTE, at 0x46, root
   \   union <unnamed> volatile __io _A_ICR1
   \                     _A_ICR1:
   \   00000000                      DS8 2

   \                                 In  segment ABSOLUTE, at 0x45, root
   \   union <unnamed> volatile __io _A_TCCR2
   \                     _A_TCCR2:
   \   00000000                      DS8 1

   \                                 In  segment ABSOLUTE, at 0x44, root
   \   union <unnamed> volatile __io _A_TCNT2
   \                     _A_TCNT2:
   \   00000000                      DS8 1

   \                                 In  segment ABSOLUTE, at 0x43, root
   \   union <unnamed> volatile __io _A_OCR2
   \                     _A_OCR2:
   \   00000000                      DS8 1

   \                                 In  segment ABSOLUTE, at 0x42, root
   \   union <unnamed> volatile __io _A_OCDR
   \                     _A_OCDR:
   \   00000000                      DS8 1

   \                                 In  segment ABSOLUTE, at 0x41, root
   \   union <unnamed> volatile __io _A_WDTCR
   \                     _A_WDTCR:
   \   00000000                      DS8 1

   \                                 In  segment ABSOLUTE, at 0x40, root
   \   union <unnamed> volatile __io _A_SFIOR
   \                     _A_SFIOR:
   \   00000000                      DS8 1

   \                                 In  segment ABSOLUTE, at 0x3e, root
   \   union <unnamed> volatile __io _A_EEAR
   \                     _A_EEAR:
   \   00000000                      DS8 2

   \                                 In  segment ABSOLUTE, at 0x3d, root
   \   union <unnamed> volatile __io _A_EEDR
   \                     _A_EEDR:
   \   00000000                      DS8 1

   \                                 In  segment ABSOLUTE, at 0x3c, root
   \   union <unnamed> volatile __io _A_EECR
   \                     _A_EECR:
   \   00000000                      DS8 1

   \                                 In  segment ABSOLUTE, at 0x3b, root
   \   union <unnamed> volatile __io _A_PORTA
   \                     _A_PORTA:
   \   00000000                      DS8 1

   \                                 In  segment ABSOLUTE, at 0x3a, root
   \   union <unnamed> volatile __io _A_DDRA
   \                     _A_DDRA:
   \   00000000                      DS8 1

   \                                 In  segment ABSOLUTE, at 0x39, root
   \   union <unnamed> volatile __io _A_PINA
   \                     _A_PINA:
   \   00000000                      DS8 1

   \                                 In  segment ABSOLUTE, at 0x38, root
   \   union <unnamed> volatile __io _A_PORTB
   \                     _A_PORTB:
   \   00000000                      DS8 1

   \                                 In  segment ABSOLUTE, at 0x37, root
   \   union <unnamed> volatile __io _A_DDRB
   \                     _A_DDRB:
   \   00000000                      DS8 1

   \                                 In  segment ABSOLUTE, at 0x36, root
   \   union <unnamed> volatile __io _A_PINB
   \                     _A_PINB:
   \   00000000                      DS8 1

   \                                 In  segment ABSOLUTE, at 0x35, root
   \   union <unnamed> volatile __io _A_PORTC
   \                     _A_PORTC:
   \   00000000                      DS8 1

   \                                 In  segment ABSOLUTE, at 0x34, root
   \   union <unnamed> volatile __io _A_DDRC
   \                     _A_DDRC:
   \   00000000                      DS8 1

   \                                 In  segment ABSOLUTE, at 0x33, root
   \   union <unnamed> volatile __io _A_PINC
   \                     _A_PINC:
   \   00000000                      DS8 1

   \                                 In  segment ABSOLUTE, at 0x32, root
   \   union <unnamed> volatile __io _A_PORTD
   \                     _A_PORTD:
   \   00000000                      DS8 1

   \                                 In  segment ABSOLUTE, at 0x31, root
   \   union <unnamed> volatile __io _A_DDRD
   \                     _A_DDRD:
   \   00000000                      DS8 1

   \                                 In  segment ABSOLUTE, at 0x30, root
   \   union <unnamed> volatile __io _A_PIND
   \                     _A_PIND:
   \   00000000                      DS8 1

   \                                 In  segment ABSOLUTE, at 0x2f, root
   \   union <unnamed> volatile __io _A_SPDR
   \                     _A_SPDR:
   \   00000000                      DS8 1

   \                                 In  segment ABSOLUTE, at 0x2e, root
   \   union <unnamed> volatile __io _A_SPSR
   \                     _A_SPSR:
   \   00000000                      DS8 1

   \                                 In  segment ABSOLUTE, at 0x2d, root
   \   union <unnamed> volatile __io _A_SPCR
   \                     _A_SPCR:
   \   00000000                      DS8 1

   \                                 In  segment ABSOLUTE, at 0x2c, root
   \   union <unnamed> volatile __io _A_UDR0
   \                     _A_UDR0:
   \   00000000                      DS8 1

   \                                 In  segment ABSOLUTE, at 0x2b, root
   \   union <unnamed> volatile __io _A_UCSR0A
   \                     _A_UCSR0A:
   \   00000000                      DS8 1

   \                                 In  segment ABSOLUTE, at 0x2a, root
   \   union <unnamed> volatile __io _A_UCSR0B
   \                     _A_UCSR0B:
   \   00000000                      DS8 1

   \                                 In  segment ABSOLUTE, at 0x29, root
   \   union <unnamed> volatile __io _A_UBRR0L
   \                     _A_UBRR0L:
   \   00000000                      DS8 1

   \                                 In  segment ABSOLUTE, at 0x28, root
   \   union <unnamed> volatile __io _A_ACSR
   \                     _A_ACSR:
   \   00000000                      DS8 1

   \                                 In  segment ABSOLUTE, at 0x27, root
   \   union <unnamed> volatile __io _A_ADMUX
   \                     _A_ADMUX:
   \   00000000                      DS8 1

   \                                 In  segment ABSOLUTE, at 0x26, root
   \   union <unnamed> volatile __io _A_ADCSRA
   \                     _A_ADCSRA:
   \   00000000                      DS8 1

   \                                 In  segment ABSOLUTE, at 0x24, root
   \   union <unnamed> volatile __io _A_ADC
   \                     _A_ADC:
   \   00000000                      DS8 2

   \                                 In  segment ABSOLUTE, at 0x23, root
   \   union <unnamed> volatile __io _A_PORTE
   \                     _A_PORTE:
   \   00000000                      DS8 1

   \                                 In  segment ABSOLUTE, at 0x22, root
   \   union <unnamed> volatile __io _A_DDRE
   \                     _A_DDRE:
   \   00000000                      DS8 1

   \                                 In  segment ABSOLUTE, at 0x21, root
   \   union <unnamed> volatile __io _A_PINE
   \                     _A_PINE:
   \   00000000                      DS8 1

   \                                 In  segment ABSOLUTE, at 0x20, root
   \   union <unnamed> volatile __io _A_PINF
   \                     _A_PINF:
   \   00000000                      DS8 1

      static __flash TDataBase CFlash::xMainDataBase;
                               ^
"D:\Projects\CurrentProjects\CautoProjects\PSS48Color\include\Platform.h",368  Warning[Pe427]: 
          qualified name is not allowed in member declaration

      static __flash TDataBaseBlockPositionData CFlash::axDataBaseBlocksPositionData[];
                                                ^
"D:\Projects\CurrentProjects\CautoProjects\PSS48Color\include\Platform.h",369  Warning[Pe427]: 
          qualified name is not allowed in member declaration
     10          #include "Pss21.h"

   \                                 In  segment CODE, align 2, keep-with-next
   \   __version_3 void CAlarmWindow::SetActivityState(uint8_t)
   \                     ??SetActivityState:
   \   00000000   01F8               MOVW    R31:R30, R17:R16
   \   00000002   8320               ST      Z, R18
   \   00000004   9508               RET

   \                                 In  segment CODE, align 2, keep-with-next
   \   __version_3 uint8_t CAlarmDfa::ALARM_TYPE()
   \                     ??ALARM_TYPE:
   \   00000000   0198               MOVW    R19:R18, R17:R16
   \   00000002   E000               LDI     R16, 0
   \   00000004   9508               RET

   \                                 In  segment CODE, align 2, keep-with-next
   \   __version_3 uint8_t CAlarmDfa::ACTIVE_LEVEL()
   \                     ??ACTIVE_LEVEL:
   \   00000000   0198               MOVW    R19:R18, R17:R16
   \   00000002   E000               LDI     R16, 0
   \   00000004   9508               RET

   \                                 In  segment CODE, align 2, keep-with-next
   \   __version_3 uint8_t CAlarmDfa::IS_NAMUR_ON()
   \                     ??IS_NAMUR_ON:
   \   00000000   0198               MOVW    R19:R18, R17:R16
   \   00000002   E000               LDI     R16, 0
   \   00000004   9508               RET

   \                                 In  segment CODE, align 2, keep-with-next
   \   __version_3 uint8_t CAlarmDfa::GetDiscreteStateIndex()
   \                     ??GetDiscreteStateIndex:
   \   00000000   01F8               MOVW    R31:R30, R17:R16
   \   00000002   8105               LDD     R16, Z+5
   \   00000004   9508               RET

   \                                 In  segment CODE, align 2, keep-with-next
   \   __version_3 uint8_t CAlarmDfa::GetAlarmWindowIndex()
   \                     ??GetAlarmWindowIndex:
   \   00000000   01F8               MOVW    R31:R30, R17:R16
   \   00000002   8103               LDD     R16, Z+3
   \   00000004   9508               RET

   \                                 In  segment CODE, align 2, keep-with-next
   \   __version_3 uint8_t *CAlarmDfa::GetLinkedDiscreteOutputsPointer()
   \                     ??GetLinkedDiscreteOutputsPointer:
   \   00000000   5F0C               SUBI    R16, 252
   \   00000002   4F1F               SBCI    R17, 255
   \   00000004   9508               RET

   \                                 In  segment CODE, align 2, keep-with-next
   \   __version_3 uint8_t CNormalAlarmDfa::ALARM_TYPE()
   \                     ??ALARM_TYPE_1:
   \   00000000   0198               MOVW    R19:R18, R17:R16
   \   00000002   E000               LDI     R16, 0
   \   00000004   9508               RET

   \                                 In  segment CODE, align 2, keep-with-next
   \   __version_3 uint8_t CNormalAlarmDfa::ACTIVE_LEVEL()
   \                     ??ACTIVE_LEVEL_1:
   \   00000000   0198               MOVW    R19:R18, R17:R16
   \   00000002   E000               LDI     R16, 0
   \   00000004   9508               RET

   \                                 In  segment CODE, align 2, keep-with-next
   \   __version_3 uint8_t CNormalAlarmDfa::IS_NAMUR_ON()
   \                     ??IS_NAMUR_ON_1:
   \   00000000   0198               MOVW    R19:R18, R17:R16
   \   00000002   E000               LDI     R16, 0
   \   00000004   9508               RET

   \                                 In  segment CODE, align 2, keep-with-next
   \   __version_3 uint8_t CPreventiveAlarmLowLevelDfa::ALARM_TYPE()
   \                     ??ALARM_TYPE_2:
   \   00000000   0198               MOVW    R19:R18, R17:R16
   \   00000002   E003               LDI     R16, 3
   \   00000004   9508               RET

   \                                 In  segment CODE, align 2, keep-with-next
   \   __version_3 uint8_t CPreventiveAlarmLowLevelDfa::ACTIVE_LEVEL()
   \                     ??ACTIVE_LEVEL_2:
   \   00000000   0198               MOVW    R19:R18, R17:R16
   \   00000002   E000               LDI     R16, 0
   \   00000004   9508               RET

   \                                 In  segment CODE, align 2, keep-with-next
   \   __version_3 uint8_t CPreventiveAlarmLowLevelDfa::IS_NAMUR_ON()
   \                     ??IS_NAMUR_ON_2:
   \   00000000   0198               MOVW    R19:R18, R17:R16
   \   00000002   E000               LDI     R16, 0
   \   00000004   9508               RET

   \                                 In  segment CODE, align 2, keep-with-next
   \   __version_3 uint8_t CPreventiveAlarmHighLevelDfa::ALARM_TYPE()
   \                     ??ALARM_TYPE_3:
   \   00000000   0198               MOVW    R19:R18, R17:R16
   \   00000002   E003               LDI     R16, 3
   \   00000004   9508               RET

   \                                 In  segment CODE, align 2, keep-with-next
   \   __version_3 uint8_t CPreventiveAlarmHighLevelDfa::ACTIVE_LEVEL()
   \                     ??ACTIVE_LEVEL_3:
   \   00000000   0198               MOVW    R19:R18, R17:R16
   \   00000002   E001               LDI     R16, 1
   \   00000004   9508               RET

   \                                 In  segment CODE, align 2, keep-with-next
   \   __version_3 uint8_t CPreventiveAlarmHighLevelDfa::IS_NAMUR_ON()
   \                     ??IS_NAMUR_ON_3:
   \   00000000   0198               MOVW    R19:R18, R17:R16
   \   00000002   E000               LDI     R16, 0
   \   00000004   9508               RET

   \                                 In  segment CODE, align 2, keep-with-next
   \   __version_3 uint8_t CPreventiveAlarmLowLevelNamurDfa::ALARM_TYPE()
   \                     ??ALARM_TYPE_4:
   \   00000000   0198               MOVW    R19:R18, R17:R16
   \   00000002   E003               LDI     R16, 3
   \   00000004   9508               RET

   \                                 In  segment CODE, align 2, keep-with-next
   \   __version_3 uint8_t CPreventiveAlarmLowLevelNamurDfa::ACTIVE_LEVEL()
   \                     ??ACTIVE_LEVEL_4:
   \   00000000   0198               MOVW    R19:R18, R17:R16
   \   00000002   E000               LDI     R16, 0
   \   00000004   9508               RET

   \                                 In  segment CODE, align 2, keep-with-next
   \   __version_3 uint8_t CPreventiveAlarmLowLevelNamurDfa::IS_NAMUR_ON()
   \                     ??IS_NAMUR_ON_4:
   \   00000000   0198               MOVW    R19:R18, R17:R16
   \   00000002   E001               LDI     R16, 1
   \   00000004   9508               RET

   \                                 In  segment CODE, align 2, keep-with-next
   \   __version_3 uint8_t CPreventiveAlarmHighLevelNamurDfa::ALARM_TYPE()
   \                     ??ALARM_TYPE_5:
   \   00000000   0198               MOVW    R19:R18, R17:R16
   \   00000002   E003               LDI     R16, 3
   \   00000004   9508               RET

   \                                 In  segment CODE, align 2, keep-with-next
   \   __version_3 uint8_t CPreventiveAlarmHighLevelNamurDfa::ACTIVE_LEVEL()
   \                     ??ACTIVE_LEVEL_5:
   \   00000000   0198               MOVW    R19:R18, R17:R16
   \   00000002   E001               LDI     R16, 1
   \   00000004   9508               RET

   \                                 In  segment CODE, align 2, keep-with-next
   \   __version_3 uint8_t CPreventiveAlarmHighLevelNamurDfa::IS_NAMUR_ON()
   \                     ??IS_NAMUR_ON_5:
   \   00000000   0198               MOVW    R19:R18, R17:R16
   \   00000002   E001               LDI     R16, 1
   \   00000004   9508               RET

   \                                 In  segment CODE, align 2, keep-with-next
   \   __version_3 uint8_t CEmergencyAlarmLowLevelDfa::ALARM_TYPE()
   \                     ??ALARM_TYPE_6:
   \   00000000   0198               MOVW    R19:R18, R17:R16
   \   00000002   E004               LDI     R16, 4
   \   00000004   9508               RET

   \                                 In  segment CODE, align 2, keep-with-next
   \   __version_3 uint8_t CEmergencyAlarmLowLevelDfa::ACTIVE_LEVEL()
   \                     ??ACTIVE_LEVEL_6:
   \   00000000   0198               MOVW    R19:R18, R17:R16
   \   00000002   E000               LDI     R16, 0
   \   00000004   9508               RET

   \                                 In  segment CODE, align 2, keep-with-next
   \   __version_3 uint8_t CEmergencyAlarmLowLevelDfa::IS_NAMUR_ON()
   \                     ??IS_NAMUR_ON_6:
   \   00000000   0198               MOVW    R19:R18, R17:R16
   \   00000002   E000               LDI     R16, 0
   \   00000004   9508               RET

   \                                 In  segment CODE, align 2, keep-with-next
   \   __version_3 uint8_t CEmergencyAlarmHighLevelDfa::ALARM_TYPE()
   \                     ??ALARM_TYPE_7:
   \   00000000   0198               MOVW    R19:R18, R17:R16
   \   00000002   E004               LDI     R16, 4
   \   00000004   9508               RET

   \                                 In  segment CODE, align 2, keep-with-next
   \   __version_3 uint8_t CEmergencyAlarmHighLevelDfa::ACTIVE_LEVEL()
   \                     ??ACTIVE_LEVEL_7:
   \   00000000   0198               MOVW    R19:R18, R17:R16
   \   00000002   E001               LDI     R16, 1
   \   00000004   9508               RET

   \                                 In  segment CODE, align 2, keep-with-next
   \   __version_3 uint8_t CEmergencyAlarmHighLevelDfa::IS_NAMUR_ON()
   \                     ??IS_NAMUR_ON_7:
   \   00000000   0198               MOVW    R19:R18, R17:R16
   \   00000002   E000               LDI     R16, 0
   \   00000004   9508               RET

   \                                 In  segment CODE, align 2, keep-with-next
   \   __version_3 uint8_t CEmergencyAlarmLowLevelNamurDfa::ALARM_TYPE()
   \                     ??ALARM_TYPE_8:
   \   00000000   0198               MOVW    R19:R18, R17:R16
   \   00000002   E004               LDI     R16, 4
   \   00000004   9508               RET

   \                                 In  segment CODE, align 2, keep-with-next
   \   __version_3 uint8_t CEmergencyAlarmLowLevelNamurDfa::ACTIVE_LEVEL()
   \                     ??ACTIVE_LEVEL_8:
   \   00000000   0198               MOVW    R19:R18, R17:R16
   \   00000002   E000               LDI     R16, 0
   \   00000004   9508               RET

   \                                 In  segment CODE, align 2, keep-with-next
   \   __version_3 uint8_t CEmergencyAlarmLowLevelNamurDfa::IS_NAMUR_ON()
   \                     ??IS_NAMUR_ON_8:
   \   00000000   0198               MOVW    R19:R18, R17:R16
   \   00000002   E001               LDI     R16, 1
   \   00000004   9508               RET

   \                                 In  segment CODE, align 2, keep-with-next
   \   __version_3 uint8_t CEmergencyAlarmHighLevelNamurDfa::ALARM_TYPE()
   \                     ??ALARM_TYPE_9:
   \   00000000   0198               MOVW    R19:R18, R17:R16
   \   00000002   E004               LDI     R16, 4
   \   00000004   9508               RET

   \                                 In  segment CODE, align 2, keep-with-next
   \   __version_3 uint8_t CEmergencyAlarmHighLevelNamurDfa::ACTIVE_LEVEL()
   \                     ??ACTIVE_LEVEL_9:
   \   00000000   0198               MOVW    R19:R18, R17:R16
   \   00000002   E001               LDI     R16, 1
   \   00000004   9508               RET

   \                                 In  segment CODE, align 2, keep-with-next
   \   __version_3 uint8_t CEmergencyAlarmHighLevelNamurDfa::IS_NAMUR_ON()
   \                     ??IS_NAMUR_ON_9:
   \   00000000   0198               MOVW    R19:R18, R17:R16
   \   00000002   E001               LDI     R16, 1
   \   00000004   9508               RET

   \                                 In  segment CODE, align 2, keep-with-next
   \   __version_3 uint8_t CIndicationAlarmLowLevelDfa::ALARM_TYPE()
   \                     ??ALARM_TYPE_10:
   \   00000000   0198               MOVW    R19:R18, R17:R16
   \   00000002   E001               LDI     R16, 1
   \   00000004   9508               RET

   \                                 In  segment CODE, align 2, keep-with-next
   \   __version_3 uint8_t CIndicationAlarmLowLevelDfa::ACTIVE_LEVEL()
   \                     ??ACTIVE_LEVEL_10:
   \   00000000   0198               MOVW    R19:R18, R17:R16
   \   00000002   E000               LDI     R16, 0
   \   00000004   9508               RET

   \                                 In  segment CODE, align 2, keep-with-next
   \   __version_3 uint8_t CIndicationAlarmLowLevelDfa::IS_NAMUR_ON()
   \                     ??IS_NAMUR_ON_10:
   \   00000000   0198               MOVW    R19:R18, R17:R16
   \   00000002   E000               LDI     R16, 0
   \   00000004   9508               RET

   \                                 In  segment CODE, align 2, keep-with-next
   \   __version_3 uint8_t CIndicationAlarmHighLevelDfa::ALARM_TYPE()
   \                     ??ALARM_TYPE_11:
   \   00000000   0198               MOVW    R19:R18, R17:R16
   \   00000002   E001               LDI     R16, 1
   \   00000004   9508               RET

   \                                 In  segment CODE, align 2, keep-with-next
   \   __version_3 uint8_t CIndicationAlarmHighLevelDfa::ACTIVE_LEVEL()
   \                     ??ACTIVE_LEVEL_11:
   \   00000000   0198               MOVW    R19:R18, R17:R16
   \   00000002   E001               LDI     R16, 1
   \   00000004   9508               RET

   \                                 In  segment CODE, align 2, keep-with-next
   \   __version_3 uint8_t CIndicationAlarmHighLevelDfa::IS_NAMUR_ON()
   \                     ??IS_NAMUR_ON_11:
   \   00000000   0198               MOVW    R19:R18, R17:R16
   \   00000002   E000               LDI     R16, 0
   \   00000004   9508               RET

   \                                 In  segment CODE, align 2, keep-with-next
   \   __version_3 uint8_t CIndicationAlarmLowLevelNamurDfa::ALARM_TYPE()
   \                     ??ALARM_TYPE_12:
   \   00000000   0198               MOVW    R19:R18, R17:R16
   \   00000002   E001               LDI     R16, 1
   \   00000004   9508               RET

   \                                 In  segment CODE, align 2, keep-with-next
   \   __version_3 uint8_t CIndicationAlarmLowLevelNamurDfa::ACTIVE_LEVEL()
   \                     ??ACTIVE_LEVEL_12:
   \   00000000   0198               MOVW    R19:R18, R17:R16
   \   00000002   E000               LDI     R16, 0
   \   00000004   9508               RET

   \                                 In  segment CODE, align 2, keep-with-next
   \   __version_3 uint8_t CIndicationAlarmLowLevelNamurDfa::IS_NAMUR_ON()
   \                     ??IS_NAMUR_ON_12:
   \   00000000   0198               MOVW    R19:R18, R17:R16
   \   00000002   E001               LDI     R16, 1
   \   00000004   9508               RET

   \                                 In  segment CODE, align 2, keep-with-next
   \   __version_3 uint8_t CIndicationAlarmHighLevelNamurDfa::ALARM_TYPE()
   \                     ??ALARM_TYPE_13:
   \   00000000   0198               MOVW    R19:R18, R17:R16
   \   00000002   E001               LDI     R16, 1
   \   00000004   9508               RET

   \                                 In  segment CODE, align 2, keep-with-next
   \   __version_3 uint8_t CIndicationAlarmHighLevelNamurDfa::ACTIVE_LEVEL()
   \                     ??ACTIVE_LEVEL_13:
   \   00000000   0198               MOVW    R19:R18, R17:R16
   \   00000002   E001               LDI     R16, 1
   \   00000004   9508               RET

   \                                 In  segment CODE, align 2, keep-with-next
   \   __version_3 uint8_t CIndicationAlarmHighLevelNamurDfa::IS_NAMUR_ON()
   \                     ??IS_NAMUR_ON_13:
   \   00000000   0198               MOVW    R19:R18, R17:R16
   \   00000002   E001               LDI     R16, 1
   \   00000004   9508               RET

   \                                 In  segment CODE, align 2, keep-with-next
   \   __version_3 uint8_t CErrorAlarmDfa::ALARM_TYPE()
   \                     ??ALARM_TYPE_14:
   \   00000000   0198               MOVW    R19:R18, R17:R16
   \   00000002   E007               LDI     R16, 7
   \   00000004   9508               RET

   \                                 In  segment CODE, align 2, keep-with-next
   \   __version_3 uint8_t CErrorAlarmDfa::ACTIVE_LEVEL()
   \                     ??ACTIVE_LEVEL_14:
   \   00000000   0198               MOVW    R19:R18, R17:R16
   \   00000002   E000               LDI     R16, 0
   \   00000004   9508               RET

   \                                 In  segment CODE, align 2, keep-with-next
   \   __version_3 uint8_t CErrorAlarmDfa::GetDiscreteStateIndex()
   \                     ??GetDiscreteStateIndex_1:
   \   00000000   01F8               MOVW    R31:R30, R17:R16
   \   00000002   8104               LDD     R16, Z+4
   \   00000004   9508               RET

   \                                 In  segment CODE, align 2, keep-with-next
   \   __version_3 uint8_t CErrorAlarmDfa::GetAlarmWindowIndex()
   \                     ??GetAlarmWindowIndex_1:
   \   00000000   01F8               MOVW    R31:R30, R17:R16
   \   00000002   8103               LDD     R16, Z+3
   \   00000004   9508               RET

      virtual bool IsSolved(void) {};
                                   ^
"D:\Projects\CurrentProjects\CautoProjects\PSS48Color\include\Task.h",20  Warning[Pe940]: 
          missing return statement at end of non-void function
          "CTaskInterface::IsSolved"

      virtual bool IsSourceStateActive(void) {};
                                              ^
"D:\Projects\CurrentProjects\CautoProjects\PSS48Color\include\Task.h",23  Warning[Pe940]: 
          missing return statement at end of non-void function
          "CTaskInterface::IsSourceStateActive"

      bool IsSolved(void) {};
                           ^
"D:\Projects\CurrentProjects\CautoProjects\PSS48Color\include\Task.h",58  Warning[Pe940]: 
          missing return statement at end of non-void function
          "CIsRegularButtonPressedInterface::IsSolved"

      virtual bool IsSourceStateActive(void) {};
                                              ^
"D:\Projects\CurrentProjects\CautoProjects\PSS48Color\include\Task.h",61  Warning[Pe940]: 
          missing return statement at end of non-void function
          "CIsRegularButtonPressedInterface::IsSourceStateActive"

      virtual uint16_t KEY_PRESSED_TIME(void) {};
                                               ^
"D:\Projects\CurrentProjects\CautoProjects\PSS48Color\include\Task.h",63  Warning[Pe940]: 
          missing return statement at end of non-void function
          "CIsRegularButtonPressedInterface::KEY_PRESSED_TIME"

   \                                 In  segment CODE, align 2, keep-with-next
   \   __version_3 uint8_t CPss21::GetDiscreteSignalsReceipt()
   \                     ??GetDiscreteSignalsReceipt:
   \   00000000   9100....           LDS     R16, ??m_uiDiscreteSignalsReceipt
   \   00000004   9508               RET

   \                                 In  segment CODE, align 2, keep-with-next
   \   __version_3 uint8_t CPss21::GetDiscreteSignalsReset()
   \                     ??GetDiscreteSignalsReset:
   \   00000000   9100....           LDS     R16, ??m_uiDiscreteSignalsReset
   \   00000004   9508               RET

   \                                 In  segment CODE, align 2, keep-with-next
   \   __version_3 void CPss21::SetCommonAlarmType(uint8_t)
   \                     ??SetCommonAlarmType:
   \   00000000   9300....           STS     ??m_uiCommonAlarmType, R16
   \   00000004   9508               RET

   \                                 In  segment CODE, align 2, keep-with-next
   \   __version_3 uint8_t CPss21::GetCommonAlarmType()
   \                     ??GetCommonAlarmType:
   \   00000000   9100....           LDS     R16, ??m_uiCommonAlarmType
   \   00000004   9508               RET

   \                                 In  segment CODE, align 2, keep-with-next
   \   __version_3 CAlarmWindow *CPss21::GetAlarmWindowControlPointer(uint8_t)
   \                     ??GetAlarmWindowControlPointer:
   \   00000000   E010               LDI     R17, 0
   \   00000002   E048               LDI     R20, 8
   \   00000004   E050               LDI     R21, 0
   \   00000006   ........           CALL    ?S_EC_MUL_L02
   \   0000000A   0198               MOVW    R19:R18, R17:R16
   \   0000000C   ....               LDI     R16, LOW(??m_axAlarmWindowControl)
   \   0000000E   ....               LDI     R17, (??m_axAlarmWindowControl) >> 8
   \   00000010   0F02               ADD     R16, R18
   \   00000012   1F13               ADC     R17, R19
   \   00000014   9508               RET
     11          
     12          //-----------------------------------------------------------------------------------------------------

   \                                 In  segment CODE, align 2, keep-with-next
     13          CAlarmDfa::CAlarmDfa()
   \                     ??CAlarmDfa:
   \   00000000   93BA               ST      -Y, R27
   \   00000002   93AA               ST      -Y, R26
   \   00000004   01D8               MOVW    R27:R26, R17:R16
     14          {
   \   00000006   018D               MOVW    R17:R16, R27:R26
   \   00000008   ........           CALL    ??CDfaLite
   \   0000000C   ....               LDI     R16, LOW(??__vtbl_1)
   \   0000000E   ....               LDI     R17, (??__vtbl_1) >> 8
   \   00000010   01FD               MOVW    R31:R30, R27:R26
   \   00000012   8301               STD     Z+1, R16
   \   00000014   8312               STD     Z+2, R17
     15              //ctor
     16          }
   \   00000016   018D               MOVW    R17:R16, R27:R26
   \   00000018   91A9               LD      R26, Y+
   \   0000001A   91B9               LD      R27, Y+
   \   0000001C   9508               RET
     17          
     18          //-----------------------------------------------------------------------------------------------------

   \                                 In  segment CODE, align 2, keep-with-next
     19          CAlarmDfa::~CAlarmDfa()
   \                     `?~CAlarmDfa`:
     20          {
   \   00000000   ........           CALL    ?PROLOGUE4_L09
   \   00000004   01C8               MOVW    R25:R24, R17:R16
   \   00000006   01D9               MOVW    R27:R26, R19:R18
   \   00000008   2F08               MOV     R16, R24
   \   0000000A   2B09               OR      R16, R25
   \   0000000C   F051               BREQ    `?~CAlarmDfa_1`
     21              //dtor
     22          }
   \   0000000E   E020               LDI     R18, 0
   \   00000010   E030               LDI     R19, 0
   \   00000012   018C               MOVW    R17:R16, R25:R24
   \   00000014   ........           CALL    `?~CDfaLite`
   \   00000018   FBA0               BST     R26, 0
   \   0000001A   F41E               BRTC    `?~CAlarmDfa_1`
   \   0000001C   018C               MOVW    R17:R16, R25:R24
   \   0000001E   ........           CALL    `??operator delete`
   \                     `?~CAlarmDfa_1`:
   \   00000022   E0E4               LDI     R30, 4
   \   00000024   ........           JMP     ?EPILOGUE_B4_L09
     23          
     24          //-----------------------------------------------------------------------------------------------------
     25          // јвтомат обработки сигнализации дискретного сигнала.

   \                                 In  segment CODE, align 2, keep-with-next
     26          void CAlarmDfa::Fsm(void)
   \                     ??Fsm:
     27          {
   \   00000000   ........           CALL    ?PROLOGUE6_L09
   \   00000004                      REQUIRE ?Register_R4_is_cg_reg
   \   00000004                      REQUIRE ?Register_R5_is_cg_reg
   \   00000004   01D8               MOVW    R27:R26, R17:R16
     28              bool bIsDiscreteInputStateActive = false;
   \   00000006   2444               CLR     R4
     29              // тип текущего дискретного сигнала namur?
     30              if (IS_NAMUR_ON())
   \   00000008   018D               MOVW    R17:R16, R27:R26
   \   0000000A   01FD               MOVW    R31:R30, R27:R26
   \   0000000C   8121               LDD     R18, Z+1
   \   0000000E   8132               LDD     R19, Z+2
   \   00000010   01F9               MOVW    R31:R30, R19:R18
   \   00000012   9638               ADIW    R31:R30, 8
   \   00000014   9125               LPM     R18, Z+
   \   00000016   9134               LPM     R19, Z
   \   00000018   9739               SBIW    R31:R30, 9
   \   0000001A   01F9               MOVW    R31:R30, R19:R18
   \   0000001C   9509               ICALL
   \   0000001E   2300               TST     R16
   \   00000020   F011               BREQ    ??Fsm_3
   \   00000022   E001               LDI     R16, 1
   \   00000024   C001               RJMP    ??Fsm_4
   \                     ??Fsm_3:
   \   00000026   E000               LDI     R16, 0
   \                     ??Fsm_4:
   \   00000028   2300               TST     R16
   \   0000002A   F409               BRNE    $+2+2
   \   0000002C   C043               RJMP    ??Fsm_5
     31              {
     32                  switch (CPss21::GetDiscreteInputsBadState(GetDiscreteStateIndex()))
   \   0000002E   018D               MOVW    R17:R16, R27:R26
   \   00000030   ........           CALL    ??GetDiscreteStateIndex
   \   00000034   ........           CALL    ??GetDiscreteInputsBadState
   \   00000038   5000               SUBI    R16, 0
   \   0000003A   F039               BREQ    ??Fsm_6
   \   0000003C   950A               DEC     R16
   \   0000003E   F029               BREQ    ??Fsm_6
   \   00000040   950A               DEC     R16
   \   00000042   F181               BREQ    ??Fsm_7
   \   00000044   950A               DEC     R16
   \   00000046   F171               BREQ    ??Fsm_7
   \   00000048   C061               RJMP    ??Fsm_8
     33                  {
     34                  case OFF:
     35                  case ON:
     36                      // ƒискретный сигнал активен?
     37                      // уровень сигналы типа "namur"  определ€ем по состо€ни€м дискретного входа:
     38                      // 0 - OFF(разомкнуто), и 1 - ON(замкнуто).
     39                      if ((CPss21::GetDiscreteInputsBadState(GetDiscreteStateIndex()) & 0x01) ^ ACTIVE_LEVEL())
   \                     ??Fsm_6:
   \   0000004A   01FD               MOVW    R31:R30, R27:R26
   \   0000004C   8181               LDD     R24, Z+1
   \   0000004E   8192               LDD     R25, Z+2
   \   00000050   9606               ADIW    R25:R24, 6
   \   00000052   018D               MOVW    R17:R16, R27:R26
   \   00000054   ........           CALL    ??GetDiscreteStateIndex
   \   00000058   ........           CALL    ??GetDiscreteInputsBadState
   \   0000005C   2E50               MOV     R5, R16
   \   0000005E   FA50               BST     R5, 0
   \   00000060   2455               CLR     R5
   \   00000062   F850               BLD     R5, 0
   \   00000064   018D               MOVW    R17:R16, R27:R26
   \   00000066   01FC               MOVW    R31:R30, R25:R24
   \   00000068   9125               LPM     R18, Z+
   \   0000006A   9134               LPM     R19, Z
   \   0000006C   9731               SBIW    R31:R30, 1
   \   0000006E   01F9               MOVW    R31:R30, R19:R18
   \   00000070   9509               ICALL
   \   00000072   2650               EOR     R5, R16
   \   00000074   2055               TST     R5
   \   00000076   F011               BREQ    ??Fsm_9
   \   00000078   E001               LDI     R16, 1
   \   0000007A   C001               RJMP    ??Fsm_10
   \                     ??Fsm_9:
   \   0000007C   E000               LDI     R16, 0
   \                     ??Fsm_10:
   \   0000007E   2300               TST     R16
   \   00000080   F049               BREQ    ??Fsm_11
     40                      {
     41                          bIsDiscreteInputStateActive = true;
   \   00000082   2444               CLR     R4
   \   00000084   9443               INC     R4
     42                          // установим значение текущего дискретного входа отображаемое в пространстве модбас
     43                          // интерпретированное с учетом услови€ активности.
     44                          CPss21::SetDiscreteInputState(GetDiscreteStateIndex(), 1);
   \   00000086   018D               MOVW    R17:R16, R27:R26
   \   00000088   ........           CALL    ??GetDiscreteStateIndex
   \   0000008C   E011               LDI     R17, 1
   \   0000008E   ........           CALL    ??SetDiscreteInputState
   \   00000092   C03C               RJMP    ??Fsm_8
     45                      }
     46                      else
     47                      {
     48                          bIsDiscreteInputStateActive = false;
   \                     ??Fsm_11:
   \   00000094   2444               CLR     R4
     49                          // установим значение текущего дискретного входа отображаемое в пространстве модбас
     50                          // интерпретированное с учетом услови€ активности.
     51                          CPss21::SetDiscreteInputState(GetDiscreteStateIndex(), 0);
   \   00000096   018D               MOVW    R17:R16, R27:R26
   \   00000098   ........           CALL    ??GetDiscreteStateIndex
   \   0000009C   E010               LDI     R17, 0
   \   0000009E   ........           CALL    ??SetDiscreteInputState
     52                      }
     53                      break;
   \   000000A2   C034               RJMP    ??Fsm_8
     54          
     55                  case WIRE_BREAK:
     56                  case SHORT_CIRCUIT:
     57                      bIsDiscreteInputStateActive = false;
   \                     ??Fsm_7:
   \   000000A4   2444               CLR     R4
     58                      // установим значение текущего дискретного входа отображаемое в пространстве модбас
     59                      // интерпретированное с учетом услови€ активности.
     60                      CPss21::SetDiscreteInputState(GetDiscreteStateIndex(), 0);
   \   000000A6   018D               MOVW    R17:R16, R27:R26
   \   000000A8   ........           CALL    ??GetDiscreteStateIndex
   \   000000AC   E010               LDI     R17, 0
   \   000000AE   ........           CALL    ??SetDiscreteInputState
     61                      break;
   \   000000B2   C02C               RJMP    ??Fsm_8
     62          
     63                  default:
     64                      break;
     65                  }
     66              }
     67              else
     68              {
     69                  // ƒискретный сигнал активен?
     70                  // уровень сигналы типа "—”’ќ…  ќЌ“ј “" (— ) определ€ем по состо€ни€м дискретного входа:
     71                  // 2 - обрыв(разомкнуто), и 3 -  «(замкнуто).
     72                  if (((CPss21::GetDiscreteInputsBadState(GetDiscreteStateIndex()) >> 1) & 0x01) ^ ACTIVE_LEVEL())
   \                     ??Fsm_5:
   \   000000B4   01FD               MOVW    R31:R30, R27:R26
   \   000000B6   8181               LDD     R24, Z+1
   \   000000B8   8192               LDD     R25, Z+2
   \   000000BA   9606               ADIW    R25:R24, 6
   \   000000BC   018D               MOVW    R17:R16, R27:R26
   \   000000BE   ........           CALL    ??GetDiscreteStateIndex
   \   000000C2   ........           CALL    ??GetDiscreteInputsBadState
   \   000000C6   2E50               MOV     R5, R16
   \   000000C8   FA51               BST     R5, 1
   \   000000CA   2455               CLR     R5
   \   000000CC   F850               BLD     R5, 0
   \   000000CE   018D               MOVW    R17:R16, R27:R26
   \   000000D0   01FC               MOVW    R31:R30, R25:R24
   \   000000D2   9125               LPM     R18, Z+
   \   000000D4   9134               LPM     R19, Z
   \   000000D6   9731               SBIW    R31:R30, 1
   \   000000D8   01F9               MOVW    R31:R30, R19:R18
   \   000000DA   9509               ICALL
   \   000000DC   2650               EOR     R5, R16
   \   000000DE   2055               TST     R5
   \   000000E0   F011               BREQ    ??Fsm_12
   \   000000E2   E001               LDI     R16, 1
   \   000000E4   C001               RJMP    ??Fsm_13
   \                     ??Fsm_12:
   \   000000E6   E000               LDI     R16, 0
   \                     ??Fsm_13:
   \   000000E8   2300               TST     R16
   \   000000EA   F049               BREQ    ??Fsm_14
     73                  {
     74                      bIsDiscreteInputStateActive = true;
   \   000000EC   2444               CLR     R4
   \   000000EE   9443               INC     R4
     75                      // установим значение текущего дискретного входа отображаемое в пространстве модбас
     76                      // интерпретированное с учетом услови€ активности.
     77                      CPss21::SetDiscreteInputState(GetDiscreteStateIndex(), 1);
   \   000000F0   018D               MOVW    R17:R16, R27:R26
   \   000000F2   ........           CALL    ??GetDiscreteStateIndex
   \   000000F6   E011               LDI     R17, 1
   \   000000F8   ........           CALL    ??SetDiscreteInputState
   \   000000FC   C007               RJMP    ??Fsm_8
     78                  }
     79                  else
     80                  {
     81                      bIsDiscreteInputStateActive = false;
   \                     ??Fsm_14:
   \   000000FE   2444               CLR     R4
     82                      // установим значение текущего дискретного входа отображаемое в пространстве модбас
     83                      // интерпретированное с учетом услови€ активности.
     84                      CPss21::SetDiscreteInputState(GetDiscreteStateIndex(), 0);
   \   00000100   018D               MOVW    R17:R16, R27:R26
   \   00000102   ........           CALL    ??GetDiscreteStateIndex
   \   00000106   E010               LDI     R17, 0
   \   00000108   ........           CALL    ??SetDiscreteInputState
     85                  }
     86              }
     87          
     88              switch (GetFsmState())
   \                     ??Fsm_8:
   \   0000010C   018D               MOVW    R17:R16, R27:R26
   \   0000010E   ........           CALL    ??GetFsmState
   \   00000112   5000               SUBI    R16, 0
   \   00000114   F0A9               BREQ    ??Fsm_15
   \   00000116   950A               DEC     R16
   \   00000118   F0A1               BREQ    ??Fsm_16
   \   0000011A   950A               DEC     R16
   \   0000011C   F409               BRNE    $+2+2
   \   0000011E   C0EB               RJMP    ??Fsm_17
   \   00000120   950A               DEC     R16
   \   00000122   F409               BRNE    $+2+2
   \   00000124   C0B6               RJMP    ??Fsm_18
   \   00000126   950A               DEC     R16
   \   00000128   F409               BRNE    $+2+2
   \   0000012A   C10B               RJMP    ??Fsm_19
   \   0000012C   950A               DEC     R16
   \   0000012E   F409               BRNE    $+2+2
   \   00000130   C11F               RJMP    ??Fsm_20
   \   00000132   950A               DEC     R16
   \   00000134   F409               BRNE    $+2+2
   \   00000136   C130               RJMP    ??Fsm_21
   \   00000138   5002               SUBI    R16, 2
   \   0000013A   F409               BRNE    $+2+2
   \   0000013C   C144               RJMP    ??Fsm_22
   \   0000013E   C168               RJMP    ??Fsm_23
     89              {
     90              case START:
     91                  break;
   \                     ??Fsm_15:
   \   00000140   C167               RJMP    ??Fsm_23
     92          
     93          //    case ACTIVE_STATE_CHECK:
     94          //        break;
     95          
     96              case ACTIVE_STATE_WAITING:
     97                  // тип текущего дискретного сигнала namur?
     98                  if (IS_NAMUR_ON())
   \                     ??Fsm_16:
   \   00000142   018D               MOVW    R17:R16, R27:R26
   \   00000144   01FD               MOVW    R31:R30, R27:R26
   \   00000146   8121               LDD     R18, Z+1
   \   00000148   8132               LDD     R19, Z+2
   \   0000014A   01F9               MOVW    R31:R30, R19:R18
   \   0000014C   9638               ADIW    R31:R30, 8
   \   0000014E   9125               LPM     R18, Z+
   \   00000150   9134               LPM     R19, Z
   \   00000152   9739               SBIW    R31:R30, 9
   \   00000154   01F9               MOVW    R31:R30, R19:R18
   \   00000156   9509               ICALL
   \   00000158   2300               TST     R16
   \   0000015A   F011               BREQ    ??Fsm_24
   \   0000015C   E001               LDI     R16, 1
   \   0000015E   C001               RJMP    ??Fsm_25
   \                     ??Fsm_24:
   \   00000160   E000               LDI     R16, 0
   \                     ??Fsm_25:
   \   00000162   2300               TST     R16
   \   00000164   F409               BRNE    $+2+2
   \   00000166   C05A               RJMP    ??Fsm_26
     99                  {
    100                      switch (CPss21::GetDiscreteInputsBadState(GetDiscreteStateIndex()))
   \   00000168   018D               MOVW    R17:R16, R27:R26
   \   0000016A   ........           CALL    ??GetDiscreteStateIndex
   \   0000016E   ........           CALL    ??GetDiscreteInputsBadState
   \   00000172   5000               SUBI    R16, 0
   \   00000174   F039               BREQ    ??Fsm_27
   \   00000176   950A               DEC     R16
   \   00000178   F029               BREQ    ??Fsm_27
   \   0000017A   950A               DEC     R16
   \   0000017C   F1F1               BREQ    ??Fsm_28
   \   0000017E   950A               DEC     R16
   \   00000180   F1E1               BREQ    ??Fsm_28
   \   00000182   C146               RJMP    ??Fsm_23
    101                      {
    102                      // дискретный сигнал достоверен
    103                      case OFF:
    104                      case ON:
    105                          // ƒискретный сигнал активен?
    106          //                if ((CPss21::GetDiscreteInputsBadState(GetDiscreteStateIndex()) & 0x01) ^ ACTIVE_LEVEL())
    107                          if (bIsDiscreteInputStateActive)
   \                     ??Fsm_27:
   \   00000184   2044               TST     R4
   \   00000186   F1C1               BREQ    ??Fsm_29
    108                          {
    109          //                    // установим значение текущего дискретного входа отображаемое в пространстве модбас
    110          //                    // интерпретированное с учетом услови€ активности.
    111          //                    CPss21::SetDiscreteInputState(GetDiscreteStateIndex(), 1);
    112                              // ”становим св€занные дискретный выходы - новое нарушение.
    113                              CPss21::DiscreteOutputsSet(GetLinkedDiscreteOutputsPointer(), NEW_VIOLATION);
   \   00000188   018D               MOVW    R17:R16, R27:R26
   \   0000018A   ........           CALL    ??GetLinkedDiscreteOutputsPointer
   \   0000018E   E021               LDI     R18, 1
   \   00000190   ........           CALL    ??DiscreteOutputsSet
    114                              // ”становим тип сигнализации св€занному окну в массиве управлени€ окнами извещател€.
    115                              CPss21::SetAlarmWindowType(GetAlarmWindowIndex(), ALARM_TYPE());
   \   00000194   018D               MOVW    R17:R16, R27:R26
   \   00000196   01FD               MOVW    R31:R30, R27:R26
   \   00000198   8121               LDD     R18, Z+1
   \   0000019A   8132               LDD     R19, Z+2
   \   0000019C   01F9               MOVW    R31:R30, R19:R18
   \   0000019E   9634               ADIW    R31:R30, 4
   \   000001A0   9125               LPM     R18, Z+
   \   000001A2   9134               LPM     R19, Z
   \   000001A4   9735               SBIW    R31:R30, 5
   \   000001A6   01F9               MOVW    R31:R30, R19:R18
   \   000001A8   9509               ICALL
   \   000001AA   2F80               MOV     R24, R16
   \   000001AC   018D               MOVW    R17:R16, R27:R26
   \   000001AE   ........           CALL    ??GetAlarmWindowIndex
   \   000001B2   2F18               MOV     R17, R24
   \   000001B4   ........           CALL    ??SetAlarmWindowType
    116                              CPss21::SetAlarmWindowColor(GetAlarmWindowIndex(), ALARM_TYPE());
   \   000001B8   018D               MOVW    R17:R16, R27:R26
   \   000001BA   01FD               MOVW    R31:R30, R27:R26
   \   000001BC   8121               LDD     R18, Z+1
   \   000001BE   8132               LDD     R19, Z+2
   \   000001C0   01F9               MOVW    R31:R30, R19:R18
   \   000001C2   9634               ADIW    R31:R30, 4
   \   000001C4   9125               LPM     R18, Z+
   \   000001C6   9134               LPM     R19, Z
   \   000001C8   9735               SBIW    R31:R30, 5
   \   000001CA   01F9               MOVW    R31:R30, R19:R18
   \   000001CC   9509               ICALL
   \   000001CE   2F80               MOV     R24, R16
   \   000001D0   018D               MOVW    R17:R16, R27:R26
   \   000001D2   ........           CALL    ??GetAlarmWindowIndex
   \   000001D6   2F18               MOV     R17, R24
   \   000001D8   ........           CALL    ??SetAlarmWindowColor
    117                              // «апрограммирован режим автоматического сброса предупредительой и аварийной
    118                              // сигнализации при переходе дискретного сигнала в неактивное состо€ние?
    119                              if (CPss21::m_xDeviceConfiguration.AutoUnset)
   \   000001DC   ....               LDI     R30, LOW(??m_xDeviceConfiguration)
   \   000001DE   ....               LDI     R31, (??m_xDeviceConfiguration) >> 8
   \   000001E0   8103               LDD     R16, Z+3
   \   000001E2   FF03               SBRS    R16, 3
   \   000001E4   C005               RJMP    ??Fsm_30
    120                              {
    121                                  SetFsmState(RECEIPT_OR_RESET_OR_AUTOUNSET_WAITING);
   \   000001E6   E023               LDI     R18, 3
   \   000001E8   018D               MOVW    R17:R16, R27:R26
   \   000001EA   ........           CALL    ??SetFsmState
   \   000001EE   C110               RJMP    ??Fsm_23
    122                              }
    123                              else
    124                              {
    125                                  SetFsmState(RECEIPT_OR_RESET_WAITING);
   \                     ??Fsm_30:
   \   000001F0   E022               LDI     R18, 2
   \   000001F2   018D               MOVW    R17:R16, R27:R26
   \   000001F4   ........           CALL    ??SetFsmState
    126                              }
    127                          }
    128          //                else
    129          //                {
    130          //                    // установим значение текущего дискретного входа отображаемое в пространстве модбас
    131          //                    // интерпретированное с учетом услови€ активности.
    132          //                    CPss21::SetDiscreteInputState(GetDiscreteStateIndex(), 0);
    133          //                }
    134                          break;
   \                     ??Fsm_29:
   \   000001F8   C10B               RJMP    ??Fsm_23
    135          
    136                      // дискретный сигнал не достоверен
    137                      case WIRE_BREAK:
    138                      case SHORT_CIRCUIT:
    139          //                // установим значение текущего дискретного входа отображаемое в пространстве модбас
    140          //                // интерпретированное с учетом услови€ активности.
    141          //                CPss21::SetDiscreteInputState(GetDiscreteStateIndex(), 0);
    142                          // ”становим тип сигнализации св€занному окну в массиве управлени€ окнами извещател€.
    143                          CPss21::SetAlarmWindowType(GetAlarmWindowIndex(), INDICATION);
   \                     ??Fsm_28:
   \   000001FA   018D               MOVW    R17:R16, R27:R26
   \   000001FC   ........           CALL    ??GetAlarmWindowIndex
   \   00000200   E011               LDI     R17, 1
   \   00000202   ........           CALL    ??SetAlarmWindowType
    144                          CPss21::SetAlarmWindowColor(GetAlarmWindowIndex(), NAMUR_INDICATION);
   \   00000206   018D               MOVW    R17:R16, R27:R26
   \   00000208   ........           CALL    ??GetAlarmWindowIndex
   \   0000020C   E012               LDI     R17, 2
   \   0000020E   ........           CALL    ??SetAlarmWindowColor
    145                          SetFsmState(NAMUR_INPUT_CORRECT_STATE_WAITING);
   \   00000212   E028               LDI     R18, 8
   \   00000214   018D               MOVW    R17:R16, R27:R26
   \   00000216   ........           CALL    ??SetFsmState
    146                          break;
   \   0000021A   C0FA               RJMP    ??Fsm_23
    147          
    148                      default:
    149                          break;
    150                      }
    151                  }
    152                  else
    153                  {
    154                      // ƒискретный сигнал активен?
    155                      // уровень сигналы типа "—”’ќ…  ќЌ“ј “" (— ) определ€ем по состо€ни€м дискретного входа:
    156                      // 2 - обрыв(разомкнуто), и 3 -  «(замкнуто).
    157                      //            if (((CPss21::GetDiscreteInputsBadState(GetDiscreteStateIndex()) >> 1) & 0x01) ^ ACTIVE_LEVEL())
    158                      if (bIsDiscreteInputStateActive)
   \                     ??Fsm_26:
   \   0000021C   2044               TST     R4
   \   0000021E   F1C1               BREQ    ??Fsm_31
    159                      {
    160          //                // установим значение текущего дискретного входа отображаемое в пространстве модбас
    161          //                // интерпретированное с учетом услови€ активности.
    162          //                CPss21::SetDiscreteInputState(GetDiscreteStateIndex(), 1);
    163                          // ”становим св€занные дискретный выходы - новое нарушение.
    164                          CPss21::DiscreteOutputsSet(GetLinkedDiscreteOutputsPointer(), NEW_VIOLATION);
   \   00000220   018D               MOVW    R17:R16, R27:R26
   \   00000222   ........           CALL    ??GetLinkedDiscreteOutputsPointer
   \   00000226   E021               LDI     R18, 1
   \   00000228   ........           CALL    ??DiscreteOutputsSet
    165                          // ”становим тип сигнализации св€занному окну в массиве управлени€ окнами извещател€.
    166                          CPss21::SetAlarmWindowType(GetAlarmWindowIndex(), ALARM_TYPE());
   \   0000022C   018D               MOVW    R17:R16, R27:R26
   \   0000022E   01FD               MOVW    R31:R30, R27:R26
   \   00000230   8121               LDD     R18, Z+1
   \   00000232   8132               LDD     R19, Z+2
   \   00000234   01F9               MOVW    R31:R30, R19:R18
   \   00000236   9634               ADIW    R31:R30, 4
   \   00000238   9125               LPM     R18, Z+
   \   0000023A   9134               LPM     R19, Z
   \   0000023C   9735               SBIW    R31:R30, 5
   \   0000023E   01F9               MOVW    R31:R30, R19:R18
   \   00000240   9509               ICALL
   \   00000242   2F80               MOV     R24, R16
   \   00000244   018D               MOVW    R17:R16, R27:R26
   \   00000246   ........           CALL    ??GetAlarmWindowIndex
   \   0000024A   2F18               MOV     R17, R24
   \   0000024C   ........           CALL    ??SetAlarmWindowType
    167                          CPss21::SetAlarmWindowColor(GetAlarmWindowIndex(), ALARM_TYPE());
   \   00000250   018D               MOVW    R17:R16, R27:R26
   \   00000252   01FD               MOVW    R31:R30, R27:R26
   \   00000254   8121               LDD     R18, Z+1
   \   00000256   8132               LDD     R19, Z+2
   \   00000258   01F9               MOVW    R31:R30, R19:R18
   \   0000025A   9634               ADIW    R31:R30, 4
   \   0000025C   9125               LPM     R18, Z+
   \   0000025E   9134               LPM     R19, Z
   \   00000260   9735               SBIW    R31:R30, 5
   \   00000262   01F9               MOVW    R31:R30, R19:R18
   \   00000264   9509               ICALL
   \   00000266   2F80               MOV     R24, R16
   \   00000268   018D               MOVW    R17:R16, R27:R26
   \   0000026A   ........           CALL    ??GetAlarmWindowIndex
   \   0000026E   2F18               MOV     R17, R24
   \   00000270   ........           CALL    ??SetAlarmWindowColor
    168                          // «апрограммирован режим автоматического сброса предупредительой и аварийной
    169                          // сигнализации при переходе дискретного сигнала в неактивное состо€ние?
    170                          if (CPss21::m_xDeviceConfiguration.AutoUnset)
   \   00000274   ....               LDI     R30, LOW(??m_xDeviceConfiguration)
   \   00000276   ....               LDI     R31, (??m_xDeviceConfiguration) >> 8
   \   00000278   8103               LDD     R16, Z+3
   \   0000027A   FF03               SBRS    R16, 3
   \   0000027C   C005               RJMP    ??Fsm_32
    171                          {
    172                              SetFsmState(RECEIPT_OR_RESET_OR_AUTOUNSET_WAITING);
   \   0000027E   E023               LDI     R18, 3
   \   00000280   018D               MOVW    R17:R16, R27:R26
   \   00000282   ........           CALL    ??SetFsmState
   \   00000286   C0C4               RJMP    ??Fsm_23
    173                          }
    174                          else
    175                          {
    176                              SetFsmState(RECEIPT_OR_RESET_WAITING);
   \                     ??Fsm_32:
   \   00000288   E022               LDI     R18, 2
   \   0000028A   018D               MOVW    R17:R16, R27:R26
   \   0000028C   ........           CALL    ??SetFsmState
    177                          }
    178                      }
    179          //            else
    180          //            {
    181          //                // установим значение текущего дискретного входа отображаемое в пространстве модбас
    182          //                // интерпретированное с учетом услови€ активности.
    183          //                CPss21::SetDiscreteInputState(GetDiscreteStateIndex(), 0);
    184          //            }
    185                  }
    186                  break;
   \                     ??Fsm_31:
   \   00000290   C0BF               RJMP    ??Fsm_23
    187          
    188              case RECEIPT_OR_RESET_OR_AUTOUNSET_WAITING:
    189                  // «апрограммирован режим автоматического сброса предупредительой и аварийной
    190                  // сигнализации при переходе дискретного сигнала в неактивное состо€ние.
    191                  // ƒискретный сигнал активен?
    192          //        if (CPss21::GetDiscreteInputState(GetDiscreteStateIndex()) ^ ACTIVE_LEVEL())
    193                  if (bIsDiscreteInputStateActive)
   \                     ??Fsm_18:
   \   00000292   2044               TST     R4
   \   00000294   F059               BREQ    ??Fsm_33
    194                  {
    195                      // ”становим св€занные дискретный выходы - не новое нарушение.
    196                      CPss21::DiscreteOutputsSet(GetLinkedDiscreteOutputsPointer(), NOT_NEW_VIOLATION);
   \   00000296   018D               MOVW    R17:R16, R27:R26
   \   00000298   ........           CALL    ??GetLinkedDiscreteOutputsPointer
   \   0000029C   E020               LDI     R18, 0
   \   0000029E   ........           CALL    ??DiscreteOutputsSet
    197                  }
    198                  else
    199                  {
    200                      // ”становим тип сигнализации св€занному окну в массиве управлени€ окнами извещател€.
    201                      CPss21::SetAlarmWindowType(GetAlarmWindowIndex(), NORMAL);
    202                      SetFsmState(ACTIVE_STATE_WAITING);
    203                      break;
    204                  }
    205          
    206                  // —обытие сброшено?
    207                  if (CPss21::GetDiscreteSignalsReset())
   \   000002A2   ........           CALL    ??GetDiscreteSignalsReset
   \   000002A6   2300               TST     R16
   \   000002A8   F461               BRNE    ??Fsm_34
   \   000002AA   C016               RJMP    ??Fsm_35
   \                     ??Fsm_33:
   \   000002AC   018D               MOVW    R17:R16, R27:R26
   \   000002AE   ........           CALL    ??GetAlarmWindowIndex
   \   000002B2   E010               LDI     R17, 0
   \   000002B4   ........           CALL    ??SetAlarmWindowType
   \   000002B8   E021               LDI     R18, 1
   \   000002BA   018D               MOVW    R17:R16, R27:R26
   \   000002BC   ........           CALL    ??SetFsmState
   \   000002C0   C0A7               RJMP    ??Fsm_23
    208                  {
    209                      // ”становим тип сигнализации св€занному окну в массиве управлени€ окнами извещател€.
    210                      CPss21::SetAlarmWindowType(GetAlarmWindowIndex(), INDICATION);
   \                     ??Fsm_34:
   \   000002C2   018D               MOVW    R17:R16, R27:R26
   \   000002C4   ........           CALL    ??GetAlarmWindowIndex
   \   000002C8   E011               LDI     R17, 1
   \   000002CA   ........           CALL    ??SetAlarmWindowType
    211                      SetFsmState(RESETED_NOT_ACTIVE_STATE_WAITING);
   \   000002CE   E025               LDI     R18, 5
   \   000002D0   018D               MOVW    R17:R16, R27:R26
   \   000002D2   ........           CALL    ??SetFsmState
   \   000002D6   C09C               RJMP    ??Fsm_23
    212                  }
    213                  // —обытие квитировано?
    214                  else if (CPss21::GetDiscreteSignalsReceipt())
   \                     ??Fsm_35:
   \   000002D8   ........           CALL    ??GetDiscreteSignalsReceipt
   \   000002DC   2300               TST     R16
   \   000002DE   F051               BREQ    ??Fsm_36
    215                  {
    216                      // ”становим тип сигнализации св€занному окну в массиве управлени€ окнами извещател€.
    217                      CPss21::SetAlarmWindowType(GetAlarmWindowIndex(), INDICATION);
   \   000002E0   018D               MOVW    R17:R16, R27:R26
   \   000002E2   ........           CALL    ??GetAlarmWindowIndex
   \   000002E6   E011               LDI     R17, 1
   \   000002E8   ........           CALL    ??SetAlarmWindowType
    218                      SetFsmState(RECEIPTED_RESET_OR_NOT_ACTIVE_STATE_WAITING);
   \   000002EC   E024               LDI     R18, 4
   \   000002EE   018D               MOVW    R17:R16, R27:R26
   \   000002F0   ........           CALL    ??SetFsmState
    219                  }
    220                  break;
   \                     ??Fsm_36:
   \   000002F4   C08D               RJMP    ??Fsm_23
    221          
    222              case RECEIPT_OR_RESET_WAITING:
    223                  // ƒискретный сигнал активен?
    224          //        if (CPss21::GetDiscreteInputState(GetDiscreteStateIndex()) ^ ACTIVE_LEVEL())
    225                  if (bIsDiscreteInputStateActive)
   \                     ??Fsm_17:
   \   000002F6   2044               TST     R4
   \   000002F8   F031               BREQ    ??Fsm_37
    226                  {
    227                      // ”становим св€занные дискретный выходы - не новое нарушение.
    228                      CPss21::DiscreteOutputsSet(GetLinkedDiscreteOutputsPointer(), NOT_NEW_VIOLATION);
   \   000002FA   018D               MOVW    R17:R16, R27:R26
   \   000002FC   ........           CALL    ??GetLinkedDiscreteOutputsPointer
   \   00000300   E020               LDI     R18, 0
   \   00000302   ........           CALL    ??DiscreteOutputsSet
    229                  }
    230          
    231                  // —обытие сброшено?
    232                  if (CPss21::GetDiscreteSignalsReset())
   \                     ??Fsm_37:
   \   00000306   ........           CALL    ??GetDiscreteSignalsReset
   \   0000030A   2300               TST     R16
   \   0000030C   F059               BREQ    ??Fsm_38
    233                  {
    234                      // ”становим тип сигнализации св€занному окну в массиве управлени€ окнами извещател€.
    235                      CPss21::SetAlarmWindowType(GetAlarmWindowIndex(), INDICATION);
   \   0000030E   018D               MOVW    R17:R16, R27:R26
   \   00000310   ........           CALL    ??GetAlarmWindowIndex
   \   00000314   E011               LDI     R17, 1
   \   00000316   ........           CALL    ??SetAlarmWindowType
    236                      SetFsmState(RESETED_NOT_ACTIVE_STATE_WAITING);
   \   0000031A   E025               LDI     R18, 5
   \   0000031C   018D               MOVW    R17:R16, R27:R26
   \   0000031E   ........           CALL    ??SetFsmState
   \   00000322   C076               RJMP    ??Fsm_23
    237                  }
    238                  // —обытие квитировано?
    239                  else if (CPss21::GetDiscreteSignalsReceipt())
   \                     ??Fsm_38:
   \   00000324   ........           CALL    ??GetDiscreteSignalsReceipt
   \   00000328   2300               TST     R16
   \   0000032A   F051               BREQ    ??Fsm_39
    240                  {
    241                      // ”становим тип сигнализации св€занному окну в массиве управлени€ окнами извещател€.
    242                      CPss21::SetAlarmWindowType(GetAlarmWindowIndex(), INDICATION);
   \   0000032C   018D               MOVW    R17:R16, R27:R26
   \   0000032E   ........           CALL    ??GetAlarmWindowIndex
   \   00000332   E011               LDI     R17, 1
   \   00000334   ........           CALL    ??SetAlarmWindowType
    243                      SetFsmState(RECEIPTED_RESET_OR_NOT_ACTIVE_STATE_WAITING);
   \   00000338   E024               LDI     R18, 4
   \   0000033A   018D               MOVW    R17:R16, R27:R26
   \   0000033C   ........           CALL    ??SetFsmState
    244                  }
    245                  break;
   \                     ??Fsm_39:
   \   00000340   C067               RJMP    ??Fsm_23
    246          
    247              case RECEIPTED_RESET_OR_NOT_ACTIVE_STATE_WAITING:
    248                  // —обытие сброшено?
    249                  if (CPss21::GetDiscreteSignalsReset())
   \                     ??Fsm_19:
   \   00000342   ........           CALL    ??GetDiscreteSignalsReset
   \   00000346   2300               TST     R16
   \   00000348   F029               BREQ    ??Fsm_40
    250                  {
    251                      SetFsmState(RESETED_NOT_ACTIVE_STATE_WAITING);
   \   0000034A   E025               LDI     R18, 5
   \   0000034C   018D               MOVW    R17:R16, R27:R26
   \   0000034E   ........           CALL    ??SetFsmState
   \   00000352   C05E               RJMP    ??Fsm_23
    252                  }
    253                  // ƒискретный сигнал не активен?
    254                  else if (!(bIsDiscreteInputStateActive))//if (!(CPss21::GetDiscreteInputState(GetDiscreteStateIndex()) ^ ACTIVE_LEVEL()))
   \                     ??Fsm_40:
   \   00000354   2044               TST     R4
   \   00000356   F429               BRNE    ??Fsm_41
    255                  {
    256                      SetFsmState(RECEIPTED_RESET_WAITING);
   \   00000358   E026               LDI     R18, 6
   \   0000035A   018D               MOVW    R17:R16, R27:R26
   \   0000035C   ........           CALL    ??SetFsmState
   \   00000360   C057               RJMP    ??Fsm_23
    257                  }
    258                  else
    259                  {
    260                      // ”становим св€занные дискретный выходы - не новое нарушение.
    261                      CPss21::DiscreteOutputsSet(GetLinkedDiscreteOutputsPointer(), NOT_NEW_VIOLATION);
   \                     ??Fsm_41:
   \   00000362   018D               MOVW    R17:R16, R27:R26
   \   00000364   ........           CALL    ??GetLinkedDiscreteOutputsPointer
   \   00000368   E020               LDI     R18, 0
   \   0000036A   ........           CALL    ??DiscreteOutputsSet
    262                  }
    263                  break;
   \   0000036E   C050               RJMP    ??Fsm_23
    264          
    265              case RESETED_NOT_ACTIVE_STATE_WAITING:
    266                  // ƒискретный сигнал не активен?
    267          //        if (!(CPss21::GetDiscreteInputState(GetDiscreteStateIndex()) ^ ACTIVE_LEVEL()))
    268                  if (!(bIsDiscreteInputStateActive))
   \                     ??Fsm_20:
   \   00000370   2044               TST     R4
   \   00000372   F459               BRNE    ??Fsm_42
    269                  {
    270                      // ”становим тип сигнализации св€занному окну в массиве управлени€ окнами извещател€.
    271                      CPss21::SetAlarmWindowType(GetAlarmWindowIndex(), NORMAL);
   \   00000374   018D               MOVW    R17:R16, R27:R26
   \   00000376   ........           CALL    ??GetAlarmWindowIndex
   \   0000037A   E010               LDI     R17, 0
   \   0000037C   ........           CALL    ??SetAlarmWindowType
    272                      SetFsmState(ACTIVE_STATE_WAITING);
   \   00000380   E021               LDI     R18, 1
   \   00000382   018D               MOVW    R17:R16, R27:R26
   \   00000384   ........           CALL    ??SetFsmState
   \   00000388   C043               RJMP    ??Fsm_23
    273                  }
    274                  else
    275                  {
    276                      // ”становим св€занные дискретный выходы - не новое нарушение.
    277                      CPss21::DiscreteOutputsSet(GetLinkedDiscreteOutputsPointer(), NOT_NEW_VIOLATION);
   \                     ??Fsm_42:
   \   0000038A   018D               MOVW    R17:R16, R27:R26
   \   0000038C   ........           CALL    ??GetLinkedDiscreteOutputsPointer
   \   00000390   E020               LDI     R18, 0
   \   00000392   ........           CALL    ??DiscreteOutputsSet
    278                  }
    279                  break;
   \   00000396   C03C               RJMP    ??Fsm_23
    280          
    281              case RECEIPTED_RESET_WAITING:
    282                  // ƒискретный сигнал активен?
    283                  //        if (CPss21::GetDiscreteInputState(GetDiscreteStateIndex()) ^ ACTIVE_LEVEL())
    284                  if (bIsDiscreteInputStateActive)
   \                     ??Fsm_21:
   \   00000398   2044               TST     R4
   \   0000039A   F031               BREQ    ??Fsm_43
    285                  {
    286                      // ”становим св€занные дискретный выходы - не новое нарушение.
    287                      CPss21::DiscreteOutputsSet(GetLinkedDiscreteOutputsPointer(), NOT_NEW_VIOLATION);
   \   0000039C   018D               MOVW    R17:R16, R27:R26
   \   0000039E   ........           CALL    ??GetLinkedDiscreteOutputsPointer
   \   000003A2   E020               LDI     R18, 0
   \   000003A4   ........           CALL    ??DiscreteOutputsSet
    288                  }
    289          
    290                  // —обытие сброшено?
    291                  if (CPss21::GetDiscreteSignalsReset())
   \                     ??Fsm_43:
   \   000003A8   ........           CALL    ??GetDiscreteSignalsReset
   \   000003AC   2300               TST     R16
   \   000003AE   F181               BREQ    ??Fsm_23
    292                  {
    293                      // ”становим тип сигнализации св€занному окну в массиве управлени€ окнами извещател€.
    294                      CPss21::SetAlarmWindowType(GetAlarmWindowIndex(), NORMAL);
   \   000003B0   018D               MOVW    R17:R16, R27:R26
   \   000003B2   ........           CALL    ??GetAlarmWindowIndex
   \   000003B6   E010               LDI     R17, 0
   \   000003B8   ........           CALL    ??SetAlarmWindowType
    295                      SetFsmState(ACTIVE_STATE_WAITING);
   \   000003BC   E021               LDI     R18, 1
   \   000003BE   018D               MOVW    R17:R16, R27:R26
   \   000003C0   ........           CALL    ??SetFsmState
    296                  }
    297                  break;
   \   000003C4   C025               RJMP    ??Fsm_23
    298          
    299              case NAMUR_INPUT_CORRECT_STATE_WAITING:
    300                  // тип текущего дискретного сигнала namur?
    301                  if (IS_NAMUR_ON())
   \                     ??Fsm_22:
   \   000003C6   018D               MOVW    R17:R16, R27:R26
   \   000003C8   01FD               MOVW    R31:R30, R27:R26
   \   000003CA   8121               LDD     R18, Z+1
   \   000003CC   8132               LDD     R19, Z+2
   \   000003CE   01F9               MOVW    R31:R30, R19:R18
   \   000003D0   9638               ADIW    R31:R30, 8
   \   000003D2   9125               LPM     R18, Z+
   \   000003D4   9134               LPM     R19, Z
   \   000003D6   9739               SBIW    R31:R30, 9
   \   000003D8   01F9               MOVW    R31:R30, R19:R18
   \   000003DA   9509               ICALL
   \   000003DC   2300               TST     R16
   \   000003DE   F011               BREQ    ??Fsm_44
   \   000003E0   E001               LDI     R16, 1
   \   000003E2   C001               RJMP    ??Fsm_45
   \                     ??Fsm_44:
   \   000003E4   E000               LDI     R16, 0
   \                     ??Fsm_45:
   \   000003E6   2300               TST     R16
   \   000003E8   F099               BREQ    ??Fsm_23
    302                  {
    303                      switch (CPss21::GetDiscreteInputsBadState(GetDiscreteStateIndex()))
   \   000003EA   018D               MOVW    R17:R16, R27:R26
   \   000003EC   ........           CALL    ??GetDiscreteStateIndex
   \   000003F0   ........           CALL    ??GetDiscreteInputsBadState
   \   000003F4   5000               SUBI    R16, 0
   \   000003F6   F011               BREQ    ??Fsm_46
   \   000003F8   950A               DEC     R16
   \   000003FA   F451               BRNE    ??Fsm_23
    304                      {
    305                      // дискретный сигнал достоверен
    306                      case OFF:
    307                      case ON:
    308                          // ”становим тип сигнализации св€занному окну в массиве управлени€ окнами извещател€.
    309                          CPss21::SetAlarmWindowType(GetAlarmWindowIndex(), NORMAL);
   \                     ??Fsm_46:
   \   000003FC   018D               MOVW    R17:R16, R27:R26
   \   000003FE   ........           CALL    ??GetAlarmWindowIndex
   \   00000402   E010               LDI     R17, 0
   \   00000404   ........           CALL    ??SetAlarmWindowType
    310                          SetFsmState(ACTIVE_STATE_WAITING);
   \   00000408   E021               LDI     R18, 1
   \   0000040A   018D               MOVW    R17:R16, R27:R26
   \   0000040C   ........           CALL    ??SetFsmState
    311                          break;
    312          
    313                      default:
    314                          break;
    315                      }
    316                  }
    317                  break;
    318          
    319              default:
    320                  break;
    321              }
    322          }
   \                     ??Fsm_23:
   \   00000410   E0E6               LDI     R30, 6
   \   00000412   ........           JMP     ?EPILOGUE_B6_L09
    323          //-----------------------------------------------------------------------------------------------------
    324          
    325          
    326          
    327          
    328          
    329          
    330          
    331          
    332          //-----------------------------------------------------------------------------------------------------

   \                                 In  segment CODE, align 2, keep-with-next
    333          CNormalAlarmDfa::CNormalAlarmDfa()
   \                     ??CNormalAlarmDfa:
   \   00000000   93BA               ST      -Y, R27
   \   00000002   93AA               ST      -Y, R26
   \   00000004   01D8               MOVW    R27:R26, R17:R16
    334          {
   \   00000006   018D               MOVW    R17:R16, R27:R26
   \   00000008   ....               RCALL   ??CAlarmDfa
   \   0000000A   ....               LDI     R16, LOW(??__vtbl_2)
   \   0000000C   ....               LDI     R17, (??__vtbl_2) >> 8
   \   0000000E   01FD               MOVW    R31:R30, R27:R26
   \   00000010   8301               STD     Z+1, R16
   \   00000012   8312               STD     Z+2, R17
    335              SetFsmState(START);
   \   00000014   E020               LDI     R18, 0
   \   00000016   018D               MOVW    R17:R16, R27:R26
   \   00000018   ........           CALL    ??SetFsmState
    336          }
   \   0000001C   018D               MOVW    R17:R16, R27:R26
   \   0000001E   91A9               LD      R26, Y+
   \   00000020   91B9               LD      R27, Y+
   \   00000022   9508               RET
    337          
    338          //-----------------------------------------------------------------------------------------------------

   \                                 In  segment CODE, align 2, keep-with-next
    339          CNormalAlarmDfa::~CNormalAlarmDfa()
   \                     `?~CNormalAlarmDfa`:
    340          {
   \   00000000   ........           CALL    ?PROLOGUE4_L09
   \   00000004   01C8               MOVW    R25:R24, R17:R16
   \   00000006   01D9               MOVW    R27:R26, R19:R18
   \   00000008   2F08               MOV     R16, R24
   \   0000000A   2B09               OR      R16, R25
   \   0000000C   F049               BREQ    `?~CNormalAlarmDfa_1`
    341              //dtor
    342          }
   \   0000000E   E020               LDI     R18, 0
   \   00000010   E030               LDI     R19, 0
   \   00000012   018C               MOVW    R17:R16, R25:R24
   \   00000014   ....               RCALL   `?~CAlarmDfa`
   \   00000016   FBA0               BST     R26, 0
   \   00000018   F41E               BRTC    `?~CNormalAlarmDfa_1`
   \   0000001A   018C               MOVW    R17:R16, R25:R24
   \   0000001C   ........           CALL    `??operator delete`
   \                     `?~CNormalAlarmDfa_1`:
   \   00000020   E0E4               LDI     R30, 4
   \   00000022   ........           JMP     ?EPILOGUE_B4_L09
    343          
    344          //-----------------------------------------------------------------------------------------------------
    345          
    346          
    347          
    348          
    349          
    350          
    351          
    352          
    353          //-----------------------------------------------------------------------------------------------------

   \                                 In  segment CODE, align 2, keep-with-next
    354          CPreventiveAlarmLowLevelDfa::CPreventiveAlarmLowLevelDfa()
   \                     ??CPreventiveAlarmLowLevelDfa:
   \   00000000   93BA               ST      -Y, R27
   \   00000002   93AA               ST      -Y, R26
   \   00000004   01D8               MOVW    R27:R26, R17:R16
    355          {
   \   00000006   018D               MOVW    R17:R16, R27:R26
   \   00000008   ....               RCALL   ??CAlarmDfa
   \   0000000A   ....               LDI     R16, LOW(??__vtbl_3)
   \   0000000C   ....               LDI     R17, (??__vtbl_3) >> 8
   \   0000000E   01FD               MOVW    R31:R30, R27:R26
   \   00000010   8301               STD     Z+1, R16
   \   00000012   8312               STD     Z+2, R17
    356              SetFsmState(ACTIVE_STATE_WAITING);
   \   00000014   E021               LDI     R18, 1
   \   00000016   018D               MOVW    R17:R16, R27:R26
   \   00000018   ........           CALL    ??SetFsmState
    357          }
   \   0000001C   018D               MOVW    R17:R16, R27:R26
   \   0000001E   91A9               LD      R26, Y+
   \   00000020   91B9               LD      R27, Y+
   \   00000022   9508               RET
    358          
    359          //-----------------------------------------------------------------------------------------------------

   \                                 In  segment CODE, align 2, keep-with-next
    360          CPreventiveAlarmLowLevelDfa::~CPreventiveAlarmLowLevelDfa()
   \                     `?~CPreventiveAlarmLowLevelDfa`:
    361          {
   \   00000000   ........           CALL    ?PROLOGUE4_L09
   \   00000004   01C8               MOVW    R25:R24, R17:R16
   \   00000006   01D9               MOVW    R27:R26, R19:R18
   \   00000008   2F08               MOV     R16, R24
   \   0000000A   2B09               OR      R16, R25
   \   0000000C   F049               BREQ    `?~CPreventiveAlarmLowLevelDfa_1`
    362              //dtor
    363          }
   \   0000000E   E020               LDI     R18, 0
   \   00000010   E030               LDI     R19, 0
   \   00000012   018C               MOVW    R17:R16, R25:R24
   \   00000014   ....               RCALL   `?~CAlarmDfa`
   \   00000016   FBA0               BST     R26, 0
   \   00000018   F41E               BRTC    `?~CPreventiveAlarmLowLevelDfa_1`
   \   0000001A   018C               MOVW    R17:R16, R25:R24
   \   0000001C   ........           CALL    `??operator delete`
   \                     `?~CPreventiveAlarmLowLevelDfa_1`:
   \   00000020   E0E4               LDI     R30, 4
   \   00000022   ........           JMP     ?EPILOGUE_B4_L09
    364          
    365          //-----------------------------------------------------------------------------------------------------

   \                                 In  segment CODE, align 2, keep-with-next
    366          CPreventiveAlarmHighLevelDfa::CPreventiveAlarmHighLevelDfa()
   \                     ??CPreventiveAlarmHighLevelDfa:
   \   00000000   93BA               ST      -Y, R27
   \   00000002   93AA               ST      -Y, R26
   \   00000004   01D8               MOVW    R27:R26, R17:R16
    367          {
   \   00000006   018D               MOVW    R17:R16, R27:R26
   \   00000008   ....               RCALL   ??CAlarmDfa
   \   0000000A   ....               LDI     R16, LOW(??__vtbl_4)
   \   0000000C   ....               LDI     R17, (??__vtbl_4) >> 8
   \   0000000E   01FD               MOVW    R31:R30, R27:R26
   \   00000010   8301               STD     Z+1, R16
   \   00000012   8312               STD     Z+2, R17
    368              SetFsmState(ACTIVE_STATE_WAITING);
   \   00000014   E021               LDI     R18, 1
   \   00000016   018D               MOVW    R17:R16, R27:R26
   \   00000018   ........           CALL    ??SetFsmState
    369          }
   \   0000001C   018D               MOVW    R17:R16, R27:R26
   \   0000001E   91A9               LD      R26, Y+
   \   00000020   91B9               LD      R27, Y+
   \   00000022   9508               RET
    370          
    371          //-----------------------------------------------------------------------------------------------------

   \                                 In  segment CODE, align 2, keep-with-next
    372          CPreventiveAlarmHighLevelDfa::~CPreventiveAlarmHighLevelDfa()
   \                     `?~CPreventiveAlarmHighLevelDfa`:
    373          {
   \   00000000   ........           CALL    ?PROLOGUE4_L09
   \   00000004   01C8               MOVW    R25:R24, R17:R16
   \   00000006   01D9               MOVW    R27:R26, R19:R18
   \   00000008   2F08               MOV     R16, R24
   \   0000000A   2B09               OR      R16, R25
   \   0000000C   F049               BREQ    `?~CPreventiveAlarmHighLevelDfa_1`
    374              //dtor
    375          }
   \   0000000E   E020               LDI     R18, 0
   \   00000010   E030               LDI     R19, 0
   \   00000012   018C               MOVW    R17:R16, R25:R24
   \   00000014   ....               RCALL   `?~CAlarmDfa`
   \   00000016   FBA0               BST     R26, 0
   \   00000018   F41E               BRTC    `?~CPreventiveAlarmHighLevelDfa_1`
   \   0000001A   018C               MOVW    R17:R16, R25:R24
   \   0000001C   ........           CALL    `??operator delete`
   \                     `?~CPreventiveAlarmHighLevelDfa_1`:
   \   00000020   E0E4               LDI     R30, 4
   \   00000022   ........           JMP     ?EPILOGUE_B4_L09
    376          
    377          //-----------------------------------------------------------------------------------------------------

   \                                 In  segment CODE, align 2, keep-with-next
    378          CPreventiveAlarmLowLevelNamurDfa::CPreventiveAlarmLowLevelNamurDfa()
   \                     ??CPreventiveAlarmLowLevelNamurDfa:
   \   00000000   93BA               ST      -Y, R27
   \   00000002   93AA               ST      -Y, R26
   \   00000004   01D8               MOVW    R27:R26, R17:R16
    379          {
   \   00000006   018D               MOVW    R17:R16, R27:R26
   \   00000008   ....               RCALL   ??CAlarmDfa
   \   0000000A   ....               LDI     R16, LOW(??__vtbl_5)
   \   0000000C   ....               LDI     R17, (??__vtbl_5) >> 8
   \   0000000E   01FD               MOVW    R31:R30, R27:R26
   \   00000010   8301               STD     Z+1, R16
   \   00000012   8312               STD     Z+2, R17
    380              SetFsmState(ACTIVE_STATE_WAITING);
   \   00000014   E021               LDI     R18, 1
   \   00000016   018D               MOVW    R17:R16, R27:R26
   \   00000018   ........           CALL    ??SetFsmState
    381          }
   \   0000001C   018D               MOVW    R17:R16, R27:R26
   \   0000001E   91A9               LD      R26, Y+
   \   00000020   91B9               LD      R27, Y+
   \   00000022   9508               RET
    382          
    383          //-----------------------------------------------------------------------------------------------------

   \                                 In  segment CODE, align 2, keep-with-next
    384          CPreventiveAlarmLowLevelNamurDfa::~CPreventiveAlarmLowLevelNamurDfa()
   \                     `?~CPreventiveAlarmLowLevelNamurDfa`:
    385          {
   \   00000000   ........           CALL    ?PROLOGUE4_L09
   \   00000004   01C8               MOVW    R25:R24, R17:R16
   \   00000006   01D9               MOVW    R27:R26, R19:R18
   \   00000008   2F08               MOV     R16, R24
   \   0000000A   2B09               OR      R16, R25
   \   0000000C   F049               BREQ    `?~CPreventiveAlarmLowLevelNamurDfa_1`
    386              //dtor
    387          }
   \   0000000E   E020               LDI     R18, 0
   \   00000010   E030               LDI     R19, 0
   \   00000012   018C               MOVW    R17:R16, R25:R24
   \   00000014   ....               RCALL   `?~CAlarmDfa`
   \   00000016   FBA0               BST     R26, 0
   \   00000018   F41E               BRTC    `?~CPreventiveAlarmLowLevelNamurDfa_1`
   \   0000001A   018C               MOVW    R17:R16, R25:R24
   \   0000001C   ........           CALL    `??operator delete`
   \                     `?~CPreventiveAlarmLowLevelNamurDfa_1`:
   \   00000020   E0E4               LDI     R30, 4
   \   00000022   ........           JMP     ?EPILOGUE_B4_L09
    388          
    389          //-----------------------------------------------------------------------------------------------------

   \                                 In  segment CODE, align 2, keep-with-next
    390          CPreventiveAlarmHighLevelNamurDfa::CPreventiveAlarmHighLevelNamurDfa()
   \                     ??CPreventiveAlarmHighLevelNamurDfa:
   \   00000000   93BA               ST      -Y, R27
   \   00000002   93AA               ST      -Y, R26
   \   00000004   01D8               MOVW    R27:R26, R17:R16
    391          {
   \   00000006   018D               MOVW    R17:R16, R27:R26
   \   00000008   ....               RCALL   ??CAlarmDfa
   \   0000000A   ....               LDI     R16, LOW(??__vtbl_6)
   \   0000000C   ....               LDI     R17, (??__vtbl_6) >> 8
   \   0000000E   01FD               MOVW    R31:R30, R27:R26
   \   00000010   8301               STD     Z+1, R16
   \   00000012   8312               STD     Z+2, R17
    392              SetFsmState(ACTIVE_STATE_WAITING);
   \   00000014   E021               LDI     R18, 1
   \   00000016   018D               MOVW    R17:R16, R27:R26
   \   00000018   ........           CALL    ??SetFsmState
    393          }
   \   0000001C   018D               MOVW    R17:R16, R27:R26
   \   0000001E   91A9               LD      R26, Y+
   \   00000020   91B9               LD      R27, Y+
   \   00000022   9508               RET
    394          
    395          //-----------------------------------------------------------------------------------------------------

   \                                 In  segment CODE, align 2, keep-with-next
    396          CPreventiveAlarmHighLevelNamurDfa::~CPreventiveAlarmHighLevelNamurDfa()
   \                     `?~CPreventiveAlarmHighLevelNamurDfa`:
    397          {
   \   00000000   ........           CALL    ?PROLOGUE4_L09
   \   00000004   01C8               MOVW    R25:R24, R17:R16
   \   00000006   01D9               MOVW    R27:R26, R19:R18
   \   00000008   2F08               MOV     R16, R24
   \   0000000A   2B09               OR      R16, R25
   \   0000000C   F049               BREQ    `?~CPreventiveAlarmHighLevelNamurDfa_1`
    398              //dtor
    399          }
   \   0000000E   E020               LDI     R18, 0
   \   00000010   E030               LDI     R19, 0
   \   00000012   018C               MOVW    R17:R16, R25:R24
   \   00000014   ....               RCALL   `?~CAlarmDfa`
   \   00000016   FBA0               BST     R26, 0
   \   00000018   F41E               BRTC    `?~CPreventiveAlarmHighLevelNamurDfa_1`
   \   0000001A   018C               MOVW    R17:R16, R25:R24
   \   0000001C   ........           CALL    `??operator delete`
   \                     `?~CPreventiveAlarmHighLevelNamurDfa_1`:
   \   00000020   E0E4               LDI     R30, 4
   \   00000022   ........           JMP     ?EPILOGUE_B4_L09
    400          //-----------------------------------------------------------------------------------------------------
    401          
    402          
    403          
    404          
    405          
    406          
    407          
    408          //-----------------------------------------------------------------------------------------------------

   \                                 In  segment CODE, align 2, keep-with-next
    409          CEmergencyAlarmLowLevelDfa::CEmergencyAlarmLowLevelDfa()
   \                     ??CEmergencyAlarmLowLevelDfa:
   \   00000000   93BA               ST      -Y, R27
   \   00000002   93AA               ST      -Y, R26
   \   00000004   01D8               MOVW    R27:R26, R17:R16
    410          {
   \   00000006   018D               MOVW    R17:R16, R27:R26
   \   00000008   ....               RCALL   ??CAlarmDfa
   \   0000000A   ....               LDI     R16, LOW(??__vtbl_7)
   \   0000000C   ....               LDI     R17, (??__vtbl_7) >> 8
   \   0000000E   01FD               MOVW    R31:R30, R27:R26
   \   00000010   8301               STD     Z+1, R16
   \   00000012   8312               STD     Z+2, R17
    411              SetFsmState(ACTIVE_STATE_WAITING);
   \   00000014   E021               LDI     R18, 1
   \   00000016   018D               MOVW    R17:R16, R27:R26
   \   00000018   ........           CALL    ??SetFsmState
    412          }
   \   0000001C   018D               MOVW    R17:R16, R27:R26
   \   0000001E   91A9               LD      R26, Y+
   \   00000020   91B9               LD      R27, Y+
   \   00000022   9508               RET
    413          
    414          //-----------------------------------------------------------------------------------------------------

   \                                 In  segment CODE, align 2, keep-with-next
    415          CEmergencyAlarmLowLevelDfa::~CEmergencyAlarmLowLevelDfa()
   \                     `?~CEmergencyAlarmLowLevelDfa`:
    416          {
   \   00000000   ........           CALL    ?PROLOGUE4_L09
   \   00000004   01C8               MOVW    R25:R24, R17:R16
   \   00000006   01D9               MOVW    R27:R26, R19:R18
   \   00000008   2F08               MOV     R16, R24
   \   0000000A   2B09               OR      R16, R25
   \   0000000C   F049               BREQ    `?~CEmergencyAlarmLowLevelDfa_1`
    417              //dtor
    418          }
   \   0000000E   E020               LDI     R18, 0
   \   00000010   E030               LDI     R19, 0
   \   00000012   018C               MOVW    R17:R16, R25:R24
   \   00000014   ....               RCALL   `?~CAlarmDfa`
   \   00000016   FBA0               BST     R26, 0
   \   00000018   F41E               BRTC    `?~CEmergencyAlarmLowLevelDfa_1`
   \   0000001A   018C               MOVW    R17:R16, R25:R24
   \   0000001C   ........           CALL    `??operator delete`
   \                     `?~CEmergencyAlarmLowLevelDfa_1`:
   \   00000020   E0E4               LDI     R30, 4
   \   00000022   ........           JMP     ?EPILOGUE_B4_L09
    419          
    420          //-----------------------------------------------------------------------------------------------------

   \                                 In  segment CODE, align 2, keep-with-next
    421          CEmergencyAlarmHighLevelDfa::CEmergencyAlarmHighLevelDfa()
   \                     ??CEmergencyAlarmHighLevelDfa:
   \   00000000   93BA               ST      -Y, R27
   \   00000002   93AA               ST      -Y, R26
   \   00000004   01D8               MOVW    R27:R26, R17:R16
    422          {
   \   00000006   018D               MOVW    R17:R16, R27:R26
   \   00000008   ....               RCALL   ??CAlarmDfa
   \   0000000A   ....               LDI     R16, LOW(??__vtbl_8)
   \   0000000C   ....               LDI     R17, (??__vtbl_8) >> 8
   \   0000000E   01FD               MOVW    R31:R30, R27:R26
   \   00000010   8301               STD     Z+1, R16
   \   00000012   8312               STD     Z+2, R17
    423              SetFsmState(ACTIVE_STATE_WAITING);
   \   00000014   E021               LDI     R18, 1
   \   00000016   018D               MOVW    R17:R16, R27:R26
   \   00000018   ........           CALL    ??SetFsmState
    424          }
   \   0000001C   018D               MOVW    R17:R16, R27:R26
   \   0000001E   91A9               LD      R26, Y+
   \   00000020   91B9               LD      R27, Y+
   \   00000022   9508               RET
    425          
    426          //-----------------------------------------------------------------------------------------------------

   \                                 In  segment CODE, align 2, keep-with-next
    427          CEmergencyAlarmHighLevelDfa::~CEmergencyAlarmHighLevelDfa()
   \                     `?~CEmergencyAlarmHighLevelDfa`:
    428          {
   \   00000000   ........           CALL    ?PROLOGUE4_L09
   \   00000004   01C8               MOVW    R25:R24, R17:R16
   \   00000006   01D9               MOVW    R27:R26, R19:R18
   \   00000008   2F08               MOV     R16, R24
   \   0000000A   2B09               OR      R16, R25
   \   0000000C   F049               BREQ    `?~CEmergencyAlarmHighLevelDfa_1`
    429              //dtor
    430          }
   \   0000000E   E020               LDI     R18, 0
   \   00000010   E030               LDI     R19, 0
   \   00000012   018C               MOVW    R17:R16, R25:R24
   \   00000014   ....               RCALL   `?~CAlarmDfa`
   \   00000016   FBA0               BST     R26, 0
   \   00000018   F41E               BRTC    `?~CEmergencyAlarmHighLevelDfa_1`
   \   0000001A   018C               MOVW    R17:R16, R25:R24
   \   0000001C   ........           CALL    `??operator delete`
   \                     `?~CEmergencyAlarmHighLevelDfa_1`:
   \   00000020   E0E4               LDI     R30, 4
   \   00000022   ........           JMP     ?EPILOGUE_B4_L09
    431          
    432          
    433          //-----------------------------------------------------------------------------------------------------

   \                                 In  segment CODE, align 2, keep-with-next
    434          CEmergencyAlarmLowLevelNamurDfa::CEmergencyAlarmLowLevelNamurDfa()
   \                     ??CEmergencyAlarmLowLevelNamurDfa:
   \   00000000   93BA               ST      -Y, R27
   \   00000002   93AA               ST      -Y, R26
   \   00000004   01D8               MOVW    R27:R26, R17:R16
    435          {
   \   00000006   018D               MOVW    R17:R16, R27:R26
   \   00000008   ....               RCALL   ??CAlarmDfa
   \   0000000A   ....               LDI     R16, LOW(??__vtbl_9)
   \   0000000C   ....               LDI     R17, (??__vtbl_9) >> 8
   \   0000000E   01FD               MOVW    R31:R30, R27:R26
   \   00000010   8301               STD     Z+1, R16
   \   00000012   8312               STD     Z+2, R17
    436              SetFsmState(ACTIVE_STATE_WAITING);
   \   00000014   E021               LDI     R18, 1
   \   00000016   018D               MOVW    R17:R16, R27:R26
   \   00000018   ........           CALL    ??SetFsmState
    437          }
   \   0000001C   018D               MOVW    R17:R16, R27:R26
   \   0000001E   91A9               LD      R26, Y+
   \   00000020   91B9               LD      R27, Y+
   \   00000022   9508               RET
    438          
    439          //-----------------------------------------------------------------------------------------------------

   \                                 In  segment CODE, align 2, keep-with-next
    440          CEmergencyAlarmLowLevelNamurDfa::~CEmergencyAlarmLowLevelNamurDfa()
   \                     `?~CEmergencyAlarmLowLevelNamurDfa`:
    441          {
   \   00000000   ........           CALL    ?PROLOGUE4_L09
   \   00000004   01C8               MOVW    R25:R24, R17:R16
   \   00000006   01D9               MOVW    R27:R26, R19:R18
   \   00000008   2F08               MOV     R16, R24
   \   0000000A   2B09               OR      R16, R25
   \   0000000C   F049               BREQ    `?~CEmergencyAlarmLowLevelNamurDfa_1`
    442              //dtor
    443          }
   \   0000000E   E020               LDI     R18, 0
   \   00000010   E030               LDI     R19, 0
   \   00000012   018C               MOVW    R17:R16, R25:R24
   \   00000014   ....               RCALL   `?~CAlarmDfa`
   \   00000016   FBA0               BST     R26, 0
   \   00000018   F41E               BRTC    `?~CEmergencyAlarmLowLevelNamurDfa_1`
   \   0000001A   018C               MOVW    R17:R16, R25:R24
   \   0000001C   ........           CALL    `??operator delete`
   \                     `?~CEmergencyAlarmLowLevelNamurDfa_1`:
   \   00000020   E0E4               LDI     R30, 4
   \   00000022   ........           JMP     ?EPILOGUE_B4_L09
    444          
    445          //-----------------------------------------------------------------------------------------------------

   \                                 In  segment CODE, align 2, keep-with-next
    446          CEmergencyAlarmHighLevelNamurDfa::CEmergencyAlarmHighLevelNamurDfa()
   \                     ??CEmergencyAlarmHighLevelNamurDfa:
   \   00000000   93BA               ST      -Y, R27
   \   00000002   93AA               ST      -Y, R26
   \   00000004   01D8               MOVW    R27:R26, R17:R16
    447          {
   \   00000006   018D               MOVW    R17:R16, R27:R26
   \   00000008   ....               RCALL   ??CAlarmDfa
   \   0000000A   ....               LDI     R16, LOW(??__vtbl_10)
   \   0000000C   ....               LDI     R17, (??__vtbl_10) >> 8
   \   0000000E   01FD               MOVW    R31:R30, R27:R26
   \   00000010   8301               STD     Z+1, R16
   \   00000012   8312               STD     Z+2, R17
    448              SetFsmState(ACTIVE_STATE_WAITING);
   \   00000014   E021               LDI     R18, 1
   \   00000016   018D               MOVW    R17:R16, R27:R26
   \   00000018   ........           CALL    ??SetFsmState
    449          }
   \   0000001C   018D               MOVW    R17:R16, R27:R26
   \   0000001E   91A9               LD      R26, Y+
   \   00000020   91B9               LD      R27, Y+
   \   00000022   9508               RET
    450          
    451          //-----------------------------------------------------------------------------------------------------

   \                                 In  segment CODE, align 2, keep-with-next
    452          CEmergencyAlarmHighLevelNamurDfa::~CEmergencyAlarmHighLevelNamurDfa()
   \                     `?~CEmergencyAlarmHighLevelNamurDfa`:
    453          {
   \   00000000   ........           CALL    ?PROLOGUE4_L09
   \   00000004   01C8               MOVW    R25:R24, R17:R16
   \   00000006   01D9               MOVW    R27:R26, R19:R18
   \   00000008   2F08               MOV     R16, R24
   \   0000000A   2B09               OR      R16, R25
   \   0000000C   F049               BREQ    `?~CEmergencyAlarmHighLevelNamurDfa_1`
    454              //dtor
    455          }
   \   0000000E   E020               LDI     R18, 0
   \   00000010   E030               LDI     R19, 0
   \   00000012   018C               MOVW    R17:R16, R25:R24
   \   00000014   ....               RCALL   `?~CAlarmDfa`
   \   00000016   FBA0               BST     R26, 0
   \   00000018   F41E               BRTC    `?~CEmergencyAlarmHighLevelNamurDfa_1`
   \   0000001A   018C               MOVW    R17:R16, R25:R24
   \   0000001C   ........           CALL    `??operator delete`
   \                     `?~CEmergencyAlarmHighLevelNamurDfa_1`:
   \   00000020   E0E4               LDI     R30, 4
   \   00000022   ........           JMP     ?EPILOGUE_B4_L09
    456          //-----------------------------------------------------------------------------------------------------
    457          
    458          
    459          
    460          
    461          
    462          
    463          
    464          
    465          //-----------------------------------------------------------------------------------------------------

   \                                 In  segment CODE, align 2, keep-with-next
    466          CIndicationAlarmLowLevelDfa::CIndicationAlarmLowLevelDfa()
   \                     ??CIndicationAlarmLowLevelDfa:
   \   00000000   93BA               ST      -Y, R27
   \   00000002   93AA               ST      -Y, R26
   \   00000004   01D8               MOVW    R27:R26, R17:R16
    467          {
   \   00000006   018D               MOVW    R17:R16, R27:R26
   \   00000008   ....               RCALL   ??CAlarmDfa
   \   0000000A   ....               LDI     R16, LOW(??__vtbl_11)
   \   0000000C   ....               LDI     R17, (??__vtbl_11) >> 8
   \   0000000E   01FD               MOVW    R31:R30, R27:R26
   \   00000010   8301               STD     Z+1, R16
   \   00000012   8312               STD     Z+2, R17
    468              SetFsmState(ACTIVE_STATE_WAITING);
   \   00000014   E021               LDI     R18, 1
   \   00000016   018D               MOVW    R17:R16, R27:R26
   \   00000018   ........           CALL    ??SetFsmState
    469          }
   \   0000001C   018D               MOVW    R17:R16, R27:R26
   \   0000001E   91A9               LD      R26, Y+
   \   00000020   91B9               LD      R27, Y+
   \   00000022   9508               RET
    470          
    471          //-----------------------------------------------------------------------------------------------------

   \                                 In  segment CODE, align 2, keep-with-next
    472          CIndicationAlarmLowLevelDfa::~CIndicationAlarmLowLevelDfa()
   \                     `?~CIndicationAlarmLowLevelDfa`:
    473          {
   \   00000000   ........           CALL    ?PROLOGUE4_L09
   \   00000004   01C8               MOVW    R25:R24, R17:R16
   \   00000006   01D9               MOVW    R27:R26, R19:R18
   \   00000008   2F08               MOV     R16, R24
   \   0000000A   2B09               OR      R16, R25
   \   0000000C   F049               BREQ    `?~CIndicationAlarmLowLevelDfa_1`
    474              //dtor
    475          }
   \   0000000E   E020               LDI     R18, 0
   \   00000010   E030               LDI     R19, 0
   \   00000012   018C               MOVW    R17:R16, R25:R24
   \   00000014   ....               RCALL   `?~CAlarmDfa`
   \   00000016   FBA0               BST     R26, 0
   \   00000018   F41E               BRTC    `?~CIndicationAlarmLowLevelDfa_1`
   \   0000001A   018C               MOVW    R17:R16, R25:R24
   \   0000001C   ........           CALL    `??operator delete`
   \                     `?~CIndicationAlarmLowLevelDfa_1`:
   \   00000020   E0E4               LDI     R30, 4
   \   00000022   ........           JMP     ?EPILOGUE_B4_L09
    476          
    477          //-----------------------------------------------------------------------------------------------------
    478          // јвтомат обработки сигнализации дискретного сигнала.

   \                                 In  segment CODE, align 2, keep-with-next
    479          void CIndicationAlarmLowLevelDfa::Fsm(void)
   \                     ??Fsm_1:
    480          {
   \   00000000   ........           CALL    ?PROLOGUE5_L09
   \   00000004                      REQUIRE ?Register_R4_is_cg_reg
   \   00000004   01D8               MOVW    R27:R26, R17:R16
    481              switch (GetFsmState())
   \   00000006   018D               MOVW    R17:R16, R27:R26
   \   00000008   ........           CALL    ??GetFsmState
   \   0000000C   5000               SUBI    R16, 0
   \   0000000E   F031               BREQ    ??Fsm_47
   \   00000010   950A               DEC     R16
   \   00000012   F029               BREQ    ??Fsm_48
   \   00000014   5006               SUBI    R16, 6
   \   00000016   F409               BRNE    $+2+2
   \   00000018   C054               RJMP    ??Fsm_49
   \   0000001A   C087               RJMP    ??Fsm_50
    482              {
    483              case START:
    484                  break;
   \                     ??Fsm_47:
   \   0000001C   C086               RJMP    ??Fsm_50
    485          
    486              case ACTIVE_STATE_WAITING:
    487                  // ƒискретный сигнал активен?
    488                  if (CPss21::GetDiscreteInputState(GetDiscreteStateIndex()) ^ ACTIVE_LEVEL())
   \                     ??Fsm_48:
   \   0000001E   01FD               MOVW    R31:R30, R27:R26
   \   00000020   8181               LDD     R24, Z+1
   \   00000022   8192               LDD     R25, Z+2
   \   00000024   9606               ADIW    R25:R24, 6
   \   00000026   018D               MOVW    R17:R16, R27:R26
   \   00000028   ........           CALL    ??GetDiscreteStateIndex
   \   0000002C   ........           CALL    ??GetDiscreteInputState
   \   00000030   2E40               MOV     R4, R16
   \   00000032   018D               MOVW    R17:R16, R27:R26
   \   00000034   01FC               MOVW    R31:R30, R25:R24
   \   00000036   9125               LPM     R18, Z+
   \   00000038   9134               LPM     R19, Z
   \   0000003A   9731               SBIW    R31:R30, 1
   \   0000003C   01F9               MOVW    R31:R30, R19:R18
   \   0000003E   9509               ICALL
   \   00000040   2640               EOR     R4, R16
   \   00000042   2044               TST     R4
   \   00000044   F011               BREQ    ??Fsm_51
   \   00000046   E001               LDI     R16, 1
   \   00000048   C001               RJMP    ??Fsm_52
   \                     ??Fsm_51:
   \   0000004A   E000               LDI     R16, 0
   \                     ??Fsm_52:
   \   0000004C   2300               TST     R16
   \   0000004E   F1C1               BREQ    ??Fsm_53
    489                  {
    490                      // ”становим св€занные дискретный выходы - новое нарушение.
    491                      CPss21::DiscreteOutputsSet(GetLinkedDiscreteOutputsPointer(), NEW_VIOLATION);
   \   00000050   018D               MOVW    R17:R16, R27:R26
   \   00000052   ........           CALL    ??GetLinkedDiscreteOutputsPointer
   \   00000056   E021               LDI     R18, 1
   \   00000058   ........           CALL    ??DiscreteOutputsSet
    492                      // ”становим тип сигнализации св€занному окну в массиве управлени€ окнами извещател€.
    493                      CPss21::SetAlarmWindowType(GetAlarmWindowIndex(), ALARM_TYPE());
   \   0000005C   018D               MOVW    R17:R16, R27:R26
   \   0000005E   9611               ADIW    R27:R26, 1
   \   00000060   91ED               LD      R30, X+
   \   00000062   91FC               LD      R31, X
   \   00000064   9712               SBIW    R27:R26, 2
   \   00000066   9634               ADIW    R31:R30, 4
   \   00000068   9125               LPM     R18, Z+
   \   0000006A   9134               LPM     R19, Z
   \   0000006C   9735               SBIW    R31:R30, 5
   \   0000006E   01F9               MOVW    R31:R30, R19:R18
   \   00000070   9509               ICALL
   \   00000072   2F80               MOV     R24, R16
   \   00000074   018D               MOVW    R17:R16, R27:R26
   \   00000076   ........           CALL    ??GetAlarmWindowIndex
   \   0000007A   2F18               MOV     R17, R24
   \   0000007C   ........           CALL    ??SetAlarmWindowType
    494                      CPss21::SetAlarmWindowColor(GetAlarmWindowIndex(), ALARM_TYPE());
   \   00000080   018D               MOVW    R17:R16, R27:R26
   \   00000082   9611               ADIW    R27:R26, 1
   \   00000084   91ED               LD      R30, X+
   \   00000086   91FC               LD      R31, X
   \   00000088   9712               SBIW    R27:R26, 2
   \   0000008A   9634               ADIW    R31:R30, 4
   \   0000008C   9125               LPM     R18, Z+
   \   0000008E   9134               LPM     R19, Z
   \   00000090   9735               SBIW    R31:R30, 5
   \   00000092   01F9               MOVW    R31:R30, R19:R18
   \   00000094   9509               ICALL
   \   00000096   2F80               MOV     R24, R16
   \   00000098   018D               MOVW    R17:R16, R27:R26
   \   0000009A   ........           CALL    ??GetAlarmWindowIndex
   \   0000009E   2F18               MOV     R17, R24
   \   000000A0   ........           CALL    ??SetAlarmWindowColor
    495                      // јктивизируем окно сигнализации, дл€ отображени€ извещателем.
    496                      CPss21::GetAlarmWindowControlPointer(GetAlarmWindowIndex()) -> SetActivityState(1);
   \   000000A4   018D               MOVW    R17:R16, R27:R26
   \   000000A6   ........           CALL    ??GetAlarmWindowIndex
   \   000000AA   ........           CALL    ??GetAlarmWindowControlPointer
   \   000000AE   E021               LDI     R18, 1
   \   000000B0   ........           CALL    ??SetActivityState
    497                      CPss21::BoardWindowsUpdate();
   \   000000B4   ........           CALL    ??BoardWindowsUpdate
    498                      SetFsmState(NOT_ACTIVE_STATE_WAITING);
   \   000000B8   E027               LDI     R18, 7
   \   000000BA   018D               MOVW    R17:R16, R27:R26
   \   000000BC   ........           CALL    ??SetFsmState
    499                  }
    500                  break;
   \                     ??Fsm_53:
   \   000000C0   C034               RJMP    ??Fsm_50
    501          
    502              case NOT_ACTIVE_STATE_WAITING:
    503                  // ƒискретный сигнал не активен?
    504                  if (!(CPss21::GetDiscreteInputState(GetDiscreteStateIndex()) ^ ACTIVE_LEVEL()))
   \                     ??Fsm_49:
   \   000000C2   01FD               MOVW    R31:R30, R27:R26
   \   000000C4   8181               LDD     R24, Z+1
   \   000000C6   8192               LDD     R25, Z+2
   \   000000C8   9606               ADIW    R25:R24, 6
   \   000000CA   018D               MOVW    R17:R16, R27:R26
   \   000000CC   ........           CALL    ??GetDiscreteStateIndex
   \   000000D0   ........           CALL    ??GetDiscreteInputState
   \   000000D4   2E40               MOV     R4, R16
   \   000000D6   018D               MOVW    R17:R16, R27:R26
   \   000000D8   01FC               MOVW    R31:R30, R25:R24
   \   000000DA   9125               LPM     R18, Z+
   \   000000DC   9134               LPM     R19, Z
   \   000000DE   9731               SBIW    R31:R30, 1
   \   000000E0   01F9               MOVW    R31:R30, R19:R18
   \   000000E2   9509               ICALL
   \   000000E4   2640               EOR     R4, R16
   \   000000E6   2044               TST     R4
   \   000000E8   F411               BRNE    ??Fsm_54
   \   000000EA   E001               LDI     R16, 1
   \   000000EC   C001               RJMP    ??Fsm_55
   \                     ??Fsm_54:
   \   000000EE   E000               LDI     R16, 0
   \                     ??Fsm_55:
   \   000000F0   2300               TST     R16
   \   000000F2   F0A9               BREQ    ??Fsm_56
    505                  {
    506                      // ”становим тип сигнализации св€занному окну в массиве управлени€ окнами извещател€.
    507                      CPss21::SetAlarmWindowType(GetAlarmWindowIndex(), NORMAL);
   \   000000F4   018D               MOVW    R17:R16, R27:R26
   \   000000F6   ........           CALL    ??GetAlarmWindowIndex
   \   000000FA   E010               LDI     R17, 0
   \   000000FC   ........           CALL    ??SetAlarmWindowType
    508                      // ƒеактмвируем окно сигнализации, дл€ прекращени€ отображени€ извещателем.
    509                      CPss21::GetAlarmWindowControlPointer(GetAlarmWindowIndex()) -> SetActivityState(0);
   \   00000100   018D               MOVW    R17:R16, R27:R26
   \   00000102   ........           CALL    ??GetAlarmWindowIndex
   \   00000106   ........           CALL    ??GetAlarmWindowControlPointer
   \   0000010A   E020               LDI     R18, 0
   \   0000010C   ........           CALL    ??SetActivityState
    510                      CPss21::BoardWindowsUpdate();
   \   00000110   ........           CALL    ??BoardWindowsUpdate
    511                      SetFsmState(ACTIVE_STATE_WAITING);
   \   00000114   E021               LDI     R18, 1
   \   00000116   018D               MOVW    R17:R16, R27:R26
   \   00000118   ........           CALL    ??SetFsmState
   \   0000011C   C006               RJMP    ??Fsm_50
    512                  }
    513                  else
    514                  {
    515                      // ”становим св€занные дискретный выходы - не новое нарушение.
    516                      CPss21::DiscreteOutputsSet(GetLinkedDiscreteOutputsPointer(), NOT_NEW_VIOLATION);
   \                     ??Fsm_56:
   \   0000011E   018D               MOVW    R17:R16, R27:R26
   \   00000120   ........           CALL    ??GetLinkedDiscreteOutputsPointer
   \   00000124   E020               LDI     R18, 0
   \   00000126   ........           CALL    ??DiscreteOutputsSet
    517                  }
    518                  break;
    519          
    520              default:
    521                  break;
    522              }
    523          }
   \                     ??Fsm_50:
   \   0000012A   E0E5               LDI     R30, 5
   \   0000012C   ........           JMP     ?EPILOGUE_B5_L09
    524          //-----------------------------------------------------------------------------------------------------
    525          
    526          
    527          
    528          
    529          
    530          
    531          
    532          
    533          //-----------------------------------------------------------------------------------------------------

   \                                 In  segment CODE, align 2, keep-with-next
    534          CIndicationAlarmHighLevelDfa::CIndicationAlarmHighLevelDfa()
   \                     ??CIndicationAlarmHighLevelDfa:
   \   00000000   93BA               ST      -Y, R27
   \   00000002   93AA               ST      -Y, R26
   \   00000004   01D8               MOVW    R27:R26, R17:R16
    535          {
   \   00000006   018D               MOVW    R17:R16, R27:R26
   \   00000008   ....               RCALL   ??CIndicationAlarmLowLevelDfa
   \   0000000A   ....               LDI     R16, LOW(??__vtbl_12)
   \   0000000C   ....               LDI     R17, (??__vtbl_12) >> 8
   \   0000000E   01FD               MOVW    R31:R30, R27:R26
   \   00000010   8301               STD     Z+1, R16
   \   00000012   8312               STD     Z+2, R17
    536              SetFsmState(ACTIVE_STATE_WAITING);
   \   00000014   E021               LDI     R18, 1
   \   00000016   018D               MOVW    R17:R16, R27:R26
   \   00000018   ........           CALL    ??SetFsmState
    537          }
   \   0000001C   018D               MOVW    R17:R16, R27:R26
   \   0000001E   91A9               LD      R26, Y+
   \   00000020   91B9               LD      R27, Y+
   \   00000022   9508               RET
    538          
    539          //-----------------------------------------------------------------------------------------------------

   \                                 In  segment CODE, align 2, keep-with-next
    540          CIndicationAlarmHighLevelDfa::~CIndicationAlarmHighLevelDfa()
   \                     `?~CIndicationAlarmHighLevelDfa`:
    541          {
   \   00000000   ........           CALL    ?PROLOGUE4_L09
   \   00000004   01C8               MOVW    R25:R24, R17:R16
   \   00000006   01D9               MOVW    R27:R26, R19:R18
   \   00000008   2F08               MOV     R16, R24
   \   0000000A   2B09               OR      R16, R25
   \   0000000C   F049               BREQ    `?~CIndicationAlarmHighLevelDfa_1`
    542              //dtor
    543          }
   \   0000000E   E020               LDI     R18, 0
   \   00000010   E030               LDI     R19, 0
   \   00000012   018C               MOVW    R17:R16, R25:R24
   \   00000014   ....               RCALL   `?~CIndicationAlarmLowLevelDfa`
   \   00000016   FBA0               BST     R26, 0
   \   00000018   F41E               BRTC    `?~CIndicationAlarmHighLevelDfa_1`
   \   0000001A   018C               MOVW    R17:R16, R25:R24
   \   0000001C   ........           CALL    `??operator delete`
   \                     `?~CIndicationAlarmHighLevelDfa_1`:
   \   00000020   E0E4               LDI     R30, 4
   \   00000022   ........           JMP     ?EPILOGUE_B4_L09
    544          //-----------------------------------------------------------------------------------------------------
    545          
    546          
    547          //-----------------------------------------------------------------------------------------------------

   \                                 In  segment CODE, align 2, keep-with-next
    548          CIndicationAlarmLowLevelNamurDfa::CIndicationAlarmLowLevelNamurDfa()
   \                     ??CIndicationAlarmLowLevelNamurDfa:
   \   00000000   93BA               ST      -Y, R27
   \   00000002   93AA               ST      -Y, R26
   \   00000004   01D8               MOVW    R27:R26, R17:R16
    549          {
   \   00000006   018D               MOVW    R17:R16, R27:R26
   \   00000008   ....               RCALL   ??CIndicationAlarmLowLevelDfa
   \   0000000A   ....               LDI     R16, LOW(??__vtbl_13)
   \   0000000C   ....               LDI     R17, (??__vtbl_13) >> 8
   \   0000000E   01FD               MOVW    R31:R30, R27:R26
   \   00000010   8301               STD     Z+1, R16
   \   00000012   8312               STD     Z+2, R17
    550              SetFsmState(ACTIVE_STATE_WAITING);
   \   00000014   E021               LDI     R18, 1
   \   00000016   018D               MOVW    R17:R16, R27:R26
   \   00000018   ........           CALL    ??SetFsmState
    551          }
   \   0000001C   018D               MOVW    R17:R16, R27:R26
   \   0000001E   91A9               LD      R26, Y+
   \   00000020   91B9               LD      R27, Y+
   \   00000022   9508               RET
    552          
    553          //-----------------------------------------------------------------------------------------------------

   \                                 In  segment CODE, align 2, keep-with-next
    554          CIndicationAlarmLowLevelNamurDfa::~CIndicationAlarmLowLevelNamurDfa()
   \                     `?~CIndicationAlarmLowLevelNamurDfa`:
    555          {
   \   00000000   ........           CALL    ?PROLOGUE4_L09
   \   00000004   01C8               MOVW    R25:R24, R17:R16
   \   00000006   01D9               MOVW    R27:R26, R19:R18
   \   00000008   2F08               MOV     R16, R24
   \   0000000A   2B09               OR      R16, R25
   \   0000000C   F049               BREQ    `?~CIndicationAlarmLowLevelNamurDfa_1`
    556              //dtor
    557          }
   \   0000000E   E020               LDI     R18, 0
   \   00000010   E030               LDI     R19, 0
   \   00000012   018C               MOVW    R17:R16, R25:R24
   \   00000014   ....               RCALL   `?~CIndicationAlarmLowLevelDfa`
   \   00000016   FBA0               BST     R26, 0
   \   00000018   F41E               BRTC    `?~CIndicationAlarmLowLevelNamurDfa_1`
   \   0000001A   018C               MOVW    R17:R16, R25:R24
   \   0000001C   ........           CALL    `??operator delete`
   \                     `?~CIndicationAlarmLowLevelNamurDfa_1`:
   \   00000020   E0E4               LDI     R30, 4
   \   00000022   ........           JMP     ?EPILOGUE_B4_L09
    558          //-----------------------------------------------------------------------------------------------------

   \                                 In  segment CODE, align 2, keep-with-next
    559          CIndicationAlarmHighLevelNamurDfa::CIndicationAlarmHighLevelNamurDfa()
   \                     ??CIndicationAlarmHighLevelNamurDfa:
   \   00000000   93BA               ST      -Y, R27
   \   00000002   93AA               ST      -Y, R26
   \   00000004   01D8               MOVW    R27:R26, R17:R16
    560          {
   \   00000006   018D               MOVW    R17:R16, R27:R26
   \   00000008   ....               RCALL   ??CIndicationAlarmLowLevelDfa
   \   0000000A   ....               LDI     R16, LOW(??__vtbl_14)
   \   0000000C   ....               LDI     R17, (??__vtbl_14) >> 8
   \   0000000E   01FD               MOVW    R31:R30, R27:R26
   \   00000010   8301               STD     Z+1, R16
   \   00000012   8312               STD     Z+2, R17
    561              SetFsmState(ACTIVE_STATE_WAITING);
   \   00000014   E021               LDI     R18, 1
   \   00000016   018D               MOVW    R17:R16, R27:R26
   \   00000018   ........           CALL    ??SetFsmState
    562          }
   \   0000001C   018D               MOVW    R17:R16, R27:R26
   \   0000001E   91A9               LD      R26, Y+
   \   00000020   91B9               LD      R27, Y+
   \   00000022   9508               RET
    563          
    564          //-----------------------------------------------------------------------------------------------------

   \                                 In  segment CODE, align 2, keep-with-next
    565          CIndicationAlarmHighLevelNamurDfa::~CIndicationAlarmHighLevelNamurDfa()
   \                     `?~CIndicationAlarmHighLevelNamurDfa`:
    566          {
   \   00000000   ........           CALL    ?PROLOGUE4_L09
   \   00000004   01C8               MOVW    R25:R24, R17:R16
   \   00000006   01D9               MOVW    R27:R26, R19:R18
   \   00000008   2F08               MOV     R16, R24
   \   0000000A   2B09               OR      R16, R25
   \   0000000C   F049               BREQ    `?~CIndicationAlarmHighLevelNamurDfa_1`
    567              //dtor
    568          }
   \   0000000E   E020               LDI     R18, 0
   \   00000010   E030               LDI     R19, 0
   \   00000012   018C               MOVW    R17:R16, R25:R24
   \   00000014   ....               RCALL   `?~CIndicationAlarmLowLevelDfa`
   \   00000016   FBA0               BST     R26, 0
   \   00000018   F41E               BRTC    `?~CIndicationAlarmHighLevelNamurDfa_1`
   \   0000001A   018C               MOVW    R17:R16, R25:R24
   \   0000001C   ........           CALL    `??operator delete`
   \                     `?~CIndicationAlarmHighLevelNamurDfa_1`:
   \   00000020   E0E4               LDI     R30, 4
   \   00000022   ........           JMP     ?EPILOGUE_B4_L09
    569          
    570          
    571          
    572          
    573          
    574          
    575          
    576          //-----------------------------------------------------------------------------------------------------

   \                                 In  segment CODE, align 2, keep-with-next
    577          CErrorAlarmDfa::CErrorAlarmDfa()
   \                     ??CErrorAlarmDfa:
   \   00000000   93BA               ST      -Y, R27
   \   00000002   93AA               ST      -Y, R26
   \   00000004   01D8               MOVW    R27:R26, R17:R16
    578          {
   \   00000006   018D               MOVW    R17:R16, R27:R26
   \   00000008   ........           CALL    ??CDfaLite
   \   0000000C   ....               LDI     R16, LOW(??__vtbl_15)
   \   0000000E   ....               LDI     R17, (??__vtbl_15) >> 8
   \   00000010   01FD               MOVW    R31:R30, R27:R26
   \   00000012   8301               STD     Z+1, R16
   \   00000014   8312               STD     Z+2, R17
    579              SetFsmState(ACTIVE_STATE_WAITING);
   \   00000016   E021               LDI     R18, 1
   \   00000018   018D               MOVW    R17:R16, R27:R26
   \   0000001A   ........           CALL    ??SetFsmState
    580          }
   \   0000001E   018D               MOVW    R17:R16, R27:R26
   \   00000020   91A9               LD      R26, Y+
   \   00000022   91B9               LD      R27, Y+
   \   00000024   9508               RET
    581          
    582          //-----------------------------------------------------------------------------------------------------

   \                                 In  segment CODE, align 2, keep-with-next
    583          CErrorAlarmDfa::~CErrorAlarmDfa()
   \                     `?~CErrorAlarmDfa`:
    584          {
   \   00000000   ........           CALL    ?PROLOGUE4_L09
   \   00000004   01C8               MOVW    R25:R24, R17:R16
   \   00000006   01D9               MOVW    R27:R26, R19:R18
   \   00000008   2F08               MOV     R16, R24
   \   0000000A   2B09               OR      R16, R25
   \   0000000C   F051               BREQ    `?~CErrorAlarmDfa_1`
    585              //dtor
    586          }
   \   0000000E   E020               LDI     R18, 0
   \   00000010   E030               LDI     R19, 0
   \   00000012   018C               MOVW    R17:R16, R25:R24
   \   00000014   ........           CALL    `?~CDfaLite`
   \   00000018   FBA0               BST     R26, 0
   \   0000001A   F41E               BRTC    `?~CErrorAlarmDfa_1`
   \   0000001C   018C               MOVW    R17:R16, R25:R24
   \   0000001E   ........           CALL    `??operator delete`
   \                     `?~CErrorAlarmDfa_1`:
   \   00000022   E0E4               LDI     R30, 4
   \   00000024   ........           JMP     ?EPILOGUE_B4_L09
    587          
    588          //-----------------------------------------------------------------------------------------------------
    589          // јвтомат обработки системных ошибок.

   \                                 In  segment CODE, align 2, keep-with-next
    590          void CErrorAlarmDfa::Fsm(void)
   \                     ??Fsm_2:
    591          {
   \   00000000   ........           CALL    ?PROLOGUE5_L09
   \   00000004                      REQUIRE ?Register_R4_is_cg_reg
   \   00000004   01D8               MOVW    R27:R26, R17:R16
    592              switch (GetFsmState())
   \   00000006   018D               MOVW    R17:R16, R27:R26
   \   00000008   ........           CALL    ??GetFsmState
   \   0000000C   5000               SUBI    R16, 0
   \   0000000E   F049               BREQ    ??Fsm_57
   \   00000010   950A               DEC     R16
   \   00000012   F041               BREQ    ??Fsm_58
   \   00000014   950A               DEC     R16
   \   00000016   F409               BRNE    $+2+2
   \   00000018   C063               RJMP    ??Fsm_59
   \   0000001A   950A               DEC     R16
   \   0000001C   F409               BRNE    $+2+2
   \   0000001E   C06B               RJMP    ??Fsm_60
   \   00000020   C08B               RJMP    ??Fsm_61
    593              {
    594              case START:
    595                  break;
   \                     ??Fsm_57:
   \   00000022   C08A               RJMP    ??Fsm_61
    596          
    597              case ACTIVE_STATE_WAITING:
    598                  // ƒискретный сигнал активен?
    599                  if (CPss21::GetErrorAlarmState(GetDiscreteStateIndex()) ^ ACTIVE_LEVEL())
   \                     ??Fsm_58:
   \   00000024   01FD               MOVW    R31:R30, R27:R26
   \   00000026   8181               LDD     R24, Z+1
   \   00000028   8192               LDD     R25, Z+2
   \   0000002A   9606               ADIW    R25:R24, 6
   \   0000002C   018D               MOVW    R17:R16, R27:R26
   \   0000002E   ........           CALL    ??GetDiscreteStateIndex_1
   \   00000032   ........           CALL    ??GetErrorAlarmState
   \   00000036   2E40               MOV     R4, R16
   \   00000038   018D               MOVW    R17:R16, R27:R26
   \   0000003A   01FC               MOVW    R31:R30, R25:R24
   \   0000003C   9125               LPM     R18, Z+
   \   0000003E   9134               LPM     R19, Z
   \   00000040   9731               SBIW    R31:R30, 1
   \   00000042   01F9               MOVW    R31:R30, R19:R18
   \   00000044   9509               ICALL
   \   00000046   2640               EOR     R4, R16
   \   00000048   2044               TST     R4
   \   0000004A   F011               BREQ    ??Fsm_62
   \   0000004C   E001               LDI     R16, 1
   \   0000004E   C001               RJMP    ??Fsm_63
   \                     ??Fsm_62:
   \   00000050   E000               LDI     R16, 0
   \                     ??Fsm_63:
   \   00000052   2300               TST     R16
   \   00000054   F409               BRNE    $+2+2
   \   00000056   C070               RJMP    ??Fsm_61
    600                  {
    601                      // “ип запрограммированной сигнализации дискретного сигнала имеет более высокий приоритет,
    602                      // чем тип общей сигнализации?
    603                      if ((CPss21::GetCommonAlarmType() != ERROR) &&
    604                              (CPss21::GetCommonAlarmType() < ALARM_TYPE()))
   \   00000058   ........           CALL    ??GetCommonAlarmType
   \   0000005C   3007               CPI     R16, 7
   \   0000005E   F121               BREQ    ??Fsm_64
   \   00000060   01FD               MOVW    R31:R30, R27:R26
   \   00000062   8181               LDD     R24, Z+1
   \   00000064   8192               LDD     R25, Z+2
   \   00000066   9604               ADIW    R25:R24, 4
   \   00000068   ........           CALL    ??GetCommonAlarmType
   \   0000006C   2E40               MOV     R4, R16
   \   0000006E   018D               MOVW    R17:R16, R27:R26
   \   00000070   01FC               MOVW    R31:R30, R25:R24
   \   00000072   9125               LPM     R18, Z+
   \   00000074   9134               LPM     R19, Z
   \   00000076   9731               SBIW    R31:R30, 1
   \   00000078   01F9               MOVW    R31:R30, R19:R18
   \   0000007A   9509               ICALL
   \   0000007C   1640               CP      R4, R16
   \   0000007E   F010               BRCS    ??Fsm_65
   \   00000080   E001               LDI     R16, 1
   \   00000082   C001               RJMP    ??Fsm_66
   \                     ??Fsm_65:
   \   00000084   E000               LDI     R16, 0
   \                     ??Fsm_66:
   \   00000086   2300               TST     R16
   \   00000088   F479               BRNE    ??Fsm_64
    605                      {
    606                          // ”становим тип общей сигнализацию.
    607                          CPss21::SetCommonAlarmType(ALARM_TYPE());
   \   0000008A   018D               MOVW    R17:R16, R27:R26
   \   0000008C   9611               ADIW    R27:R26, 1
   \   0000008E   91ED               LD      R30, X+
   \   00000090   91FC               LD      R31, X
   \   00000092   9712               SBIW    R27:R26, 2
   \   00000094   9634               ADIW    R31:R30, 4
   \   00000096   9125               LPM     R18, Z+
   \   00000098   9134               LPM     R19, Z
   \   0000009A   9735               SBIW    R31:R30, 5
   \   0000009C   01F9               MOVW    R31:R30, R19:R18
   \   0000009E   9509               ICALL
   \   000000A0   ........           CALL    ??SetCommonAlarmType
    608          
    609                          // »зменим тип общей сигнализацию.
    610                          CPss21::AlarmTypeErrorChange();
   \   000000A4   ........           CALL    ??AlarmTypeErrorChange
    611                      }
    612          
    613                      CPss21::SetAlarmWindowColor(GetAlarmWindowIndex(), ALARM_TYPE());
   \                     ??Fsm_64:
   \   000000A8   018D               MOVW    R17:R16, R27:R26
   \   000000AA   9611               ADIW    R27:R26, 1
   \   000000AC   91ED               LD      R30, X+
   \   000000AE   91FC               LD      R31, X
   \   000000B0   9712               SBIW    R27:R26, 2
   \   000000B2   9634               ADIW    R31:R30, 4
   \   000000B4   9125               LPM     R18, Z+
   \   000000B6   9134               LPM     R19, Z
   \   000000B8   9735               SBIW    R31:R30, 5
   \   000000BA   01F9               MOVW    R31:R30, R19:R18
   \   000000BC   9509               ICALL
   \   000000BE   2F80               MOV     R24, R16
   \   000000C0   018D               MOVW    R17:R16, R27:R26
   \   000000C2   ........           CALL    ??GetAlarmWindowIndex_1
   \   000000C6   2F18               MOV     R17, R24
   \   000000C8   ........           CALL    ??SetAlarmWindowColor
    614          //            // ”становим тип сигнализации св€занному окну в массиве управлени€ окнами извещател€.
    615                      CPss21::ErrorWindowOn(GetAlarmWindowIndex());
   \   000000CC   018D               MOVW    R17:R16, R27:R26
   \   000000CE   ........           CALL    ??GetAlarmWindowIndex_1
   \   000000D2   ........           CALL    ??ErrorWindowOn
    616                      SetFsmState(RECEIPT_WAITING);
   \   000000D6   E022               LDI     R18, 2
   \   000000D8   018D               MOVW    R17:R16, R27:R26
   \   000000DA   ........           CALL    ??SetFsmState
    617                  }
    618                  break;
   \   000000DE   C02C               RJMP    ??Fsm_61
    619          
    620              case RECEIPT_WAITING:
    621                  // —обытие квитировано?
    622                  if (CPss21::GetDiscreteSignalsReceipt())
   \                     ??Fsm_59:
   \   000000E0   ........           CALL    ??GetDiscreteSignalsReceipt
   \   000000E4   2300               TST     R16
   \   000000E6   F141               BREQ    ??Fsm_61
    623                  {
    624                      // ѕереведЄм автоматы сигнализаций в состо€ние - квитировано.
    625                      CPss21::AlarmTypeReceipt();
   \   000000E8   ........           CALL    ??AlarmTypeReceipt
    626                      SetFsmState(RECEIPTED_NOT_ACTIVE_STATE_WAITING);
   \   000000EC   E023               LDI     R18, 3
   \   000000EE   018D               MOVW    R17:R16, R27:R26
   \   000000F0   ........           CALL    ??SetFsmState
    627                  }
    628                  break;
   \   000000F4   C021               RJMP    ??Fsm_61
    629          
    630              case RECEIPTED_NOT_ACTIVE_STATE_WAITING:
    631                  // ƒискретный сигнал не активен?
    632                  if (!(CPss21::GetErrorAlarmState(GetDiscreteStateIndex()) ^ ACTIVE_LEVEL()))
   \                     ??Fsm_60:
   \   000000F6   01FD               MOVW    R31:R30, R27:R26
   \   000000F8   8181               LDD     R24, Z+1
   \   000000FA   8192               LDD     R25, Z+2
   \   000000FC   9606               ADIW    R25:R24, 6
   \   000000FE   018D               MOVW    R17:R16, R27:R26
   \   00000100   ........           CALL    ??GetDiscreteStateIndex_1
   \   00000104   ........           CALL    ??GetErrorAlarmState
   \   00000108   2E40               MOV     R4, R16
   \   0000010A   018D               MOVW    R17:R16, R27:R26
   \   0000010C   01FC               MOVW    R31:R30, R25:R24
   \   0000010E   9125               LPM     R18, Z+
   \   00000110   9134               LPM     R19, Z
   \   00000112   9731               SBIW    R31:R30, 1
   \   00000114   01F9               MOVW    R31:R30, R19:R18
   \   00000116   9509               ICALL
   \   00000118   2640               EOR     R4, R16
   \   0000011A   2044               TST     R4
   \   0000011C   F411               BRNE    ??Fsm_67
   \   0000011E   E001               LDI     R16, 1
   \   00000120   C001               RJMP    ??Fsm_68
   \                     ??Fsm_67:
   \   00000122   E000               LDI     R16, 0
   \                     ??Fsm_68:
   \   00000124   2300               TST     R16
   \   00000126   F041               BREQ    ??Fsm_61
    633                  {
    634                      // ѕереведЄм автоматы сигнализаций в состо€ние - сброшено.
    635                      CPss21::AlarmTypeReset();
   \   00000128   ........           CALL    ??AlarmTypeReset
    636                      CPss21::AllAlarmWindowOff();
   \   0000012C   ........           CALL    ??AllAlarmWindowOff
    637                      SetFsmState(ACTIVE_STATE_WAITING);
   \   00000130   E021               LDI     R18, 1
   \   00000132   018D               MOVW    R17:R16, R27:R26
   \   00000134   ........           CALL    ??SetFsmState
    638                  }
    639                  break;
    640          
    641              default:
    642                  break;
    643              }
    644          }
   \                     ??Fsm_61:
   \   00000138   E0E5               LDI     R30, 5
   \   0000013A   ........           JMP     ?EPILOGUE_B5_L09

   \                                 In  segment CODE, align 2, keep-with-next
   \   __version_3 CAlarmDfa &CAlarmDfa::new CAlarmDfa()
   \                     `??new CAlarmDfa`:
   \   00000000   E007               LDI     R16, 7
   \   00000002   E010               LDI     R17, 0
   \   00000004   ........           CALL    `??operator new`
   \   00000008   2F20               MOV     R18, R16
   \   0000000A   2B21               OR      R18, R17
   \   0000000C   F011               BREQ    `??new CAlarmDfa_1`
   \   0000000E   ....               RCALL   ??CAlarmDfa
   \   00000010   9508               RET
   \                     `??new CAlarmDfa_1`:
   \   00000012   E000               LDI     R16, 0
   \   00000014   E010               LDI     R17, 0
   \   00000016   9508               RET

   \                                 In  segment CODE, align 2, keep-with-next
   \   __version_3 CNormalAlarmDfa &CNormalAlarmDfa::new CNormalAlarmDfa()
   \                     `??new CNormalAlarmDfa`:
   \   00000000   E007               LDI     R16, 7
   \   00000002   E010               LDI     R17, 0
   \   00000004   ........           CALL    `??operator new`
   \   00000008   2F20               MOV     R18, R16
   \   0000000A   2B21               OR      R18, R17
   \   0000000C   F011               BREQ    `??new CNormalAlarmDfa_1`
   \   0000000E   ....               RCALL   ??CNormalAlarmDfa
   \   00000010   9508               RET
   \                     `??new CNormalAlarmDfa_1`:
   \   00000012   E000               LDI     R16, 0
   \   00000014   E010               LDI     R17, 0
   \   00000016   9508               RET

   \                                 In  segment CODE, align 2, keep-with-next
   \   __version_3 CPreventiveAlarmLowLevelDfa &CPreventiveAlarmLowLevelDfa::new CPreventiveAlarmLowLevelDfa()
   \                     `??new CPreventiveAlarmLowLevelDfa`:
   \   00000000   E007               LDI     R16, 7
   \   00000002   E010               LDI     R17, 0
   \   00000004   ........           CALL    `??operator new`
   \   00000008   2F20               MOV     R18, R16
   \   0000000A   2B21               OR      R18, R17
   \   0000000C   F011               BREQ    `??new CPreventiveAlarmLowLevelDfa_1`
   \   0000000E   ....               RCALL   ??CPreventiveAlarmLowLevelDfa
   \   00000010   9508               RET
   \                     `??new CPreventiveAlarmLowLevelDfa_1`:
   \   00000012   E000               LDI     R16, 0
   \   00000014   E010               LDI     R17, 0
   \   00000016   9508               RET

   \                                 In  segment CODE, align 2, keep-with-next
   \   __version_3 CPreventiveAlarmHighLevelDfa &CPreventiveAlarmHighLevelDfa::new CPreventiveAlarmHighLevelDfa()
   \                     `??new CPreventiveAlarmHighLevelDfa`:
   \   00000000   E007               LDI     R16, 7
   \   00000002   E010               LDI     R17, 0
   \   00000004   ........           CALL    `??operator new`
   \   00000008   2F20               MOV     R18, R16
   \   0000000A   2B21               OR      R18, R17
   \   0000000C   F011               BREQ    `??new CPreventiveAlarmHighLevelDfa_1`
   \   0000000E   ....               RCALL   ??CPreventiveAlarmHighLevelDfa
   \   00000010   9508               RET
   \                     `??new CPreventiveAlarmHighLevelDfa_1`:
   \   00000012   E000               LDI     R16, 0
   \   00000014   E010               LDI     R17, 0
   \   00000016   9508               RET

   \                                 In  segment CODE, align 2, keep-with-next
   \   __version_3 CPreventiveAlarmLowLevelNamurDfa &CPreventiveAlarmLowLevelNamurDfa::new CPreventiveAlarmLowLevelNamurDfa()
   \                     `??new CPreventiveAlarmLowLevelNamurDfa`:
   \   00000000   E007               LDI     R16, 7
   \   00000002   E010               LDI     R17, 0
   \   00000004   ........           CALL    `??operator new`
   \   00000008   2F20               MOV     R18, R16
   \   0000000A   2B21               OR      R18, R17
   \   0000000C   F011               BREQ    `??new CPreventiveAlarmLowLevelNamurDfa_1`
   \   0000000E   ....               RCALL   ??CPreventiveAlarmLowLevelNamurDfa
   \   00000010   9508               RET
   \                     `??new CPreventiveAlarmLowLevelNamurDfa_1`:
   \   00000012   E000               LDI     R16, 0
   \   00000014   E010               LDI     R17, 0
   \   00000016   9508               RET

   \                                 In  segment CODE, align 2, keep-with-next
   \   __version_3 CPreventiveAlarmHighLevelNamurDfa &CPreventiveAlarmHighLevelNamurDfa::new CPreventiveAlarmHighLevelNamurDfa()
   \                     `??new CPreventiveAlarmHighLevelNamurDfa`:
   \   00000000   E007               LDI     R16, 7
   \   00000002   E010               LDI     R17, 0
   \   00000004   ........           CALL    `??operator new`
   \   00000008   2F20               MOV     R18, R16
   \   0000000A   2B21               OR      R18, R17
   \   0000000C   F011               BREQ    `??new CPreventiveAlarmHighLevelNamurDfa_1`
   \   0000000E   ....               RCALL   ??CPreventiveAlarmHighLevelNamurDfa
   \   00000010   9508               RET
   \                     `??new CPreventiveAlarmHighLevelNamurDfa_1`:
   \   00000012   E000               LDI     R16, 0
   \   00000014   E010               LDI     R17, 0
   \   00000016   9508               RET

   \                                 In  segment CODE, align 2, keep-with-next
   \   __version_3 CEmergencyAlarmLowLevelDfa &CEmergencyAlarmLowLevelDfa::new CEmergencyAlarmLowLevelDfa()
   \                     `??new CEmergencyAlarmLowLevelDfa`:
   \   00000000   E007               LDI     R16, 7
   \   00000002   E010               LDI     R17, 0
   \   00000004   ........           CALL    `??operator new`
   \   00000008   2F20               MOV     R18, R16
   \   0000000A   2B21               OR      R18, R17
   \   0000000C   F011               BREQ    `??new CEmergencyAlarmLowLevelDfa_1`
   \   0000000E   ....               RCALL   ??CEmergencyAlarmLowLevelDfa
   \   00000010   9508               RET
   \                     `??new CEmergencyAlarmLowLevelDfa_1`:
   \   00000012   E000               LDI     R16, 0
   \   00000014   E010               LDI     R17, 0
   \   00000016   9508               RET

   \                                 In  segment CODE, align 2, keep-with-next
   \   __version_3 CEmergencyAlarmHighLevelDfa &CEmergencyAlarmHighLevelDfa::new CEmergencyAlarmHighLevelDfa()
   \                     `??new CEmergencyAlarmHighLevelDfa`:
   \   00000000   E007               LDI     R16, 7
   \   00000002   E010               LDI     R17, 0
   \   00000004   ........           CALL    `??operator new`
   \   00000008   2F20               MOV     R18, R16
   \   0000000A   2B21               OR      R18, R17
   \   0000000C   F011               BREQ    `??new CEmergencyAlarmHighLevelDfa_1`
   \   0000000E   ....               RCALL   ??CEmergencyAlarmHighLevelDfa
   \   00000010   9508               RET
   \                     `??new CEmergencyAlarmHighLevelDfa_1`:
   \   00000012   E000               LDI     R16, 0
   \   00000014   E010               LDI     R17, 0
   \   00000016   9508               RET

   \                                 In  segment CODE, align 2, keep-with-next
   \   __version_3 CEmergencyAlarmLowLevelNamurDfa &CEmergencyAlarmLowLevelNamurDfa::new CEmergencyAlarmLowLevelNamurDfa()
   \                     `??new CEmergencyAlarmLowLevelNamurDfa`:
   \   00000000   E007               LDI     R16, 7
   \   00000002   E010               LDI     R17, 0
   \   00000004   ........           CALL    `??operator new`
   \   00000008   2F20               MOV     R18, R16
   \   0000000A   2B21               OR      R18, R17
   \   0000000C   F011               BREQ    `??new CEmergencyAlarmLowLevelNamurDfa_1`
   \   0000000E   ....               RCALL   ??CEmergencyAlarmLowLevelNamurDfa
   \   00000010   9508               RET
   \                     `??new CEmergencyAlarmLowLevelNamurDfa_1`:
   \   00000012   E000               LDI     R16, 0
   \   00000014   E010               LDI     R17, 0
   \   00000016   9508               RET

   \                                 In  segment CODE, align 2, keep-with-next
   \   __version_3 CEmergencyAlarmHighLevelNamurDfa &CEmergencyAlarmHighLevelNamurDfa::new CEmergencyAlarmHighLevelNamurDfa()
   \                     `??new CEmergencyAlarmHighLevelNamurDfa`:
   \   00000000   E007               LDI     R16, 7
   \   00000002   E010               LDI     R17, 0
   \   00000004   ........           CALL    `??operator new`
   \   00000008   2F20               MOV     R18, R16
   \   0000000A   2B21               OR      R18, R17
   \   0000000C   F011               BREQ    `??new CEmergencyAlarmHighLevelNamurDfa_1`
   \   0000000E   ....               RCALL   ??CEmergencyAlarmHighLevelNamurDfa
   \   00000010   9508               RET
   \                     `??new CEmergencyAlarmHighLevelNamurDfa_1`:
   \   00000012   E000               LDI     R16, 0
   \   00000014   E010               LDI     R17, 0
   \   00000016   9508               RET

   \                                 In  segment CODE, align 2, keep-with-next
   \   __version_3 CIndicationAlarmLowLevelDfa &CIndicationAlarmLowLevelDfa::new CIndicationAlarmLowLevelDfa()
   \                     `??new CIndicationAlarmLowLevelDfa`:
   \   00000000   E007               LDI     R16, 7
   \   00000002   E010               LDI     R17, 0
   \   00000004   ........           CALL    `??operator new`
   \   00000008   2F20               MOV     R18, R16
   \   0000000A   2B21               OR      R18, R17
   \   0000000C   F011               BREQ    `??new CIndicationAlarmLowLevelDfa_1`
   \   0000000E   ....               RCALL   ??CIndicationAlarmLowLevelDfa
   \   00000010   9508               RET
   \                     `??new CIndicationAlarmLowLevelDfa_1`:
   \   00000012   E000               LDI     R16, 0
   \   00000014   E010               LDI     R17, 0
   \   00000016   9508               RET

   \                                 In  segment CODE, align 2, keep-with-next
   \   __version_3 CIndicationAlarmHighLevelDfa &CIndicationAlarmHighLevelDfa::new CIndicationAlarmHighLevelDfa()
   \                     `??new CIndicationAlarmHighLevelDfa`:
   \   00000000   E007               LDI     R16, 7
   \   00000002   E010               LDI     R17, 0
   \   00000004   ........           CALL    `??operator new`
   \   00000008   2F20               MOV     R18, R16
   \   0000000A   2B21               OR      R18, R17
   \   0000000C   F011               BREQ    `??new CIndicationAlarmHighLevelDfa_1`
   \   0000000E   ....               RCALL   ??CIndicationAlarmHighLevelDfa
   \   00000010   9508               RET
   \                     `??new CIndicationAlarmHighLevelDfa_1`:
   \   00000012   E000               LDI     R16, 0
   \   00000014   E010               LDI     R17, 0
   \   00000016   9508               RET

   \                                 In  segment CODE, align 2, keep-with-next
   \   __version_3 CIndicationAlarmLowLevelNamurDfa &CIndicationAlarmLowLevelNamurDfa::new CIndicationAlarmLowLevelNamurDfa()
   \                     `??new CIndicationAlarmLowLevelNamurDfa`:
   \   00000000   E007               LDI     R16, 7
   \   00000002   E010               LDI     R17, 0
   \   00000004   ........           CALL    `??operator new`
   \   00000008   2F20               MOV     R18, R16
   \   0000000A   2B21               OR      R18, R17
   \   0000000C   F011               BREQ    `??new CIndicationAlarmLowLevelNamurDfa_1`
   \   0000000E   ....               RCALL   ??CIndicationAlarmLowLevelNamurDfa
   \   00000010   9508               RET
   \                     `??new CIndicationAlarmLowLevelNamurDfa_1`:
   \   00000012   E000               LDI     R16, 0
   \   00000014   E010               LDI     R17, 0
   \   00000016   9508               RET

   \                                 In  segment CODE, align 2, keep-with-next
   \   __version_3 CIndicationAlarmHighLevelNamurDfa &CIndicationAlarmHighLevelNamurDfa::new CIndicationAlarmHighLevelNamurDfa()
   \                     `??new CIndicationAlarmHighLevelNamurDfa`:
   \   00000000   E007               LDI     R16, 7
   \   00000002   E010               LDI     R17, 0
   \   00000004   ........           CALL    `??operator new`
   \   00000008   2F20               MOV     R18, R16
   \   0000000A   2B21               OR      R18, R17
   \   0000000C   F011               BREQ    `??new CIndicationAlarmHighLevelNamurDfa_1`
   \   0000000E   ....               RCALL   ??CIndicationAlarmHighLevelNamurDfa
   \   00000010   9508               RET
   \                     `??new CIndicationAlarmHighLevelNamurDfa_1`:
   \   00000012   E000               LDI     R16, 0
   \   00000014   E010               LDI     R17, 0
   \   00000016   9508               RET

   \                                 In  segment CODE, align 2, keep-with-next
   \   __version_3 CErrorAlarmDfa &CErrorAlarmDfa::new CErrorAlarmDfa()
   \                     `??new CErrorAlarmDfa`:
   \   00000000   E005               LDI     R16, 5
   \   00000002   E010               LDI     R17, 0
   \   00000004   ........           CALL    `??operator new`
   \   00000008   2F20               MOV     R18, R16
   \   0000000A   2B21               OR      R18, R17
   \   0000000C   F011               BREQ    `??new CErrorAlarmDfa_1`
   \   0000000E   ....               RCALL   ??CErrorAlarmDfa
   \   00000010   9508               RET
   \                     `??new CErrorAlarmDfa_1`:
   \   00000012   E000               LDI     R16, 0
   \   00000014   E010               LDI     R17, 0
   \   00000016   9508               RET
    645          //-----------------------------------------------------------------------------------------------------
    646          
    647          
    648          
    649          
    650          
    651          
    652          
    653          
    654          
    655          ////-----------------------------------------------------------------------------------------------------
    656          //CInputModuleErrorAlarmDfa::CInputModuleErrorAlarmDfa()
    657          //{
    658          //    SetFsmState(START);
    659          //}
    660          //
    661          ////-----------------------------------------------------------------------------------------------------
    662          //CInputModuleErrorAlarmDfa::~CInputModuleErrorAlarmDfa()
    663          //{
    664          //    //dtor
    665          //}
    666          //
    667          ////-----------------------------------------------------------------------------------------------------
    668          //
    669          //
    670          //
    671          //
    672          //
    673          //
    674          //
    675          //
    676          ////-----------------------------------------------------------------------------------------------------
    677          //COutpuModuleErrorAlarmDfa::COutpuModuleErrorAlarmDfa()
    678          //{
    679          //    SetFsmState(START);
    680          //}
    681          //
    682          ////-----------------------------------------------------------------------------------------------------
    683          //COutpuModuleErrorAlarmDfa::~COutpuModuleErrorAlarmDfa()
    684          //{
    685          //    //dtor
    686          //}
    687          //
    688          ////-----------------------------------------------------------------------------------------------------
    689          
    690          
    691          
    692          
    693          
    694          
    695          

   Maximum stack usage in bytes:

   CSTACK RSTACK Function
   ------ ------ --------
      0      2   CAlarmDfa::ACTIVE_LEVEL()
      0      2   CAlarmDfa::ALARM_TYPE()
      2      2   CAlarmDfa::CAlarmDfa()
        2      2   -> CDfaLite::CDfaLite()
      6      2   CAlarmDfa::Fsm()
        6      2   -- Indirect call
        6      2   -> CAlarmDfa::GetAlarmWindowIndex()
        6      2   -> CAlarmDfa::GetDiscreteStateIndex()
        6      2   -> CAlarmDfa::GetLinkedDiscreteOutputsPointer()
        6      2   -> CDfaLite::GetFsmState()
        6      2   -> CDfaLite::SetFsmState(uint8_t)
        6      2   -> CPss21::DiscreteOutputsSet(uint8_t *, uint8_t)
        6      2   -> CPss21::GetDiscreteInputsBadState(uint8_t)
        6      2   -> CPss21::GetDiscreteSignalsReceipt()
        6      2   -> CPss21::GetDiscreteSignalsReset()
        6      2   -> CPss21::SetAlarmWindowColor(uint8_t, uint8_t)
        6      2   -> CPss21::SetAlarmWindowType(uint8_t, uint8_t)
        6      2   -> CPss21::SetDiscreteInputState(uint8_t, uint8_t)
      0      2   CAlarmDfa::GetAlarmWindowIndex()
      0      2   CAlarmDfa::GetDiscreteStateIndex()
      0      2   CAlarmDfa::GetLinkedDiscreteOutputsPointer()
      0      2   CAlarmDfa::IS_NAMUR_ON()
      0      2   CAlarmDfa::new CAlarmDfa()
        0      2   -> CAlarmDfa::CAlarmDfa()
        0      2   -> operator new(unsigned int)
      4      2   CAlarmDfa::~CAlarmDfa()
        4      2   -> CDfaLite::~CDfaLite()
        4      2   -> operator delete(void *)
      0      2   CAlarmWindow::SetActivityState(uint8_t)
      0      2   CDfaLite::GetFsmState()
      0      2   CDfaLite::SetFsmState(uint8_t)
      0      2   CEmergencyAlarmHighLevelDfa::ACTIVE_LEVEL()
      0      2   CEmergencyAlarmHighLevelDfa::ALARM_TYPE()
      2      2   CEmergencyAlarmHighLevelDfa::CEmergencyAlarmHighLevelDfa()
        2      2   -> CAlarmDfa::CAlarmDfa()
        2      2   -> CDfaLite::SetFsmState(uint8_t)
      0      2   CEmergencyAlarmHighLevelDfa::IS_NAMUR_ON()
      0      2   CEmergencyAlarmHighLevelDfa::new CEmergencyAlarmHighLevelDfa()
        0      2   -> CEmergencyAlarmHighLevelDfa::CEmergencyAlarmHighLevelDfa()
        0      2   -> operator new(unsigned int)
      4      2   CEmergencyAlarmHighLevelDfa::~CEmergencyAlarmHighLevelDfa()
        4      2   -> CAlarmDfa::~CAlarmDfa()
        4      2   -> operator delete(void *)
      0      2   CEmergencyAlarmHighLevelNamurDfa::ACTIVE_LEVEL()
      0      2   CEmergencyAlarmHighLevelNamurDfa::ALARM_TYPE()
      2      2   CEmergencyAlarmHighLevelNamurDfa::CEmergencyAlarmHighLevelNamurDfa()
        2      2   -> CAlarmDfa::CAlarmDfa()
        2      2   -> CDfaLite::SetFsmState(uint8_t)
      0      2   CEmergencyAlarmHighLevelNamurDfa::IS_NAMUR_ON()
      0      2   CEmergencyAlarmHighLevelNamurDfa::new CEmergencyAlarmHighLevelNamurDfa()
        0      2   -> CEmergencyAlarmHighLevelNamurDfa::CEmergencyAlarmHighLevelNamurDfa()
        0      2   -> operator new(unsigned int)
      4      2   CEmergencyAlarmHighLevelNamurDfa::~CEmergencyAlarmHighLevelNamurDfa()
        4      2   -> CAlarmDfa::~CAlarmDfa()
        4      2   -> operator delete(void *)
      0      2   CEmergencyAlarmLowLevelDfa::ACTIVE_LEVEL()
      0      2   CEmergencyAlarmLowLevelDfa::ALARM_TYPE()
      2      2   CEmergencyAlarmLowLevelDfa::CEmergencyAlarmLowLevelDfa()
        2      2   -> CAlarmDfa::CAlarmDfa()
        2      2   -> CDfaLite::SetFsmState(uint8_t)
      0      2   CEmergencyAlarmLowLevelDfa::IS_NAMUR_ON()
      0      2   CEmergencyAlarmLowLevelDfa::new CEmergencyAlarmLowLevelDfa()
        0      2   -> CEmergencyAlarmLowLevelDfa::CEmergencyAlarmLowLevelDfa()
        0      2   -> operator new(unsigned int)
      4      2   CEmergencyAlarmLowLevelDfa::~CEmergencyAlarmLowLevelDfa()
        4      2   -> CAlarmDfa::~CAlarmDfa()
        4      2   -> operator delete(void *)
      0      2   CEmergencyAlarmLowLevelNamurDfa::ACTIVE_LEVEL()
      0      2   CEmergencyAlarmLowLevelNamurDfa::ALARM_TYPE()
      2      2   CEmergencyAlarmLowLevelNamurDfa::CEmergencyAlarmLowLevelNamurDfa()
        2      2   -> CAlarmDfa::CAlarmDfa()
        2      2   -> CDfaLite::SetFsmState(uint8_t)
      0      2   CEmergencyAlarmLowLevelNamurDfa::IS_NAMUR_ON()
      0      2   CEmergencyAlarmLowLevelNamurDfa::new CEmergencyAlarmLowLevelNamurDfa()
        0      2   -> CEmergencyAlarmLowLevelNamurDfa::CEmergencyAlarmLowLevelNamurDfa()
        0      2   -> operator new(unsigned int)
      4      2   CEmergencyAlarmLowLevelNamurDfa::~CEmergencyAlarmLowLevelNamurDfa()
        4      2   -> CAlarmDfa::~CAlarmDfa()
        4      2   -> operator delete(void *)
      0      2   CErrorAlarmDfa::ACTIVE_LEVEL()
      0      2   CErrorAlarmDfa::ALARM_TYPE()
      2      2   CErrorAlarmDfa::CErrorAlarmDfa()
        2      2   -> CDfaLite::CDfaLite()
        2      2   -> CDfaLite::SetFsmState(uint8_t)
      5      2   CErrorAlarmDfa::Fsm()
        5      2   -- Indirect call
        5      2   -> CDfaLite::GetFsmState()
        5      2   -> CDfaLite::SetFsmState(uint8_t)
        5      2   -> CErrorAlarmDfa::GetAlarmWindowIndex()
        5      2   -> CErrorAlarmDfa::GetDiscreteStateIndex()
        5      2   -> CPss21::AlarmTypeErrorChange()
        5      2   -> CPss21::AlarmTypeReceipt()
        5      2   -> CPss21::AlarmTypeReset()
        5      2   -> CPss21::AllAlarmWindowOff()
        5      2   -> CPss21::ErrorWindowOn(uint8_t)
        5      2   -> CPss21::GetCommonAlarmType()
        5      2   -> CPss21::GetDiscreteSignalsReceipt()
        5      2   -> CPss21::GetErrorAlarmState(uint8_t)
        5      2   -> CPss21::SetAlarmWindowColor(uint8_t, uint8_t)
        5      2   -> CPss21::SetCommonAlarmType(uint8_t)
      0      2   CErrorAlarmDfa::GetAlarmWindowIndex()
      0      2   CErrorAlarmDfa::GetDiscreteStateIndex()
      0      2   CErrorAlarmDfa::new CErrorAlarmDfa()
        0      2   -> CErrorAlarmDfa::CErrorAlarmDfa()
        0      2   -> operator new(unsigned int)
      4      2   CErrorAlarmDfa::~CErrorAlarmDfa()
        4      2   -> CDfaLite::~CDfaLite()
        4      2   -> operator delete(void *)
      0      2   CIndicationAlarmHighLevelDfa::ACTIVE_LEVEL()
      0      2   CIndicationAlarmHighLevelDfa::ALARM_TYPE()
      2      2   CIndicationAlarmHighLevelDfa::CIndicationAlarmHighLevelDfa()
        2      2   -> CDfaLite::SetFsmState(uint8_t)
        2      2   -> CIndicationAlarmLowLevelDfa::CIndicationAlarmLowLevelDfa()
      0      2   CIndicationAlarmHighLevelDfa::IS_NAMUR_ON()
      0      2   CIndicationAlarmHighLevelDfa::new CIndicationAlarmHighLevelDfa()
        0      2   -> CIndicationAlarmHighLevelDfa::CIndicationAlarmHighLevelDfa()
        0      2   -> operator new(unsigned int)
      4      2   CIndicationAlarmHighLevelDfa::~CIndicationAlarmHighLevelDfa()
        4      2   -> CIndicationAlarmLowLevelDfa::~CIndicationAlarmLowLevelDfa()
        4      2   -> operator delete(void *)
      0      2   CIndicationAlarmHighLevelNamurDfa::ACTIVE_LEVEL()
      0      2   CIndicationAlarmHighLevelNamurDfa::ALARM_TYPE()
      2      2   CIndicationAlarmHighLevelNamurDfa::CIndicationAlarmHighLevelNamurDfa()
        2      2   -> CDfaLite::SetFsmState(uint8_t)
        2      2   -> CIndicationAlarmLowLevelDfa::CIndicationAlarmLowLevelDfa()
      0      2   CIndicationAlarmHighLevelNamurDfa::IS_NAMUR_ON()
      0      2   CIndicationAlarmHighLevelNamurDfa::new CIndicationAlarmHighLevelNamurDfa()
        0      2   -> CIndicationAlarmHighLevelNamurDfa::CIndicationAlarmHighLevelNamurDfa()
        0      2   -> operator new(unsigned int)
      4      2   CIndicationAlarmHighLevelNamurDfa::~CIndicationAlarmHighLevelNamurDfa()
        4      2   -> CIndicationAlarmLowLevelDfa::~CIndicationAlarmLowLevelDfa()
        4      2   -> operator delete(void *)
      0      2   CIndicationAlarmLowLevelDfa::ACTIVE_LEVEL()
      0      2   CIndicationAlarmLowLevelDfa::ALARM_TYPE()
      2      2   CIndicationAlarmLowLevelDfa::CIndicationAlarmLowLevelDfa()
        2      2   -> CAlarmDfa::CAlarmDfa()
        2      2   -> CDfaLite::SetFsmState(uint8_t)
      5      2   CIndicationAlarmLowLevelDfa::Fsm()
        5      2   -- Indirect call
        5      2   -> CAlarmDfa::GetAlarmWindowIndex()
        5      2   -> CAlarmDfa::GetDiscreteStateIndex()
        5      2   -> CAlarmDfa::GetLinkedDiscreteOutputsPointer()
        5      2   -> CAlarmWindow::SetActivityState(uint8_t)
        5      2   -> CDfaLite::GetFsmState()
        5      2   -> CDfaLite::SetFsmState(uint8_t)
        5      2   -> CPss21::BoardWindowsUpdate()
        5      2   -> CPss21::DiscreteOutputsSet(uint8_t *, uint8_t)
        5      2   -> CPss21::GetAlarmWindowControlPointer(uint8_t)
        5      2   -> CPss21::GetDiscreteInputState(uint8_t)
        5      2   -> CPss21::SetAlarmWindowColor(uint8_t, uint8_t)
        5      2   -> CPss21::SetAlarmWindowType(uint8_t, uint8_t)
      0      2   CIndicationAlarmLowLevelDfa::IS_NAMUR_ON()
      0      2   CIndicationAlarmLowLevelDfa::new CIndicationAlarmLowLevelDfa()
        0      2   -> CIndicationAlarmLowLevelDfa::CIndicationAlarmLowLevelDfa()
        0      2   -> operator new(unsigned int)
      4      2   CIndicationAlarmLowLevelDfa::~CIndicationAlarmLowLevelDfa()
        4      2   -> CAlarmDfa::~CAlarmDfa()
        4      2   -> operator delete(void *)
      0      2   CIndicationAlarmLowLevelNamurDfa::ACTIVE_LEVEL()
      0      2   CIndicationAlarmLowLevelNamurDfa::ALARM_TYPE()
      2      2   CIndicationAlarmLowLevelNamurDfa::CIndicationAlarmLowLevelNamurDfa()
        2      2   -> CDfaLite::SetFsmState(uint8_t)
        2      2   -> CIndicationAlarmLowLevelDfa::CIndicationAlarmLowLevelDfa()
      0      2   CIndicationAlarmLowLevelNamurDfa::IS_NAMUR_ON()
      0      2   CIndicationAlarmLowLevelNamurDfa::new CIndicationAlarmLowLevelNamurDfa()
        0      2   -> CIndicationAlarmLowLevelNamurDfa::CIndicationAlarmLowLevelNamurDfa()
        0      2   -> operator new(unsigned int)
      4      2   CIndicationAlarmLowLevelNamurDfa::~CIndicationAlarmLowLevelNamurDfa()
        4      2   -> CIndicationAlarmLowLevelDfa::~CIndicationAlarmLowLevelDfa()
        4      2   -> operator delete(void *)
      0      2   CNormalAlarmDfa::ACTIVE_LEVEL()
      0      2   CNormalAlarmDfa::ALARM_TYPE()
      2      2   CNormalAlarmDfa::CNormalAlarmDfa()
        2      2   -> CAlarmDfa::CAlarmDfa()
        2      2   -> CDfaLite::SetFsmState(uint8_t)
      0      2   CNormalAlarmDfa::IS_NAMUR_ON()
      0      2   CNormalAlarmDfa::new CNormalAlarmDfa()
        0      2   -> CNormalAlarmDfa::CNormalAlarmDfa()
        0      2   -> operator new(unsigned int)
      4      2   CNormalAlarmDfa::~CNormalAlarmDfa()
        4      2   -> CAlarmDfa::~CAlarmDfa()
        4      2   -> operator delete(void *)
      0      2   CPreventiveAlarmHighLevelDfa::ACTIVE_LEVEL()
      0      2   CPreventiveAlarmHighLevelDfa::ALARM_TYPE()
      2      2   CPreventiveAlarmHighLevelDfa::CPreventiveAlarmHighLevelDfa()
        2      2   -> CAlarmDfa::CAlarmDfa()
        2      2   -> CDfaLite::SetFsmState(uint8_t)
      0      2   CPreventiveAlarmHighLevelDfa::IS_NAMUR_ON()
      0      2   CPreventiveAlarmHighLevelDfa::new CPreventiveAlarmHighLevelDfa()
        0      2   -> CPreventiveAlarmHighLevelDfa::CPreventiveAlarmHighLevelDfa()
        0      2   -> operator new(unsigned int)
      4      2   CPreventiveAlarmHighLevelDfa::~CPreventiveAlarmHighLevelDfa()
        4      2   -> CAlarmDfa::~CAlarmDfa()
        4      2   -> operator delete(void *)
      0      2   CPreventiveAlarmHighLevelNamurDfa::ACTIVE_LEVEL()
      0      2   CPreventiveAlarmHighLevelNamurDfa::ALARM_TYPE()
      2      2   CPreventiveAlarmHighLevelNamurDfa::CPreventiveAlarmHighLevelNamurDfa()
        2      2   -> CAlarmDfa::CAlarmDfa()
        2      2   -> CDfaLite::SetFsmState(uint8_t)
      0      2   CPreventiveAlarmHighLevelNamurDfa::IS_NAMUR_ON()
      0      2   CPreventiveAlarmHighLevelNamurDfa::new CPreventiveAlarmHighLevelNamurDfa()
        0      2   -> CPreventiveAlarmHighLevelNamurDfa::CPreventiveAlarmHighLevelNamurDfa()
        0      2   -> operator new(unsigned int)
      4      2   CPreventiveAlarmHighLevelNamurDfa::~CPreventiveAlarmHighLevelNamurDfa()
        4      2   -> CAlarmDfa::~CAlarmDfa()
        4      2   -> operator delete(void *)
      0      2   CPreventiveAlarmLowLevelDfa::ACTIVE_LEVEL()
      0      2   CPreventiveAlarmLowLevelDfa::ALARM_TYPE()
      2      2   CPreventiveAlarmLowLevelDfa::CPreventiveAlarmLowLevelDfa()
        2      2   -> CAlarmDfa::CAlarmDfa()
        2      2   -> CDfaLite::SetFsmState(uint8_t)
      0      2   CPreventiveAlarmLowLevelDfa::IS_NAMUR_ON()
      0      2   CPreventiveAlarmLowLevelDfa::new CPreventiveAlarmLowLevelDfa()
        0      2   -> CPreventiveAlarmLowLevelDfa::CPreventiveAlarmLowLevelDfa()
        0      2   -> operator new(unsigned int)
      4      2   CPreventiveAlarmLowLevelDfa::~CPreventiveAlarmLowLevelDfa()
        4      2   -> CAlarmDfa::~CAlarmDfa()
        4      2   -> operator delete(void *)
      0      2   CPreventiveAlarmLowLevelNamurDfa::ACTIVE_LEVEL()
      0      2   CPreventiveAlarmLowLevelNamurDfa::ALARM_TYPE()
      2      2   CPreventiveAlarmLowLevelNamurDfa::CPreventiveAlarmLowLevelNamurDfa()
        2      2   -> CAlarmDfa::CAlarmDfa()
        2      2   -> CDfaLite::SetFsmState(uint8_t)
      0      2   CPreventiveAlarmLowLevelNamurDfa::IS_NAMUR_ON()
      0      2   CPreventiveAlarmLowLevelNamurDfa::new CPreventiveAlarmLowLevelNamurDfa()
        0      2   -> CPreventiveAlarmLowLevelNamurDfa::CPreventiveAlarmLowLevelNamurDfa()
        0      2   -> operator new(unsigned int)
      4      2   CPreventiveAlarmLowLevelNamurDfa::~CPreventiveAlarmLowLevelNamurDfa()
        4      2   -> CAlarmDfa::~CAlarmDfa()
        4      2   -> operator delete(void *)
      0      2   CPss21::GetAlarmWindowControlPointer(uint8_t)
        0      2 ?S_EC_MUL_L02
      0      2   CPss21::GetCommonAlarmType()
      0      2   CPss21::GetDiscreteSignalsReceipt()
      0      2   CPss21::GetDiscreteSignalsReset()
      0      2   CPss21::SetCommonAlarmType(uint8_t)


   Segment part sizes:

   Bytes  Function/Label
   -----  --------------
       6  CAlarmDfa::ACTIVE_LEVEL()
       6  CAlarmDfa::ALARM_TYPE()
      30  CAlarmDfa::CAlarmDfa()
    1046  CAlarmDfa::Fsm()
       6  CAlarmDfa::GetAlarmWindowIndex()
       6  CAlarmDfa::GetDiscreteStateIndex()
       6  CAlarmDfa::GetLinkedDiscreteOutputsPointer()
       6  CAlarmDfa::IS_NAMUR_ON()
      24  CAlarmDfa::new CAlarmDfa()
      40  CAlarmDfa::~CAlarmDfa()
       6  CAlarmWindow::SetActivityState(uint8_t)
       6  CDfaLite::GetFsmState()
       6  CDfaLite::SetFsmState(uint8_t)
       6  CEmergencyAlarmHighLevelDfa::ACTIVE_LEVEL()
       6  CEmergencyAlarmHighLevelDfa::ALARM_TYPE()
      36  CEmergencyAlarmHighLevelDfa::CEmergencyAlarmHighLevelDfa()
       6  CEmergencyAlarmHighLevelDfa::IS_NAMUR_ON()
      24  CEmergencyAlarmHighLevelDfa::new CEmergencyAlarmHighLevelDfa()
      38  CEmergencyAlarmHighLevelDfa::~CEmergencyAlarmHighLevelDfa()
       6  CEmergencyAlarmHighLevelNamurDfa::ACTIVE_LEVEL()
       6  CEmergencyAlarmHighLevelNamurDfa::ALARM_TYPE()
      36  CEmergencyAlarmHighLevelNamurDfa::CEmergencyAlarmHighLevelNamurDfa()
       6  CEmergencyAlarmHighLevelNamurDfa::IS_NAMUR_ON()
      24  CEmergencyAlarmHighLevelNamurDfa::new CEmergencyAlarmHighLevelNamurDfa()
      38  CEmergencyAlarmHighLevelNamurDfa::~CEmergencyAlarmHighLevelNamurDfa()
       6  CEmergencyAlarmLowLevelDfa::ACTIVE_LEVEL()
       6  CEmergencyAlarmLowLevelDfa::ALARM_TYPE()
      36  CEmergencyAlarmLowLevelDfa::CEmergencyAlarmLowLevelDfa()
       6  CEmergencyAlarmLowLevelDfa::IS_NAMUR_ON()
      24  CEmergencyAlarmLowLevelDfa::new CEmergencyAlarmLowLevelDfa()
      38  CEmergencyAlarmLowLevelDfa::~CEmergencyAlarmLowLevelDfa()
       6  CEmergencyAlarmLowLevelNamurDfa::ACTIVE_LEVEL()
       6  CEmergencyAlarmLowLevelNamurDfa::ALARM_TYPE()
      36  CEmergencyAlarmLowLevelNamurDfa::CEmergencyAlarmLowLevelNamurDfa()
       6  CEmergencyAlarmLowLevelNamurDfa::IS_NAMUR_ON()
      24  CEmergencyAlarmLowLevelNamurDfa::new CEmergencyAlarmLowLevelNamurDfa()
      38  CEmergencyAlarmLowLevelNamurDfa::~CEmergencyAlarmLowLevelNamurDfa()
       6  CErrorAlarmDfa::ACTIVE_LEVEL()
       6  CErrorAlarmDfa::ALARM_TYPE()
      38  CErrorAlarmDfa::CErrorAlarmDfa()
     318  CErrorAlarmDfa::Fsm()
       6  CErrorAlarmDfa::GetAlarmWindowIndex()
       6  CErrorAlarmDfa::GetDiscreteStateIndex()
      24  CErrorAlarmDfa::new CErrorAlarmDfa()
      40  CErrorAlarmDfa::~CErrorAlarmDfa()
       6  CIndicationAlarmHighLevelDfa::ACTIVE_LEVEL()
       6  CIndicationAlarmHighLevelDfa::ALARM_TYPE()
      36  CIndicationAlarmHighLevelDfa::CIndicationAlarmHighLevelDfa()
       6  CIndicationAlarmHighLevelDfa::IS_NAMUR_ON()
      24  CIndicationAlarmHighLevelDfa::new CIndicationAlarmHighLevelDfa()
      38  CIndicationAlarmHighLevelDfa::~CIndicationAlarmHighLevelDfa()
       6  CIndicationAlarmHighLevelNamurDfa::ACTIVE_LEVEL()
       6  CIndicationAlarmHighLevelNamurDfa::ALARM_TYPE()
      36  CIndicationAlarmHighLevelNamurDfa::CIndicationAlarmHighLevelNamurDfa()
       6  CIndicationAlarmHighLevelNamurDfa::IS_NAMUR_ON()
      24  CIndicationAlarmHighLevelNamurDfa::new CIndicationAlarmHighLevelNamurDfa()
      38  CIndicationAlarmHighLevelNamurDfa::~CIndicationAlarmHighLevelNamurDfa()
       6  CIndicationAlarmLowLevelDfa::ACTIVE_LEVEL()
       6  CIndicationAlarmLowLevelDfa::ALARM_TYPE()
      36  CIndicationAlarmLowLevelDfa::CIndicationAlarmLowLevelDfa()
     304  CIndicationAlarmLowLevelDfa::Fsm()
       6  CIndicationAlarmLowLevelDfa::IS_NAMUR_ON()
      24  CIndicationAlarmLowLevelDfa::new CIndicationAlarmLowLevelDfa()
      38  CIndicationAlarmLowLevelDfa::~CIndicationAlarmLowLevelDfa()
       6  CIndicationAlarmLowLevelNamurDfa::ACTIVE_LEVEL()
       6  CIndicationAlarmLowLevelNamurDfa::ALARM_TYPE()
      36  CIndicationAlarmLowLevelNamurDfa::CIndicationAlarmLowLevelNamurDfa()
       6  CIndicationAlarmLowLevelNamurDfa::IS_NAMUR_ON()
      24  CIndicationAlarmLowLevelNamurDfa::new CIndicationAlarmLowLevelNamurDfa()
      38  CIndicationAlarmLowLevelNamurDfa::~CIndicationAlarmLowLevelNamurDfa()
       6  CNormalAlarmDfa::ACTIVE_LEVEL()
       6  CNormalAlarmDfa::ALARM_TYPE()
      36  CNormalAlarmDfa::CNormalAlarmDfa()
       6  CNormalAlarmDfa::IS_NAMUR_ON()
      24  CNormalAlarmDfa::new CNormalAlarmDfa()
      38  CNormalAlarmDfa::~CNormalAlarmDfa()
       6  CPreventiveAlarmHighLevelDfa::ACTIVE_LEVEL()
       6  CPreventiveAlarmHighLevelDfa::ALARM_TYPE()
      36  CPreventiveAlarmHighLevelDfa::CPreventiveAlarmHighLevelDfa()
       6  CPreventiveAlarmHighLevelDfa::IS_NAMUR_ON()
      24  CPreventiveAlarmHighLevelDfa::new CPreventiveAlarmHighLevelDfa()
      38  CPreventiveAlarmHighLevelDfa::~CPreventiveAlarmHighLevelDfa()
       6  CPreventiveAlarmHighLevelNamurDfa::ACTIVE_LEVEL()
       6  CPreventiveAlarmHighLevelNamurDfa::ALARM_TYPE()
      36  CPreventiveAlarmHighLevelNamurDfa::CPreventiveAlarmHighLevelNamurDfa()
       6  CPreventiveAlarmHighLevelNamurDfa::IS_NAMUR_ON()
      24  CPreventiveAlarmHighLevelNamurDfa::new CPreventiveAlarmHighLevelNamurDfa()
      38  CPreventiveAlarmHighLevelNamurDfa::~CPreventiveAlarmHighLevelNamurDfa()
       6  CPreventiveAlarmLowLevelDfa::ACTIVE_LEVEL()
       6  CPreventiveAlarmLowLevelDfa::ALARM_TYPE()
      36  CPreventiveAlarmLowLevelDfa::CPreventiveAlarmLowLevelDfa()
       6  CPreventiveAlarmLowLevelDfa::IS_NAMUR_ON()
      24  CPreventiveAlarmLowLevelDfa::new CPreventiveAlarmLowLevelDfa()
      38  CPreventiveAlarmLowLevelDfa::~CPreventiveAlarmLowLevelDfa()
       6  CPreventiveAlarmLowLevelNamurDfa::ACTIVE_LEVEL()
       6  CPreventiveAlarmLowLevelNamurDfa::ALARM_TYPE()
      36  CPreventiveAlarmLowLevelNamurDfa::CPreventiveAlarmLowLevelNamurDfa()
       6  CPreventiveAlarmLowLevelNamurDfa::IS_NAMUR_ON()
      24  CPreventiveAlarmLowLevelNamurDfa::new CPreventiveAlarmLowLevelNamurDfa()
      38  CPreventiveAlarmLowLevelNamurDfa::~CPreventiveAlarmLowLevelNamurDfa()
      22  CPss21::GetAlarmWindowControlPointer(uint8_t)
       6  CPss21::GetCommonAlarmType()
       6  CPss21::GetDiscreteSignalsReceipt()
       6  CPss21::GetDiscreteSignalsReset()
       6  CPss21::SetCommonAlarmType(uint8_t)
       1  _A_ACSR
       2  _A_ADC
       1  _A_ADCSRA
       1  _A_ADMUX
       1  _A_ASSR
       1  _A_DDRA
       1  _A_DDRB
       1  _A_DDRC
       1  _A_DDRD
       1  _A_DDRE
       1  _A_DDRF
       1  _A_DDRG
       2  _A_EEAR
       1  _A_EECR
       1  _A_EEDR
       1  _A_EICRA
       1  _A_EICRB
       1  _A_EIFR
       1  _A_EIMSK
       1  _A_ETIFR
       1  _A_ETIMSK
       2  _A_ICR1
       2  _A_ICR3
       1  _A_MCUCR
       1  _A_MCUCSR
       1  _A_OCDR
       1  _A_OCR0
       2  _A_OCR1A
       2  _A_OCR1B
       2  _A_OCR1C
       1  _A_OCR2
       2  _A_OCR3A
       2  _A_OCR3B
       2  _A_OCR3C
       1  _A_OSCCAL
       1  _A_PINA
       1  _A_PINB
       1  _A_PINC
       1  _A_PIND
       1  _A_PINE
       1  _A_PINF
       1  _A_PING
       1  _A_PORTA
       1  _A_PORTB
       1  _A_PORTC
       1  _A_PORTD
       1  _A_PORTE
       1  _A_PORTF
       1  _A_PORTG
       1  _A_RAMPZ
       1  _A_SFIOR
       2  _A_SP
       1  _A_SPCR
       1  _A_SPDR
       1  _A_SPMCSR
       1  _A_SPSR
       1  _A_SREG
       1  _A_TCCR0
       1  _A_TCCR1A
       1  _A_TCCR1B
       1  _A_TCCR1C
       1  _A_TCCR2
       1  _A_TCCR3A
       1  _A_TCCR3B
       1  _A_TCCR3C
       1  _A_TCNT0
       2  _A_TCNT1
       1  _A_TCNT2
       2  _A_TCNT3
       1  _A_TIFR
       1  _A_TIMSK
       1  _A_TWAR
       1  _A_TWBR
       1  _A_TWCR
       1  _A_TWDR
       1  _A_TWSR
       1  _A_UBRR0H
       1  _A_UBRR0L
       1  _A_UBRR1H
       1  _A_UBRR1L
       1  _A_UCSR0A
       1  _A_UCSR0B
       1  _A_UCSR0C
       1  _A_UCSR1A
       1  _A_UCSR1B
       1  _A_UCSR1C
       1  _A_UDR0
       1  _A_UDR1
       1  _A_WDTCR
       1  _A_XDIV
       1  _A_XMCRA
       1  _A_XMCRB
     170  -- Other

 
   105 bytes in segment ABSOLUTE
 3 496 bytes in segment CODE
   170 bytes in segment NEAR_F
 
 3 160 bytes of CODE memory (+ 506 bytes shared)
     0 bytes of DATA memory (+ 105 bytes shared)

Errors: none
Warnings: 7
