###############################################################################
#
# IAR C/C++ Compiler V7.10.6.1378 for Atmel AVR           14/Oct/2024  16:07:52
# Copyright 1996-2018 IAR Systems AB.
#
#    Source file  =  
#        D:\Projects\CurrentProjects\CautoProjects\PSS48Color\src\Alarm.cpp
#    Command line =  
#        -f C:\Users\Admin\AppData\Local\Temp\EW4186.tmp
#        (--string_literals_in_flash
#        D:\Projects\CurrentProjects\CautoProjects\PSS48Color\src\Alarm.cpp
#        --cpu=m128a -ms -o
#        D:\Projects\CurrentProjects\CautoProjects\PSS48Color\Debug\Obj -lC
#        D:\Projects\CurrentProjects\CautoProjects\PSS48Color\Debug\List -lB
#        D:\Projects\CurrentProjects\CautoProjects\PSS48Color\Debug\List -y
#        --initializers_in_flash --root_variables --no_cse --no_inline
#        --no_code_motion --no_cross_call --no_clustering --no_tbaa --debug
#        -DENABLE_BIT_DEFINITIONS -e -I
#        D:\Projects\CurrentProjects\CautoProjects\PSS48Color\Modbus\ -I
#        D:\Projects\CurrentProjects\CautoProjects\PSS48Color\include\
#        --eeprom_size 4096 --dlib --dlib_config "C:\Program Files (x86)\IAR
#        Systems\Embedded Workbench 8.0\avr\LIB\DLIB\dlAVR-3s-ec_mul-n.h" -On
#        --eec++)
#    Locale       =  Russian_RUS.1251
#    List file    =  
#        D:\Projects\CurrentProjects\CautoProjects\PSS48Color\Debug\List\Alarm.lst
#    Object file  =  
#        D:\Projects\CurrentProjects\CautoProjects\PSS48Color\Debug\Obj\Alarm.r90
#
###############################################################################

D:\Projects\CurrentProjects\CautoProjects\PSS48Color\src\Alarm.cpp
      1          //-----------------------------------------------------------------------------------------------------
      2          //  Source      : FileName.cpp
      3          //  Created     : 01.06.2022
      4          //  Author      : Alexandr Volvenkin
      5          //  email       : aav-36@mail.ru
      6          //  GitHub      : https://github.com/AlexandrVolvenkin
      7          //-----------------------------------------------------------------------------------------------------
      8          #include "Dfa.h"

   \                                 In  segment CODE, align 2, keep-with-next
   \   __version_3 void CDfaLite::SetFsmState(uint8_t)
   \                     ??SetFsmState:
   \   00000000   01F8               MOVW    R31:R30, R17:R16
   \   00000002   8320               ST      Z, R18
   \   00000004   9508               RET

   \                                 In  segment CODE, align 2, keep-with-next
   \   __version_3 uint8_t CDfaLite::GetFsmState()
   \                     ??GetFsmState:
   \   00000000   01F8               MOVW    R31:R30, R17:R16
   \   00000002   8100               LD      R16, Z
   \   00000004   9508               RET
      9          #include "Platform.h"

   \                                 In  segment ABSOLUTE, at 0x9d, root
   \   union <unnamed> volatile __io _A_UCSR1C
   \                     _A_UCSR1C:
   \   00000000                      DS8 1

   \                                 In  segment ABSOLUTE, at 0x9c, root
   \   union <unnamed> volatile __io _A_UDR1
   \                     _A_UDR1:
   \   00000000                      DS8 1

   \                                 In  segment ABSOLUTE, at 0x9b, root
   \   union <unnamed> volatile __io _A_UCSR1A
   \                     _A_UCSR1A:
   \   00000000                      DS8 1

   \                                 In  segment ABSOLUTE, at 0x9a, root
   \   union <unnamed> volatile __io _A_UCSR1B
   \                     _A_UCSR1B:
   \   00000000                      DS8 1

   \                                 In  segment ABSOLUTE, at 0x99, root
   \   union <unnamed> volatile __io _A_UBRR1L
   \                     _A_UBRR1L:
   \   00000000                      DS8 1

   \                                 In  segment ABSOLUTE, at 0x98, root
   \   union <unnamed> volatile __io _A_UBRR1H
   \                     _A_UBRR1H:
   \   00000000                      DS8 1

   \                                 In  segment ABSOLUTE, at 0x95, root
   \   union <unnamed> volatile __io _A_UCSR0C
   \                     _A_UCSR0C:
   \   00000000                      DS8 1

   \                                 In  segment ABSOLUTE, at 0x90, root
   \   union <unnamed> volatile __io _A_UBRR0H
   \                     _A_UBRR0H:
   \   00000000                      DS8 1

   \                                 In  segment ABSOLUTE, at 0x8c, root
   \   union <unnamed> volatile __io _A_TCCR3C
   \                     _A_TCCR3C:
   \   00000000                      DS8 1

   \                                 In  segment ABSOLUTE, at 0x8b, root
   \   union <unnamed> volatile __io _A_TCCR3A
   \                     _A_TCCR3A:
   \   00000000                      DS8 1

   \                                 In  segment ABSOLUTE, at 0x8a, root
   \   union <unnamed> volatile __io _A_TCCR3B
   \                     _A_TCCR3B:
   \   00000000                      DS8 1

   \                                 In  segment ABSOLUTE, at 0x88, root
   \   union <unnamed> volatile __io _A_TCNT3
   \                     _A_TCNT3:
   \   00000000                      DS8 2

   \                                 In  segment ABSOLUTE, at 0x86, root
   \   union <unnamed> volatile __io _A_OCR3A
   \                     _A_OCR3A:
   \   00000000                      DS8 2

   \                                 In  segment ABSOLUTE, at 0x84, root
   \   union <unnamed> volatile __io _A_OCR3B
   \                     _A_OCR3B:
   \   00000000                      DS8 2

   \                                 In  segment ABSOLUTE, at 0x82, root
   \   union <unnamed> volatile __io _A_OCR3C
   \                     _A_OCR3C:
   \   00000000                      DS8 2

   \                                 In  segment ABSOLUTE, at 0x80, root
   \   union <unnamed> volatile __io _A_ICR3
   \                     _A_ICR3:
   \   00000000                      DS8 2

   \                                 In  segment ABSOLUTE, at 0x7d, root
   \   union <unnamed> volatile __io _A_ETIMSK
   \                     _A_ETIMSK:
   \   00000000                      DS8 1

   \                                 In  segment ABSOLUTE, at 0x7c, root
   \   union <unnamed> volatile __io _A_ETIFR
   \                     _A_ETIFR:
   \   00000000                      DS8 1

   \                                 In  segment ABSOLUTE, at 0x7a, root
   \   union <unnamed> volatile __io _A_TCCR1C
   \                     _A_TCCR1C:
   \   00000000                      DS8 1

   \                                 In  segment ABSOLUTE, at 0x78, root
   \   union <unnamed> volatile __io _A_OCR1C
   \                     _A_OCR1C:
   \   00000000                      DS8 2

   \                                 In  segment ABSOLUTE, at 0x74, root
   \   union <unnamed> volatile __io _A_TWCR
   \                     _A_TWCR:
   \   00000000                      DS8 1

   \                                 In  segment ABSOLUTE, at 0x73, root
   \   union <unnamed> volatile __io _A_TWDR
   \                     _A_TWDR:
   \   00000000                      DS8 1

   \                                 In  segment ABSOLUTE, at 0x72, root
   \   union <unnamed> volatile __io _A_TWAR
   \                     _A_TWAR:
   \   00000000                      DS8 1

   \                                 In  segment ABSOLUTE, at 0x71, root
   \   union <unnamed> volatile __io _A_TWSR
   \                     _A_TWSR:
   \   00000000                      DS8 1

   \                                 In  segment ABSOLUTE, at 0x70, root
   \   union <unnamed> volatile __io _A_TWBR
   \                     _A_TWBR:
   \   00000000                      DS8 1

   \                                 In  segment ABSOLUTE, at 0x6f, root
   \   union <unnamed> volatile __io _A_OSCCAL
   \                     _A_OSCCAL:
   \   00000000                      DS8 1

   \                                 In  segment ABSOLUTE, at 0x6d, root
   \   union <unnamed> volatile __io _A_XMCRA
   \                     _A_XMCRA:
   \   00000000                      DS8 1

   \                                 In  segment ABSOLUTE, at 0x6c, root
   \   union <unnamed> volatile __io _A_XMCRB
   \                     _A_XMCRB:
   \   00000000                      DS8 1

   \                                 In  segment ABSOLUTE, at 0x6a, root
   \   union <unnamed> volatile __io _A_EICRA
   \                     _A_EICRA:
   \   00000000                      DS8 1

   \                                 In  segment ABSOLUTE, at 0x68, root
   \   union <unnamed> volatile __io _A_SPMCSR
   \                     _A_SPMCSR:
   \   00000000                      DS8 1

   \                                 In  segment ABSOLUTE, at 0x65, root
   \   union <unnamed> volatile __io _A_PORTG
   \                     _A_PORTG:
   \   00000000                      DS8 1

   \                                 In  segment ABSOLUTE, at 0x64, root
   \   union <unnamed> volatile __io _A_DDRG
   \                     _A_DDRG:
   \   00000000                      DS8 1

   \                                 In  segment ABSOLUTE, at 0x63, root
   \   union <unnamed> volatile __io _A_PING
   \                     _A_PING:
   \   00000000                      DS8 1

   \                                 In  segment ABSOLUTE, at 0x62, root
   \   union <unnamed> volatile __io _A_PORTF
   \                     _A_PORTF:
   \   00000000                      DS8 1

   \                                 In  segment ABSOLUTE, at 0x61, root
   \   union <unnamed> volatile __io _A_DDRF
   \                     _A_DDRF:
   \   00000000                      DS8 1

   \                                 In  segment ABSOLUTE, at 0x5f, root
   \   union <unnamed> volatile __io _A_SREG
   \                     _A_SREG:
   \   00000000                      DS8 1

   \                                 In  segment ABSOLUTE, at 0x5d, root
   \   union <unnamed> volatile __io _A_SP
   \                     _A_SP:
   \   00000000                      DS8 2

   \                                 In  segment ABSOLUTE, at 0x5c, root
   \   union <unnamed> volatile __io _A_XDIV
   \                     _A_XDIV:
   \   00000000                      DS8 1

   \                                 In  segment ABSOLUTE, at 0x5b, root
   \   union <unnamed> volatile __io _A_RAMPZ
   \                     _A_RAMPZ:
   \   00000000                      DS8 1

   \                                 In  segment ABSOLUTE, at 0x5a, root
   \   union <unnamed> volatile __io _A_EICRB
   \                     _A_EICRB:
   \   00000000                      DS8 1

   \                                 In  segment ABSOLUTE, at 0x59, root
   \   union <unnamed> volatile __io _A_EIMSK
   \                     _A_EIMSK:
   \   00000000                      DS8 1

   \                                 In  segment ABSOLUTE, at 0x58, root
   \   union <unnamed> volatile __io _A_EIFR
   \                     _A_EIFR:
   \   00000000                      DS8 1

   \                                 In  segment ABSOLUTE, at 0x57, root
   \   union <unnamed> volatile __io _A_TIMSK
   \                     _A_TIMSK:
   \   00000000                      DS8 1

   \                                 In  segment ABSOLUTE, at 0x56, root
   \   union <unnamed> volatile __io _A_TIFR
   \                     _A_TIFR:
   \   00000000                      DS8 1

   \                                 In  segment ABSOLUTE, at 0x55, root
   \   union <unnamed> volatile __io _A_MCUCR
   \                     _A_MCUCR:
   \   00000000                      DS8 1

   \                                 In  segment ABSOLUTE, at 0x54, root
   \   union <unnamed> volatile __io _A_MCUCSR
   \                     _A_MCUCSR:
   \   00000000                      DS8 1

   \                                 In  segment ABSOLUTE, at 0x53, root
   \   union <unnamed> volatile __io _A_TCCR0
   \                     _A_TCCR0:
   \   00000000                      DS8 1

   \                                 In  segment ABSOLUTE, at 0x52, root
   \   union <unnamed> volatile __io _A_TCNT0
   \                     _A_TCNT0:
   \   00000000                      DS8 1

   \                                 In  segment ABSOLUTE, at 0x51, root
   \   union <unnamed> volatile __io _A_OCR0
   \                     _A_OCR0:
   \   00000000                      DS8 1

   \                                 In  segment ABSOLUTE, at 0x50, root
   \   union <unnamed> volatile __io _A_ASSR
   \                     _A_ASSR:
   \   00000000                      DS8 1

   \                                 In  segment ABSOLUTE, at 0x4f, root
   \   union <unnamed> volatile __io _A_TCCR1A
   \                     _A_TCCR1A:
   \   00000000                      DS8 1

   \                                 In  segment ABSOLUTE, at 0x4e, root
   \   union <unnamed> volatile __io _A_TCCR1B
   \                     _A_TCCR1B:
   \   00000000                      DS8 1

   \                                 In  segment ABSOLUTE, at 0x4c, root
   \   union <unnamed> volatile __io _A_TCNT1
   \                     _A_TCNT1:
   \   00000000                      DS8 2

   \                                 In  segment ABSOLUTE, at 0x4a, root
   \   union <unnamed> volatile __io _A_OCR1A
   \                     _A_OCR1A:
   \   00000000                      DS8 2

   \                                 In  segment ABSOLUTE, at 0x48, root
   \   union <unnamed> volatile __io _A_OCR1B
   \                     _A_OCR1B:
   \   00000000                      DS8 2

   \                                 In  segment ABSOLUTE, at 0x46, root
   \   union <unnamed> volatile __io _A_ICR1
   \                     _A_ICR1:
   \   00000000                      DS8 2

   \                                 In  segment ABSOLUTE, at 0x45, root
   \   union <unnamed> volatile __io _A_TCCR2
   \                     _A_TCCR2:
   \   00000000                      DS8 1

   \                                 In  segment ABSOLUTE, at 0x44, root
   \   union <unnamed> volatile __io _A_TCNT2
   \                     _A_TCNT2:
   \   00000000                      DS8 1

   \                                 In  segment ABSOLUTE, at 0x43, root
   \   union <unnamed> volatile __io _A_OCR2
   \                     _A_OCR2:
   \   00000000                      DS8 1

   \                                 In  segment ABSOLUTE, at 0x42, root
   \   union <unnamed> volatile __io _A_OCDR
   \                     _A_OCDR:
   \   00000000                      DS8 1

   \                                 In  segment ABSOLUTE, at 0x41, root
   \   union <unnamed> volatile __io _A_WDTCR
   \                     _A_WDTCR:
   \   00000000                      DS8 1

   \                                 In  segment ABSOLUTE, at 0x40, root
   \   union <unnamed> volatile __io _A_SFIOR
   \                     _A_SFIOR:
   \   00000000                      DS8 1

   \                                 In  segment ABSOLUTE, at 0x3e, root
   \   union <unnamed> volatile __io _A_EEAR
   \                     _A_EEAR:
   \   00000000                      DS8 2

   \                                 In  segment ABSOLUTE, at 0x3d, root
   \   union <unnamed> volatile __io _A_EEDR
   \                     _A_EEDR:
   \   00000000                      DS8 1

   \                                 In  segment ABSOLUTE, at 0x3c, root
   \   union <unnamed> volatile __io _A_EECR
   \                     _A_EECR:
   \   00000000                      DS8 1

   \                                 In  segment ABSOLUTE, at 0x3b, root
   \   union <unnamed> volatile __io _A_PORTA
   \                     _A_PORTA:
   \   00000000                      DS8 1

   \                                 In  segment ABSOLUTE, at 0x3a, root
   \   union <unnamed> volatile __io _A_DDRA
   \                     _A_DDRA:
   \   00000000                      DS8 1

   \                                 In  segment ABSOLUTE, at 0x39, root
   \   union <unnamed> volatile __io _A_PINA
   \                     _A_PINA:
   \   00000000                      DS8 1

   \                                 In  segment ABSOLUTE, at 0x38, root
   \   union <unnamed> volatile __io _A_PORTB
   \                     _A_PORTB:
   \   00000000                      DS8 1

   \                                 In  segment ABSOLUTE, at 0x37, root
   \   union <unnamed> volatile __io _A_DDRB
   \                     _A_DDRB:
   \   00000000                      DS8 1

   \                                 In  segment ABSOLUTE, at 0x36, root
   \   union <unnamed> volatile __io _A_PINB
   \                     _A_PINB:
   \   00000000                      DS8 1

   \                                 In  segment ABSOLUTE, at 0x35, root
   \   union <unnamed> volatile __io _A_PORTC
   \                     _A_PORTC:
   \   00000000                      DS8 1

   \                                 In  segment ABSOLUTE, at 0x34, root
   \   union <unnamed> volatile __io _A_DDRC
   \                     _A_DDRC:
   \   00000000                      DS8 1

   \                                 In  segment ABSOLUTE, at 0x33, root
   \   union <unnamed> volatile __io _A_PINC
   \                     _A_PINC:
   \   00000000                      DS8 1

   \                                 In  segment ABSOLUTE, at 0x32, root
   \   union <unnamed> volatile __io _A_PORTD
   \                     _A_PORTD:
   \   00000000                      DS8 1

   \                                 In  segment ABSOLUTE, at 0x31, root
   \   union <unnamed> volatile __io _A_DDRD
   \                     _A_DDRD:
   \   00000000                      DS8 1

   \                                 In  segment ABSOLUTE, at 0x30, root
   \   union <unnamed> volatile __io _A_PIND
   \                     _A_PIND:
   \   00000000                      DS8 1

   \                                 In  segment ABSOLUTE, at 0x2f, root
   \   union <unnamed> volatile __io _A_SPDR
   \                     _A_SPDR:
   \   00000000                      DS8 1

   \                                 In  segment ABSOLUTE, at 0x2e, root
   \   union <unnamed> volatile __io _A_SPSR
   \                     _A_SPSR:
   \   00000000                      DS8 1

   \                                 In  segment ABSOLUTE, at 0x2d, root
   \   union <unnamed> volatile __io _A_SPCR
   \                     _A_SPCR:
   \   00000000                      DS8 1

   \                                 In  segment ABSOLUTE, at 0x2c, root
   \   union <unnamed> volatile __io _A_UDR0
   \                     _A_UDR0:
   \   00000000                      DS8 1

   \                                 In  segment ABSOLUTE, at 0x2b, root
   \   union <unnamed> volatile __io _A_UCSR0A
   \                     _A_UCSR0A:
   \   00000000                      DS8 1

   \                                 In  segment ABSOLUTE, at 0x2a, root
   \   union <unnamed> volatile __io _A_UCSR0B
   \                     _A_UCSR0B:
   \   00000000                      DS8 1

   \                                 In  segment ABSOLUTE, at 0x29, root
   \   union <unnamed> volatile __io _A_UBRR0L
   \                     _A_UBRR0L:
   \   00000000                      DS8 1

   \                                 In  segment ABSOLUTE, at 0x28, root
   \   union <unnamed> volatile __io _A_ACSR
   \                     _A_ACSR:
   \   00000000                      DS8 1

   \                                 In  segment ABSOLUTE, at 0x27, root
   \   union <unnamed> volatile __io _A_ADMUX
   \                     _A_ADMUX:
   \   00000000                      DS8 1

   \                                 In  segment ABSOLUTE, at 0x26, root
   \   union <unnamed> volatile __io _A_ADCSRA
   \                     _A_ADCSRA:
   \   00000000                      DS8 1

   \                                 In  segment ABSOLUTE, at 0x24, root
   \   union <unnamed> volatile __io _A_ADC
   \                     _A_ADC:
   \   00000000                      DS8 2

   \                                 In  segment ABSOLUTE, at 0x23, root
   \   union <unnamed> volatile __io _A_PORTE
   \                     _A_PORTE:
   \   00000000                      DS8 1

   \                                 In  segment ABSOLUTE, at 0x22, root
   \   union <unnamed> volatile __io _A_DDRE
   \                     _A_DDRE:
   \   00000000                      DS8 1

   \                                 In  segment ABSOLUTE, at 0x21, root
   \   union <unnamed> volatile __io _A_PINE
   \                     _A_PINE:
   \   00000000                      DS8 1

   \                                 In  segment ABSOLUTE, at 0x20, root
   \   union <unnamed> volatile __io _A_PINF
   \                     _A_PINF:
   \   00000000                      DS8 1

      static __flash TDataBase CFlash::xMainDataBase;
                               ^
"D:\Projects\CurrentProjects\CautoProjects\PSS48Color\include\Platform.h",366  Warning[Pe427]: 
          qualified name is not allowed in member declaration

      static __flash TDataBaseBlockPositionData CFlash::axDataBaseBlocksPositionData[];
                                                ^
"D:\Projects\CurrentProjects\CautoProjects\PSS48Color\include\Platform.h",367  Warning[Pe427]: 
          qualified name is not allowed in member declaration
     10          #include "Pss21.h"

   \                                 In  segment CODE, align 2, keep-with-next
   \   __version_3 void CAlarmWindow::SetActivityState(uint8_t)
   \                     ??SetActivityState:
   \   00000000   01F8               MOVW    R31:R30, R17:R16
   \   00000002   8320               ST      Z, R18
   \   00000004   9508               RET

   \                                 In  segment CODE, align 2, keep-with-next
   \   __version_3 uint8_t CAlarmDfa::ALARM_TYPE()
   \                     ??ALARM_TYPE:
   \   00000000   0198               MOVW    R19:R18, R17:R16
   \   00000002   E000               LDI     R16, 0
   \   00000004   9508               RET

   \                                 In  segment CODE, align 2, keep-with-next
   \   __version_3 uint8_t CAlarmDfa::ACTIVE_LEVEL()
   \                     ??ACTIVE_LEVEL:
   \   00000000   0198               MOVW    R19:R18, R17:R16
   \   00000002   E000               LDI     R16, 0
   \   00000004   9508               RET

   \                                 In  segment CODE, align 2, keep-with-next
   \   __version_3 uint8_t CAlarmDfa::IS_NAMUR_ON()
   \                     ??IS_NAMUR_ON:
   \   00000000   0198               MOVW    R19:R18, R17:R16
   \   00000002   E000               LDI     R16, 0
   \   00000004   9508               RET

   \                                 In  segment CODE, align 2, keep-with-next
   \   __version_3 uint8_t CAlarmDfa::GetDiscreteStateIndex()
   \                     ??GetDiscreteStateIndex:
   \   00000000   01F8               MOVW    R31:R30, R17:R16
   \   00000002   8105               LDD     R16, Z+5
   \   00000004   9508               RET

   \                                 In  segment CODE, align 2, keep-with-next
   \   __version_3 uint8_t CAlarmDfa::GetAlarmWindowIndex()
   \                     ??GetAlarmWindowIndex:
   \   00000000   01F8               MOVW    R31:R30, R17:R16
   \   00000002   8103               LDD     R16, Z+3
   \   00000004   9508               RET

   \                                 In  segment CODE, align 2, keep-with-next
   \   __version_3 uint8_t *CAlarmDfa::GetLinkedDiscreteOutputsPointer()
   \                     ??GetLinkedDiscreteOutputsPointer:
   \   00000000   5F0C               SUBI    R16, 252
   \   00000002   4F1F               SBCI    R17, 255
   \   00000004   9508               RET

   \                                 In  segment CODE, align 2, keep-with-next
   \   __version_3 uint8_t CNormalAlarmDfa::ALARM_TYPE()
   \                     ??ALARM_TYPE_1:
   \   00000000   0198               MOVW    R19:R18, R17:R16
   \   00000002   E000               LDI     R16, 0
   \   00000004   9508               RET

   \                                 In  segment CODE, align 2, keep-with-next
   \   __version_3 uint8_t CNormalAlarmDfa::ACTIVE_LEVEL()
   \                     ??ACTIVE_LEVEL_1:
   \   00000000   0198               MOVW    R19:R18, R17:R16
   \   00000002   E000               LDI     R16, 0
   \   00000004   9508               RET

   \                                 In  segment CODE, align 2, keep-with-next
   \   __version_3 uint8_t CNormalAlarmDfa::IS_NAMUR_ON()
   \                     ??IS_NAMUR_ON_1:
   \   00000000   0198               MOVW    R19:R18, R17:R16
   \   00000002   E000               LDI     R16, 0
   \   00000004   9508               RET

   \                                 In  segment CODE, align 2, keep-with-next
   \   __version_3 uint8_t CPreventiveAlarmLowLevelDfa::ALARM_TYPE()
   \                     ??ALARM_TYPE_2:
   \   00000000   0198               MOVW    R19:R18, R17:R16
   \   00000002   E002               LDI     R16, 2
   \   00000004   9508               RET

   \                                 In  segment CODE, align 2, keep-with-next
   \   __version_3 uint8_t CPreventiveAlarmLowLevelDfa::ACTIVE_LEVEL()
   \                     ??ACTIVE_LEVEL_2:
   \   00000000   0198               MOVW    R19:R18, R17:R16
   \   00000002   E000               LDI     R16, 0
   \   00000004   9508               RET

   \                                 In  segment CODE, align 2, keep-with-next
   \   __version_3 uint8_t CPreventiveAlarmLowLevelDfa::IS_NAMUR_ON()
   \                     ??IS_NAMUR_ON_2:
   \   00000000   0198               MOVW    R19:R18, R17:R16
   \   00000002   E000               LDI     R16, 0
   \   00000004   9508               RET

   \                                 In  segment CODE, align 2, keep-with-next
   \   __version_3 uint8_t CPreventiveAlarmHighLevelDfa::ALARM_TYPE()
   \                     ??ALARM_TYPE_3:
   \   00000000   0198               MOVW    R19:R18, R17:R16
   \   00000002   E002               LDI     R16, 2
   \   00000004   9508               RET

   \                                 In  segment CODE, align 2, keep-with-next
   \   __version_3 uint8_t CPreventiveAlarmHighLevelDfa::ACTIVE_LEVEL()
   \                     ??ACTIVE_LEVEL_3:
   \   00000000   0198               MOVW    R19:R18, R17:R16
   \   00000002   E001               LDI     R16, 1
   \   00000004   9508               RET

   \                                 In  segment CODE, align 2, keep-with-next
   \   __version_3 uint8_t CPreventiveAlarmHighLevelDfa::IS_NAMUR_ON()
   \                     ??IS_NAMUR_ON_3:
   \   00000000   0198               MOVW    R19:R18, R17:R16
   \   00000002   E000               LDI     R16, 0
   \   00000004   9508               RET

   \                                 In  segment CODE, align 2, keep-with-next
   \   __version_3 uint8_t CPreventiveAlarmLowLevelNamurDfa::ALARM_TYPE()
   \                     ??ALARM_TYPE_4:
   \   00000000   0198               MOVW    R19:R18, R17:R16
   \   00000002   E002               LDI     R16, 2
   \   00000004   9508               RET

   \                                 In  segment CODE, align 2, keep-with-next
   \   __version_3 uint8_t CPreventiveAlarmLowLevelNamurDfa::ACTIVE_LEVEL()
   \                     ??ACTIVE_LEVEL_4:
   \   00000000   0198               MOVW    R19:R18, R17:R16
   \   00000002   E000               LDI     R16, 0
   \   00000004   9508               RET

   \                                 In  segment CODE, align 2, keep-with-next
   \   __version_3 uint8_t CPreventiveAlarmLowLevelNamurDfa::IS_NAMUR_ON()
   \                     ??IS_NAMUR_ON_4:
   \   00000000   0198               MOVW    R19:R18, R17:R16
   \   00000002   E001               LDI     R16, 1
   \   00000004   9508               RET

   \                                 In  segment CODE, align 2, keep-with-next
   \   __version_3 uint8_t CPreventiveAlarmHighLevelNamurDfa::ALARM_TYPE()
   \                     ??ALARM_TYPE_5:
   \   00000000   0198               MOVW    R19:R18, R17:R16
   \   00000002   E002               LDI     R16, 2
   \   00000004   9508               RET

   \                                 In  segment CODE, align 2, keep-with-next
   \   __version_3 uint8_t CPreventiveAlarmHighLevelNamurDfa::ACTIVE_LEVEL()
   \                     ??ACTIVE_LEVEL_5:
   \   00000000   0198               MOVW    R19:R18, R17:R16
   \   00000002   E001               LDI     R16, 1
   \   00000004   9508               RET

   \                                 In  segment CODE, align 2, keep-with-next
   \   __version_3 uint8_t CPreventiveAlarmHighLevelNamurDfa::IS_NAMUR_ON()
   \                     ??IS_NAMUR_ON_5:
   \   00000000   0198               MOVW    R19:R18, R17:R16
   \   00000002   E001               LDI     R16, 1
   \   00000004   9508               RET

   \                                 In  segment CODE, align 2, keep-with-next
   \   __version_3 uint8_t CEmergencyAlarmLowLevelDfa::ALARM_TYPE()
   \                     ??ALARM_TYPE_6:
   \   00000000   0198               MOVW    R19:R18, R17:R16
   \   00000002   E003               LDI     R16, 3
   \   00000004   9508               RET

   \                                 In  segment CODE, align 2, keep-with-next
   \   __version_3 uint8_t CEmergencyAlarmLowLevelDfa::ACTIVE_LEVEL()
   \                     ??ACTIVE_LEVEL_6:
   \   00000000   0198               MOVW    R19:R18, R17:R16
   \   00000002   E000               LDI     R16, 0
   \   00000004   9508               RET

   \                                 In  segment CODE, align 2, keep-with-next
   \   __version_3 uint8_t CEmergencyAlarmLowLevelDfa::IS_NAMUR_ON()
   \                     ??IS_NAMUR_ON_6:
   \   00000000   0198               MOVW    R19:R18, R17:R16
   \   00000002   E000               LDI     R16, 0
   \   00000004   9508               RET

   \                                 In  segment CODE, align 2, keep-with-next
   \   __version_3 uint8_t CEmergencyAlarmHighLevelDfa::ALARM_TYPE()
   \                     ??ALARM_TYPE_7:
   \   00000000   0198               MOVW    R19:R18, R17:R16
   \   00000002   E003               LDI     R16, 3
   \   00000004   9508               RET

   \                                 In  segment CODE, align 2, keep-with-next
   \   __version_3 uint8_t CEmergencyAlarmHighLevelDfa::ACTIVE_LEVEL()
   \                     ??ACTIVE_LEVEL_7:
   \   00000000   0198               MOVW    R19:R18, R17:R16
   \   00000002   E001               LDI     R16, 1
   \   00000004   9508               RET

   \                                 In  segment CODE, align 2, keep-with-next
   \   __version_3 uint8_t CEmergencyAlarmHighLevelDfa::IS_NAMUR_ON()
   \                     ??IS_NAMUR_ON_7:
   \   00000000   0198               MOVW    R19:R18, R17:R16
   \   00000002   E000               LDI     R16, 0
   \   00000004   9508               RET

   \                                 In  segment CODE, align 2, keep-with-next
   \   __version_3 uint8_t CEmergencyAlarmLowLevelNamurDfa::ALARM_TYPE()
   \                     ??ALARM_TYPE_8:
   \   00000000   0198               MOVW    R19:R18, R17:R16
   \   00000002   E003               LDI     R16, 3
   \   00000004   9508               RET

   \                                 In  segment CODE, align 2, keep-with-next
   \   __version_3 uint8_t CEmergencyAlarmLowLevelNamurDfa::ACTIVE_LEVEL()
   \                     ??ACTIVE_LEVEL_8:
   \   00000000   0198               MOVW    R19:R18, R17:R16
   \   00000002   E000               LDI     R16, 0
   \   00000004   9508               RET

   \                                 In  segment CODE, align 2, keep-with-next
   \   __version_3 uint8_t CEmergencyAlarmLowLevelNamurDfa::IS_NAMUR_ON()
   \                     ??IS_NAMUR_ON_8:
   \   00000000   0198               MOVW    R19:R18, R17:R16
   \   00000002   E001               LDI     R16, 1
   \   00000004   9508               RET

   \                                 In  segment CODE, align 2, keep-with-next
   \   __version_3 uint8_t CEmergencyAlarmHighLevelNamurDfa::ALARM_TYPE()
   \                     ??ALARM_TYPE_9:
   \   00000000   0198               MOVW    R19:R18, R17:R16
   \   00000002   E003               LDI     R16, 3
   \   00000004   9508               RET

   \                                 In  segment CODE, align 2, keep-with-next
   \   __version_3 uint8_t CEmergencyAlarmHighLevelNamurDfa::ACTIVE_LEVEL()
   \                     ??ACTIVE_LEVEL_9:
   \   00000000   0198               MOVW    R19:R18, R17:R16
   \   00000002   E001               LDI     R16, 1
   \   00000004   9508               RET

   \                                 In  segment CODE, align 2, keep-with-next
   \   __version_3 uint8_t CEmergencyAlarmHighLevelNamurDfa::IS_NAMUR_ON()
   \                     ??IS_NAMUR_ON_9:
   \   00000000   0198               MOVW    R19:R18, R17:R16
   \   00000002   E001               LDI     R16, 1
   \   00000004   9508               RET

   \                                 In  segment CODE, align 2, keep-with-next
   \   __version_3 uint8_t CIndicationAlarmLowLevelDfa::ALARM_TYPE()
   \                     ??ALARM_TYPE_10:
   \   00000000   0198               MOVW    R19:R18, R17:R16
   \   00000002   E001               LDI     R16, 1
   \   00000004   9508               RET

   \                                 In  segment CODE, align 2, keep-with-next
   \   __version_3 uint8_t CIndicationAlarmLowLevelDfa::ACTIVE_LEVEL()
   \                     ??ACTIVE_LEVEL_10:
   \   00000000   0198               MOVW    R19:R18, R17:R16
   \   00000002   E000               LDI     R16, 0
   \   00000004   9508               RET

   \                                 In  segment CODE, align 2, keep-with-next
   \   __version_3 uint8_t CIndicationAlarmLowLevelDfa::IS_NAMUR_ON()
   \                     ??IS_NAMUR_ON_10:
   \   00000000   0198               MOVW    R19:R18, R17:R16
   \   00000002   E000               LDI     R16, 0
   \   00000004   9508               RET

   \                                 In  segment CODE, align 2, keep-with-next
   \   __version_3 uint8_t CIndicationAlarmHighLevelDfa::ALARM_TYPE()
   \                     ??ALARM_TYPE_11:
   \   00000000   0198               MOVW    R19:R18, R17:R16
   \   00000002   E001               LDI     R16, 1
   \   00000004   9508               RET

   \                                 In  segment CODE, align 2, keep-with-next
   \   __version_3 uint8_t CIndicationAlarmHighLevelDfa::ACTIVE_LEVEL()
   \                     ??ACTIVE_LEVEL_11:
   \   00000000   0198               MOVW    R19:R18, R17:R16
   \   00000002   E001               LDI     R16, 1
   \   00000004   9508               RET

   \                                 In  segment CODE, align 2, keep-with-next
   \   __version_3 uint8_t CIndicationAlarmHighLevelDfa::IS_NAMUR_ON()
   \                     ??IS_NAMUR_ON_11:
   \   00000000   0198               MOVW    R19:R18, R17:R16
   \   00000002   E000               LDI     R16, 0
   \   00000004   9508               RET

   \                                 In  segment CODE, align 2, keep-with-next
   \   __version_3 uint8_t CIndicationAlarmLowLevelNamurDfa::ALARM_TYPE()
   \                     ??ALARM_TYPE_12:
   \   00000000   0198               MOVW    R19:R18, R17:R16
   \   00000002   E001               LDI     R16, 1
   \   00000004   9508               RET

   \                                 In  segment CODE, align 2, keep-with-next
   \   __version_3 uint8_t CIndicationAlarmLowLevelNamurDfa::ACTIVE_LEVEL()
   \                     ??ACTIVE_LEVEL_12:
   \   00000000   0198               MOVW    R19:R18, R17:R16
   \   00000002   E000               LDI     R16, 0
   \   00000004   9508               RET

   \                                 In  segment CODE, align 2, keep-with-next
   \   __version_3 uint8_t CIndicationAlarmLowLevelNamurDfa::IS_NAMUR_ON()
   \                     ??IS_NAMUR_ON_12:
   \   00000000   0198               MOVW    R19:R18, R17:R16
   \   00000002   E001               LDI     R16, 1
   \   00000004   9508               RET

   \                                 In  segment CODE, align 2, keep-with-next
   \   __version_3 uint8_t CIndicationAlarmHighLevelNamurDfa::ALARM_TYPE()
   \                     ??ALARM_TYPE_13:
   \   00000000   0198               MOVW    R19:R18, R17:R16
   \   00000002   E001               LDI     R16, 1
   \   00000004   9508               RET

   \                                 In  segment CODE, align 2, keep-with-next
   \   __version_3 uint8_t CIndicationAlarmHighLevelNamurDfa::ACTIVE_LEVEL()
   \                     ??ACTIVE_LEVEL_13:
   \   00000000   0198               MOVW    R19:R18, R17:R16
   \   00000002   E001               LDI     R16, 1
   \   00000004   9508               RET

   \                                 In  segment CODE, align 2, keep-with-next
   \   __version_3 uint8_t CIndicationAlarmHighLevelNamurDfa::IS_NAMUR_ON()
   \                     ??IS_NAMUR_ON_13:
   \   00000000   0198               MOVW    R19:R18, R17:R16
   \   00000002   E001               LDI     R16, 1
   \   00000004   9508               RET

   \                                 In  segment CODE, align 2, keep-with-next
   \   __version_3 uint8_t CErrorAlarmDfa::ALARM_TYPE()
   \                     ??ALARM_TYPE_14:
   \   00000000   0198               MOVW    R19:R18, R17:R16
   \   00000002   E007               LDI     R16, 7
   \   00000004   9508               RET

   \                                 In  segment CODE, align 2, keep-with-next
   \   __version_3 uint8_t CErrorAlarmDfa::ACTIVE_LEVEL()
   \                     ??ACTIVE_LEVEL_14:
   \   00000000   0198               MOVW    R19:R18, R17:R16
   \   00000002   E000               LDI     R16, 0
   \   00000004   9508               RET

   \                                 In  segment CODE, align 2, keep-with-next
   \   __version_3 uint8_t CErrorAlarmDfa::GetDiscreteStateIndex()
   \                     ??GetDiscreteStateIndex_1:
   \   00000000   01F8               MOVW    R31:R30, R17:R16
   \   00000002   8104               LDD     R16, Z+4
   \   00000004   9508               RET

   \                                 In  segment CODE, align 2, keep-with-next
   \   __version_3 uint8_t CErrorAlarmDfa::GetAlarmWindowIndex()
   \                     ??GetAlarmWindowIndex_1:
   \   00000000   01F8               MOVW    R31:R30, R17:R16
   \   00000002   8103               LDD     R16, Z+3
   \   00000004   9508               RET

      virtual bool IsSolved(void) {};
                                   ^
"D:\Projects\CurrentProjects\CautoProjects\PSS48Color\include\Task.h",20  Warning[Pe940]: 
          missing return statement at end of non-void function
          "CTaskInterface::IsSolved"

      virtual bool IsSourceStateActive(void) {};
                                              ^
"D:\Projects\CurrentProjects\CautoProjects\PSS48Color\include\Task.h",23  Warning[Pe940]: 
          missing return statement at end of non-void function
          "CTaskInterface::IsSourceStateActive"

      bool IsSolved(void) {};
                           ^
"D:\Projects\CurrentProjects\CautoProjects\PSS48Color\include\Task.h",58  Warning[Pe940]: 
          missing return statement at end of non-void function
          "CIsRegularButtonPressedInterface::IsSolved"

      virtual bool IsSourceStateActive(void) {};
                                              ^
"D:\Projects\CurrentProjects\CautoProjects\PSS48Color\include\Task.h",61  Warning[Pe940]: 
          missing return statement at end of non-void function
          "CIsRegularButtonPressedInterface::IsSourceStateActive"

      virtual uint16_t KEY_PRESSED_TIME(void) {};
                                               ^
"D:\Projects\CurrentProjects\CautoProjects\PSS48Color\include\Task.h",63  Warning[Pe940]: 
          missing return statement at end of non-void function
          "CIsRegularButtonPressedInterface::KEY_PRESSED_TIME"

   \                                 In  segment CODE, align 2, keep-with-next
   \   __version_3 uint8_t CPss21::GetDiscreteSignalsReceipt()
   \                     ??GetDiscreteSignalsReceipt:
   \   00000000   9100....           LDS     R16, ??m_uiDiscreteSignalsReceipt
   \   00000004   9508               RET

   \                                 In  segment CODE, align 2, keep-with-next
   \   __version_3 uint8_t CPss21::GetDiscreteSignalsReset()
   \                     ??GetDiscreteSignalsReset:
   \   00000000   9100....           LDS     R16, ??m_uiDiscreteSignalsReset
   \   00000004   9508               RET

   \                                 In  segment CODE, align 2, keep-with-next
   \   __version_3 void CPss21::SetCommonAlarmType(uint8_t)
   \                     ??SetCommonAlarmType:
   \   00000000   9300....           STS     ??m_uiCommonAlarmType, R16
   \   00000004   9508               RET

   \                                 In  segment CODE, align 2, keep-with-next
   \   __version_3 uint8_t CPss21::GetCommonAlarmType()
   \                     ??GetCommonAlarmType:
   \   00000000   9100....           LDS     R16, ??m_uiCommonAlarmType
   \   00000004   9508               RET

   \                                 In  segment CODE, align 2, keep-with-next
   \   __version_3 CAlarmWindow *CPss21::GetAlarmWindowControlPointer(uint8_t)
   \                     ??GetAlarmWindowControlPointer:
   \   00000000   E010               LDI     R17, 0
   \   00000002   E048               LDI     R20, 8
   \   00000004   E050               LDI     R21, 0
   \   00000006   ........           CALL    ?S_EC_MUL_L02
   \   0000000A   0198               MOVW    R19:R18, R17:R16
   \   0000000C   ....               LDI     R16, LOW(??m_axAlarmWindowControl)
   \   0000000E   ....               LDI     R17, (??m_axAlarmWindowControl) >> 8
   \   00000010   0F02               ADD     R16, R18
   \   00000012   1F13               ADC     R17, R19
   \   00000014   9508               RET
     11          
     12          //-----------------------------------------------------------------------------------------------------

   \                                 In  segment CODE, align 2, keep-with-next
     13          CAlarmDfa::CAlarmDfa()
   \                     ??CAlarmDfa:
   \   00000000   93BA               ST      -Y, R27
   \   00000002   93AA               ST      -Y, R26
   \   00000004   01D8               MOVW    R27:R26, R17:R16
     14          {
   \   00000006   018D               MOVW    R17:R16, R27:R26
   \   00000008   ........           CALL    ??CDfaLite
   \   0000000C   ....               LDI     R16, LOW(??__vtbl_1)
   \   0000000E   ....               LDI     R17, (??__vtbl_1) >> 8
   \   00000010   01FD               MOVW    R31:R30, R27:R26
   \   00000012   8301               STD     Z+1, R16
   \   00000014   8312               STD     Z+2, R17
     15              //ctor
     16          }
   \   00000016   018D               MOVW    R17:R16, R27:R26
   \   00000018   91A9               LD      R26, Y+
   \   0000001A   91B9               LD      R27, Y+
   \   0000001C   9508               RET
     17          
     18          //-----------------------------------------------------------------------------------------------------

   \                                 In  segment CODE, align 2, keep-with-next
     19          CAlarmDfa::~CAlarmDfa()
   \                     `?~CAlarmDfa`:
     20          {
   \   00000000   ........           CALL    ?PROLOGUE4_L09
   \   00000004   01C8               MOVW    R25:R24, R17:R16
   \   00000006   01D9               MOVW    R27:R26, R19:R18
   \   00000008   2F08               MOV     R16, R24
   \   0000000A   2B09               OR      R16, R25
   \   0000000C   F051               BREQ    `?~CAlarmDfa_1`
     21              //dtor
     22          }
   \   0000000E   E020               LDI     R18, 0
   \   00000010   E030               LDI     R19, 0
   \   00000012   018C               MOVW    R17:R16, R25:R24
   \   00000014   ........           CALL    `?~CDfaLite`
   \   00000018   FBA0               BST     R26, 0
   \   0000001A   F41E               BRTC    `?~CAlarmDfa_1`
   \   0000001C   018C               MOVW    R17:R16, R25:R24
   \   0000001E   ........           CALL    `??operator delete`
   \                     `?~CAlarmDfa_1`:
   \   00000022   E0E4               LDI     R30, 4
   \   00000024   ........           JMP     ?EPILOGUE_B4_L09
     23          
     24          //-----------------------------------------------------------------------------------------------------

   \                                 In  segment CODE, align 2, keep-with-next
     25          uint8_t CAlarmDfa::DiscreteSignalStateCheck(void)
   \                     ??DiscreteSignalStateCheck:
     26          {
   \   00000000   ........           CALL    ?PROLOGUE4_L09
   \   00000004   01D8               MOVW    R27:R26, R17:R16
     27              uint8_t uiDiscreteSignalState = DISCRETE_SIGNAL_IS_INVALID;
   \   00000006   E083               LDI     R24, 3
     28          
     29              // дискретный сигнал этого объекта автомата сигнализации привязан
     30              // к дискретному входу модуля ввода?
     31              if (GetDiscreteStateIndex() < DISCRETE_INPUTS_NUMBER)
   \   00000008   018D               MOVW    R17:R16, R27:R26
   \   0000000A   ........           CALL    ??GetDiscreteStateIndex
   \   0000000E   3300               CPI     R16, 48
   \   00000010   F008               BRCS    $+2+2
   \   00000012   C0D5               RJMP    ??DiscreteSignalStateCheck_1
     32              {
     33                  // дискретный вход недостоверен?
     34                  if ((CPss21::GetDiscreteInputsBadState(GetDiscreteStateIndex()) & 0x07) == INPUT_IS_INVALID)
   \   00000014   018D               MOVW    R17:R16, R27:R26
   \   00000016   ........           CALL    ??GetDiscreteStateIndex
   \   0000001A   ........           CALL    ??GetDiscreteInputsBadState
   \   0000001E   7007               ANDI    R16, 0x07
   \   00000020   3004               CPI     R16, 4
   \   00000022   F411               BRNE    ??DiscreteSignalStateCheck_2
     35                  {
     36                      uiDiscreteSignalState = DISCRETE_SIGNAL_IS_INVALID;
   \   00000024   E083               LDI     R24, 3
   \   00000026   C0D5               RJMP    ??DiscreteSignalStateCheck_3
     37                  }
     38                  else
     39                  {
     40                      // тип текущего дискретного сигнала namur?
     41                      if (IS_NAMUR_ON())
   \                     ??DiscreteSignalStateCheck_2:
   \   00000028   018D               MOVW    R17:R16, R27:R26
   \   0000002A   01FD               MOVW    R31:R30, R27:R26
   \   0000002C   8121               LDD     R18, Z+1
   \   0000002E   8132               LDD     R19, Z+2
   \   00000030   01F9               MOVW    R31:R30, R19:R18
   \   00000032   9638               ADIW    R31:R30, 8
   \   00000034   9125               LPM     R18, Z+
   \   00000036   9134               LPM     R19, Z
   \   00000038   9739               SBIW    R31:R30, 9
   \   0000003A   01F9               MOVW    R31:R30, R19:R18
   \   0000003C   9509               ICALL
   \   0000003E   2300               TST     R16
   \   00000040   F011               BREQ    ??DiscreteSignalStateCheck_4
   \   00000042   E001               LDI     R16, 1
   \   00000044   C001               RJMP    ??DiscreteSignalStateCheck_5
   \                     ??DiscreteSignalStateCheck_4:
   \   00000046   E000               LDI     R16, 0
   \                     ??DiscreteSignalStateCheck_5:
   \   00000048   2300               TST     R16
   \   0000004A   F409               BRNE    $+2+2
   \   0000004C   C060               RJMP    ??DiscreteSignalStateCheck_6
     42                      {
     43                          switch (CPss21::GetDiscreteInputsBadState(GetDiscreteStateIndex()))
   \   0000004E   018D               MOVW    R17:R16, R27:R26
   \   00000050   ........           CALL    ??GetDiscreteStateIndex
   \   00000054   ........           CALL    ??GetDiscreteInputsBadState
   \   00000058   5000               SUBI    R16, 0
   \   0000005A   F049               BREQ    ??DiscreteSignalStateCheck_7
   \   0000005C   950A               DEC     R16
   \   0000005E   F039               BREQ    ??DiscreteSignalStateCheck_7
   \   00000060   950A               DEC     R16
   \   00000062   F409               BRNE    $+2+2
   \   00000064   C04C               RJMP    ??DiscreteSignalStateCheck_8
   \   00000066   950A               DEC     R16
   \   00000068   F409               BRNE    $+2+2
   \   0000006A   C049               RJMP    ??DiscreteSignalStateCheck_8
   \   0000006C   C0B2               RJMP    ??DiscreteSignalStateCheck_3
     44                          {
     45                          case OFF:
     46                          case ON:
     47                              // Дискретный сигнал активен?
     48                              // уровень сигналы типа "NAMUR" определяем по состояниям дискретного входа:
     49          //	- состояния "0" (OFF) - "РАЗОМКНУТО"
     50          //	- состояния "1" (ON) - "ЗАМКНУТО"
     51                              if ((CPss21::GetDiscreteInputsBadState(GetDiscreteStateIndex()) & 0x03) == OFF)
   \                     ??DiscreteSignalStateCheck_7:
   \   0000006E   018D               MOVW    R17:R16, R27:R26
   \   00000070   ........           CALL    ??GetDiscreteStateIndex
   \   00000074   ........           CALL    ??GetDiscreteInputsBadState
   \   00000078   7003               ANDI    R16, 0x03
   \   0000007A   2300               TST     R16
   \   0000007C   F4E1               BRNE    ??DiscreteSignalStateCheck_9
     52                              {
     53                                  // установим значение текущего дискретного входа отображаемое в пространстве модбас
     54                                  // интерпретированное с учетом условия активности.
     55                                  CPss21::SetDiscreteInputState(GetDiscreteStateIndex(), 0);
   \   0000007E   018D               MOVW    R17:R16, R27:R26
   \   00000080   ........           CALL    ??GetDiscreteStateIndex
   \   00000084   E010               LDI     R17, 0
   \   00000086   ........           CALL    ??SetDiscreteInputState
     56          
     57                                  if (ACTIVE_LEVEL())
   \   0000008A   018D               MOVW    R17:R16, R27:R26
   \   0000008C   01FD               MOVW    R31:R30, R27:R26
   \   0000008E   8121               LDD     R18, Z+1
   \   00000090   8132               LDD     R19, Z+2
   \   00000092   01F9               MOVW    R31:R30, R19:R18
   \   00000094   9636               ADIW    R31:R30, 6
   \   00000096   9125               LPM     R18, Z+
   \   00000098   9134               LPM     R19, Z
   \   0000009A   9737               SBIW    R31:R30, 7
   \   0000009C   01F9               MOVW    R31:R30, R19:R18
   \   0000009E   9509               ICALL
   \   000000A0   2300               TST     R16
   \   000000A2   F011               BREQ    ??DiscreteSignalStateCheck_10
   \   000000A4   E001               LDI     R16, 1
   \   000000A6   C001               RJMP    ??DiscreteSignalStateCheck_11
   \                     ??DiscreteSignalStateCheck_10:
   \   000000A8   E000               LDI     R16, 0
   \                     ??DiscreteSignalStateCheck_11:
   \   000000AA   2300               TST     R16
   \   000000AC   F011               BREQ    ??DiscreteSignalStateCheck_12
     58                                  {
     59                                      uiDiscreteSignalState = DISCRETE_SIGNAL_IS_ACTIVE;
   \   000000AE   E081               LDI     R24, 1
   \   000000B0   C090               RJMP    ??DiscreteSignalStateCheck_3
     60                                  }
     61                                  else
     62                                  {
     63                                      uiDiscreteSignalState = DISCRETE_SIGNAL_IS_NOT_ACTIVE;
   \                     ??DiscreteSignalStateCheck_12:
   \   000000B2   E080               LDI     R24, 0
   \   000000B4   C08E               RJMP    ??DiscreteSignalStateCheck_3
     64                                  }
     65                              }
     66                              else if ((CPss21::GetDiscreteInputsBadState(GetDiscreteStateIndex()) & 0x03) == ON)
   \                     ??DiscreteSignalStateCheck_9:
   \   000000B6   018D               MOVW    R17:R16, R27:R26
   \   000000B8   ........           CALL    ??GetDiscreteStateIndex
   \   000000BC   ........           CALL    ??GetDiscreteInputsBadState
   \   000000C0   7003               ANDI    R16, 0x03
   \   000000C2   3001               CPI     R16, 1
   \   000000C4   F4D9               BRNE    ??DiscreteSignalStateCheck_13
     67                              {
     68                                  // установим значение текущего дискретного входа отображаемое в пространстве модбас
     69                                  // интерпретированное с учетом условия активности.
     70                                  CPss21::SetDiscreteInputState(GetDiscreteStateIndex(), 1);
   \   000000C6   018D               MOVW    R17:R16, R27:R26
   \   000000C8   ........           CALL    ??GetDiscreteStateIndex
   \   000000CC   E011               LDI     R17, 1
   \   000000CE   ........           CALL    ??SetDiscreteInputState
     71          
     72                                  if (ACTIVE_LEVEL())
   \   000000D2   018D               MOVW    R17:R16, R27:R26
   \   000000D4   01FD               MOVW    R31:R30, R27:R26
   \   000000D6   8121               LDD     R18, Z+1
   \   000000D8   8132               LDD     R19, Z+2
   \   000000DA   01F9               MOVW    R31:R30, R19:R18
   \   000000DC   9636               ADIW    R31:R30, 6
   \   000000DE   9125               LPM     R18, Z+
   \   000000E0   9134               LPM     R19, Z
   \   000000E2   9737               SBIW    R31:R30, 7
   \   000000E4   01F9               MOVW    R31:R30, R19:R18
   \   000000E6   9509               ICALL
   \   000000E8   2300               TST     R16
   \   000000EA   F011               BREQ    ??DiscreteSignalStateCheck_14
   \   000000EC   E001               LDI     R16, 1
   \   000000EE   C001               RJMP    ??DiscreteSignalStateCheck_15
   \                     ??DiscreteSignalStateCheck_14:
   \   000000F0   E000               LDI     R16, 0
   \                     ??DiscreteSignalStateCheck_15:
   \   000000F2   2300               TST     R16
   \   000000F4   F011               BREQ    ??DiscreteSignalStateCheck_16
     73                                  {
     74                                      uiDiscreteSignalState = DISCRETE_SIGNAL_IS_NOT_ACTIVE;
   \   000000F6   E080               LDI     R24, 0
   \   000000F8   C06C               RJMP    ??DiscreteSignalStateCheck_3
     75                                  }
     76                                  else
     77                                  {
     78                                      uiDiscreteSignalState = DISCRETE_SIGNAL_IS_ACTIVE;
   \                     ??DiscreteSignalStateCheck_16:
   \   000000FA   E081               LDI     R24, 1
     79                                  }
     80                              }
     81                              break;
   \                     ??DiscreteSignalStateCheck_13:
   \   000000FC   C06A               RJMP    ??DiscreteSignalStateCheck_3
     82          
     83                          case WIRE_BREAK:
     84                          case SHORT_CIRCUIT:
     85                              uiDiscreteSignalState = DISCRETE_SIGNAL_IS_NAMUR_ERROR;
   \                     ??DiscreteSignalStateCheck_8:
   \   000000FE   E082               LDI     R24, 2
     86                              // установим значение текущего дискретного входа отображаемое в пространстве модбас
     87                              // интерпретированное с учетом условия активности.
     88                              CPss21::SetDiscreteInputState(GetDiscreteStateIndex(), 0);
   \   00000100   018D               MOVW    R17:R16, R27:R26
   \   00000102   ........           CALL    ??GetDiscreteStateIndex
   \   00000106   E010               LDI     R17, 0
   \   00000108   ........           CALL    ??SetDiscreteInputState
     89                              break;
   \   0000010C   C062               RJMP    ??DiscreteSignalStateCheck_3
     90          
     91                          default:
     92                              break;
     93                          }
     94                      }
     95                      else
     96                      {
     97                          // Дискретный сигнал активен?
     98                          // уровень сигналы типа "СУХОЙ КОНТАКТ" (СК) определяем по состояниям дискретного входа:
     99                          //        1.3. В алгоритме обработки сигналов типа "СУХОЙ КОНТАКТ" (СК) должно быть:
    100          //	- состояния "0" (OFF) и "3" (КЗ) - "ЗАМКНУТО"
    101          //	- состояния "1" (ON) и "2" (ОБРЫВ) - "РАЗОМКНУТО"
    102                          if (((CPss21::GetDiscreteInputsBadState(GetDiscreteStateIndex()) & 0x03) == WIRE_BREAK) ||
    103                                  ((CPss21::GetDiscreteInputsBadState(GetDiscreteStateIndex()) & 0x03) == ON))
   \                     ??DiscreteSignalStateCheck_6:
   \   0000010E   018D               MOVW    R17:R16, R27:R26
   \   00000110   ........           CALL    ??GetDiscreteStateIndex
   \   00000114   ........           CALL    ??GetDiscreteInputsBadState
   \   00000118   7003               ANDI    R16, 0x03
   \   0000011A   3002               CPI     R16, 2
   \   0000011C   F041               BREQ    ??DiscreteSignalStateCheck_17
   \   0000011E   018D               MOVW    R17:R16, R27:R26
   \   00000120   ........           CALL    ??GetDiscreteStateIndex
   \   00000124   ........           CALL    ??GetDiscreteInputsBadState
   \   00000128   7003               ANDI    R16, 0x03
   \   0000012A   3001               CPI     R16, 1
   \   0000012C   F4E1               BRNE    ??DiscreteSignalStateCheck_18
    104                          {
    105                              // установим значение текущего дискретного входа отображаемое в пространстве модбас
    106                              // интерпретированное с учетом условия активности.
    107                              CPss21::SetDiscreteInputState(GetDiscreteStateIndex(), 0);
   \                     ??DiscreteSignalStateCheck_17:
   \   0000012E   018D               MOVW    R17:R16, R27:R26
   \   00000130   ........           CALL    ??GetDiscreteStateIndex
   \   00000134   E010               LDI     R17, 0
   \   00000136   ........           CALL    ??SetDiscreteInputState
    108          
    109                              if (ACTIVE_LEVEL())
   \   0000013A   018D               MOVW    R17:R16, R27:R26
   \   0000013C   01FD               MOVW    R31:R30, R27:R26
   \   0000013E   8121               LDD     R18, Z+1
   \   00000140   8132               LDD     R19, Z+2
   \   00000142   01F9               MOVW    R31:R30, R19:R18
   \   00000144   9636               ADIW    R31:R30, 6
   \   00000146   9125               LPM     R18, Z+
   \   00000148   9134               LPM     R19, Z
   \   0000014A   9737               SBIW    R31:R30, 7
   \   0000014C   01F9               MOVW    R31:R30, R19:R18
   \   0000014E   9509               ICALL
   \   00000150   2300               TST     R16
   \   00000152   F011               BREQ    ??DiscreteSignalStateCheck_19
   \   00000154   E001               LDI     R16, 1
   \   00000156   C001               RJMP    ??DiscreteSignalStateCheck_20
   \                     ??DiscreteSignalStateCheck_19:
   \   00000158   E000               LDI     R16, 0
   \                     ??DiscreteSignalStateCheck_20:
   \   0000015A   2300               TST     R16
   \   0000015C   F011               BREQ    ??DiscreteSignalStateCheck_21
    110                              {
    111                                  uiDiscreteSignalState = DISCRETE_SIGNAL_IS_ACTIVE;
   \   0000015E   E081               LDI     R24, 1
   \   00000160   C038               RJMP    ??DiscreteSignalStateCheck_3
    112                              }
    113                              else
    114                              {
    115                                  uiDiscreteSignalState = DISCRETE_SIGNAL_IS_NOT_ACTIVE;
   \                     ??DiscreteSignalStateCheck_21:
   \   00000162   E080               LDI     R24, 0
   \   00000164   C036               RJMP    ??DiscreteSignalStateCheck_3
    116                              }
    117                          }
    118                          else if (((CPss21::GetDiscreteInputsBadState(GetDiscreteStateIndex()) & 0x03) == SHORT_CIRCUIT) ||
    119                                   ((CPss21::GetDiscreteInputsBadState(GetDiscreteStateIndex()) & 0x03) == OFF))
   \                     ??DiscreteSignalStateCheck_18:
   \   00000166   018D               MOVW    R17:R16, R27:R26
   \   00000168   ........           CALL    ??GetDiscreteStateIndex
   \   0000016C   ........           CALL    ??GetDiscreteInputsBadState
   \   00000170   7003               ANDI    R16, 0x03
   \   00000172   3003               CPI     R16, 3
   \   00000174   F041               BREQ    ??DiscreteSignalStateCheck_22
   \   00000176   018D               MOVW    R17:R16, R27:R26
   \   00000178   ........           CALL    ??GetDiscreteStateIndex
   \   0000017C   ........           CALL    ??GetDiscreteInputsBadState
   \   00000180   7003               ANDI    R16, 0x03
   \   00000182   2300               TST     R16
   \   00000184   F531               BRNE    ??DiscreteSignalStateCheck_3
    120                          {
    121                              // установим значение текущего дискретного входа отображаемое в пространстве модбас
    122                              // интерпретированное с учетом условия активности.
    123                              CPss21::SetDiscreteInputState(GetDiscreteStateIndex(), 1);
   \                     ??DiscreteSignalStateCheck_22:
   \   00000186   018D               MOVW    R17:R16, R27:R26
   \   00000188   ........           CALL    ??GetDiscreteStateIndex
   \   0000018C   E011               LDI     R17, 1
   \   0000018E   ........           CALL    ??SetDiscreteInputState
    124          
    125                              if (ACTIVE_LEVEL())
   \   00000192   018D               MOVW    R17:R16, R27:R26
   \   00000194   01FD               MOVW    R31:R30, R27:R26
   \   00000196   8121               LDD     R18, Z+1
   \   00000198   8132               LDD     R19, Z+2
   \   0000019A   01F9               MOVW    R31:R30, R19:R18
   \   0000019C   9636               ADIW    R31:R30, 6
   \   0000019E   9125               LPM     R18, Z+
   \   000001A0   9134               LPM     R19, Z
   \   000001A2   9737               SBIW    R31:R30, 7
   \   000001A4   01F9               MOVW    R31:R30, R19:R18
   \   000001A6   9509               ICALL
   \   000001A8   2300               TST     R16
   \   000001AA   F011               BREQ    ??DiscreteSignalStateCheck_23
   \   000001AC   E001               LDI     R16, 1
   \   000001AE   C001               RJMP    ??DiscreteSignalStateCheck_24
   \                     ??DiscreteSignalStateCheck_23:
   \   000001B0   E000               LDI     R16, 0
   \                     ??DiscreteSignalStateCheck_24:
   \   000001B2   2300               TST     R16
   \   000001B4   F011               BREQ    ??DiscreteSignalStateCheck_25
    126                              {
    127                                  uiDiscreteSignalState = DISCRETE_SIGNAL_IS_NOT_ACTIVE;
   \   000001B6   E080               LDI     R24, 0
   \   000001B8   C00C               RJMP    ??DiscreteSignalStateCheck_3
    128                              }
    129                              else
    130                              {
    131                                  uiDiscreteSignalState = DISCRETE_SIGNAL_IS_ACTIVE;
   \                     ??DiscreteSignalStateCheck_25:
   \   000001BA   E081               LDI     R24, 1
   \   000001BC   C00A               RJMP    ??DiscreteSignalStateCheck_3
    132                              }
    133                          }
    134                      }
    135                  }
    136              }
    137              // дискретный сигнал этого объекта автомата сигнализации привязан
    138              // к состоянию ячейки модбас.
    139              else
    140              {
    141                  if ((CPss21::GetDiscreteInputsBadState(GetDiscreteStateIndex()) & 0x01) == 1)
   \                     ??DiscreteSignalStateCheck_1:
   \   000001BE   018D               MOVW    R17:R16, R27:R26
   \   000001C0   ........           CALL    ??GetDiscreteStateIndex
   \   000001C4   ........           CALL    ??GetDiscreteInputsBadState
   \   000001C8   FB00               BST     R16, 0
   \   000001CA   F416               BRTC    ??DiscreteSignalStateCheck_26
    142                  {
    143                      uiDiscreteSignalState = DISCRETE_SIGNAL_IS_ACTIVE;
   \   000001CC   E081               LDI     R24, 1
   \   000001CE   C001               RJMP    ??DiscreteSignalStateCheck_3
    144                  }
    145                  else
    146                  {
    147                      uiDiscreteSignalState = DISCRETE_SIGNAL_IS_NOT_ACTIVE;
   \                     ??DiscreteSignalStateCheck_26:
   \   000001D0   E080               LDI     R24, 0
    148                  }
    149              }
    150          
    151              return uiDiscreteSignalState;
   \                     ??DiscreteSignalStateCheck_3:
   \   000001D2   2F08               MOV     R16, R24
   \   000001D4   E0E4               LDI     R30, 4
   \   000001D6   ........           JMP     ?EPILOGUE_B4_L09
    152          }
    153          
    154          //-----------------------------------------------------------------------------------------------------
    155          // Автомат обработки сигнализации дискретного сигнала.

   \                                 In  segment CODE, align 2, keep-with-next
    156          void CAlarmDfa::Fsm(void)
   \                     ??Fsm:
    157          {
   \   00000000   ........           CALL    ?PROLOGUE4_L09
   \   00000004   01D8               MOVW    R27:R26, R17:R16
    158              uint8_t uiDiscreteSignalState = DiscreteSignalStateCheck();
   \   00000006   018D               MOVW    R17:R16, R27:R26
   \   00000008   9611               ADIW    R27:R26, 1
   \   0000000A   91ED               LD      R30, X+
   \   0000000C   91FC               LD      R31, X
   \   0000000E   9712               SBIW    R27:R26, 2
   \   00000010   963A               ADIW    R31:R30, 10
   \   00000012   9125               LPM     R18, Z+
   \   00000014   9134               LPM     R19, Z
   \   00000016   973B               SBIW    R31:R30, 11
   \   00000018   01F9               MOVW    R31:R30, R19:R18
   \   0000001A   9509               ICALL
   \   0000001C   2F80               MOV     R24, R16
    159          
    160              switch (GetFsmState())
   \   0000001E   018D               MOVW    R17:R16, R27:R26
   \   00000020   ........           CALL    ??GetFsmState
   \   00000024   ....               LDI     R30, LOW(`?<Jumptable for Fsm>_0`)
   \   00000026   ....               LDI     R31, (`?<Jumptable for Fsm>_0`) >> 16
   \   00000028   BFFB               OUT     0x3B, R31
   \   0000002A   ....               LDI     R31, HIGH(`?<Jumptable for Fsm>_0`)
   \   0000002C   ........           JMP     ?CV_SWITCH_L06
    161              {
    162              case START:
    163                  break;
    164          
    165          //    case ACTIVE_STATE_CHECK:
    166          //        break;
    167          
    168              case ACTIVE_STATE_WAITING:
    169          //        CPss21::m_aucRtuHoldingRegistersArray[0] = CPss21::m_aucDiscreteInputsBadState[0];
    170                  // тип текущего дискретного сигнала namur?
    171                  if (IS_NAMUR_ON())
   \                     ??Fsm_3:
   \   00000030   018D               MOVW    R17:R16, R27:R26
   \   00000032   01FD               MOVW    R31:R30, R27:R26
   \   00000034   8121               LDD     R18, Z+1
   \   00000036   8132               LDD     R19, Z+2
   \   00000038   01F9               MOVW    R31:R30, R19:R18
   \   0000003A   9638               ADIW    R31:R30, 8
   \   0000003C   9125               LPM     R18, Z+
   \   0000003E   9134               LPM     R19, Z
   \   00000040   9739               SBIW    R31:R30, 9
   \   00000042   01F9               MOVW    R31:R30, R19:R18
   \   00000044   9509               ICALL
   \   00000046   2300               TST     R16
   \   00000048   F011               BREQ    ??Fsm_4
   \   0000004A   E001               LDI     R16, 1
   \   0000004C   C001               RJMP    ??Fsm_5
   \                     ??Fsm_4:
   \   0000004E   E000               LDI     R16, 0
   \                     ??Fsm_5:
   \   00000050   2300               TST     R16
   \   00000052   F409               BRNE    $+2+2
   \   00000054   C04B               RJMP    ??Fsm_6
    172                  {
    173                      // Дискретный сигнал NAMUR в обрыве или кз?
    174                      if (uiDiscreteSignalState == DISCRETE_SIGNAL_IS_NAMUR_ERROR)
   \   00000056   3082               CPI     R24, 2
   \   00000058   F429               BRNE    ??Fsm_7
    175                      {
    176                          SetFsmState(NAMUR_STATE_ON);
   \   0000005A   E028               LDI     R18, 8
   \   0000005C   018D               MOVW    R17:R16, R27:R26
   \   0000005E   ........           CALL    ??SetFsmState
   \   00000062   C188               RJMP    ??Fsm_8
    177                      }
    178                      else
    179                      {
    180                          // Дискретный сигнал активен?
    181                          if (uiDiscreteSignalState == DISCRETE_SIGNAL_IS_ACTIVE)
   \                     ??Fsm_7:
   \   00000064   3081               CPI     R24, 1
   \   00000066   F009               BREQ    $+2+2
   \   00000068   C185               RJMP    ??Fsm_8
    182                          {
    183                              // Установим связанные дискретный выходы - новое нарушение.
    184                              CPss21::DiscreteOutputsSet(GetLinkedDiscreteOutputsPointer(), NEW_VIOLATION);
   \   0000006A   018D               MOVW    R17:R16, R27:R26
   \   0000006C   ........           CALL    ??GetLinkedDiscreteOutputsPointer
   \   00000070   E021               LDI     R18, 1
   \   00000072   ........           CALL    ??DiscreteOutputsSet
    185                              // Установим тип сигнализации связанному окну в массиве управления окнами извещателя.
    186                              CPss21::SetAlarmWindowType(GetAlarmWindowIndex(), ALARM_TYPE());
   \   00000076   018D               MOVW    R17:R16, R27:R26
   \   00000078   01FD               MOVW    R31:R30, R27:R26
   \   0000007A   8121               LDD     R18, Z+1
   \   0000007C   8132               LDD     R19, Z+2
   \   0000007E   01F9               MOVW    R31:R30, R19:R18
   \   00000080   9634               ADIW    R31:R30, 4
   \   00000082   9125               LPM     R18, Z+
   \   00000084   9134               LPM     R19, Z
   \   00000086   9735               SBIW    R31:R30, 5
   \   00000088   01F9               MOVW    R31:R30, R19:R18
   \   0000008A   9509               ICALL
   \   0000008C   2F90               MOV     R25, R16
   \   0000008E   018D               MOVW    R17:R16, R27:R26
   \   00000090   ........           CALL    ??GetAlarmWindowIndex
   \   00000094   2F19               MOV     R17, R25
   \   00000096   ........           CALL    ??SetAlarmWindowType
    187                              CPss21::SetAlarmWindowColor(GetAlarmWindowIndex(), ALARM_TYPE());
   \   0000009A   018D               MOVW    R17:R16, R27:R26
   \   0000009C   01FD               MOVW    R31:R30, R27:R26
   \   0000009E   8121               LDD     R18, Z+1
   \   000000A0   8132               LDD     R19, Z+2
   \   000000A2   01F9               MOVW    R31:R30, R19:R18
   \   000000A4   9634               ADIW    R31:R30, 4
   \   000000A6   9125               LPM     R18, Z+
   \   000000A8   9134               LPM     R19, Z
   \   000000AA   9735               SBIW    R31:R30, 5
   \   000000AC   01F9               MOVW    R31:R30, R19:R18
   \   000000AE   9509               ICALL
   \   000000B0   2F90               MOV     R25, R16
   \   000000B2   018D               MOVW    R17:R16, R27:R26
   \   000000B4   ........           CALL    ??GetAlarmWindowIndex
   \   000000B8   2F19               MOV     R17, R25
   \   000000BA   ........           CALL    ??SetAlarmWindowColor
    188                              CPss21::GetAlarmWindowControlPointer(GetAlarmWindowIndex()) -> SetActivityState(1);
   \   000000BE   018D               MOVW    R17:R16, R27:R26
   \   000000C0   ........           CALL    ??GetAlarmWindowIndex
   \   000000C4   ........           CALL    ??GetAlarmWindowControlPointer
   \   000000C8   E021               LDI     R18, 1
   \   000000CA   ........           CALL    ??SetActivityState
    189                              // Запрограммирован режим автоматического сброса предупредительой и аварийной
    190                              // сигнализации при переходе дискретного сигнала в неактивное состояние?
    191                              if (CPss21::m_xDeviceConfiguration.AutoUnset)
   \   000000CE   ....               LDI     R30, LOW(??m_xDeviceConfiguration)
   \   000000D0   ....               LDI     R31, (??m_xDeviceConfiguration) >> 8
   \   000000D2   8103               LDD     R16, Z+3
   \   000000D4   FF03               SBRS    R16, 3
   \   000000D6   C005               RJMP    ??Fsm_9
    192                              {
    193                                  SetFsmState(RECEIPT_OR_RESET_OR_AUTOUNSET_WAITING);
   \   000000D8   E023               LDI     R18, 3
   \   000000DA   018D               MOVW    R17:R16, R27:R26
   \   000000DC   ........           CALL    ??SetFsmState
   \   000000E0   C149               RJMP    ??Fsm_8
    194                              }
    195                              else
    196                              {
    197                                  SetFsmState(RECEIPT_OR_RESET_WAITING);
   \                     ??Fsm_9:
   \   000000E2   E022               LDI     R18, 2
   \   000000E4   018D               MOVW    R17:R16, R27:R26
   \   000000E6   ........           CALL    ??SetFsmState
   \   000000EA   C144               RJMP    ??Fsm_8
    198                              }
    199                          }
    200                      }
    201                  }
    202                  else
    203                  {
    204                      // Дискретный сигнал активен?
    205                      // уровень сигналы типа "СУХОЙ КОНТАКТ" (СК) определяем по состояниям дискретного входа:
    206                      // 2 - обрыв(разомкнуто), и 3 - КЗ(замкнуто).
    207                      if (uiDiscreteSignalState == DISCRETE_SIGNAL_IS_ACTIVE)
   \                     ??Fsm_6:
   \   000000EC   3081               CPI     R24, 1
   \   000000EE   F009               BREQ    $+2+2
   \   000000F0   C040               RJMP    ??Fsm_10
    208                      {
    209                          // Установим связанные дискретный выходы - новое нарушение.
    210                          CPss21::DiscreteOutputsSet(GetLinkedDiscreteOutputsPointer(), NEW_VIOLATION);
   \   000000F2   018D               MOVW    R17:R16, R27:R26
   \   000000F4   ........           CALL    ??GetLinkedDiscreteOutputsPointer
   \   000000F8   E021               LDI     R18, 1
   \   000000FA   ........           CALL    ??DiscreteOutputsSet
    211                          // Установим тип сигнализации связанному окну в массиве управления окнами извещателя.
    212                          CPss21::SetAlarmWindowType(GetAlarmWindowIndex(), ALARM_TYPE());
   \   000000FE   018D               MOVW    R17:R16, R27:R26
   \   00000100   01FD               MOVW    R31:R30, R27:R26
   \   00000102   8121               LDD     R18, Z+1
   \   00000104   8132               LDD     R19, Z+2
   \   00000106   01F9               MOVW    R31:R30, R19:R18
   \   00000108   9634               ADIW    R31:R30, 4
   \   0000010A   9125               LPM     R18, Z+
   \   0000010C   9134               LPM     R19, Z
   \   0000010E   9735               SBIW    R31:R30, 5
   \   00000110   01F9               MOVW    R31:R30, R19:R18
   \   00000112   9509               ICALL
   \   00000114   2F90               MOV     R25, R16
   \   00000116   018D               MOVW    R17:R16, R27:R26
   \   00000118   ........           CALL    ??GetAlarmWindowIndex
   \   0000011C   2F19               MOV     R17, R25
   \   0000011E   ........           CALL    ??SetAlarmWindowType
    213                          CPss21::SetAlarmWindowColor(GetAlarmWindowIndex(), ALARM_TYPE());
   \   00000122   018D               MOVW    R17:R16, R27:R26
   \   00000124   01FD               MOVW    R31:R30, R27:R26
   \   00000126   8121               LDD     R18, Z+1
   \   00000128   8132               LDD     R19, Z+2
   \   0000012A   01F9               MOVW    R31:R30, R19:R18
   \   0000012C   9634               ADIW    R31:R30, 4
   \   0000012E   9125               LPM     R18, Z+
   \   00000130   9134               LPM     R19, Z
   \   00000132   9735               SBIW    R31:R30, 5
   \   00000134   01F9               MOVW    R31:R30, R19:R18
   \   00000136   9509               ICALL
   \   00000138   2F90               MOV     R25, R16
   \   0000013A   018D               MOVW    R17:R16, R27:R26
   \   0000013C   ........           CALL    ??GetAlarmWindowIndex
   \   00000140   2F19               MOV     R17, R25
   \   00000142   ........           CALL    ??SetAlarmWindowColor
    214                          CPss21::GetAlarmWindowControlPointer(GetAlarmWindowIndex()) -> SetActivityState(1);
   \   00000146   018D               MOVW    R17:R16, R27:R26
   \   00000148   ........           CALL    ??GetAlarmWindowIndex
   \   0000014C   ........           CALL    ??GetAlarmWindowControlPointer
   \   00000150   E021               LDI     R18, 1
   \   00000152   ........           CALL    ??SetActivityState
    215                          // Запрограммирован режим автоматического сброса предупредительой и аварийной
    216                          // сигнализации при переходе дискретного сигнала в неактивное состояние?
    217                          if (CPss21::m_xDeviceConfiguration.AutoUnset)
   \   00000156   ....               LDI     R30, LOW(??m_xDeviceConfiguration)
   \   00000158   ....               LDI     R31, (??m_xDeviceConfiguration) >> 8
   \   0000015A   8103               LDD     R16, Z+3
   \   0000015C   FF03               SBRS    R16, 3
   \   0000015E   C005               RJMP    ??Fsm_11
    218                          {
    219                              SetFsmState(RECEIPT_OR_RESET_OR_AUTOUNSET_WAITING);
   \   00000160   E023               LDI     R18, 3
   \   00000162   018D               MOVW    R17:R16, R27:R26
   \   00000164   ........           CALL    ??SetFsmState
   \   00000168   C105               RJMP    ??Fsm_8
    220                          }
    221                          else
    222                          {
    223                              SetFsmState(RECEIPT_OR_RESET_WAITING);
   \                     ??Fsm_11:
   \   0000016A   E022               LDI     R18, 2
   \   0000016C   018D               MOVW    R17:R16, R27:R26
   \   0000016E   ........           CALL    ??SetFsmState
    224                          }
    225                      }
    226                  }
    227                  break;
   \                     ??Fsm_10:
   \   00000172   C100               RJMP    ??Fsm_8
    228          
    229              case RECEIPT_OR_RESET_OR_AUTOUNSET_WAITING:
    230                  // Запрограммирован режим автоматического сброса предупредительой и аварийной
    231                  // сигнализации при переходе дискретного сигнала в неактивное состояние.
    232                  // Дискретный сигнал активен?
    233                  if (uiDiscreteSignalState == DISCRETE_SIGNAL_IS_ACTIVE)
   \                     ??Fsm_12:
   \   00000174   3081               CPI     R24, 1
   \   00000176   F439               BRNE    ??Fsm_13
    234                  {
    235                      // Установим связанные дискретный выходы - не новое нарушение.
    236                      CPss21::DiscreteOutputsSet(GetLinkedDiscreteOutputsPointer(), NOT_NEW_VIOLATION);
   \   00000178   018D               MOVW    R17:R16, R27:R26
   \   0000017A   ........           CALL    ??GetLinkedDiscreteOutputsPointer
   \   0000017E   E020               LDI     R18, 0
   \   00000180   ........           CALL    ??DiscreteOutputsSet
   \   00000184   C01B               RJMP    ??Fsm_14
    237                  }
    238                  else if (uiDiscreteSignalState == DISCRETE_SIGNAL_IS_NOT_ACTIVE)
   \                     ??Fsm_13:
   \   00000186   2388               TST     R24
   \   00000188   F499               BRNE    ??Fsm_15
    239                  {
    240                      // Установим тип сигнализации связанному окну в массиве управления окнами извещателя.
    241                      CPss21::SetAlarmWindowType(GetAlarmWindowIndex(), NORMAL);
   \   0000018A   018D               MOVW    R17:R16, R27:R26
   \   0000018C   ........           CALL    ??GetAlarmWindowIndex
   \   00000190   E010               LDI     R17, 0
   \   00000192   ........           CALL    ??SetAlarmWindowType
    242                      CPss21::GetAlarmWindowControlPointer(GetAlarmWindowIndex()) -> SetActivityState(0);
   \   00000196   018D               MOVW    R17:R16, R27:R26
   \   00000198   ........           CALL    ??GetAlarmWindowIndex
   \   0000019C   ........           CALL    ??GetAlarmWindowControlPointer
   \   000001A0   E020               LDI     R18, 0
   \   000001A2   ........           CALL    ??SetActivityState
    243                      SetFsmState(ACTIVE_STATE_WAITING);
   \   000001A6   E021               LDI     R18, 1
   \   000001A8   018D               MOVW    R17:R16, R27:R26
   \   000001AA   ........           CALL    ??SetFsmState
    244                      break;
   \   000001AE   C0E2               RJMP    ??Fsm_8
    245                  }
    246                  else if (uiDiscreteSignalState == DISCRETE_SIGNAL_IS_NAMUR_ERROR)
   \                     ??Fsm_15:
   \   000001B0   3082               CPI     R24, 2
   \   000001B2   F421               BRNE    ??Fsm_14
    247                  {
    248                      SetFsmState(NAMUR_STATE_ON);
   \   000001B4   E028               LDI     R18, 8
   \   000001B6   018D               MOVW    R17:R16, R27:R26
   \   000001B8   ........           CALL    ??SetFsmState
    249                  }
    250          
    251                  // Событие сброшено?
    252                  if (CPss21::GetDiscreteSignalsReset())
   \                     ??Fsm_14:
   \   000001BC   ........           CALL    ??GetDiscreteSignalsReset
   \   000001C0   2300               TST     R16
   \   000001C2   F059               BREQ    ??Fsm_16
    253                  {
    254                      // Установим тип сигнализации связанному окну в массиве управления окнами извещателя.
    255                      CPss21::SetAlarmWindowType(GetAlarmWindowIndex(), INDICATION);
   \   000001C4   018D               MOVW    R17:R16, R27:R26
   \   000001C6   ........           CALL    ??GetAlarmWindowIndex
   \   000001CA   E011               LDI     R17, 1
   \   000001CC   ........           CALL    ??SetAlarmWindowType
    256                      SetFsmState(RESETED_NOT_ACTIVE_STATE_WAITING);
   \   000001D0   E025               LDI     R18, 5
   \   000001D2   018D               MOVW    R17:R16, R27:R26
   \   000001D4   ........           CALL    ??SetFsmState
   \   000001D8   C0CD               RJMP    ??Fsm_8
    257                  }
    258                  // Событие квитировано?
    259                  else if (CPss21::GetDiscreteSignalsReceipt())
   \                     ??Fsm_16:
   \   000001DA   ........           CALL    ??GetDiscreteSignalsReceipt
   \   000001DE   2300               TST     R16
   \   000001E0   F051               BREQ    ??Fsm_17
    260                  {
    261                      // Установим тип сигнализации связанному окну в массиве управления окнами извещателя.
    262                      CPss21::SetAlarmWindowType(GetAlarmWindowIndex(), INDICATION);
   \   000001E2   018D               MOVW    R17:R16, R27:R26
   \   000001E4   ........           CALL    ??GetAlarmWindowIndex
   \   000001E8   E011               LDI     R17, 1
   \   000001EA   ........           CALL    ??SetAlarmWindowType
    263                      SetFsmState(RECEIPTED_RESET_OR_NOT_ACTIVE_STATE_WAITING);
   \   000001EE   E024               LDI     R18, 4
   \   000001F0   018D               MOVW    R17:R16, R27:R26
   \   000001F2   ........           CALL    ??SetFsmState
    264                  }
    265                  break;
   \                     ??Fsm_17:
   \   000001F6   C0BE               RJMP    ??Fsm_8
    266          
    267              case RECEIPT_OR_RESET_WAITING:
    268                  // Дискретный сигнал активен?
    269                  if (uiDiscreteSignalState == DISCRETE_SIGNAL_IS_ACTIVE)
   \                     ??Fsm_18:
   \   000001F8   3081               CPI     R24, 1
   \   000001FA   F431               BRNE    ??Fsm_19
    270                  {
    271                      // Установим связанные дискретный выходы - не новое нарушение.
    272                      CPss21::DiscreteOutputsSet(GetLinkedDiscreteOutputsPointer(), NOT_NEW_VIOLATION);
   \   000001FC   018D               MOVW    R17:R16, R27:R26
   \   000001FE   ........           CALL    ??GetLinkedDiscreteOutputsPointer
   \   00000202   E020               LDI     R18, 0
   \   00000204   ........           CALL    ??DiscreteOutputsSet
    273                  }
    274          
    275                  // Событие сброшено?
    276                  if (CPss21::GetDiscreteSignalsReset())
   \                     ??Fsm_19:
   \   00000208   ........           CALL    ??GetDiscreteSignalsReset
   \   0000020C   2300               TST     R16
   \   0000020E   F059               BREQ    ??Fsm_20
    277                  {
    278                      // Установим тип сигнализации связанному окну в массиве управления окнами извещателя.
    279                      CPss21::SetAlarmWindowType(GetAlarmWindowIndex(), INDICATION);
   \   00000210   018D               MOVW    R17:R16, R27:R26
   \   00000212   ........           CALL    ??GetAlarmWindowIndex
   \   00000216   E011               LDI     R17, 1
   \   00000218   ........           CALL    ??SetAlarmWindowType
    280                      SetFsmState(RESETED_NOT_ACTIVE_STATE_WAITING);
   \   0000021C   E025               LDI     R18, 5
   \   0000021E   018D               MOVW    R17:R16, R27:R26
   \   00000220   ........           CALL    ??SetFsmState
   \   00000224   C0A7               RJMP    ??Fsm_8
    281                  }
    282                  // Событие квитировано?
    283                  else if (CPss21::GetDiscreteSignalsReceipt())
   \                     ??Fsm_20:
   \   00000226   ........           CALL    ??GetDiscreteSignalsReceipt
   \   0000022A   2300               TST     R16
   \   0000022C   F051               BREQ    ??Fsm_21
    284                  {
    285                      // Установим тип сигнализации связанному окну в массиве управления окнами извещателя.
    286                      CPss21::SetAlarmWindowType(GetAlarmWindowIndex(), INDICATION);
   \   0000022E   018D               MOVW    R17:R16, R27:R26
   \   00000230   ........           CALL    ??GetAlarmWindowIndex
   \   00000234   E011               LDI     R17, 1
   \   00000236   ........           CALL    ??SetAlarmWindowType
    287                      SetFsmState(RECEIPTED_RESET_OR_NOT_ACTIVE_STATE_WAITING);
   \   0000023A   E024               LDI     R18, 4
   \   0000023C   018D               MOVW    R17:R16, R27:R26
   \   0000023E   ........           CALL    ??SetFsmState
    288                  }
    289                  break;
   \                     ??Fsm_21:
   \   00000242   C098               RJMP    ??Fsm_8
    290          
    291              case RECEIPTED_RESET_OR_NOT_ACTIVE_STATE_WAITING:
    292                  // Событие сброшено?
    293                  if (CPss21::GetDiscreteSignalsReset())
   \                     ??Fsm_22:
   \   00000244   ........           CALL    ??GetDiscreteSignalsReset
   \   00000248   2300               TST     R16
   \   0000024A   F029               BREQ    ??Fsm_23
    294                  {
    295                      SetFsmState(RESETED_NOT_ACTIVE_STATE_WAITING);
   \   0000024C   E025               LDI     R18, 5
   \   0000024E   018D               MOVW    R17:R16, R27:R26
   \   00000250   ........           CALL    ??SetFsmState
   \   00000254   C08F               RJMP    ??Fsm_8
    296                  }
    297                  // Дискретный сигнал не активен?
    298                  else if (uiDiscreteSignalState == DISCRETE_SIGNAL_IS_NOT_ACTIVE)
   \                     ??Fsm_23:
   \   00000256   2388               TST     R24
   \   00000258   F429               BRNE    ??Fsm_24
    299                  {
    300                      SetFsmState(RECEIPTED_RESET_WAITING);
   \   0000025A   E026               LDI     R18, 6
   \   0000025C   018D               MOVW    R17:R16, R27:R26
   \   0000025E   ........           CALL    ??SetFsmState
   \   00000262   C088               RJMP    ??Fsm_8
    301                  }
    302                  else if (uiDiscreteSignalState == DISCRETE_SIGNAL_IS_ACTIVE)
   \                     ??Fsm_24:
   \   00000264   3081               CPI     R24, 1
   \   00000266   F439               BRNE    ??Fsm_25
    303                  {
    304                      // Установим связанные дискретный выходы - не новое нарушение.
    305                      CPss21::DiscreteOutputsSet(GetLinkedDiscreteOutputsPointer(), NOT_NEW_VIOLATION);
   \   00000268   018D               MOVW    R17:R16, R27:R26
   \   0000026A   ........           CALL    ??GetLinkedDiscreteOutputsPointer
   \   0000026E   E020               LDI     R18, 0
   \   00000270   ........           CALL    ??DiscreteOutputsSet
   \   00000274   C07F               RJMP    ??Fsm_8
    306                  }
    307                  else if (uiDiscreteSignalState == DISCRETE_SIGNAL_IS_NAMUR_ERROR)
   \                     ??Fsm_25:
   \   00000276   3082               CPI     R24, 2
   \   00000278   F421               BRNE    ??Fsm_26
    308                  {
    309                      SetFsmState(NAMUR_STATE_ON);
   \   0000027A   E028               LDI     R18, 8
   \   0000027C   018D               MOVW    R17:R16, R27:R26
   \   0000027E   ........           CALL    ??SetFsmState
    310                  }
    311                  break;
   \                     ??Fsm_26:
   \   00000282   C078               RJMP    ??Fsm_8
    312          
    313              case RESETED_NOT_ACTIVE_STATE_WAITING:
    314                  // Дискретный сигнал не активен?
    315                  if (uiDiscreteSignalState == DISCRETE_SIGNAL_IS_NOT_ACTIVE)
   \                     ??Fsm_27:
   \   00000284   2388               TST     R24
   \   00000286   F499               BRNE    ??Fsm_28
    316                  {
    317                      // Установим тип сигнализации связанному окну в массиве управления окнами извещателя.
    318                      CPss21::SetAlarmWindowType(GetAlarmWindowIndex(), NORMAL);
   \   00000288   018D               MOVW    R17:R16, R27:R26
   \   0000028A   ........           CALL    ??GetAlarmWindowIndex
   \   0000028E   E010               LDI     R17, 0
   \   00000290   ........           CALL    ??SetAlarmWindowType
    319                      CPss21::GetAlarmWindowControlPointer(GetAlarmWindowIndex()) -> SetActivityState(0);
   \   00000294   018D               MOVW    R17:R16, R27:R26
   \   00000296   ........           CALL    ??GetAlarmWindowIndex
   \   0000029A   ........           CALL    ??GetAlarmWindowControlPointer
   \   0000029E   E020               LDI     R18, 0
   \   000002A0   ........           CALL    ??SetActivityState
    320                      SetFsmState(ACTIVE_STATE_WAITING);
   \   000002A4   E021               LDI     R18, 1
   \   000002A6   018D               MOVW    R17:R16, R27:R26
   \   000002A8   ........           CALL    ??SetFsmState
   \   000002AC   C063               RJMP    ??Fsm_8
    321                  }
    322                  else if (uiDiscreteSignalState == DISCRETE_SIGNAL_IS_ACTIVE)
   \                     ??Fsm_28:
   \   000002AE   3081               CPI     R24, 1
   \   000002B0   F439               BRNE    ??Fsm_29
    323                  {
    324                      // Установим связанные дискретный выходы - не новое нарушение.
    325                      CPss21::DiscreteOutputsSet(GetLinkedDiscreteOutputsPointer(), NOT_NEW_VIOLATION);
   \   000002B2   018D               MOVW    R17:R16, R27:R26
   \   000002B4   ........           CALL    ??GetLinkedDiscreteOutputsPointer
   \   000002B8   E020               LDI     R18, 0
   \   000002BA   ........           CALL    ??DiscreteOutputsSet
   \   000002BE   C05A               RJMP    ??Fsm_8
    326                  }
    327                  else if (uiDiscreteSignalState == DISCRETE_SIGNAL_IS_NAMUR_ERROR)
   \                     ??Fsm_29:
   \   000002C0   3082               CPI     R24, 2
   \   000002C2   F421               BRNE    ??Fsm_30
    328                  {
    329                      SetFsmState(NAMUR_STATE_ON);
   \   000002C4   E028               LDI     R18, 8
   \   000002C6   018D               MOVW    R17:R16, R27:R26
   \   000002C8   ........           CALL    ??SetFsmState
    330                  }
    331                  break;
   \                     ??Fsm_30:
   \   000002CC   C053               RJMP    ??Fsm_8
    332          
    333              case RECEIPTED_RESET_WAITING:
    334                  // Дискретный сигнал активен?
    335                  if (uiDiscreteSignalState == DISCRETE_SIGNAL_IS_ACTIVE)
   \                     ??Fsm_31:
   \   000002CE   3081               CPI     R24, 1
   \   000002D0   F439               BRNE    ??Fsm_32
    336                  {
    337                      // Установим связанные дискретный выходы - не новое нарушение.
    338                      CPss21::DiscreteOutputsSet(GetLinkedDiscreteOutputsPointer(), NOT_NEW_VIOLATION);
   \   000002D2   018D               MOVW    R17:R16, R27:R26
   \   000002D4   ........           CALL    ??GetLinkedDiscreteOutputsPointer
   \   000002D8   E020               LDI     R18, 0
   \   000002DA   ........           CALL    ??DiscreteOutputsSet
   \   000002DE   C006               RJMP    ??Fsm_33
    339                  }
    340                  else if (uiDiscreteSignalState == DISCRETE_SIGNAL_IS_NAMUR_ERROR)
   \                     ??Fsm_32:
   \   000002E0   3082               CPI     R24, 2
   \   000002E2   F421               BRNE    ??Fsm_33
    341                  {
    342                      SetFsmState(NAMUR_STATE_ON);
   \   000002E4   E028               LDI     R18, 8
   \   000002E6   018D               MOVW    R17:R16, R27:R26
   \   000002E8   ........           CALL    ??SetFsmState
    343                  }
    344          
    345                  // Событие сброшено?
    346                  if (CPss21::GetDiscreteSignalsReset())
   \                     ??Fsm_33:
   \   000002EC   ........           CALL    ??GetDiscreteSignalsReset
   \   000002F0   2300               TST     R16
   \   000002F2   F091               BREQ    ??Fsm_34
    347                  {
    348                      // Установим тип сигнализации связанному окну в массиве управления окнами извещателя.
    349                      CPss21::SetAlarmWindowType(GetAlarmWindowIndex(), NORMAL);
   \   000002F4   018D               MOVW    R17:R16, R27:R26
   \   000002F6   ........           CALL    ??GetAlarmWindowIndex
   \   000002FA   E010               LDI     R17, 0
   \   000002FC   ........           CALL    ??SetAlarmWindowType
    350                      CPss21::GetAlarmWindowControlPointer(GetAlarmWindowIndex()) -> SetActivityState(0);
   \   00000300   018D               MOVW    R17:R16, R27:R26
   \   00000302   ........           CALL    ??GetAlarmWindowIndex
   \   00000306   ........           CALL    ??GetAlarmWindowControlPointer
   \   0000030A   E020               LDI     R18, 0
   \   0000030C   ........           CALL    ??SetActivityState
    351                      SetFsmState(ACTIVE_STATE_WAITING);
   \   00000310   E021               LDI     R18, 1
   \   00000312   018D               MOVW    R17:R16, R27:R26
   \   00000314   ........           CALL    ??SetFsmState
    352                  }
    353                  break;
   \                     ??Fsm_34:
   \   00000318   C02D               RJMP    ??Fsm_8
    354          
    355              case NAMUR_STATE_ON:
    356                  // Установим тип сигнализации связанному окну в массиве управления окнами извещателя.
    357                  CPss21::SetAlarmWindowType(GetAlarmWindowIndex(), INDICATION);
   \                     ??Fsm_35:
   \   0000031A   018D               MOVW    R17:R16, R27:R26
   \   0000031C   ........           CALL    ??GetAlarmWindowIndex
   \   00000320   E011               LDI     R17, 1
   \   00000322   ........           CALL    ??SetAlarmWindowType
    358                  CPss21::SetAlarmWindowColor(GetAlarmWindowIndex(), NAMUR_INDICATION);
   \   00000326   018D               MOVW    R17:R16, R27:R26
   \   00000328   ........           CALL    ??GetAlarmWindowIndex
   \   0000032C   E016               LDI     R17, 6
   \   0000032E   ........           CALL    ??SetAlarmWindowColor
    359                  CPss21::GetAlarmWindowControlPointer(GetAlarmWindowIndex()) -> SetActivityState(1);
   \   00000332   018D               MOVW    R17:R16, R27:R26
   \   00000334   ........           CALL    ??GetAlarmWindowIndex
   \   00000338   ........           CALL    ??GetAlarmWindowControlPointer
   \   0000033C   E021               LDI     R18, 1
   \   0000033E   ........           CALL    ??SetActivityState
    360          //        CPss21::BoardWindowsUpdate();
    361                  SetFsmState(NAMUR_INPUT_CORRECT_STATE_WAITING);
   \   00000342   E029               LDI     R18, 9
   \   00000344   018D               MOVW    R17:R16, R27:R26
   \   00000346   ........           CALL    ??SetFsmState
    362                  break;
   \   0000034A   C014               RJMP    ??Fsm_8
    363          
    364              case NAMUR_INPUT_CORRECT_STATE_WAITING:
    365                  // Дискретный сигнал NAMUR достоверен?
    366                  if (uiDiscreteSignalState != DISCRETE_SIGNAL_IS_NAMUR_ERROR)
   \                     ??Fsm_36:
   \   0000034C   3082               CPI     R24, 2
   \   0000034E   F091               BREQ    ??Fsm_8
    367                  {
    368                      // Установим тип сигнализации связанному окну в массиве управления окнами извещателя.
    369                      CPss21::SetAlarmWindowType(GetAlarmWindowIndex(), NORMAL);
   \   00000350   018D               MOVW    R17:R16, R27:R26
   \   00000352   ........           CALL    ??GetAlarmWindowIndex
   \   00000356   E010               LDI     R17, 0
   \   00000358   ........           CALL    ??SetAlarmWindowType
    370                      CPss21::GetAlarmWindowControlPointer(GetAlarmWindowIndex()) -> SetActivityState(0);
   \   0000035C   018D               MOVW    R17:R16, R27:R26
   \   0000035E   ........           CALL    ??GetAlarmWindowIndex
   \   00000362   ........           CALL    ??GetAlarmWindowControlPointer
   \   00000366   E020               LDI     R18, 0
   \   00000368   ........           CALL    ??SetActivityState
    371          //            CPss21::BoardWindowsUpdate();
    372                      SetFsmState(ACTIVE_STATE_WAITING);
   \   0000036C   E021               LDI     R18, 1
   \   0000036E   018D               MOVW    R17:R16, R27:R26
   \   00000370   ........           CALL    ??SetFsmState
    373                  }
    374                  break;
    375          
    376              default:
    377                  break;
    378              }
    379          }
   \                     ??Fsm_8:
   \   00000374   E0E4               LDI     R30, 4
   \   00000376   ........           JMP     ?EPILOGUE_B4_L09
    380          //-----------------------------------------------------------------------------------------------------
    381          
    382          
    383          
    384          
    385          
    386          
    387          
    388          
    389          //-----------------------------------------------------------------------------------------------------

   \                                 In  segment CODE, align 2, keep-with-next
    390          CNormalAlarmDfa::CNormalAlarmDfa()
   \                     ??CNormalAlarmDfa:
   \   00000000   93BA               ST      -Y, R27
   \   00000002   93AA               ST      -Y, R26
   \   00000004   01D8               MOVW    R27:R26, R17:R16
    391          {
   \   00000006   018D               MOVW    R17:R16, R27:R26
   \   00000008   ....               RCALL   ??CAlarmDfa
   \   0000000A   ....               LDI     R16, LOW(??__vtbl_2)
   \   0000000C   ....               LDI     R17, (??__vtbl_2) >> 8
   \   0000000E   01FD               MOVW    R31:R30, R27:R26
   \   00000010   8301               STD     Z+1, R16
   \   00000012   8312               STD     Z+2, R17
    392              SetFsmState(START);
   \   00000014   E020               LDI     R18, 0
   \   00000016   018D               MOVW    R17:R16, R27:R26
   \   00000018   ........           CALL    ??SetFsmState
    393          }
   \   0000001C   018D               MOVW    R17:R16, R27:R26
   \   0000001E   91A9               LD      R26, Y+
   \   00000020   91B9               LD      R27, Y+
   \   00000022   9508               RET
    394          
    395          //-----------------------------------------------------------------------------------------------------

   \                                 In  segment CODE, align 2, keep-with-next
    396          CNormalAlarmDfa::~CNormalAlarmDfa()
   \                     `?~CNormalAlarmDfa`:
    397          {
   \   00000000   ........           CALL    ?PROLOGUE4_L09
   \   00000004   01C8               MOVW    R25:R24, R17:R16
   \   00000006   01D9               MOVW    R27:R26, R19:R18
   \   00000008   2F08               MOV     R16, R24
   \   0000000A   2B09               OR      R16, R25
   \   0000000C   F049               BREQ    `?~CNormalAlarmDfa_1`
    398              //dtor
    399          }
   \   0000000E   E020               LDI     R18, 0
   \   00000010   E030               LDI     R19, 0
   \   00000012   018C               MOVW    R17:R16, R25:R24
   \   00000014   ....               RCALL   `?~CAlarmDfa`
   \   00000016   FBA0               BST     R26, 0
   \   00000018   F41E               BRTC    `?~CNormalAlarmDfa_1`
   \   0000001A   018C               MOVW    R17:R16, R25:R24
   \   0000001C   ........           CALL    `??operator delete`
   \                     `?~CNormalAlarmDfa_1`:
   \   00000020   E0E4               LDI     R30, 4
   \   00000022   ........           JMP     ?EPILOGUE_B4_L09
    400          
    401          //-----------------------------------------------------------------------------------------------------
    402          
    403          
    404          
    405          
    406          
    407          
    408          
    409          
    410          //-----------------------------------------------------------------------------------------------------

   \                                 In  segment CODE, align 2, keep-with-next
    411          CPreventiveAlarmLowLevelDfa::CPreventiveAlarmLowLevelDfa()
   \                     ??CPreventiveAlarmLowLevelDfa:
   \   00000000   93BA               ST      -Y, R27
   \   00000002   93AA               ST      -Y, R26
   \   00000004   01D8               MOVW    R27:R26, R17:R16
    412          {
   \   00000006   018D               MOVW    R17:R16, R27:R26
   \   00000008   ....               RCALL   ??CAlarmDfa
   \   0000000A   ....               LDI     R16, LOW(??__vtbl_3)
   \   0000000C   ....               LDI     R17, (??__vtbl_3) >> 8
   \   0000000E   01FD               MOVW    R31:R30, R27:R26
   \   00000010   8301               STD     Z+1, R16
   \   00000012   8312               STD     Z+2, R17
    413              SetFsmState(ACTIVE_STATE_WAITING);
   \   00000014   E021               LDI     R18, 1
   \   00000016   018D               MOVW    R17:R16, R27:R26
   \   00000018   ........           CALL    ??SetFsmState
    414          }
   \   0000001C   018D               MOVW    R17:R16, R27:R26
   \   0000001E   91A9               LD      R26, Y+
   \   00000020   91B9               LD      R27, Y+
   \   00000022   9508               RET
    415          
    416          //-----------------------------------------------------------------------------------------------------

   \                                 In  segment CODE, align 2, keep-with-next
    417          CPreventiveAlarmLowLevelDfa::~CPreventiveAlarmLowLevelDfa()
   \                     `?~CPreventiveAlarmLowLevelDfa`:
    418          {
   \   00000000   ........           CALL    ?PROLOGUE4_L09
   \   00000004   01C8               MOVW    R25:R24, R17:R16
   \   00000006   01D9               MOVW    R27:R26, R19:R18
   \   00000008   2F08               MOV     R16, R24
   \   0000000A   2B09               OR      R16, R25
   \   0000000C   F049               BREQ    `?~CPreventiveAlarmLowLevelDfa_1`
    419              //dtor
    420          }
   \   0000000E   E020               LDI     R18, 0
   \   00000010   E030               LDI     R19, 0
   \   00000012   018C               MOVW    R17:R16, R25:R24
   \   00000014   ....               RCALL   `?~CAlarmDfa`
   \   00000016   FBA0               BST     R26, 0
   \   00000018   F41E               BRTC    `?~CPreventiveAlarmLowLevelDfa_1`
   \   0000001A   018C               MOVW    R17:R16, R25:R24
   \   0000001C   ........           CALL    `??operator delete`
   \                     `?~CPreventiveAlarmLowLevelDfa_1`:
   \   00000020   E0E4               LDI     R30, 4
   \   00000022   ........           JMP     ?EPILOGUE_B4_L09
    421          
    422          //-----------------------------------------------------------------------------------------------------

   \                                 In  segment CODE, align 2, keep-with-next
    423          CPreventiveAlarmHighLevelDfa::CPreventiveAlarmHighLevelDfa()
   \                     ??CPreventiveAlarmHighLevelDfa:
   \   00000000   93BA               ST      -Y, R27
   \   00000002   93AA               ST      -Y, R26
   \   00000004   01D8               MOVW    R27:R26, R17:R16
    424          {
   \   00000006   018D               MOVW    R17:R16, R27:R26
   \   00000008   ....               RCALL   ??CAlarmDfa
   \   0000000A   ....               LDI     R16, LOW(??__vtbl_4)
   \   0000000C   ....               LDI     R17, (??__vtbl_4) >> 8
   \   0000000E   01FD               MOVW    R31:R30, R27:R26
   \   00000010   8301               STD     Z+1, R16
   \   00000012   8312               STD     Z+2, R17
    425              SetFsmState(ACTIVE_STATE_WAITING);
   \   00000014   E021               LDI     R18, 1
   \   00000016   018D               MOVW    R17:R16, R27:R26
   \   00000018   ........           CALL    ??SetFsmState
    426          }
   \   0000001C   018D               MOVW    R17:R16, R27:R26
   \   0000001E   91A9               LD      R26, Y+
   \   00000020   91B9               LD      R27, Y+
   \   00000022   9508               RET
    427          
    428          //-----------------------------------------------------------------------------------------------------

   \                                 In  segment CODE, align 2, keep-with-next
    429          CPreventiveAlarmHighLevelDfa::~CPreventiveAlarmHighLevelDfa()
   \                     `?~CPreventiveAlarmHighLevelDfa`:
    430          {
   \   00000000   ........           CALL    ?PROLOGUE4_L09
   \   00000004   01C8               MOVW    R25:R24, R17:R16
   \   00000006   01D9               MOVW    R27:R26, R19:R18
   \   00000008   2F08               MOV     R16, R24
   \   0000000A   2B09               OR      R16, R25
   \   0000000C   F049               BREQ    `?~CPreventiveAlarmHighLevelDfa_1`
    431              //dtor
    432          }
   \   0000000E   E020               LDI     R18, 0
   \   00000010   E030               LDI     R19, 0
   \   00000012   018C               MOVW    R17:R16, R25:R24
   \   00000014   ....               RCALL   `?~CAlarmDfa`
   \   00000016   FBA0               BST     R26, 0
   \   00000018   F41E               BRTC    `?~CPreventiveAlarmHighLevelDfa_1`
   \   0000001A   018C               MOVW    R17:R16, R25:R24
   \   0000001C   ........           CALL    `??operator delete`
   \                     `?~CPreventiveAlarmHighLevelDfa_1`:
   \   00000020   E0E4               LDI     R30, 4
   \   00000022   ........           JMP     ?EPILOGUE_B4_L09
    433          
    434          //-----------------------------------------------------------------------------------------------------

   \                                 In  segment CODE, align 2, keep-with-next
    435          CPreventiveAlarmLowLevelNamurDfa::CPreventiveAlarmLowLevelNamurDfa()
   \                     ??CPreventiveAlarmLowLevelNamurDfa:
   \   00000000   93BA               ST      -Y, R27
   \   00000002   93AA               ST      -Y, R26
   \   00000004   01D8               MOVW    R27:R26, R17:R16
    436          {
   \   00000006   018D               MOVW    R17:R16, R27:R26
   \   00000008   ....               RCALL   ??CAlarmDfa
   \   0000000A   ....               LDI     R16, LOW(??__vtbl_5)
   \   0000000C   ....               LDI     R17, (??__vtbl_5) >> 8
   \   0000000E   01FD               MOVW    R31:R30, R27:R26
   \   00000010   8301               STD     Z+1, R16
   \   00000012   8312               STD     Z+2, R17
    437              SetFsmState(ACTIVE_STATE_WAITING);
   \   00000014   E021               LDI     R18, 1
   \   00000016   018D               MOVW    R17:R16, R27:R26
   \   00000018   ........           CALL    ??SetFsmState
    438          }
   \   0000001C   018D               MOVW    R17:R16, R27:R26
   \   0000001E   91A9               LD      R26, Y+
   \   00000020   91B9               LD      R27, Y+
   \   00000022   9508               RET
    439          
    440          //-----------------------------------------------------------------------------------------------------

   \                                 In  segment CODE, align 2, keep-with-next
    441          CPreventiveAlarmLowLevelNamurDfa::~CPreventiveAlarmLowLevelNamurDfa()
   \                     `?~CPreventiveAlarmLowLevelNamurDfa`:
    442          {
   \   00000000   ........           CALL    ?PROLOGUE4_L09
   \   00000004   01C8               MOVW    R25:R24, R17:R16
   \   00000006   01D9               MOVW    R27:R26, R19:R18
   \   00000008   2F08               MOV     R16, R24
   \   0000000A   2B09               OR      R16, R25
   \   0000000C   F049               BREQ    `?~CPreventiveAlarmLowLevelNamurDfa_1`
    443              //dtor
    444          }
   \   0000000E   E020               LDI     R18, 0
   \   00000010   E030               LDI     R19, 0
   \   00000012   018C               MOVW    R17:R16, R25:R24
   \   00000014   ....               RCALL   `?~CAlarmDfa`
   \   00000016   FBA0               BST     R26, 0
   \   00000018   F41E               BRTC    `?~CPreventiveAlarmLowLevelNamurDfa_1`
   \   0000001A   018C               MOVW    R17:R16, R25:R24
   \   0000001C   ........           CALL    `??operator delete`
   \                     `?~CPreventiveAlarmLowLevelNamurDfa_1`:
   \   00000020   E0E4               LDI     R30, 4
   \   00000022   ........           JMP     ?EPILOGUE_B4_L09
    445          
    446          //-----------------------------------------------------------------------------------------------------

   \                                 In  segment CODE, align 2, keep-with-next
    447          CPreventiveAlarmHighLevelNamurDfa::CPreventiveAlarmHighLevelNamurDfa()
   \                     ??CPreventiveAlarmHighLevelNamurDfa:
   \   00000000   93BA               ST      -Y, R27
   \   00000002   93AA               ST      -Y, R26
   \   00000004   01D8               MOVW    R27:R26, R17:R16
    448          {
   \   00000006   018D               MOVW    R17:R16, R27:R26
   \   00000008   ....               RCALL   ??CAlarmDfa
   \   0000000A   ....               LDI     R16, LOW(??__vtbl_6)
   \   0000000C   ....               LDI     R17, (??__vtbl_6) >> 8
   \   0000000E   01FD               MOVW    R31:R30, R27:R26
   \   00000010   8301               STD     Z+1, R16
   \   00000012   8312               STD     Z+2, R17
    449              SetFsmState(ACTIVE_STATE_WAITING);
   \   00000014   E021               LDI     R18, 1
   \   00000016   018D               MOVW    R17:R16, R27:R26
   \   00000018   ........           CALL    ??SetFsmState
    450          }
   \   0000001C   018D               MOVW    R17:R16, R27:R26
   \   0000001E   91A9               LD      R26, Y+
   \   00000020   91B9               LD      R27, Y+
   \   00000022   9508               RET
    451          
    452          //-----------------------------------------------------------------------------------------------------

   \                                 In  segment CODE, align 2, keep-with-next
    453          CPreventiveAlarmHighLevelNamurDfa::~CPreventiveAlarmHighLevelNamurDfa()
   \                     `?~CPreventiveAlarmHighLevelNamurDfa`:
    454          {
   \   00000000   ........           CALL    ?PROLOGUE4_L09
   \   00000004   01C8               MOVW    R25:R24, R17:R16
   \   00000006   01D9               MOVW    R27:R26, R19:R18
   \   00000008   2F08               MOV     R16, R24
   \   0000000A   2B09               OR      R16, R25
   \   0000000C   F049               BREQ    `?~CPreventiveAlarmHighLevelNamurDfa_1`
    455              //dtor
    456          }
   \   0000000E   E020               LDI     R18, 0
   \   00000010   E030               LDI     R19, 0
   \   00000012   018C               MOVW    R17:R16, R25:R24
   \   00000014   ....               RCALL   `?~CAlarmDfa`
   \   00000016   FBA0               BST     R26, 0
   \   00000018   F41E               BRTC    `?~CPreventiveAlarmHighLevelNamurDfa_1`
   \   0000001A   018C               MOVW    R17:R16, R25:R24
   \   0000001C   ........           CALL    `??operator delete`
   \                     `?~CPreventiveAlarmHighLevelNamurDfa_1`:
   \   00000020   E0E4               LDI     R30, 4
   \   00000022   ........           JMP     ?EPILOGUE_B4_L09
    457          //-----------------------------------------------------------------------------------------------------
    458          
    459          
    460          
    461          
    462          
    463          
    464          
    465          //-----------------------------------------------------------------------------------------------------

   \                                 In  segment CODE, align 2, keep-with-next
    466          CEmergencyAlarmLowLevelDfa::CEmergencyAlarmLowLevelDfa()
   \                     ??CEmergencyAlarmLowLevelDfa:
   \   00000000   93BA               ST      -Y, R27
   \   00000002   93AA               ST      -Y, R26
   \   00000004   01D8               MOVW    R27:R26, R17:R16
    467          {
   \   00000006   018D               MOVW    R17:R16, R27:R26
   \   00000008   ....               RCALL   ??CAlarmDfa
   \   0000000A   ....               LDI     R16, LOW(??__vtbl_7)
   \   0000000C   ....               LDI     R17, (??__vtbl_7) >> 8
   \   0000000E   01FD               MOVW    R31:R30, R27:R26
   \   00000010   8301               STD     Z+1, R16
   \   00000012   8312               STD     Z+2, R17
    468              SetFsmState(ACTIVE_STATE_WAITING);
   \   00000014   E021               LDI     R18, 1
   \   00000016   018D               MOVW    R17:R16, R27:R26
   \   00000018   ........           CALL    ??SetFsmState
    469          }
   \   0000001C   018D               MOVW    R17:R16, R27:R26
   \   0000001E   91A9               LD      R26, Y+
   \   00000020   91B9               LD      R27, Y+
   \   00000022   9508               RET
    470          
    471          //-----------------------------------------------------------------------------------------------------

   \                                 In  segment CODE, align 2, keep-with-next
    472          CEmergencyAlarmLowLevelDfa::~CEmergencyAlarmLowLevelDfa()
   \                     `?~CEmergencyAlarmLowLevelDfa`:
    473          {
   \   00000000   ........           CALL    ?PROLOGUE4_L09
   \   00000004   01C8               MOVW    R25:R24, R17:R16
   \   00000006   01D9               MOVW    R27:R26, R19:R18
   \   00000008   2F08               MOV     R16, R24
   \   0000000A   2B09               OR      R16, R25
   \   0000000C   F049               BREQ    `?~CEmergencyAlarmLowLevelDfa_1`
    474              //dtor
    475          }
   \   0000000E   E020               LDI     R18, 0
   \   00000010   E030               LDI     R19, 0
   \   00000012   018C               MOVW    R17:R16, R25:R24
   \   00000014   ....               RCALL   `?~CAlarmDfa`
   \   00000016   FBA0               BST     R26, 0
   \   00000018   F41E               BRTC    `?~CEmergencyAlarmLowLevelDfa_1`
   \   0000001A   018C               MOVW    R17:R16, R25:R24
   \   0000001C   ........           CALL    `??operator delete`
   \                     `?~CEmergencyAlarmLowLevelDfa_1`:
   \   00000020   E0E4               LDI     R30, 4
   \   00000022   ........           JMP     ?EPILOGUE_B4_L09
    476          
    477          //-----------------------------------------------------------------------------------------------------

   \                                 In  segment CODE, align 2, keep-with-next
    478          CEmergencyAlarmHighLevelDfa::CEmergencyAlarmHighLevelDfa()
   \                     ??CEmergencyAlarmHighLevelDfa:
   \   00000000   93BA               ST      -Y, R27
   \   00000002   93AA               ST      -Y, R26
   \   00000004   01D8               MOVW    R27:R26, R17:R16
    479          {
   \   00000006   018D               MOVW    R17:R16, R27:R26
   \   00000008   ....               RCALL   ??CAlarmDfa
   \   0000000A   ....               LDI     R16, LOW(??__vtbl_8)
   \   0000000C   ....               LDI     R17, (??__vtbl_8) >> 8
   \   0000000E   01FD               MOVW    R31:R30, R27:R26
   \   00000010   8301               STD     Z+1, R16
   \   00000012   8312               STD     Z+2, R17
    480              SetFsmState(ACTIVE_STATE_WAITING);
   \   00000014   E021               LDI     R18, 1
   \   00000016   018D               MOVW    R17:R16, R27:R26
   \   00000018   ........           CALL    ??SetFsmState
    481          }
   \   0000001C   018D               MOVW    R17:R16, R27:R26
   \   0000001E   91A9               LD      R26, Y+
   \   00000020   91B9               LD      R27, Y+
   \   00000022   9508               RET
    482          
    483          //-----------------------------------------------------------------------------------------------------

   \                                 In  segment CODE, align 2, keep-with-next
    484          CEmergencyAlarmHighLevelDfa::~CEmergencyAlarmHighLevelDfa()
   \                     `?~CEmergencyAlarmHighLevelDfa`:
    485          {
   \   00000000   ........           CALL    ?PROLOGUE4_L09
   \   00000004   01C8               MOVW    R25:R24, R17:R16
   \   00000006   01D9               MOVW    R27:R26, R19:R18
   \   00000008   2F08               MOV     R16, R24
   \   0000000A   2B09               OR      R16, R25
   \   0000000C   F049               BREQ    `?~CEmergencyAlarmHighLevelDfa_1`
    486              //dtor
    487          }
   \   0000000E   E020               LDI     R18, 0
   \   00000010   E030               LDI     R19, 0
   \   00000012   018C               MOVW    R17:R16, R25:R24
   \   00000014   ....               RCALL   `?~CAlarmDfa`
   \   00000016   FBA0               BST     R26, 0
   \   00000018   F41E               BRTC    `?~CEmergencyAlarmHighLevelDfa_1`
   \   0000001A   018C               MOVW    R17:R16, R25:R24
   \   0000001C   ........           CALL    `??operator delete`
   \                     `?~CEmergencyAlarmHighLevelDfa_1`:
   \   00000020   E0E4               LDI     R30, 4
   \   00000022   ........           JMP     ?EPILOGUE_B4_L09
    488          
    489          
    490          //-----------------------------------------------------------------------------------------------------

   \                                 In  segment CODE, align 2, keep-with-next
    491          CEmergencyAlarmLowLevelNamurDfa::CEmergencyAlarmLowLevelNamurDfa()
   \                     ??CEmergencyAlarmLowLevelNamurDfa:
   \   00000000   93BA               ST      -Y, R27
   \   00000002   93AA               ST      -Y, R26
   \   00000004   01D8               MOVW    R27:R26, R17:R16
    492          {
   \   00000006   018D               MOVW    R17:R16, R27:R26
   \   00000008   ....               RCALL   ??CAlarmDfa
   \   0000000A   ....               LDI     R16, LOW(??__vtbl_9)
   \   0000000C   ....               LDI     R17, (??__vtbl_9) >> 8
   \   0000000E   01FD               MOVW    R31:R30, R27:R26
   \   00000010   8301               STD     Z+1, R16
   \   00000012   8312               STD     Z+2, R17
    493              SetFsmState(ACTIVE_STATE_WAITING);
   \   00000014   E021               LDI     R18, 1
   \   00000016   018D               MOVW    R17:R16, R27:R26
   \   00000018   ........           CALL    ??SetFsmState
    494          }
   \   0000001C   018D               MOVW    R17:R16, R27:R26
   \   0000001E   91A9               LD      R26, Y+
   \   00000020   91B9               LD      R27, Y+
   \   00000022   9508               RET
    495          
    496          //-----------------------------------------------------------------------------------------------------

   \                                 In  segment CODE, align 2, keep-with-next
    497          CEmergencyAlarmLowLevelNamurDfa::~CEmergencyAlarmLowLevelNamurDfa()
   \                     `?~CEmergencyAlarmLowLevelNamurDfa`:
    498          {
   \   00000000   ........           CALL    ?PROLOGUE4_L09
   \   00000004   01C8               MOVW    R25:R24, R17:R16
   \   00000006   01D9               MOVW    R27:R26, R19:R18
   \   00000008   2F08               MOV     R16, R24
   \   0000000A   2B09               OR      R16, R25
   \   0000000C   F049               BREQ    `?~CEmergencyAlarmLowLevelNamurDfa_1`
    499              //dtor
    500          }
   \   0000000E   E020               LDI     R18, 0
   \   00000010   E030               LDI     R19, 0
   \   00000012   018C               MOVW    R17:R16, R25:R24
   \   00000014   ....               RCALL   `?~CAlarmDfa`
   \   00000016   FBA0               BST     R26, 0
   \   00000018   F41E               BRTC    `?~CEmergencyAlarmLowLevelNamurDfa_1`
   \   0000001A   018C               MOVW    R17:R16, R25:R24
   \   0000001C   ........           CALL    `??operator delete`
   \                     `?~CEmergencyAlarmLowLevelNamurDfa_1`:
   \   00000020   E0E4               LDI     R30, 4
   \   00000022   ........           JMP     ?EPILOGUE_B4_L09
    501          
    502          //-----------------------------------------------------------------------------------------------------

   \                                 In  segment CODE, align 2, keep-with-next
    503          CEmergencyAlarmHighLevelNamurDfa::CEmergencyAlarmHighLevelNamurDfa()
   \                     ??CEmergencyAlarmHighLevelNamurDfa:
   \   00000000   93BA               ST      -Y, R27
   \   00000002   93AA               ST      -Y, R26
   \   00000004   01D8               MOVW    R27:R26, R17:R16
    504          {
   \   00000006   018D               MOVW    R17:R16, R27:R26
   \   00000008   ....               RCALL   ??CAlarmDfa
   \   0000000A   ....               LDI     R16, LOW(??__vtbl_10)
   \   0000000C   ....               LDI     R17, (??__vtbl_10) >> 8
   \   0000000E   01FD               MOVW    R31:R30, R27:R26
   \   00000010   8301               STD     Z+1, R16
   \   00000012   8312               STD     Z+2, R17
    505              SetFsmState(ACTIVE_STATE_WAITING);
   \   00000014   E021               LDI     R18, 1
   \   00000016   018D               MOVW    R17:R16, R27:R26
   \   00000018   ........           CALL    ??SetFsmState
    506          }
   \   0000001C   018D               MOVW    R17:R16, R27:R26
   \   0000001E   91A9               LD      R26, Y+
   \   00000020   91B9               LD      R27, Y+
   \   00000022   9508               RET
    507          
    508          //-----------------------------------------------------------------------------------------------------

   \                                 In  segment CODE, align 2, keep-with-next
    509          CEmergencyAlarmHighLevelNamurDfa::~CEmergencyAlarmHighLevelNamurDfa()
   \                     `?~CEmergencyAlarmHighLevelNamurDfa`:
    510          {
   \   00000000   ........           CALL    ?PROLOGUE4_L09
   \   00000004   01C8               MOVW    R25:R24, R17:R16
   \   00000006   01D9               MOVW    R27:R26, R19:R18
   \   00000008   2F08               MOV     R16, R24
   \   0000000A   2B09               OR      R16, R25
   \   0000000C   F049               BREQ    `?~CEmergencyAlarmHighLevelNamurDfa_1`
    511              //dtor
    512          }
   \   0000000E   E020               LDI     R18, 0
   \   00000010   E030               LDI     R19, 0
   \   00000012   018C               MOVW    R17:R16, R25:R24
   \   00000014   ....               RCALL   `?~CAlarmDfa`
   \   00000016   FBA0               BST     R26, 0
   \   00000018   F41E               BRTC    `?~CEmergencyAlarmHighLevelNamurDfa_1`
   \   0000001A   018C               MOVW    R17:R16, R25:R24
   \   0000001C   ........           CALL    `??operator delete`
   \                     `?~CEmergencyAlarmHighLevelNamurDfa_1`:
   \   00000020   E0E4               LDI     R30, 4
   \   00000022   ........           JMP     ?EPILOGUE_B4_L09
    513          //-----------------------------------------------------------------------------------------------------
    514          
    515          
    516          
    517          
    518          
    519          
    520          
    521          
    522          //-----------------------------------------------------------------------------------------------------

   \                                 In  segment CODE, align 2, keep-with-next
    523          CIndicationAlarmLowLevelDfa::CIndicationAlarmLowLevelDfa()
   \                     ??CIndicationAlarmLowLevelDfa:
   \   00000000   93BA               ST      -Y, R27
   \   00000002   93AA               ST      -Y, R26
   \   00000004   01D8               MOVW    R27:R26, R17:R16
    524          {
   \   00000006   018D               MOVW    R17:R16, R27:R26
   \   00000008   ....               RCALL   ??CAlarmDfa
   \   0000000A   ....               LDI     R16, LOW(??__vtbl_11)
   \   0000000C   ....               LDI     R17, (??__vtbl_11) >> 8
   \   0000000E   01FD               MOVW    R31:R30, R27:R26
   \   00000010   8301               STD     Z+1, R16
   \   00000012   8312               STD     Z+2, R17
    525              SetFsmState(ACTIVE_STATE_WAITING);
   \   00000014   E021               LDI     R18, 1
   \   00000016   018D               MOVW    R17:R16, R27:R26
   \   00000018   ........           CALL    ??SetFsmState
    526          }
   \   0000001C   018D               MOVW    R17:R16, R27:R26
   \   0000001E   91A9               LD      R26, Y+
   \   00000020   91B9               LD      R27, Y+
   \   00000022   9508               RET
    527          
    528          //-----------------------------------------------------------------------------------------------------

   \                                 In  segment CODE, align 2, keep-with-next
    529          CIndicationAlarmLowLevelDfa::~CIndicationAlarmLowLevelDfa()
   \                     `?~CIndicationAlarmLowLevelDfa`:
    530          {
   \   00000000   ........           CALL    ?PROLOGUE4_L09
   \   00000004   01C8               MOVW    R25:R24, R17:R16
   \   00000006   01D9               MOVW    R27:R26, R19:R18
   \   00000008   2F08               MOV     R16, R24
   \   0000000A   2B09               OR      R16, R25
   \   0000000C   F049               BREQ    `?~CIndicationAlarmLowLevelDfa_1`
    531              //dtor
    532          }
   \   0000000E   E020               LDI     R18, 0
   \   00000010   E030               LDI     R19, 0
   \   00000012   018C               MOVW    R17:R16, R25:R24
   \   00000014   ....               RCALL   `?~CAlarmDfa`
   \   00000016   FBA0               BST     R26, 0
   \   00000018   F41E               BRTC    `?~CIndicationAlarmLowLevelDfa_1`
   \   0000001A   018C               MOVW    R17:R16, R25:R24
   \   0000001C   ........           CALL    `??operator delete`
   \                     `?~CIndicationAlarmLowLevelDfa_1`:
   \   00000020   E0E4               LDI     R30, 4
   \   00000022   ........           JMP     ?EPILOGUE_B4_L09
    533          
    534          //-----------------------------------------------------------------------------------------------------
    535          // Автомат обработки сигнализации дискретного сигнала.

   \                                 In  segment CODE, align 2, keep-with-next
    536          void CIndicationAlarmLowLevelDfa::Fsm(void)
   \                     ??Fsm_1:
    537          {
   \   00000000   ........           CALL    ?PROLOGUE4_L09
   \   00000004   01D8               MOVW    R27:R26, R17:R16
    538              uint8_t uiDiscreteSignalState = DiscreteSignalStateCheck();
   \   00000006   018D               MOVW    R17:R16, R27:R26
   \   00000008   9611               ADIW    R27:R26, 1
   \   0000000A   91ED               LD      R30, X+
   \   0000000C   91FC               LD      R31, X
   \   0000000E   9712               SBIW    R27:R26, 2
   \   00000010   963A               ADIW    R31:R30, 10
   \   00000012   9125               LPM     R18, Z+
   \   00000014   9134               LPM     R19, Z
   \   00000016   973B               SBIW    R31:R30, 11
   \   00000018   01F9               MOVW    R31:R30, R19:R18
   \   0000001A   9509               ICALL
   \   0000001C   2F80               MOV     R24, R16
    539          
    540              switch (GetFsmState())
   \   0000001E   018D               MOVW    R17:R16, R27:R26
   \   00000020   ........           CALL    ??GetFsmState
   \   00000024   5000               SUBI    R16, 0
   \   00000026   F061               BREQ    ??Fsm_37
   \   00000028   950A               DEC     R16
   \   0000002A   F059               BREQ    ??Fsm_38
   \   0000002C   5006               SUBI    R16, 6
   \   0000002E   F409               BRNE    $+2+2
   \   00000030   C095               RJMP    ??Fsm_39
   \   00000032   950A               DEC     R16
   \   00000034   F409               BRNE    $+2+2
   \   00000036   C0E7               RJMP    ??Fsm_40
   \   00000038   950A               DEC     R16
   \   0000003A   F409               BRNE    $+2+2
   \   0000003C   C0FD               RJMP    ??Fsm_41
   \   0000003E   C110               RJMP    ??Fsm_42
    541              {
    542              case START:
    543                  break;
   \                     ??Fsm_37:
   \   00000040   C10F               RJMP    ??Fsm_42
    544          
    545              case ACTIVE_STATE_WAITING:
    546          //        CPss21::m_aucRtuHoldingRegistersArray[0] = 7;//CPss21::m_aucDiscreteInputsBadState[0];
    547                  // тип текущего дискретного сигнала namur?
    548                  if (IS_NAMUR_ON())
   \                     ??Fsm_38:
   \   00000042   018D               MOVW    R17:R16, R27:R26
   \   00000044   01FD               MOVW    R31:R30, R27:R26
   \   00000046   8121               LDD     R18, Z+1
   \   00000048   8132               LDD     R19, Z+2
   \   0000004A   01F9               MOVW    R31:R30, R19:R18
   \   0000004C   9638               ADIW    R31:R30, 8
   \   0000004E   9125               LPM     R18, Z+
   \   00000050   9134               LPM     R19, Z
   \   00000052   9739               SBIW    R31:R30, 9
   \   00000054   01F9               MOVW    R31:R30, R19:R18
   \   00000056   9509               ICALL
   \   00000058   2300               TST     R16
   \   0000005A   F011               BREQ    ??Fsm_43
   \   0000005C   E001               LDI     R16, 1
   \   0000005E   C001               RJMP    ??Fsm_44
   \                     ??Fsm_43:
   \   00000060   E000               LDI     R16, 0
   \                     ??Fsm_44:
   \   00000062   2300               TST     R16
   \   00000064   F409               BRNE    $+2+2
   \   00000066   C041               RJMP    ??Fsm_45
    549                  {
    550                      // Дискретный сигнал NAMUR в обрыве или кз?
    551                      if (uiDiscreteSignalState == DISCRETE_SIGNAL_IS_NAMUR_ERROR)
   \   00000068   3082               CPI     R24, 2
   \   0000006A   F429               BRNE    ??Fsm_46
    552                      {
    553                          SetFsmState(NAMUR_STATE_ON);
   \   0000006C   E028               LDI     R18, 8
   \   0000006E   018D               MOVW    R17:R16, R27:R26
   \   00000070   ........           CALL    ??SetFsmState
   \   00000074   C0F5               RJMP    ??Fsm_42
    554                      }
    555                      else
    556                      {
    557                          // Дискретный сигнал активен?
    558                          if (uiDiscreteSignalState == DISCRETE_SIGNAL_IS_ACTIVE)
   \                     ??Fsm_46:
   \   00000076   3081               CPI     R24, 1
   \   00000078   F009               BREQ    $+2+2
   \   0000007A   C0F2               RJMP    ??Fsm_42
    559                          {
    560                              // Установим связанные дискретный выходы - новое нарушение.
    561                              CPss21::DiscreteOutputsSet(GetLinkedDiscreteOutputsPointer(), NEW_VIOLATION);
   \   0000007C   018D               MOVW    R17:R16, R27:R26
   \   0000007E   ........           CALL    ??GetLinkedDiscreteOutputsPointer
   \   00000082   E021               LDI     R18, 1
   \   00000084   ........           CALL    ??DiscreteOutputsSet
    562                              // Установим тип сигнализации связанному окну в массиве управления окнами извещателя.
    563                              CPss21::SetAlarmWindowType(GetAlarmWindowIndex(), ALARM_TYPE());
   \   00000088   018D               MOVW    R17:R16, R27:R26
   \   0000008A   01FD               MOVW    R31:R30, R27:R26
   \   0000008C   8121               LDD     R18, Z+1
   \   0000008E   8132               LDD     R19, Z+2
   \   00000090   01F9               MOVW    R31:R30, R19:R18
   \   00000092   9634               ADIW    R31:R30, 4
   \   00000094   9125               LPM     R18, Z+
   \   00000096   9134               LPM     R19, Z
   \   00000098   9735               SBIW    R31:R30, 5
   \   0000009A   01F9               MOVW    R31:R30, R19:R18
   \   0000009C   9509               ICALL
   \   0000009E   2F90               MOV     R25, R16
   \   000000A0   018D               MOVW    R17:R16, R27:R26
   \   000000A2   ........           CALL    ??GetAlarmWindowIndex
   \   000000A6   2F19               MOV     R17, R25
   \   000000A8   ........           CALL    ??SetAlarmWindowType
    564                              CPss21::SetAlarmWindowColor(GetAlarmWindowIndex(), ALARM_TYPE());
   \   000000AC   018D               MOVW    R17:R16, R27:R26
   \   000000AE   01FD               MOVW    R31:R30, R27:R26
   \   000000B0   8121               LDD     R18, Z+1
   \   000000B2   8132               LDD     R19, Z+2
   \   000000B4   01F9               MOVW    R31:R30, R19:R18
   \   000000B6   9634               ADIW    R31:R30, 4
   \   000000B8   9125               LPM     R18, Z+
   \   000000BA   9134               LPM     R19, Z
   \   000000BC   9735               SBIW    R31:R30, 5
   \   000000BE   01F9               MOVW    R31:R30, R19:R18
   \   000000C0   9509               ICALL
   \   000000C2   2F90               MOV     R25, R16
   \   000000C4   018D               MOVW    R17:R16, R27:R26
   \   000000C6   ........           CALL    ??GetAlarmWindowIndex
   \   000000CA   2F19               MOV     R17, R25
   \   000000CC   ........           CALL    ??SetAlarmWindowColor
    565                              // Активизируем окно сигнализации, для отображения извещателем.
    566                              CPss21::GetAlarmWindowControlPointer(GetAlarmWindowIndex()) -> SetActivityState(1);
   \   000000D0   018D               MOVW    R17:R16, R27:R26
   \   000000D2   ........           CALL    ??GetAlarmWindowIndex
   \   000000D6   ........           CALL    ??GetAlarmWindowControlPointer
   \   000000DA   E021               LDI     R18, 1
   \   000000DC   ........           CALL    ??SetActivityState
    567                              SetFsmState(NOT_ACTIVE_STATE_WAITING);
   \   000000E0   E027               LDI     R18, 7
   \   000000E2   018D               MOVW    R17:R16, R27:R26
   \   000000E4   ........           CALL    ??SetFsmState
   \   000000E8   C0BB               RJMP    ??Fsm_42
    568                          }
    569                      }
    570                  }
    571                  else
    572                  {
    573                      // Дискретный сигнал активен?
    574                      // уровень сигналы типа "СУХОЙ КОНТАКТ" (СК) определяем по состояниям дискретного входа:
    575                      // 2 - обрыв(разомкнуто), и 3 - КЗ(замкнуто).
    576                      if (uiDiscreteSignalState == DISCRETE_SIGNAL_IS_ACTIVE)
   \                     ??Fsm_45:
   \   000000EA   3081               CPI     R24, 1
   \   000000EC   F5B1               BRNE    ??Fsm_47
    577                      {
    578                          // Установим связанные дискретный выходы - новое нарушение.
    579                          CPss21::DiscreteOutputsSet(GetLinkedDiscreteOutputsPointer(), NEW_VIOLATION);
   \   000000EE   018D               MOVW    R17:R16, R27:R26
   \   000000F0   ........           CALL    ??GetLinkedDiscreteOutputsPointer
   \   000000F4   E021               LDI     R18, 1
   \   000000F6   ........           CALL    ??DiscreteOutputsSet
    580                          // Установим тип сигнализации связанному окну в массиве управления окнами извещателя.
    581                          CPss21::SetAlarmWindowType(GetAlarmWindowIndex(), ALARM_TYPE());
   \   000000FA   018D               MOVW    R17:R16, R27:R26
   \   000000FC   01FD               MOVW    R31:R30, R27:R26
   \   000000FE   8121               LDD     R18, Z+1
   \   00000100   8132               LDD     R19, Z+2
   \   00000102   01F9               MOVW    R31:R30, R19:R18
   \   00000104   9634               ADIW    R31:R30, 4
   \   00000106   9125               LPM     R18, Z+
   \   00000108   9134               LPM     R19, Z
   \   0000010A   9735               SBIW    R31:R30, 5
   \   0000010C   01F9               MOVW    R31:R30, R19:R18
   \   0000010E   9509               ICALL
   \   00000110   2F90               MOV     R25, R16
   \   00000112   018D               MOVW    R17:R16, R27:R26
   \   00000114   ........           CALL    ??GetAlarmWindowIndex
   \   00000118   2F19               MOV     R17, R25
   \   0000011A   ........           CALL    ??SetAlarmWindowType
    582                          CPss21::SetAlarmWindowColor(GetAlarmWindowIndex(), ALARM_TYPE());
   \   0000011E   018D               MOVW    R17:R16, R27:R26
   \   00000120   01FD               MOVW    R31:R30, R27:R26
   \   00000122   8121               LDD     R18, Z+1
   \   00000124   8132               LDD     R19, Z+2
   \   00000126   01F9               MOVW    R31:R30, R19:R18
   \   00000128   9634               ADIW    R31:R30, 4
   \   0000012A   9125               LPM     R18, Z+
   \   0000012C   9134               LPM     R19, Z
   \   0000012E   9735               SBIW    R31:R30, 5
   \   00000130   01F9               MOVW    R31:R30, R19:R18
   \   00000132   9509               ICALL
   \   00000134   2F90               MOV     R25, R16
   \   00000136   018D               MOVW    R17:R16, R27:R26
   \   00000138   ........           CALL    ??GetAlarmWindowIndex
   \   0000013C   2F19               MOV     R17, R25
   \   0000013E   ........           CALL    ??SetAlarmWindowColor
    583                          // Активизируем окно сигнализации, для отображения извещателем.
    584                          CPss21::GetAlarmWindowControlPointer(GetAlarmWindowIndex()) -> SetActivityState(1);
   \   00000142   018D               MOVW    R17:R16, R27:R26
   \   00000144   ........           CALL    ??GetAlarmWindowIndex
   \   00000148   ........           CALL    ??GetAlarmWindowControlPointer
   \   0000014C   E021               LDI     R18, 1
   \   0000014E   ........           CALL    ??SetActivityState
    585                          SetFsmState(NOT_ACTIVE_STATE_WAITING);
   \   00000152   E027               LDI     R18, 7
   \   00000154   018D               MOVW    R17:R16, R27:R26
   \   00000156   ........           CALL    ??SetFsmState
    586                      }
    587                  }
    588          
    589                  break;
   \                     ??Fsm_47:
   \   0000015A   C082               RJMP    ??Fsm_42
    590          
    591              case NOT_ACTIVE_STATE_WAITING:
    592                  // тип текущего дискретного сигнала namur?
    593                  if (IS_NAMUR_ON())
   \                     ??Fsm_39:
   \   0000015C   018D               MOVW    R17:R16, R27:R26
   \   0000015E   01FD               MOVW    R31:R30, R27:R26
   \   00000160   8121               LDD     R18, Z+1
   \   00000162   8132               LDD     R19, Z+2
   \   00000164   01F9               MOVW    R31:R30, R19:R18
   \   00000166   9638               ADIW    R31:R30, 8
   \   00000168   9125               LPM     R18, Z+
   \   0000016A   9134               LPM     R19, Z
   \   0000016C   9739               SBIW    R31:R30, 9
   \   0000016E   01F9               MOVW    R31:R30, R19:R18
   \   00000170   9509               ICALL
   \   00000172   2300               TST     R16
   \   00000174   F011               BREQ    ??Fsm_48
   \   00000176   E001               LDI     R16, 1
   \   00000178   C001               RJMP    ??Fsm_49
   \                     ??Fsm_48:
   \   0000017A   E000               LDI     R16, 0
   \                     ??Fsm_49:
   \   0000017C   2300               TST     R16
   \   0000017E   F129               BREQ    ??Fsm_50
    594                  {
    595                      if (uiDiscreteSignalState == DISCRETE_SIGNAL_IS_NAMUR_ERROR)
   \   00000180   3082               CPI     R24, 2
   \   00000182   F429               BRNE    ??Fsm_51
    596                      {
    597                          SetFsmState(NAMUR_STATE_ON);
   \   00000184   E028               LDI     R18, 8
   \   00000186   018D               MOVW    R17:R16, R27:R26
   \   00000188   ........           CALL    ??SetFsmState
   \   0000018C   C069               RJMP    ??Fsm_42
    598                      }
    599                      else
    600                      {
    601                          // Дискретный сигнал не активен?
    602                          if (uiDiscreteSignalState == DISCRETE_SIGNAL_IS_NOT_ACTIVE)
   \                     ??Fsm_51:
   \   0000018E   2388               TST     R24
   \   00000190   F499               BRNE    ??Fsm_52
    603                          {
    604                              // Установим тип сигнализации связанному окну в массиве управления окнами извещателя.
    605                              CPss21::SetAlarmWindowType(GetAlarmWindowIndex(), NORMAL);
   \   00000192   018D               MOVW    R17:R16, R27:R26
   \   00000194   ........           CALL    ??GetAlarmWindowIndex
   \   00000198   E010               LDI     R17, 0
   \   0000019A   ........           CALL    ??SetAlarmWindowType
    606                              // Деактмвируем окно сигнализации, для прекращения отображения извещателем.
    607                              CPss21::GetAlarmWindowControlPointer(GetAlarmWindowIndex()) -> SetActivityState(0);
   \   0000019E   018D               MOVW    R17:R16, R27:R26
   \   000001A0   ........           CALL    ??GetAlarmWindowIndex
   \   000001A4   ........           CALL    ??GetAlarmWindowControlPointer
   \   000001A8   E020               LDI     R18, 0
   \   000001AA   ........           CALL    ??SetActivityState
    608                              SetFsmState(ACTIVE_STATE_WAITING);
   \   000001AE   E021               LDI     R18, 1
   \   000001B0   018D               MOVW    R17:R16, R27:R26
   \   000001B2   ........           CALL    ??SetFsmState
   \   000001B6   C054               RJMP    ??Fsm_42
    609                          }
    610                          else if (uiDiscreteSignalState == DISCRETE_SIGNAL_IS_ACTIVE)
   \                     ??Fsm_52:
   \   000001B8   3081               CPI     R24, 1
   \   000001BA   F521               BRNE    ??Fsm_53
    611                          {
    612                              // Установим связанные дискретный выходы - не новое нарушение.
    613                              CPss21::DiscreteOutputsSet(GetLinkedDiscreteOutputsPointer(), NOT_NEW_VIOLATION);
   \   000001BC   018D               MOVW    R17:R16, R27:R26
   \   000001BE   ........           CALL    ??GetLinkedDiscreteOutputsPointer
   \   000001C2   E020               LDI     R18, 0
   \   000001C4   ........           CALL    ??DiscreteOutputsSet
   \   000001C8   C04B               RJMP    ??Fsm_42
    614                          }
    615                      }
    616                  }
    617                  else
    618                  {
    619                      // Дискретный сигнал не активен?
    620                      if (uiDiscreteSignalState == DISCRETE_SIGNAL_IS_NOT_ACTIVE)
   \                     ??Fsm_50:
   \   000001CA   2388               TST     R24
   \   000001CC   F499               BRNE    ??Fsm_54
    621                      {
    622                          // Установим тип сигнализации связанному окну в массиве управления окнами извещателя.
    623                          CPss21::SetAlarmWindowType(GetAlarmWindowIndex(), NORMAL);
   \   000001CE   018D               MOVW    R17:R16, R27:R26
   \   000001D0   ........           CALL    ??GetAlarmWindowIndex
   \   000001D4   E010               LDI     R17, 0
   \   000001D6   ........           CALL    ??SetAlarmWindowType
    624                          // Деактмвируем окно сигнализации, для прекращения отображения извещателем.
    625                          CPss21::GetAlarmWindowControlPointer(GetAlarmWindowIndex()) -> SetActivityState(0);
   \   000001DA   018D               MOVW    R17:R16, R27:R26
   \   000001DC   ........           CALL    ??GetAlarmWindowIndex
   \   000001E0   ........           CALL    ??GetAlarmWindowControlPointer
   \   000001E4   E020               LDI     R18, 0
   \   000001E6   ........           CALL    ??SetActivityState
    626                          SetFsmState(ACTIVE_STATE_WAITING);
   \   000001EA   E021               LDI     R18, 1
   \   000001EC   018D               MOVW    R17:R16, R27:R26
   \   000001EE   ........           CALL    ??SetFsmState
   \   000001F2   C036               RJMP    ??Fsm_42
    627                      }
    628                      else if (uiDiscreteSignalState == DISCRETE_SIGNAL_IS_ACTIVE)
   \                     ??Fsm_54:
   \   000001F4   3081               CPI     R24, 1
   \   000001F6   F5A1               BRNE    ??Fsm_42
    629                      {
    630                          // Установим связанные дискретный выходы - не новое нарушение.
    631                          CPss21::DiscreteOutputsSet(GetLinkedDiscreteOutputsPointer(), NOT_NEW_VIOLATION);
   \   000001F8   018D               MOVW    R17:R16, R27:R26
   \   000001FA   ........           CALL    ??GetLinkedDiscreteOutputsPointer
   \   000001FE   E020               LDI     R18, 0
   \   00000200   ........           CALL    ??DiscreteOutputsSet
    632                      }
    633                  }
    634                  break;
   \                     ??Fsm_53:
   \   00000204   C02D               RJMP    ??Fsm_42
    635          
    636              case NAMUR_STATE_ON:
    637                  // Установим тип сигнализации связанному окну в массиве управления окнами извещателя.
    638                  CPss21::SetAlarmWindowType(GetAlarmWindowIndex(), INDICATION);
   \                     ??Fsm_40:
   \   00000206   018D               MOVW    R17:R16, R27:R26
   \   00000208   ........           CALL    ??GetAlarmWindowIndex
   \   0000020C   E011               LDI     R17, 1
   \   0000020E   ........           CALL    ??SetAlarmWindowType
    639                  CPss21::SetAlarmWindowColor(GetAlarmWindowIndex(), NAMUR_INDICATION);
   \   00000212   018D               MOVW    R17:R16, R27:R26
   \   00000214   ........           CALL    ??GetAlarmWindowIndex
   \   00000218   E016               LDI     R17, 6
   \   0000021A   ........           CALL    ??SetAlarmWindowColor
    640                  CPss21::GetAlarmWindowControlPointer(GetAlarmWindowIndex()) -> SetActivityState(1);
   \   0000021E   018D               MOVW    R17:R16, R27:R26
   \   00000220   ........           CALL    ??GetAlarmWindowIndex
   \   00000224   ........           CALL    ??GetAlarmWindowControlPointer
   \   00000228   E021               LDI     R18, 1
   \   0000022A   ........           CALL    ??SetActivityState
    641                  SetFsmState(NAMUR_INPUT_CORRECT_STATE_WAITING);
   \   0000022E   E029               LDI     R18, 9
   \   00000230   018D               MOVW    R17:R16, R27:R26
   \   00000232   ........           CALL    ??SetFsmState
    642                  break;
   \   00000236   C014               RJMP    ??Fsm_42
    643          
    644              case NAMUR_INPUT_CORRECT_STATE_WAITING:
    645                  // Дискретный сигнал NAMUR достоверен?
    646                  if (uiDiscreteSignalState != DISCRETE_SIGNAL_IS_NAMUR_ERROR)
   \                     ??Fsm_41:
   \   00000238   3082               CPI     R24, 2
   \   0000023A   F091               BREQ    ??Fsm_42
    647                  {
    648                      // Установим тип сигнализации связанному окну в массиве управления окнами извещателя.
    649                      CPss21::SetAlarmWindowType(GetAlarmWindowIndex(), NORMAL);
   \   0000023C   018D               MOVW    R17:R16, R27:R26
   \   0000023E   ........           CALL    ??GetAlarmWindowIndex
   \   00000242   E010               LDI     R17, 0
   \   00000244   ........           CALL    ??SetAlarmWindowType
    650                      CPss21::GetAlarmWindowControlPointer(GetAlarmWindowIndex()) -> SetActivityState(0);
   \   00000248   018D               MOVW    R17:R16, R27:R26
   \   0000024A   ........           CALL    ??GetAlarmWindowIndex
   \   0000024E   ........           CALL    ??GetAlarmWindowControlPointer
   \   00000252   E020               LDI     R18, 0
   \   00000254   ........           CALL    ??SetActivityState
    651                      SetFsmState(ACTIVE_STATE_WAITING);
   \   00000258   E021               LDI     R18, 1
   \   0000025A   018D               MOVW    R17:R16, R27:R26
   \   0000025C   ........           CALL    ??SetFsmState
    652                  }
    653                  break;
    654          
    655              default:
    656                  break;
    657              }
    658          }
   \                     ??Fsm_42:
   \   00000260   E0E4               LDI     R30, 4
   \   00000262   ........           JMP     ?EPILOGUE_B4_L09
    659          //-----------------------------------------------------------------------------------------------------
    660          
    661          
    662          
    663          
    664          
    665          
    666          
    667          
    668          //-----------------------------------------------------------------------------------------------------

   \                                 In  segment CODE, align 2, keep-with-next
    669          CIndicationAlarmHighLevelDfa::CIndicationAlarmHighLevelDfa()
   \                     ??CIndicationAlarmHighLevelDfa:
   \   00000000   93BA               ST      -Y, R27
   \   00000002   93AA               ST      -Y, R26
   \   00000004   01D8               MOVW    R27:R26, R17:R16
    670          {
   \   00000006   018D               MOVW    R17:R16, R27:R26
   \   00000008   ....               RCALL   ??CIndicationAlarmLowLevelDfa
   \   0000000A   ....               LDI     R16, LOW(??__vtbl_12)
   \   0000000C   ....               LDI     R17, (??__vtbl_12) >> 8
   \   0000000E   01FD               MOVW    R31:R30, R27:R26
   \   00000010   8301               STD     Z+1, R16
   \   00000012   8312               STD     Z+2, R17
    671              SetFsmState(ACTIVE_STATE_WAITING);
   \   00000014   E021               LDI     R18, 1
   \   00000016   018D               MOVW    R17:R16, R27:R26
   \   00000018   ........           CALL    ??SetFsmState
    672          }
   \   0000001C   018D               MOVW    R17:R16, R27:R26
   \   0000001E   91A9               LD      R26, Y+
   \   00000020   91B9               LD      R27, Y+
   \   00000022   9508               RET
    673          
    674          //-----------------------------------------------------------------------------------------------------

   \                                 In  segment CODE, align 2, keep-with-next
    675          CIndicationAlarmHighLevelDfa::~CIndicationAlarmHighLevelDfa()
   \                     `?~CIndicationAlarmHighLevelDfa`:
    676          {
   \   00000000   ........           CALL    ?PROLOGUE4_L09
   \   00000004   01C8               MOVW    R25:R24, R17:R16
   \   00000006   01D9               MOVW    R27:R26, R19:R18
   \   00000008   2F08               MOV     R16, R24
   \   0000000A   2B09               OR      R16, R25
   \   0000000C   F049               BREQ    `?~CIndicationAlarmHighLevelDfa_1`
    677              //dtor
    678          }
   \   0000000E   E020               LDI     R18, 0
   \   00000010   E030               LDI     R19, 0
   \   00000012   018C               MOVW    R17:R16, R25:R24
   \   00000014   ....               RCALL   `?~CIndicationAlarmLowLevelDfa`
   \   00000016   FBA0               BST     R26, 0
   \   00000018   F41E               BRTC    `?~CIndicationAlarmHighLevelDfa_1`
   \   0000001A   018C               MOVW    R17:R16, R25:R24
   \   0000001C   ........           CALL    `??operator delete`
   \                     `?~CIndicationAlarmHighLevelDfa_1`:
   \   00000020   E0E4               LDI     R30, 4
   \   00000022   ........           JMP     ?EPILOGUE_B4_L09
    679          //-----------------------------------------------------------------------------------------------------
    680          
    681          
    682          //-----------------------------------------------------------------------------------------------------

   \                                 In  segment CODE, align 2, keep-with-next
    683          CIndicationAlarmLowLevelNamurDfa::CIndicationAlarmLowLevelNamurDfa()
   \                     ??CIndicationAlarmLowLevelNamurDfa:
   \   00000000   93BA               ST      -Y, R27
   \   00000002   93AA               ST      -Y, R26
   \   00000004   01D8               MOVW    R27:R26, R17:R16
    684          {
   \   00000006   018D               MOVW    R17:R16, R27:R26
   \   00000008   ....               RCALL   ??CIndicationAlarmLowLevelDfa
   \   0000000A   ....               LDI     R16, LOW(??__vtbl_13)
   \   0000000C   ....               LDI     R17, (??__vtbl_13) >> 8
   \   0000000E   01FD               MOVW    R31:R30, R27:R26
   \   00000010   8301               STD     Z+1, R16
   \   00000012   8312               STD     Z+2, R17
    685              SetFsmState(ACTIVE_STATE_WAITING);
   \   00000014   E021               LDI     R18, 1
   \   00000016   018D               MOVW    R17:R16, R27:R26
   \   00000018   ........           CALL    ??SetFsmState
    686          }
   \   0000001C   018D               MOVW    R17:R16, R27:R26
   \   0000001E   91A9               LD      R26, Y+
   \   00000020   91B9               LD      R27, Y+
   \   00000022   9508               RET
    687          
    688          //-----------------------------------------------------------------------------------------------------

   \                                 In  segment CODE, align 2, keep-with-next
    689          CIndicationAlarmLowLevelNamurDfa::~CIndicationAlarmLowLevelNamurDfa()
   \                     `?~CIndicationAlarmLowLevelNamurDfa`:
    690          {
   \   00000000   ........           CALL    ?PROLOGUE4_L09
   \   00000004   01C8               MOVW    R25:R24, R17:R16
   \   00000006   01D9               MOVW    R27:R26, R19:R18
   \   00000008   2F08               MOV     R16, R24
   \   0000000A   2B09               OR      R16, R25
   \   0000000C   F049               BREQ    `?~CIndicationAlarmLowLevelNamurDfa_1`
    691              //dtor
    692          }
   \   0000000E   E020               LDI     R18, 0
   \   00000010   E030               LDI     R19, 0
   \   00000012   018C               MOVW    R17:R16, R25:R24
   \   00000014   ....               RCALL   `?~CIndicationAlarmLowLevelDfa`
   \   00000016   FBA0               BST     R26, 0
   \   00000018   F41E               BRTC    `?~CIndicationAlarmLowLevelNamurDfa_1`
   \   0000001A   018C               MOVW    R17:R16, R25:R24
   \   0000001C   ........           CALL    `??operator delete`
   \                     `?~CIndicationAlarmLowLevelNamurDfa_1`:
   \   00000020   E0E4               LDI     R30, 4
   \   00000022   ........           JMP     ?EPILOGUE_B4_L09
    693          //-----------------------------------------------------------------------------------------------------

   \                                 In  segment CODE, align 2, keep-with-next
    694          CIndicationAlarmHighLevelNamurDfa::CIndicationAlarmHighLevelNamurDfa()
   \                     ??CIndicationAlarmHighLevelNamurDfa:
   \   00000000   93BA               ST      -Y, R27
   \   00000002   93AA               ST      -Y, R26
   \   00000004   01D8               MOVW    R27:R26, R17:R16
    695          {
   \   00000006   018D               MOVW    R17:R16, R27:R26
   \   00000008   ....               RCALL   ??CIndicationAlarmLowLevelDfa
   \   0000000A   ....               LDI     R16, LOW(??__vtbl_14)
   \   0000000C   ....               LDI     R17, (??__vtbl_14) >> 8
   \   0000000E   01FD               MOVW    R31:R30, R27:R26
   \   00000010   8301               STD     Z+1, R16
   \   00000012   8312               STD     Z+2, R17
    696              SetFsmState(ACTIVE_STATE_WAITING);
   \   00000014   E021               LDI     R18, 1
   \   00000016   018D               MOVW    R17:R16, R27:R26
   \   00000018   ........           CALL    ??SetFsmState
    697          }
   \   0000001C   018D               MOVW    R17:R16, R27:R26
   \   0000001E   91A9               LD      R26, Y+
   \   00000020   91B9               LD      R27, Y+
   \   00000022   9508               RET
    698          
    699          //-----------------------------------------------------------------------------------------------------

   \                                 In  segment CODE, align 2, keep-with-next
    700          CIndicationAlarmHighLevelNamurDfa::~CIndicationAlarmHighLevelNamurDfa()
   \                     `?~CIndicationAlarmHighLevelNamurDfa`:
    701          {
   \   00000000   ........           CALL    ?PROLOGUE4_L09
   \   00000004   01C8               MOVW    R25:R24, R17:R16
   \   00000006   01D9               MOVW    R27:R26, R19:R18
   \   00000008   2F08               MOV     R16, R24
   \   0000000A   2B09               OR      R16, R25
   \   0000000C   F049               BREQ    `?~CIndicationAlarmHighLevelNamurDfa_1`
    702              //dtor
    703          }
   \   0000000E   E020               LDI     R18, 0
   \   00000010   E030               LDI     R19, 0
   \   00000012   018C               MOVW    R17:R16, R25:R24
   \   00000014   ....               RCALL   `?~CIndicationAlarmLowLevelDfa`
   \   00000016   FBA0               BST     R26, 0
   \   00000018   F41E               BRTC    `?~CIndicationAlarmHighLevelNamurDfa_1`
   \   0000001A   018C               MOVW    R17:R16, R25:R24
   \   0000001C   ........           CALL    `??operator delete`
   \                     `?~CIndicationAlarmHighLevelNamurDfa_1`:
   \   00000020   E0E4               LDI     R30, 4
   \   00000022   ........           JMP     ?EPILOGUE_B4_L09
    704          
    705          
    706          
    707          
    708          
    709          
    710          
    711          //-----------------------------------------------------------------------------------------------------

   \                                 In  segment CODE, align 2, keep-with-next
    712          CErrorAlarmDfa::CErrorAlarmDfa()
   \                     ??CErrorAlarmDfa:
   \   00000000   93BA               ST      -Y, R27
   \   00000002   93AA               ST      -Y, R26
   \   00000004   01D8               MOVW    R27:R26, R17:R16
    713          {
   \   00000006   018D               MOVW    R17:R16, R27:R26
   \   00000008   ........           CALL    ??CDfaLite
   \   0000000C   ....               LDI     R16, LOW(??__vtbl_15)
   \   0000000E   ....               LDI     R17, (??__vtbl_15) >> 8
   \   00000010   01FD               MOVW    R31:R30, R27:R26
   \   00000012   8301               STD     Z+1, R16
   \   00000014   8312               STD     Z+2, R17
    714              SetFsmState(ACTIVE_STATE_WAITING);
   \   00000016   E021               LDI     R18, 1
   \   00000018   018D               MOVW    R17:R16, R27:R26
   \   0000001A   ........           CALL    ??SetFsmState
    715          }
   \   0000001E   018D               MOVW    R17:R16, R27:R26
   \   00000020   91A9               LD      R26, Y+
   \   00000022   91B9               LD      R27, Y+
   \   00000024   9508               RET
    716          
    717          //-----------------------------------------------------------------------------------------------------

   \                                 In  segment CODE, align 2, keep-with-next
    718          CErrorAlarmDfa::~CErrorAlarmDfa()
   \                     `?~CErrorAlarmDfa`:
    719          {
   \   00000000   ........           CALL    ?PROLOGUE4_L09
   \   00000004   01C8               MOVW    R25:R24, R17:R16
   \   00000006   01D9               MOVW    R27:R26, R19:R18
   \   00000008   2F08               MOV     R16, R24
   \   0000000A   2B09               OR      R16, R25
   \   0000000C   F051               BREQ    `?~CErrorAlarmDfa_1`
    720              //dtor
    721          }
   \   0000000E   E020               LDI     R18, 0
   \   00000010   E030               LDI     R19, 0
   \   00000012   018C               MOVW    R17:R16, R25:R24
   \   00000014   ........           CALL    `?~CDfaLite`
   \   00000018   FBA0               BST     R26, 0
   \   0000001A   F41E               BRTC    `?~CErrorAlarmDfa_1`
   \   0000001C   018C               MOVW    R17:R16, R25:R24
   \   0000001E   ........           CALL    `??operator delete`
   \                     `?~CErrorAlarmDfa_1`:
   \   00000022   E0E4               LDI     R30, 4
   \   00000024   ........           JMP     ?EPILOGUE_B4_L09
    722          
    723          //-----------------------------------------------------------------------------------------------------
    724          // Автомат обработки системных ошибок.

   \                                 In  segment CODE, align 2, keep-with-next
    725          void CErrorAlarmDfa::Fsm(void)
   \                     ??Fsm_2:
    726          {
   \   00000000   ........           CALL    ?PROLOGUE5_L09
   \   00000004                      REQUIRE ?Register_R4_is_cg_reg
   \   00000004   01D8               MOVW    R27:R26, R17:R16
    727              switch (GetFsmState())
   \   00000006   018D               MOVW    R17:R16, R27:R26
   \   00000008   ........           CALL    ??GetFsmState
   \   0000000C   5000               SUBI    R16, 0
   \   0000000E   F049               BREQ    ??Fsm_55
   \   00000010   950A               DEC     R16
   \   00000012   F041               BREQ    ??Fsm_56
   \   00000014   950A               DEC     R16
   \   00000016   F409               BRNE    $+2+2
   \   00000018   C063               RJMP    ??Fsm_57
   \   0000001A   950A               DEC     R16
   \   0000001C   F409               BRNE    $+2+2
   \   0000001E   C06B               RJMP    ??Fsm_58
   \   00000020   C08B               RJMP    ??Fsm_59
    728              {
    729              case START:
    730                  break;
   \                     ??Fsm_55:
   \   00000022   C08A               RJMP    ??Fsm_59
    731          
    732              case ACTIVE_STATE_WAITING:
    733                  // Дискретный сигнал активен?
    734                  if (CPss21::GetErrorAlarmState(GetDiscreteStateIndex()) ^ ACTIVE_LEVEL())
   \                     ??Fsm_56:
   \   00000024   01FD               MOVW    R31:R30, R27:R26
   \   00000026   8181               LDD     R24, Z+1
   \   00000028   8192               LDD     R25, Z+2
   \   0000002A   9606               ADIW    R25:R24, 6
   \   0000002C   018D               MOVW    R17:R16, R27:R26
   \   0000002E   ........           CALL    ??GetDiscreteStateIndex_1
   \   00000032   ........           CALL    ??GetErrorAlarmState
   \   00000036   2E40               MOV     R4, R16
   \   00000038   018D               MOVW    R17:R16, R27:R26
   \   0000003A   01FC               MOVW    R31:R30, R25:R24
   \   0000003C   9125               LPM     R18, Z+
   \   0000003E   9134               LPM     R19, Z
   \   00000040   9731               SBIW    R31:R30, 1
   \   00000042   01F9               MOVW    R31:R30, R19:R18
   \   00000044   9509               ICALL
   \   00000046   2640               EOR     R4, R16
   \   00000048   2044               TST     R4
   \   0000004A   F011               BREQ    ??Fsm_60
   \   0000004C   E001               LDI     R16, 1
   \   0000004E   C001               RJMP    ??Fsm_61
   \                     ??Fsm_60:
   \   00000050   E000               LDI     R16, 0
   \                     ??Fsm_61:
   \   00000052   2300               TST     R16
   \   00000054   F409               BRNE    $+2+2
   \   00000056   C070               RJMP    ??Fsm_59
    735                  {
    736                      // Тип запрограммированной сигнализации дискретного сигнала имеет более высокий приоритет,
    737                      // чем тип общей сигнализации?
    738                      if ((CPss21::GetCommonAlarmType() != ERROR) &&
    739                              (CPss21::GetCommonAlarmType() < ALARM_TYPE()))
   \   00000058   ........           CALL    ??GetCommonAlarmType
   \   0000005C   3007               CPI     R16, 7
   \   0000005E   F121               BREQ    ??Fsm_62
   \   00000060   01FD               MOVW    R31:R30, R27:R26
   \   00000062   8181               LDD     R24, Z+1
   \   00000064   8192               LDD     R25, Z+2
   \   00000066   9604               ADIW    R25:R24, 4
   \   00000068   ........           CALL    ??GetCommonAlarmType
   \   0000006C   2E40               MOV     R4, R16
   \   0000006E   018D               MOVW    R17:R16, R27:R26
   \   00000070   01FC               MOVW    R31:R30, R25:R24
   \   00000072   9125               LPM     R18, Z+
   \   00000074   9134               LPM     R19, Z
   \   00000076   9731               SBIW    R31:R30, 1
   \   00000078   01F9               MOVW    R31:R30, R19:R18
   \   0000007A   9509               ICALL
   \   0000007C   1640               CP      R4, R16
   \   0000007E   F010               BRCS    ??Fsm_63
   \   00000080   E001               LDI     R16, 1
   \   00000082   C001               RJMP    ??Fsm_64
   \                     ??Fsm_63:
   \   00000084   E000               LDI     R16, 0
   \                     ??Fsm_64:
   \   00000086   2300               TST     R16
   \   00000088   F479               BRNE    ??Fsm_62
    740                      {
    741                          // Установим тип общей сигнализацию.
    742                          CPss21::SetCommonAlarmType(ALARM_TYPE());
   \   0000008A   018D               MOVW    R17:R16, R27:R26
   \   0000008C   9611               ADIW    R27:R26, 1
   \   0000008E   91ED               LD      R30, X+
   \   00000090   91FC               LD      R31, X
   \   00000092   9712               SBIW    R27:R26, 2
   \   00000094   9634               ADIW    R31:R30, 4
   \   00000096   9125               LPM     R18, Z+
   \   00000098   9134               LPM     R19, Z
   \   0000009A   9735               SBIW    R31:R30, 5
   \   0000009C   01F9               MOVW    R31:R30, R19:R18
   \   0000009E   9509               ICALL
   \   000000A0   ........           CALL    ??SetCommonAlarmType
    743          
    744                          // Изменим тип общей сигнализацию.
    745                          CPss21::AlarmTypeErrorChange();
   \   000000A4   ........           CALL    ??AlarmTypeErrorChange
    746                      }
    747          
    748                      CPss21::SetAlarmWindowColor(GetAlarmWindowIndex(), ALARM_TYPE());
   \                     ??Fsm_62:
   \   000000A8   018D               MOVW    R17:R16, R27:R26
   \   000000AA   9611               ADIW    R27:R26, 1
   \   000000AC   91ED               LD      R30, X+
   \   000000AE   91FC               LD      R31, X
   \   000000B0   9712               SBIW    R27:R26, 2
   \   000000B2   9634               ADIW    R31:R30, 4
   \   000000B4   9125               LPM     R18, Z+
   \   000000B6   9134               LPM     R19, Z
   \   000000B8   9735               SBIW    R31:R30, 5
   \   000000BA   01F9               MOVW    R31:R30, R19:R18
   \   000000BC   9509               ICALL
   \   000000BE   2F80               MOV     R24, R16
   \   000000C0   018D               MOVW    R17:R16, R27:R26
   \   000000C2   ........           CALL    ??GetAlarmWindowIndex_1
   \   000000C6   2F18               MOV     R17, R24
   \   000000C8   ........           CALL    ??SetAlarmWindowColor
    749          //            // Установим тип сигнализации связанному окну в массиве управления окнами извещателя.
    750                      CPss21::ErrorWindowOn(GetAlarmWindowIndex());
   \   000000CC   018D               MOVW    R17:R16, R27:R26
   \   000000CE   ........           CALL    ??GetAlarmWindowIndex_1
   \   000000D2   ........           CALL    ??ErrorWindowOn
    751                      SetFsmState(RECEIPT_WAITING);
   \   000000D6   E022               LDI     R18, 2
   \   000000D8   018D               MOVW    R17:R16, R27:R26
   \   000000DA   ........           CALL    ??SetFsmState
    752                  }
    753                  break;
   \   000000DE   C02C               RJMP    ??Fsm_59
    754          
    755              case RECEIPT_WAITING:
    756                  // Событие квитировано?
    757                  if (CPss21::GetDiscreteSignalsReceipt())
   \                     ??Fsm_57:
   \   000000E0   ........           CALL    ??GetDiscreteSignalsReceipt
   \   000000E4   2300               TST     R16
   \   000000E6   F141               BREQ    ??Fsm_59
    758                  {
    759                      // Переведём автоматы сигнализаций в состояние - квитировано.
    760                      CPss21::AlarmTypeReceipt();
   \   000000E8   ........           CALL    ??AlarmTypeReceipt
    761                      SetFsmState(RECEIPTED_NOT_ACTIVE_STATE_WAITING);
   \   000000EC   E023               LDI     R18, 3
   \   000000EE   018D               MOVW    R17:R16, R27:R26
   \   000000F0   ........           CALL    ??SetFsmState
    762                  }
    763                  break;
   \   000000F4   C021               RJMP    ??Fsm_59
    764          
    765              case RECEIPTED_NOT_ACTIVE_STATE_WAITING:
    766                  // Дискретный сигнал не активен?
    767                  if (!(CPss21::GetErrorAlarmState(GetDiscreteStateIndex()) ^ ACTIVE_LEVEL()))
   \                     ??Fsm_58:
   \   000000F6   01FD               MOVW    R31:R30, R27:R26
   \   000000F8   8181               LDD     R24, Z+1
   \   000000FA   8192               LDD     R25, Z+2
   \   000000FC   9606               ADIW    R25:R24, 6
   \   000000FE   018D               MOVW    R17:R16, R27:R26
   \   00000100   ........           CALL    ??GetDiscreteStateIndex_1
   \   00000104   ........           CALL    ??GetErrorAlarmState
   \   00000108   2E40               MOV     R4, R16
   \   0000010A   018D               MOVW    R17:R16, R27:R26
   \   0000010C   01FC               MOVW    R31:R30, R25:R24
   \   0000010E   9125               LPM     R18, Z+
   \   00000110   9134               LPM     R19, Z
   \   00000112   9731               SBIW    R31:R30, 1
   \   00000114   01F9               MOVW    R31:R30, R19:R18
   \   00000116   9509               ICALL
   \   00000118   2640               EOR     R4, R16
   \   0000011A   2044               TST     R4
   \   0000011C   F411               BRNE    ??Fsm_65
   \   0000011E   E001               LDI     R16, 1
   \   00000120   C001               RJMP    ??Fsm_66
   \                     ??Fsm_65:
   \   00000122   E000               LDI     R16, 0
   \                     ??Fsm_66:
   \   00000124   2300               TST     R16
   \   00000126   F041               BREQ    ??Fsm_59
    768                  {
    769                      // Переведём автоматы сигнализаций в состояние - сброшено.
    770                      CPss21::AlarmTypeReset();
   \   00000128   ........           CALL    ??AlarmTypeReset
    771                      CPss21::AllAlarmWindowOff();
   \   0000012C   ........           CALL    ??AllAlarmWindowOff
    772                      SetFsmState(ACTIVE_STATE_WAITING);
   \   00000130   E021               LDI     R18, 1
   \   00000132   018D               MOVW    R17:R16, R27:R26
   \   00000134   ........           CALL    ??SetFsmState
    773                  }
    774                  break;
    775          
    776              default:
    777                  break;
    778              }
    779          }
   \                     ??Fsm_59:
   \   00000138   E0E5               LDI     R30, 5
   \   0000013A   ........           JMP     ?EPILOGUE_B5_L09

   \                                 In  segment SWITCH, align 2, keep-with-next
   \                     `?<Jumptable for Fsm>_0`:
   \   00000000   00                 DB      0
   \   00000001   00                 DB      0
   \   00000002   ....               DW      (??Fsm_8) /2
   \   00000004   000A               DW      10
   \   00000006   ....               DW      (??Fsm_8) /2
   \   00000008   ....               DW      (??Fsm_3) /2
   \   0000000A   ....               DW      (??Fsm_18) /2
   \   0000000C   ....               DW      (??Fsm_12) /2
   \   0000000E   ....               DW      (??Fsm_22) /2
   \   00000010   ....               DW      (??Fsm_27) /2
   \   00000012   ....               DW      (??Fsm_31) /2
   \   00000014   ....               DW      (??Fsm_8) /2
   \   00000016   ....               DW      (??Fsm_35) /2
   \   00000018   ....               DW      (??Fsm_36) /2

   \                                 In  segment CODE, align 2, keep-with-next
   \   __version_3 CAlarmDfa &CAlarmDfa::new CAlarmDfa()
   \                     `??new CAlarmDfa`:
   \   00000000   E006               LDI     R16, 6
   \   00000002   E010               LDI     R17, 0
   \   00000004   ........           CALL    `??operator new`
   \   00000008   2F20               MOV     R18, R16
   \   0000000A   2B21               OR      R18, R17
   \   0000000C   F011               BREQ    `??new CAlarmDfa_1`
   \   0000000E   ....               RCALL   ??CAlarmDfa
   \   00000010   9508               RET
   \                     `??new CAlarmDfa_1`:
   \   00000012   E000               LDI     R16, 0
   \   00000014   E010               LDI     R17, 0
   \   00000016   9508               RET

   \                                 In  segment CODE, align 2, keep-with-next
   \   __version_3 CNormalAlarmDfa &CNormalAlarmDfa::new CNormalAlarmDfa()
   \                     `??new CNormalAlarmDfa`:
   \   00000000   E006               LDI     R16, 6
   \   00000002   E010               LDI     R17, 0
   \   00000004   ........           CALL    `??operator new`
   \   00000008   2F20               MOV     R18, R16
   \   0000000A   2B21               OR      R18, R17
   \   0000000C   F011               BREQ    `??new CNormalAlarmDfa_1`
   \   0000000E   ....               RCALL   ??CNormalAlarmDfa
   \   00000010   9508               RET
   \                     `??new CNormalAlarmDfa_1`:
   \   00000012   E000               LDI     R16, 0
   \   00000014   E010               LDI     R17, 0
   \   00000016   9508               RET

   \                                 In  segment CODE, align 2, keep-with-next
   \   __version_3 CPreventiveAlarmLowLevelDfa &CPreventiveAlarmLowLevelDfa::new CPreventiveAlarmLowLevelDfa()
   \                     `??new CPreventiveAlarmLowLevelDfa`:
   \   00000000   E006               LDI     R16, 6
   \   00000002   E010               LDI     R17, 0
   \   00000004   ........           CALL    `??operator new`
   \   00000008   2F20               MOV     R18, R16
   \   0000000A   2B21               OR      R18, R17
   \   0000000C   F011               BREQ    `??new CPreventiveAlarmLowLevelDfa_1`
   \   0000000E   ....               RCALL   ??CPreventiveAlarmLowLevelDfa
   \   00000010   9508               RET
   \                     `??new CPreventiveAlarmLowLevelDfa_1`:
   \   00000012   E000               LDI     R16, 0
   \   00000014   E010               LDI     R17, 0
   \   00000016   9508               RET

   \                                 In  segment CODE, align 2, keep-with-next
   \   __version_3 CPreventiveAlarmHighLevelDfa &CPreventiveAlarmHighLevelDfa::new CPreventiveAlarmHighLevelDfa()
   \                     `??new CPreventiveAlarmHighLevelDfa`:
   \   00000000   E006               LDI     R16, 6
   \   00000002   E010               LDI     R17, 0
   \   00000004   ........           CALL    `??operator new`
   \   00000008   2F20               MOV     R18, R16
   \   0000000A   2B21               OR      R18, R17
   \   0000000C   F011               BREQ    `??new CPreventiveAlarmHighLevelDfa_1`
   \   0000000E   ....               RCALL   ??CPreventiveAlarmHighLevelDfa
   \   00000010   9508               RET
   \                     `??new CPreventiveAlarmHighLevelDfa_1`:
   \   00000012   E000               LDI     R16, 0
   \   00000014   E010               LDI     R17, 0
   \   00000016   9508               RET

   \                                 In  segment CODE, align 2, keep-with-next
   \   __version_3 CPreventiveAlarmLowLevelNamurDfa &CPreventiveAlarmLowLevelNamurDfa::new CPreventiveAlarmLowLevelNamurDfa()
   \                     `??new CPreventiveAlarmLowLevelNamurDfa`:
   \   00000000   E006               LDI     R16, 6
   \   00000002   E010               LDI     R17, 0
   \   00000004   ........           CALL    `??operator new`
   \   00000008   2F20               MOV     R18, R16
   \   0000000A   2B21               OR      R18, R17
   \   0000000C   F011               BREQ    `??new CPreventiveAlarmLowLevelNamurDfa_1`
   \   0000000E   ....               RCALL   ??CPreventiveAlarmLowLevelNamurDfa
   \   00000010   9508               RET
   \                     `??new CPreventiveAlarmLowLevelNamurDfa_1`:
   \   00000012   E000               LDI     R16, 0
   \   00000014   E010               LDI     R17, 0
   \   00000016   9508               RET

   \                                 In  segment CODE, align 2, keep-with-next
   \   __version_3 CPreventiveAlarmHighLevelNamurDfa &CPreventiveAlarmHighLevelNamurDfa::new CPreventiveAlarmHighLevelNamurDfa()
   \                     `??new CPreventiveAlarmHighLevelNamurDfa`:
   \   00000000   E006               LDI     R16, 6
   \   00000002   E010               LDI     R17, 0
   \   00000004   ........           CALL    `??operator new`
   \   00000008   2F20               MOV     R18, R16
   \   0000000A   2B21               OR      R18, R17
   \   0000000C   F011               BREQ    `??new CPreventiveAlarmHighLevelNamurDfa_1`
   \   0000000E   ....               RCALL   ??CPreventiveAlarmHighLevelNamurDfa
   \   00000010   9508               RET
   \                     `??new CPreventiveAlarmHighLevelNamurDfa_1`:
   \   00000012   E000               LDI     R16, 0
   \   00000014   E010               LDI     R17, 0
   \   00000016   9508               RET

   \                                 In  segment CODE, align 2, keep-with-next
   \   __version_3 CEmergencyAlarmLowLevelDfa &CEmergencyAlarmLowLevelDfa::new CEmergencyAlarmLowLevelDfa()
   \                     `??new CEmergencyAlarmLowLevelDfa`:
   \   00000000   E006               LDI     R16, 6
   \   00000002   E010               LDI     R17, 0
   \   00000004   ........           CALL    `??operator new`
   \   00000008   2F20               MOV     R18, R16
   \   0000000A   2B21               OR      R18, R17
   \   0000000C   F011               BREQ    `??new CEmergencyAlarmLowLevelDfa_1`
   \   0000000E   ....               RCALL   ??CEmergencyAlarmLowLevelDfa
   \   00000010   9508               RET
   \                     `??new CEmergencyAlarmLowLevelDfa_1`:
   \   00000012   E000               LDI     R16, 0
   \   00000014   E010               LDI     R17, 0
   \   00000016   9508               RET

   \                                 In  segment CODE, align 2, keep-with-next
   \   __version_3 CEmergencyAlarmHighLevelDfa &CEmergencyAlarmHighLevelDfa::new CEmergencyAlarmHighLevelDfa()
   \                     `??new CEmergencyAlarmHighLevelDfa`:
   \   00000000   E006               LDI     R16, 6
   \   00000002   E010               LDI     R17, 0
   \   00000004   ........           CALL    `??operator new`
   \   00000008   2F20               MOV     R18, R16
   \   0000000A   2B21               OR      R18, R17
   \   0000000C   F011               BREQ    `??new CEmergencyAlarmHighLevelDfa_1`
   \   0000000E   ....               RCALL   ??CEmergencyAlarmHighLevelDfa
   \   00000010   9508               RET
   \                     `??new CEmergencyAlarmHighLevelDfa_1`:
   \   00000012   E000               LDI     R16, 0
   \   00000014   E010               LDI     R17, 0
   \   00000016   9508               RET

   \                                 In  segment CODE, align 2, keep-with-next
   \   __version_3 CEmergencyAlarmLowLevelNamurDfa &CEmergencyAlarmLowLevelNamurDfa::new CEmergencyAlarmLowLevelNamurDfa()
   \                     `??new CEmergencyAlarmLowLevelNamurDfa`:
   \   00000000   E006               LDI     R16, 6
   \   00000002   E010               LDI     R17, 0
   \   00000004   ........           CALL    `??operator new`
   \   00000008   2F20               MOV     R18, R16
   \   0000000A   2B21               OR      R18, R17
   \   0000000C   F011               BREQ    `??new CEmergencyAlarmLowLevelNamurDfa_1`
   \   0000000E   ....               RCALL   ??CEmergencyAlarmLowLevelNamurDfa
   \   00000010   9508               RET
   \                     `??new CEmergencyAlarmLowLevelNamurDfa_1`:
   \   00000012   E000               LDI     R16, 0
   \   00000014   E010               LDI     R17, 0
   \   00000016   9508               RET

   \                                 In  segment CODE, align 2, keep-with-next
   \   __version_3 CEmergencyAlarmHighLevelNamurDfa &CEmergencyAlarmHighLevelNamurDfa::new CEmergencyAlarmHighLevelNamurDfa()
   \                     `??new CEmergencyAlarmHighLevelNamurDfa`:
   \   00000000   E006               LDI     R16, 6
   \   00000002   E010               LDI     R17, 0
   \   00000004   ........           CALL    `??operator new`
   \   00000008   2F20               MOV     R18, R16
   \   0000000A   2B21               OR      R18, R17
   \   0000000C   F011               BREQ    `??new CEmergencyAlarmHighLevelNamurDfa_1`
   \   0000000E   ....               RCALL   ??CEmergencyAlarmHighLevelNamurDfa
   \   00000010   9508               RET
   \                     `??new CEmergencyAlarmHighLevelNamurDfa_1`:
   \   00000012   E000               LDI     R16, 0
   \   00000014   E010               LDI     R17, 0
   \   00000016   9508               RET

   \                                 In  segment CODE, align 2, keep-with-next
   \   __version_3 CIndicationAlarmLowLevelDfa &CIndicationAlarmLowLevelDfa::new CIndicationAlarmLowLevelDfa()
   \                     `??new CIndicationAlarmLowLevelDfa`:
   \   00000000   E006               LDI     R16, 6
   \   00000002   E010               LDI     R17, 0
   \   00000004   ........           CALL    `??operator new`
   \   00000008   2F20               MOV     R18, R16
   \   0000000A   2B21               OR      R18, R17
   \   0000000C   F011               BREQ    `??new CIndicationAlarmLowLevelDfa_1`
   \   0000000E   ....               RCALL   ??CIndicationAlarmLowLevelDfa
   \   00000010   9508               RET
   \                     `??new CIndicationAlarmLowLevelDfa_1`:
   \   00000012   E000               LDI     R16, 0
   \   00000014   E010               LDI     R17, 0
   \   00000016   9508               RET

   \                                 In  segment CODE, align 2, keep-with-next
   \   __version_3 CIndicationAlarmHighLevelDfa &CIndicationAlarmHighLevelDfa::new CIndicationAlarmHighLevelDfa()
   \                     `??new CIndicationAlarmHighLevelDfa`:
   \   00000000   E006               LDI     R16, 6
   \   00000002   E010               LDI     R17, 0
   \   00000004   ........           CALL    `??operator new`
   \   00000008   2F20               MOV     R18, R16
   \   0000000A   2B21               OR      R18, R17
   \   0000000C   F011               BREQ    `??new CIndicationAlarmHighLevelDfa_1`
   \   0000000E   ....               RCALL   ??CIndicationAlarmHighLevelDfa
   \   00000010   9508               RET
   \                     `??new CIndicationAlarmHighLevelDfa_1`:
   \   00000012   E000               LDI     R16, 0
   \   00000014   E010               LDI     R17, 0
   \   00000016   9508               RET

   \                                 In  segment CODE, align 2, keep-with-next
   \   __version_3 CIndicationAlarmLowLevelNamurDfa &CIndicationAlarmLowLevelNamurDfa::new CIndicationAlarmLowLevelNamurDfa()
   \                     `??new CIndicationAlarmLowLevelNamurDfa`:
   \   00000000   E006               LDI     R16, 6
   \   00000002   E010               LDI     R17, 0
   \   00000004   ........           CALL    `??operator new`
   \   00000008   2F20               MOV     R18, R16
   \   0000000A   2B21               OR      R18, R17
   \   0000000C   F011               BREQ    `??new CIndicationAlarmLowLevelNamurDfa_1`
   \   0000000E   ....               RCALL   ??CIndicationAlarmLowLevelNamurDfa
   \   00000010   9508               RET
   \                     `??new CIndicationAlarmLowLevelNamurDfa_1`:
   \   00000012   E000               LDI     R16, 0
   \   00000014   E010               LDI     R17, 0
   \   00000016   9508               RET

   \                                 In  segment CODE, align 2, keep-with-next
   \   __version_3 CIndicationAlarmHighLevelNamurDfa &CIndicationAlarmHighLevelNamurDfa::new CIndicationAlarmHighLevelNamurDfa()
   \                     `??new CIndicationAlarmHighLevelNamurDfa`:
   \   00000000   E006               LDI     R16, 6
   \   00000002   E010               LDI     R17, 0
   \   00000004   ........           CALL    `??operator new`
   \   00000008   2F20               MOV     R18, R16
   \   0000000A   2B21               OR      R18, R17
   \   0000000C   F011               BREQ    `??new CIndicationAlarmHighLevelNamurDfa_1`
   \   0000000E   ....               RCALL   ??CIndicationAlarmHighLevelNamurDfa
   \   00000010   9508               RET
   \                     `??new CIndicationAlarmHighLevelNamurDfa_1`:
   \   00000012   E000               LDI     R16, 0
   \   00000014   E010               LDI     R17, 0
   \   00000016   9508               RET

   \                                 In  segment CODE, align 2, keep-with-next
   \   __version_3 CErrorAlarmDfa &CErrorAlarmDfa::new CErrorAlarmDfa()
   \                     `??new CErrorAlarmDfa`:
   \   00000000   E005               LDI     R16, 5
   \   00000002   E010               LDI     R17, 0
   \   00000004   ........           CALL    `??operator new`
   \   00000008   2F20               MOV     R18, R16
   \   0000000A   2B21               OR      R18, R17
   \   0000000C   F011               BREQ    `??new CErrorAlarmDfa_1`
   \   0000000E   ....               RCALL   ??CErrorAlarmDfa
   \   00000010   9508               RET
   \                     `??new CErrorAlarmDfa_1`:
   \   00000012   E000               LDI     R16, 0
   \   00000014   E010               LDI     R17, 0
   \   00000016   9508               RET
    780          //-----------------------------------------------------------------------------------------------------
    781          
    782          
    783          
    784          
    785          
    786          
    787          
    788          
    789          
    790          ////-----------------------------------------------------------------------------------------------------
    791          //CInputModuleErrorAlarmDfa::CInputModuleErrorAlarmDfa()
    792          //{
    793          //    SetFsmState(START);
    794          //}
    795          //
    796          ////-----------------------------------------------------------------------------------------------------
    797          //CInputModuleErrorAlarmDfa::~CInputModuleErrorAlarmDfa()
    798          //{
    799          //    //dtor
    800          //}
    801          //
    802          ////-----------------------------------------------------------------------------------------------------
    803          //
    804          //
    805          //
    806          //
    807          //
    808          //
    809          //
    810          //
    811          ////-----------------------------------------------------------------------------------------------------
    812          //COutpuModuleErrorAlarmDfa::COutpuModuleErrorAlarmDfa()
    813          //{
    814          //    SetFsmState(START);
    815          //}
    816          //
    817          ////-----------------------------------------------------------------------------------------------------
    818          //COutpuModuleErrorAlarmDfa::~COutpuModuleErrorAlarmDfa()
    819          //{
    820          //    //dtor
    821          //}
    822          //
    823          ////-----------------------------------------------------------------------------------------------------
    824          
    825          
    826          
    827          
    828          
    829          
    830          

   Maximum stack usage in bytes:

   CSTACK RSTACK Function
   ------ ------ --------
      0      2   CAlarmDfa::ACTIVE_LEVEL()
      0      2   CAlarmDfa::ALARM_TYPE()
      2      2   CAlarmDfa::CAlarmDfa()
        2      2   -> CDfaLite::CDfaLite()
      4      2   CAlarmDfa::DiscreteSignalStateCheck()
        4      2   -- Indirect call
        4      2   -> CAlarmDfa::GetDiscreteStateIndex()
        4      2   -> CPss21::GetDiscreteInputsBadState(uint8_t)
        4      2   -> CPss21::SetDiscreteInputState(uint8_t, uint8_t)
      4      2   CAlarmDfa::Fsm()
        4      2   -- Indirect call
        4      2   -> CAlarmDfa::GetAlarmWindowIndex()
        4      2   -> CAlarmDfa::GetLinkedDiscreteOutputsPointer()
        4      2   -> CAlarmWindow::SetActivityState(uint8_t)
        4      2   -> CDfaLite::GetFsmState()
        4      2   -> CDfaLite::SetFsmState(uint8_t)
        4      2   -> CPss21::DiscreteOutputsSet(uint8_t *, uint8_t)
        4      2   -> CPss21::GetAlarmWindowControlPointer(uint8_t)
        4      2   -> CPss21::GetDiscreteSignalsReceipt()
        4      2   -> CPss21::GetDiscreteSignalsReset()
        4      2   -> CPss21::SetAlarmWindowColor(uint8_t, uint8_t)
        4      2   -> CPss21::SetAlarmWindowType(uint8_t, uint8_t)
        4      2 ?CV_SWITCH_L06
      0      2   CAlarmDfa::GetAlarmWindowIndex()
      0      2   CAlarmDfa::GetDiscreteStateIndex()
      0      2   CAlarmDfa::GetLinkedDiscreteOutputsPointer()
      0      2   CAlarmDfa::IS_NAMUR_ON()
      0      2   CAlarmDfa::new CAlarmDfa()
        0      2   -> CAlarmDfa::CAlarmDfa()
        0      2   -> operator new(unsigned int)
      4      2   CAlarmDfa::~CAlarmDfa()
        4      2   -> CDfaLite::~CDfaLite()
        4      2   -> operator delete(void *)
      0      2   CAlarmWindow::SetActivityState(uint8_t)
      0      2   CDfaLite::GetFsmState()
      0      2   CDfaLite::SetFsmState(uint8_t)
      0      2   CEmergencyAlarmHighLevelDfa::ACTIVE_LEVEL()
      0      2   CEmergencyAlarmHighLevelDfa::ALARM_TYPE()
      2      2   CEmergencyAlarmHighLevelDfa::CEmergencyAlarmHighLevelDfa()
        2      2   -> CAlarmDfa::CAlarmDfa()
        2      2   -> CDfaLite::SetFsmState(uint8_t)
      0      2   CEmergencyAlarmHighLevelDfa::IS_NAMUR_ON()
      0      2   CEmergencyAlarmHighLevelDfa::new CEmergencyAlarmHighLevelDfa()
        0      2   -> CEmergencyAlarmHighLevelDfa::CEmergencyAlarmHighLevelDfa()
        0      2   -> operator new(unsigned int)
      4      2   CEmergencyAlarmHighLevelDfa::~CEmergencyAlarmHighLevelDfa()
        4      2   -> CAlarmDfa::~CAlarmDfa()
        4      2   -> operator delete(void *)
      0      2   CEmergencyAlarmHighLevelNamurDfa::ACTIVE_LEVEL()
      0      2   CEmergencyAlarmHighLevelNamurDfa::ALARM_TYPE()
      2      2   CEmergencyAlarmHighLevelNamurDfa::CEmergencyAlarmHighLevelNamurDfa()
        2      2   -> CAlarmDfa::CAlarmDfa()
        2      2   -> CDfaLite::SetFsmState(uint8_t)
      0      2   CEmergencyAlarmHighLevelNamurDfa::IS_NAMUR_ON()
      0      2   CEmergencyAlarmHighLevelNamurDfa::new CEmergencyAlarmHighLevelNamurDfa()
        0      2   -> CEmergencyAlarmHighLevelNamurDfa::CEmergencyAlarmHighLevelNamurDfa()
        0      2   -> operator new(unsigned int)
      4      2   CEmergencyAlarmHighLevelNamurDfa::~CEmergencyAlarmHighLevelNamurDfa()
        4      2   -> CAlarmDfa::~CAlarmDfa()
        4      2   -> operator delete(void *)
      0      2   CEmergencyAlarmLowLevelDfa::ACTIVE_LEVEL()
      0      2   CEmergencyAlarmLowLevelDfa::ALARM_TYPE()
      2      2   CEmergencyAlarmLowLevelDfa::CEmergencyAlarmLowLevelDfa()
        2      2   -> CAlarmDfa::CAlarmDfa()
        2      2   -> CDfaLite::SetFsmState(uint8_t)
      0      2   CEmergencyAlarmLowLevelDfa::IS_NAMUR_ON()
      0      2   CEmergencyAlarmLowLevelDfa::new CEmergencyAlarmLowLevelDfa()
        0      2   -> CEmergencyAlarmLowLevelDfa::CEmergencyAlarmLowLevelDfa()
        0      2   -> operator new(unsigned int)
      4      2   CEmergencyAlarmLowLevelDfa::~CEmergencyAlarmLowLevelDfa()
        4      2   -> CAlarmDfa::~CAlarmDfa()
        4      2   -> operator delete(void *)
      0      2   CEmergencyAlarmLowLevelNamurDfa::ACTIVE_LEVEL()
      0      2   CEmergencyAlarmLowLevelNamurDfa::ALARM_TYPE()
      2      2   CEmergencyAlarmLowLevelNamurDfa::CEmergencyAlarmLowLevelNamurDfa()
        2      2   -> CAlarmDfa::CAlarmDfa()
        2      2   -> CDfaLite::SetFsmState(uint8_t)
      0      2   CEmergencyAlarmLowLevelNamurDfa::IS_NAMUR_ON()
      0      2   CEmergencyAlarmLowLevelNamurDfa::new CEmergencyAlarmLowLevelNamurDfa()
        0      2   -> CEmergencyAlarmLowLevelNamurDfa::CEmergencyAlarmLowLevelNamurDfa()
        0      2   -> operator new(unsigned int)
      4      2   CEmergencyAlarmLowLevelNamurDfa::~CEmergencyAlarmLowLevelNamurDfa()
        4      2   -> CAlarmDfa::~CAlarmDfa()
        4      2   -> operator delete(void *)
      0      2   CErrorAlarmDfa::ACTIVE_LEVEL()
      0      2   CErrorAlarmDfa::ALARM_TYPE()
      2      2   CErrorAlarmDfa::CErrorAlarmDfa()
        2      2   -> CDfaLite::CDfaLite()
        2      2   -> CDfaLite::SetFsmState(uint8_t)
      5      2   CErrorAlarmDfa::Fsm()
        5      2   -- Indirect call
        5      2   -> CDfaLite::GetFsmState()
        5      2   -> CDfaLite::SetFsmState(uint8_t)
        5      2   -> CErrorAlarmDfa::GetAlarmWindowIndex()
        5      2   -> CErrorAlarmDfa::GetDiscreteStateIndex()
        5      2   -> CPss21::AlarmTypeErrorChange()
        5      2   -> CPss21::AlarmTypeReceipt()
        5      2   -> CPss21::AlarmTypeReset()
        5      2   -> CPss21::AllAlarmWindowOff()
        5      2   -> CPss21::ErrorWindowOn(uint8_t)
        5      2   -> CPss21::GetCommonAlarmType()
        5      2   -> CPss21::GetDiscreteSignalsReceipt()
        5      2   -> CPss21::GetErrorAlarmState(uint8_t)
        5      2   -> CPss21::SetAlarmWindowColor(uint8_t, uint8_t)
        5      2   -> CPss21::SetCommonAlarmType(uint8_t)
      0      2   CErrorAlarmDfa::GetAlarmWindowIndex()
      0      2   CErrorAlarmDfa::GetDiscreteStateIndex()
      0      2   CErrorAlarmDfa::new CErrorAlarmDfa()
        0      2   -> CErrorAlarmDfa::CErrorAlarmDfa()
        0      2   -> operator new(unsigned int)
      4      2   CErrorAlarmDfa::~CErrorAlarmDfa()
        4      2   -> CDfaLite::~CDfaLite()
        4      2   -> operator delete(void *)
      0      2   CIndicationAlarmHighLevelDfa::ACTIVE_LEVEL()
      0      2   CIndicationAlarmHighLevelDfa::ALARM_TYPE()
      2      2   CIndicationAlarmHighLevelDfa::CIndicationAlarmHighLevelDfa()
        2      2   -> CDfaLite::SetFsmState(uint8_t)
        2      2   -> CIndicationAlarmLowLevelDfa::CIndicationAlarmLowLevelDfa()
      0      2   CIndicationAlarmHighLevelDfa::IS_NAMUR_ON()
      0      2   CIndicationAlarmHighLevelDfa::new CIndicationAlarmHighLevelDfa()
        0      2   -> CIndicationAlarmHighLevelDfa::CIndicationAlarmHighLevelDfa()
        0      2   -> operator new(unsigned int)
      4      2   CIndicationAlarmHighLevelDfa::~CIndicationAlarmHighLevelDfa()
        4      2   -> CIndicationAlarmLowLevelDfa::~CIndicationAlarmLowLevelDfa()
        4      2   -> operator delete(void *)
      0      2   CIndicationAlarmHighLevelNamurDfa::ACTIVE_LEVEL()
      0      2   CIndicationAlarmHighLevelNamurDfa::ALARM_TYPE()
      2      2   CIndicationAlarmHighLevelNamurDfa::CIndicationAlarmHighLevelNamurDfa()
        2      2   -> CDfaLite::SetFsmState(uint8_t)
        2      2   -> CIndicationAlarmLowLevelDfa::CIndicationAlarmLowLevelDfa()
      0      2   CIndicationAlarmHighLevelNamurDfa::IS_NAMUR_ON()
      0      2   CIndicationAlarmHighLevelNamurDfa::new CIndicationAlarmHighLevelNamurDfa()
        0      2   -> CIndicationAlarmHighLevelNamurDfa::CIndicationAlarmHighLevelNamurDfa()
        0      2   -> operator new(unsigned int)
      4      2   CIndicationAlarmHighLevelNamurDfa::~CIndicationAlarmHighLevelNamurDfa()
        4      2   -> CIndicationAlarmLowLevelDfa::~CIndicationAlarmLowLevelDfa()
        4      2   -> operator delete(void *)
      0      2   CIndicationAlarmLowLevelDfa::ACTIVE_LEVEL()
      0      2   CIndicationAlarmLowLevelDfa::ALARM_TYPE()
      2      2   CIndicationAlarmLowLevelDfa::CIndicationAlarmLowLevelDfa()
        2      2   -> CAlarmDfa::CAlarmDfa()
        2      2   -> CDfaLite::SetFsmState(uint8_t)
      4      2   CIndicationAlarmLowLevelDfa::Fsm()
        4      2   -- Indirect call
        4      2   -> CAlarmDfa::GetAlarmWindowIndex()
        4      2   -> CAlarmDfa::GetLinkedDiscreteOutputsPointer()
        4      2   -> CAlarmWindow::SetActivityState(uint8_t)
        4      2   -> CDfaLite::GetFsmState()
        4      2   -> CDfaLite::SetFsmState(uint8_t)
        4      2   -> CPss21::DiscreteOutputsSet(uint8_t *, uint8_t)
        4      2   -> CPss21::GetAlarmWindowControlPointer(uint8_t)
        4      2   -> CPss21::SetAlarmWindowColor(uint8_t, uint8_t)
        4      2   -> CPss21::SetAlarmWindowType(uint8_t, uint8_t)
      0      2   CIndicationAlarmLowLevelDfa::IS_NAMUR_ON()
      0      2   CIndicationAlarmLowLevelDfa::new CIndicationAlarmLowLevelDfa()
        0      2   -> CIndicationAlarmLowLevelDfa::CIndicationAlarmLowLevelDfa()
        0      2   -> operator new(unsigned int)
      4      2   CIndicationAlarmLowLevelDfa::~CIndicationAlarmLowLevelDfa()
        4      2   -> CAlarmDfa::~CAlarmDfa()
        4      2   -> operator delete(void *)
      0      2   CIndicationAlarmLowLevelNamurDfa::ACTIVE_LEVEL()
      0      2   CIndicationAlarmLowLevelNamurDfa::ALARM_TYPE()
      2      2   CIndicationAlarmLowLevelNamurDfa::CIndicationAlarmLowLevelNamurDfa()
        2      2   -> CDfaLite::SetFsmState(uint8_t)
        2      2   -> CIndicationAlarmLowLevelDfa::CIndicationAlarmLowLevelDfa()
      0      2   CIndicationAlarmLowLevelNamurDfa::IS_NAMUR_ON()
      0      2   CIndicationAlarmLowLevelNamurDfa::new CIndicationAlarmLowLevelNamurDfa()
        0      2   -> CIndicationAlarmLowLevelNamurDfa::CIndicationAlarmLowLevelNamurDfa()
        0      2   -> operator new(unsigned int)
      4      2   CIndicationAlarmLowLevelNamurDfa::~CIndicationAlarmLowLevelNamurDfa()
        4      2   -> CIndicationAlarmLowLevelDfa::~CIndicationAlarmLowLevelDfa()
        4      2   -> operator delete(void *)
      0      2   CNormalAlarmDfa::ACTIVE_LEVEL()
      0      2   CNormalAlarmDfa::ALARM_TYPE()
      2      2   CNormalAlarmDfa::CNormalAlarmDfa()
        2      2   -> CAlarmDfa::CAlarmDfa()
        2      2   -> CDfaLite::SetFsmState(uint8_t)
      0      2   CNormalAlarmDfa::IS_NAMUR_ON()
      0      2   CNormalAlarmDfa::new CNormalAlarmDfa()
        0      2   -> CNormalAlarmDfa::CNormalAlarmDfa()
        0      2   -> operator new(unsigned int)
      4      2   CNormalAlarmDfa::~CNormalAlarmDfa()
        4      2   -> CAlarmDfa::~CAlarmDfa()
        4      2   -> operator delete(void *)
      0      2   CPreventiveAlarmHighLevelDfa::ACTIVE_LEVEL()
      0      2   CPreventiveAlarmHighLevelDfa::ALARM_TYPE()
      2      2   CPreventiveAlarmHighLevelDfa::CPreventiveAlarmHighLevelDfa()
        2      2   -> CAlarmDfa::CAlarmDfa()
        2      2   -> CDfaLite::SetFsmState(uint8_t)
      0      2   CPreventiveAlarmHighLevelDfa::IS_NAMUR_ON()
      0      2   CPreventiveAlarmHighLevelDfa::new CPreventiveAlarmHighLevelDfa()
        0      2   -> CPreventiveAlarmHighLevelDfa::CPreventiveAlarmHighLevelDfa()
        0      2   -> operator new(unsigned int)
      4      2   CPreventiveAlarmHighLevelDfa::~CPreventiveAlarmHighLevelDfa()
        4      2   -> CAlarmDfa::~CAlarmDfa()
        4      2   -> operator delete(void *)
      0      2   CPreventiveAlarmHighLevelNamurDfa::ACTIVE_LEVEL()
      0      2   CPreventiveAlarmHighLevelNamurDfa::ALARM_TYPE()
      2      2   CPreventiveAlarmHighLevelNamurDfa::CPreventiveAlarmHighLevelNamurDfa()
        2      2   -> CAlarmDfa::CAlarmDfa()
        2      2   -> CDfaLite::SetFsmState(uint8_t)
      0      2   CPreventiveAlarmHighLevelNamurDfa::IS_NAMUR_ON()
      0      2   CPreventiveAlarmHighLevelNamurDfa::new CPreventiveAlarmHighLevelNamurDfa()
        0      2   -> CPreventiveAlarmHighLevelNamurDfa::CPreventiveAlarmHighLevelNamurDfa()
        0      2   -> operator new(unsigned int)
      4      2   CPreventiveAlarmHighLevelNamurDfa::~CPreventiveAlarmHighLevelNamurDfa()
        4      2   -> CAlarmDfa::~CAlarmDfa()
        4      2   -> operator delete(void *)
      0      2   CPreventiveAlarmLowLevelDfa::ACTIVE_LEVEL()
      0      2   CPreventiveAlarmLowLevelDfa::ALARM_TYPE()
      2      2   CPreventiveAlarmLowLevelDfa::CPreventiveAlarmLowLevelDfa()
        2      2   -> CAlarmDfa::CAlarmDfa()
        2      2   -> CDfaLite::SetFsmState(uint8_t)
      0      2   CPreventiveAlarmLowLevelDfa::IS_NAMUR_ON()
      0      2   CPreventiveAlarmLowLevelDfa::new CPreventiveAlarmLowLevelDfa()
        0      2   -> CPreventiveAlarmLowLevelDfa::CPreventiveAlarmLowLevelDfa()
        0      2   -> operator new(unsigned int)
      4      2   CPreventiveAlarmLowLevelDfa::~CPreventiveAlarmLowLevelDfa()
        4      2   -> CAlarmDfa::~CAlarmDfa()
        4      2   -> operator delete(void *)
      0      2   CPreventiveAlarmLowLevelNamurDfa::ACTIVE_LEVEL()
      0      2   CPreventiveAlarmLowLevelNamurDfa::ALARM_TYPE()
      2      2   CPreventiveAlarmLowLevelNamurDfa::CPreventiveAlarmLowLevelNamurDfa()
        2      2   -> CAlarmDfa::CAlarmDfa()
        2      2   -> CDfaLite::SetFsmState(uint8_t)
      0      2   CPreventiveAlarmLowLevelNamurDfa::IS_NAMUR_ON()
      0      2   CPreventiveAlarmLowLevelNamurDfa::new CPreventiveAlarmLowLevelNamurDfa()
        0      2   -> CPreventiveAlarmLowLevelNamurDfa::CPreventiveAlarmLowLevelNamurDfa()
        0      2   -> operator new(unsigned int)
      4      2   CPreventiveAlarmLowLevelNamurDfa::~CPreventiveAlarmLowLevelNamurDfa()
        4      2   -> CAlarmDfa::~CAlarmDfa()
        4      2   -> operator delete(void *)
      0      2   CPss21::GetAlarmWindowControlPointer(uint8_t)
        0      2 ?S_EC_MUL_L02
      0      2   CPss21::GetCommonAlarmType()
      0      2   CPss21::GetDiscreteSignalsReceipt()
      0      2   CPss21::GetDiscreteSignalsReset()
      0      2   CPss21::SetCommonAlarmType(uint8_t)


   Segment part sizes:

   Bytes  Function/Label
   -----  --------------
      26  ?<Jumptable for Fsm>_0
       6  CAlarmDfa::ACTIVE_LEVEL()
       6  CAlarmDfa::ALARM_TYPE()
      30  CAlarmDfa::CAlarmDfa()
     474  CAlarmDfa::DiscreteSignalStateCheck()
     890  CAlarmDfa::Fsm()
       6  CAlarmDfa::GetAlarmWindowIndex()
       6  CAlarmDfa::GetDiscreteStateIndex()
       6  CAlarmDfa::GetLinkedDiscreteOutputsPointer()
       6  CAlarmDfa::IS_NAMUR_ON()
      24  CAlarmDfa::new CAlarmDfa()
      40  CAlarmDfa::~CAlarmDfa()
       6  CAlarmWindow::SetActivityState(uint8_t)
       6  CDfaLite::GetFsmState()
       6  CDfaLite::SetFsmState(uint8_t)
       6  CEmergencyAlarmHighLevelDfa::ACTIVE_LEVEL()
       6  CEmergencyAlarmHighLevelDfa::ALARM_TYPE()
      36  CEmergencyAlarmHighLevelDfa::CEmergencyAlarmHighLevelDfa()
       6  CEmergencyAlarmHighLevelDfa::IS_NAMUR_ON()
      24  CEmergencyAlarmHighLevelDfa::new CEmergencyAlarmHighLevelDfa()
      38  CEmergencyAlarmHighLevelDfa::~CEmergencyAlarmHighLevelDfa()
       6  CEmergencyAlarmHighLevelNamurDfa::ACTIVE_LEVEL()
       6  CEmergencyAlarmHighLevelNamurDfa::ALARM_TYPE()
      36  CEmergencyAlarmHighLevelNamurDfa::CEmergencyAlarmHighLevelNamurDfa()
       6  CEmergencyAlarmHighLevelNamurDfa::IS_NAMUR_ON()
      24  CEmergencyAlarmHighLevelNamurDfa::new CEmergencyAlarmHighLevelNamurDfa()
      38  CEmergencyAlarmHighLevelNamurDfa::~CEmergencyAlarmHighLevelNamurDfa()
       6  CEmergencyAlarmLowLevelDfa::ACTIVE_LEVEL()
       6  CEmergencyAlarmLowLevelDfa::ALARM_TYPE()
      36  CEmergencyAlarmLowLevelDfa::CEmergencyAlarmLowLevelDfa()
       6  CEmergencyAlarmLowLevelDfa::IS_NAMUR_ON()
      24  CEmergencyAlarmLowLevelDfa::new CEmergencyAlarmLowLevelDfa()
      38  CEmergencyAlarmLowLevelDfa::~CEmergencyAlarmLowLevelDfa()
       6  CEmergencyAlarmLowLevelNamurDfa::ACTIVE_LEVEL()
       6  CEmergencyAlarmLowLevelNamurDfa::ALARM_TYPE()
      36  CEmergencyAlarmLowLevelNamurDfa::CEmergencyAlarmLowLevelNamurDfa()
       6  CEmergencyAlarmLowLevelNamurDfa::IS_NAMUR_ON()
      24  CEmergencyAlarmLowLevelNamurDfa::new CEmergencyAlarmLowLevelNamurDfa()
      38  CEmergencyAlarmLowLevelNamurDfa::~CEmergencyAlarmLowLevelNamurDfa()
       6  CErrorAlarmDfa::ACTIVE_LEVEL()
       6  CErrorAlarmDfa::ALARM_TYPE()
      38  CErrorAlarmDfa::CErrorAlarmDfa()
     318  CErrorAlarmDfa::Fsm()
       6  CErrorAlarmDfa::GetAlarmWindowIndex()
       6  CErrorAlarmDfa::GetDiscreteStateIndex()
      24  CErrorAlarmDfa::new CErrorAlarmDfa()
      40  CErrorAlarmDfa::~CErrorAlarmDfa()
       6  CIndicationAlarmHighLevelDfa::ACTIVE_LEVEL()
       6  CIndicationAlarmHighLevelDfa::ALARM_TYPE()
      36  CIndicationAlarmHighLevelDfa::CIndicationAlarmHighLevelDfa()
       6  CIndicationAlarmHighLevelDfa::IS_NAMUR_ON()
      24  CIndicationAlarmHighLevelDfa::new CIndicationAlarmHighLevelDfa()
      38  CIndicationAlarmHighLevelDfa::~CIndicationAlarmHighLevelDfa()
       6  CIndicationAlarmHighLevelNamurDfa::ACTIVE_LEVEL()
       6  CIndicationAlarmHighLevelNamurDfa::ALARM_TYPE()
      36  CIndicationAlarmHighLevelNamurDfa::CIndicationAlarmHighLevelNamurDfa()
       6  CIndicationAlarmHighLevelNamurDfa::IS_NAMUR_ON()
      24  CIndicationAlarmHighLevelNamurDfa::new CIndicationAlarmHighLevelNamurDfa()
      38  CIndicationAlarmHighLevelNamurDfa::~CIndicationAlarmHighLevelNamurDfa()
       6  CIndicationAlarmLowLevelDfa::ACTIVE_LEVEL()
       6  CIndicationAlarmLowLevelDfa::ALARM_TYPE()
      36  CIndicationAlarmLowLevelDfa::CIndicationAlarmLowLevelDfa()
     614  CIndicationAlarmLowLevelDfa::Fsm()
       6  CIndicationAlarmLowLevelDfa::IS_NAMUR_ON()
      24  CIndicationAlarmLowLevelDfa::new CIndicationAlarmLowLevelDfa()
      38  CIndicationAlarmLowLevelDfa::~CIndicationAlarmLowLevelDfa()
       6  CIndicationAlarmLowLevelNamurDfa::ACTIVE_LEVEL()
       6  CIndicationAlarmLowLevelNamurDfa::ALARM_TYPE()
      36  CIndicationAlarmLowLevelNamurDfa::CIndicationAlarmLowLevelNamurDfa()
       6  CIndicationAlarmLowLevelNamurDfa::IS_NAMUR_ON()
      24  CIndicationAlarmLowLevelNamurDfa::new CIndicationAlarmLowLevelNamurDfa()
      38  CIndicationAlarmLowLevelNamurDfa::~CIndicationAlarmLowLevelNamurDfa()
       6  CNormalAlarmDfa::ACTIVE_LEVEL()
       6  CNormalAlarmDfa::ALARM_TYPE()
      36  CNormalAlarmDfa::CNormalAlarmDfa()
       6  CNormalAlarmDfa::IS_NAMUR_ON()
      24  CNormalAlarmDfa::new CNormalAlarmDfa()
      38  CNormalAlarmDfa::~CNormalAlarmDfa()
       6  CPreventiveAlarmHighLevelDfa::ACTIVE_LEVEL()
       6  CPreventiveAlarmHighLevelDfa::ALARM_TYPE()
      36  CPreventiveAlarmHighLevelDfa::CPreventiveAlarmHighLevelDfa()
       6  CPreventiveAlarmHighLevelDfa::IS_NAMUR_ON()
      24  CPreventiveAlarmHighLevelDfa::new CPreventiveAlarmHighLevelDfa()
      38  CPreventiveAlarmHighLevelDfa::~CPreventiveAlarmHighLevelDfa()
       6  CPreventiveAlarmHighLevelNamurDfa::ACTIVE_LEVEL()
       6  CPreventiveAlarmHighLevelNamurDfa::ALARM_TYPE()
      36  CPreventiveAlarmHighLevelNamurDfa::CPreventiveAlarmHighLevelNamurDfa()
       6  CPreventiveAlarmHighLevelNamurDfa::IS_NAMUR_ON()
      24  CPreventiveAlarmHighLevelNamurDfa::new CPreventiveAlarmHighLevelNamurDfa()
      38  CPreventiveAlarmHighLevelNamurDfa::~CPreventiveAlarmHighLevelNamurDfa()
       6  CPreventiveAlarmLowLevelDfa::ACTIVE_LEVEL()
       6  CPreventiveAlarmLowLevelDfa::ALARM_TYPE()
      36  CPreventiveAlarmLowLevelDfa::CPreventiveAlarmLowLevelDfa()
       6  CPreventiveAlarmLowLevelDfa::IS_NAMUR_ON()
      24  CPreventiveAlarmLowLevelDfa::new CPreventiveAlarmLowLevelDfa()
      38  CPreventiveAlarmLowLevelDfa::~CPreventiveAlarmLowLevelDfa()
       6  CPreventiveAlarmLowLevelNamurDfa::ACTIVE_LEVEL()
       6  CPreventiveAlarmLowLevelNamurDfa::ALARM_TYPE()
      36  CPreventiveAlarmLowLevelNamurDfa::CPreventiveAlarmLowLevelNamurDfa()
       6  CPreventiveAlarmLowLevelNamurDfa::IS_NAMUR_ON()
      24  CPreventiveAlarmLowLevelNamurDfa::new CPreventiveAlarmLowLevelNamurDfa()
      38  CPreventiveAlarmLowLevelNamurDfa::~CPreventiveAlarmLowLevelNamurDfa()
      22  CPss21::GetAlarmWindowControlPointer(uint8_t)
       6  CPss21::GetCommonAlarmType()
       6  CPss21::GetDiscreteSignalsReceipt()
       6  CPss21::GetDiscreteSignalsReset()
       6  CPss21::SetCommonAlarmType(uint8_t)
       1  _A_ACSR
       2  _A_ADC
       1  _A_ADCSRA
       1  _A_ADMUX
       1  _A_ASSR
       1  _A_DDRA
       1  _A_DDRB
       1  _A_DDRC
       1  _A_DDRD
       1  _A_DDRE
       1  _A_DDRF
       1  _A_DDRG
       2  _A_EEAR
       1  _A_EECR
       1  _A_EEDR
       1  _A_EICRA
       1  _A_EICRB
       1  _A_EIFR
       1  _A_EIMSK
       1  _A_ETIFR
       1  _A_ETIMSK
       2  _A_ICR1
       2  _A_ICR3
       1  _A_MCUCR
       1  _A_MCUCSR
       1  _A_OCDR
       1  _A_OCR0
       2  _A_OCR1A
       2  _A_OCR1B
       2  _A_OCR1C
       1  _A_OCR2
       2  _A_OCR3A
       2  _A_OCR3B
       2  _A_OCR3C
       1  _A_OSCCAL
       1  _A_PINA
       1  _A_PINB
       1  _A_PINC
       1  _A_PIND
       1  _A_PINE
       1  _A_PINF
       1  _A_PING
       1  _A_PORTA
       1  _A_PORTB
       1  _A_PORTC
       1  _A_PORTD
       1  _A_PORTE
       1  _A_PORTF
       1  _A_PORTG
       1  _A_RAMPZ
       1  _A_SFIOR
       2  _A_SP
       1  _A_SPCR
       1  _A_SPDR
       1  _A_SPMCSR
       1  _A_SPSR
       1  _A_SREG
       1  _A_TCCR0
       1  _A_TCCR1A
       1  _A_TCCR1B
       1  _A_TCCR1C
       1  _A_TCCR2
       1  _A_TCCR3A
       1  _A_TCCR3B
       1  _A_TCCR3C
       1  _A_TCNT0
       2  _A_TCNT1
       1  _A_TCNT2
       2  _A_TCNT3
       1  _A_TIFR
       1  _A_TIMSK
       1  _A_TWAR
       1  _A_TWBR
       1  _A_TWCR
       1  _A_TWDR
       1  _A_TWSR
       1  _A_UBRR0H
       1  _A_UBRR0L
       1  _A_UBRR1H
       1  _A_UBRR1L
       1  _A_UCSR0A
       1  _A_UCSR0B
       1  _A_UCSR0C
       1  _A_UCSR1A
       1  _A_UCSR1B
       1  _A_UCSR1C
       1  _A_UDR0
       1  _A_UDR1
       1  _A_WDTCR
       1  _A_XDIV
       1  _A_XMCRA
       1  _A_XMCRB
     198  -- Other

 
   105 bytes in segment ABSOLUTE
 4 124 bytes in segment CODE
   198 bytes in segment NEAR_F
    26 bytes in segment SWITCH
 
 3 814 bytes of CODE memory (+ 534 bytes shared)
     0 bytes of DATA memory (+ 105 bytes shared)

Errors: none
Warnings: 7
