###############################################################################
#
# IAR C/C++ Compiler V7.10.6.1378 for Atmel AVR           13/Sep/2024  08:24:32
# Copyright 1996-2018 IAR Systems AB.
#
#    Source file  =  
#        D:\Projects\CurrentProjects\CautoProjects\PSS48Color\src\Alarm.cpp
#    Command line =  
#        -f C:\Users\Admin\AppData\Local\Temp\EW81FD.tmp
#        (--string_literals_in_flash
#        D:\Projects\CurrentProjects\CautoProjects\PSS48Color\src\Alarm.cpp
#        --cpu=m128a -ms -o
#        D:\Projects\CurrentProjects\CautoProjects\PSS48Color\Debug\Obj -lC
#        D:\Projects\CurrentProjects\CautoProjects\PSS48Color\Debug\List -lB
#        D:\Projects\CurrentProjects\CautoProjects\PSS48Color\Debug\List -y
#        --initializers_in_flash --root_variables --no_cse --no_inline
#        --no_code_motion --no_cross_call --no_clustering --no_tbaa --debug
#        -DENABLE_BIT_DEFINITIONS -e -I
#        D:\Projects\CurrentProjects\CautoProjects\PSS48Color\Modbus\ -I
#        D:\Projects\CurrentProjects\CautoProjects\PSS48Color\include\
#        --eeprom_size 4096 --dlib --dlib_config "C:\Program Files (x86)\IAR
#        Systems\Embedded Workbench 8.0\avr\LIB\DLIB\dlAVR-3s-ec_mul-n.h" -On
#        --eec++)
#    Locale       =  Russian_RUS.1251
#    List file    =  
#        D:\Projects\CurrentProjects\CautoProjects\PSS48Color\Debug\List\Alarm.lst
#    Object file  =  
#        D:\Projects\CurrentProjects\CautoProjects\PSS48Color\Debug\Obj\Alarm.r90
#
###############################################################################

D:\Projects\CurrentProjects\CautoProjects\PSS48Color\src\Alarm.cpp
      1          //-----------------------------------------------------------------------------------------------------
      2          //  Source      : FileName.cpp
      3          //  Created     : 01.06.2022
      4          //  Author      : Alexandr Volvenkin
      5          //  email       : aav-36@mail.ru
      6          //  GitHub      : https://github.com/AlexandrVolvenkin
      7          //-----------------------------------------------------------------------------------------------------
      8          #include "Dfa.h"

   \                                 In  segment CODE, align 2, keep-with-next
   \   __version_3 void CDfaLite::SetFsmState(uint8_t)
   \                     ??SetFsmState:
   \   00000000   01F8               MOVW    R31:R30, R17:R16
   \   00000002   8320               ST      Z, R18
   \   00000004   9508               RET

   \                                 In  segment CODE, align 2, keep-with-next
   \   __version_3 uint8_t CDfaLite::GetFsmState()
   \                     ??GetFsmState:
   \   00000000   01F8               MOVW    R31:R30, R17:R16
   \   00000002   8100               LD      R16, Z
   \   00000004   9508               RET
      9          #include "Platform.h"

   \                                 In  segment ABSOLUTE, at 0x9d, root
   \   union <unnamed> volatile __io _A_UCSR1C
   \                     _A_UCSR1C:
   \   00000000                      DS8 1

   \                                 In  segment ABSOLUTE, at 0x9c, root
   \   union <unnamed> volatile __io _A_UDR1
   \                     _A_UDR1:
   \   00000000                      DS8 1

   \                                 In  segment ABSOLUTE, at 0x9b, root
   \   union <unnamed> volatile __io _A_UCSR1A
   \                     _A_UCSR1A:
   \   00000000                      DS8 1

   \                                 In  segment ABSOLUTE, at 0x9a, root
   \   union <unnamed> volatile __io _A_UCSR1B
   \                     _A_UCSR1B:
   \   00000000                      DS8 1

   \                                 In  segment ABSOLUTE, at 0x99, root
   \   union <unnamed> volatile __io _A_UBRR1L
   \                     _A_UBRR1L:
   \   00000000                      DS8 1

   \                                 In  segment ABSOLUTE, at 0x98, root
   \   union <unnamed> volatile __io _A_UBRR1H
   \                     _A_UBRR1H:
   \   00000000                      DS8 1

   \                                 In  segment ABSOLUTE, at 0x95, root
   \   union <unnamed> volatile __io _A_UCSR0C
   \                     _A_UCSR0C:
   \   00000000                      DS8 1

   \                                 In  segment ABSOLUTE, at 0x90, root
   \   union <unnamed> volatile __io _A_UBRR0H
   \                     _A_UBRR0H:
   \   00000000                      DS8 1

   \                                 In  segment ABSOLUTE, at 0x8c, root
   \   union <unnamed> volatile __io _A_TCCR3C
   \                     _A_TCCR3C:
   \   00000000                      DS8 1

   \                                 In  segment ABSOLUTE, at 0x8b, root
   \   union <unnamed> volatile __io _A_TCCR3A
   \                     _A_TCCR3A:
   \   00000000                      DS8 1

   \                                 In  segment ABSOLUTE, at 0x8a, root
   \   union <unnamed> volatile __io _A_TCCR3B
   \                     _A_TCCR3B:
   \   00000000                      DS8 1

   \                                 In  segment ABSOLUTE, at 0x88, root
   \   union <unnamed> volatile __io _A_TCNT3
   \                     _A_TCNT3:
   \   00000000                      DS8 2

   \                                 In  segment ABSOLUTE, at 0x86, root
   \   union <unnamed> volatile __io _A_OCR3A
   \                     _A_OCR3A:
   \   00000000                      DS8 2

   \                                 In  segment ABSOLUTE, at 0x84, root
   \   union <unnamed> volatile __io _A_OCR3B
   \                     _A_OCR3B:
   \   00000000                      DS8 2

   \                                 In  segment ABSOLUTE, at 0x82, root
   \   union <unnamed> volatile __io _A_OCR3C
   \                     _A_OCR3C:
   \   00000000                      DS8 2

   \                                 In  segment ABSOLUTE, at 0x80, root
   \   union <unnamed> volatile __io _A_ICR3
   \                     _A_ICR3:
   \   00000000                      DS8 2

   \                                 In  segment ABSOLUTE, at 0x7d, root
   \   union <unnamed> volatile __io _A_ETIMSK
   \                     _A_ETIMSK:
   \   00000000                      DS8 1

   \                                 In  segment ABSOLUTE, at 0x7c, root
   \   union <unnamed> volatile __io _A_ETIFR
   \                     _A_ETIFR:
   \   00000000                      DS8 1

   \                                 In  segment ABSOLUTE, at 0x7a, root
   \   union <unnamed> volatile __io _A_TCCR1C
   \                     _A_TCCR1C:
   \   00000000                      DS8 1

   \                                 In  segment ABSOLUTE, at 0x78, root
   \   union <unnamed> volatile __io _A_OCR1C
   \                     _A_OCR1C:
   \   00000000                      DS8 2

   \                                 In  segment ABSOLUTE, at 0x74, root
   \   union <unnamed> volatile __io _A_TWCR
   \                     _A_TWCR:
   \   00000000                      DS8 1

   \                                 In  segment ABSOLUTE, at 0x73, root
   \   union <unnamed> volatile __io _A_TWDR
   \                     _A_TWDR:
   \   00000000                      DS8 1

   \                                 In  segment ABSOLUTE, at 0x72, root
   \   union <unnamed> volatile __io _A_TWAR
   \                     _A_TWAR:
   \   00000000                      DS8 1

   \                                 In  segment ABSOLUTE, at 0x71, root
   \   union <unnamed> volatile __io _A_TWSR
   \                     _A_TWSR:
   \   00000000                      DS8 1

   \                                 In  segment ABSOLUTE, at 0x70, root
   \   union <unnamed> volatile __io _A_TWBR
   \                     _A_TWBR:
   \   00000000                      DS8 1

   \                                 In  segment ABSOLUTE, at 0x6f, root
   \   union <unnamed> volatile __io _A_OSCCAL
   \                     _A_OSCCAL:
   \   00000000                      DS8 1

   \                                 In  segment ABSOLUTE, at 0x6d, root
   \   union <unnamed> volatile __io _A_XMCRA
   \                     _A_XMCRA:
   \   00000000                      DS8 1

   \                                 In  segment ABSOLUTE, at 0x6c, root
   \   union <unnamed> volatile __io _A_XMCRB
   \                     _A_XMCRB:
   \   00000000                      DS8 1

   \                                 In  segment ABSOLUTE, at 0x6a, root
   \   union <unnamed> volatile __io _A_EICRA
   \                     _A_EICRA:
   \   00000000                      DS8 1

   \                                 In  segment ABSOLUTE, at 0x68, root
   \   union <unnamed> volatile __io _A_SPMCSR
   \                     _A_SPMCSR:
   \   00000000                      DS8 1

   \                                 In  segment ABSOLUTE, at 0x65, root
   \   union <unnamed> volatile __io _A_PORTG
   \                     _A_PORTG:
   \   00000000                      DS8 1

   \                                 In  segment ABSOLUTE, at 0x64, root
   \   union <unnamed> volatile __io _A_DDRG
   \                     _A_DDRG:
   \   00000000                      DS8 1

   \                                 In  segment ABSOLUTE, at 0x63, root
   \   union <unnamed> volatile __io _A_PING
   \                     _A_PING:
   \   00000000                      DS8 1

   \                                 In  segment ABSOLUTE, at 0x62, root
   \   union <unnamed> volatile __io _A_PORTF
   \                     _A_PORTF:
   \   00000000                      DS8 1

   \                                 In  segment ABSOLUTE, at 0x61, root
   \   union <unnamed> volatile __io _A_DDRF
   \                     _A_DDRF:
   \   00000000                      DS8 1

   \                                 In  segment ABSOLUTE, at 0x5f, root
   \   union <unnamed> volatile __io _A_SREG
   \                     _A_SREG:
   \   00000000                      DS8 1

   \                                 In  segment ABSOLUTE, at 0x5d, root
   \   union <unnamed> volatile __io _A_SP
   \                     _A_SP:
   \   00000000                      DS8 2

   \                                 In  segment ABSOLUTE, at 0x5c, root
   \   union <unnamed> volatile __io _A_XDIV
   \                     _A_XDIV:
   \   00000000                      DS8 1

   \                                 In  segment ABSOLUTE, at 0x5b, root
   \   union <unnamed> volatile __io _A_RAMPZ
   \                     _A_RAMPZ:
   \   00000000                      DS8 1

   \                                 In  segment ABSOLUTE, at 0x5a, root
   \   union <unnamed> volatile __io _A_EICRB
   \                     _A_EICRB:
   \   00000000                      DS8 1

   \                                 In  segment ABSOLUTE, at 0x59, root
   \   union <unnamed> volatile __io _A_EIMSK
   \                     _A_EIMSK:
   \   00000000                      DS8 1

   \                                 In  segment ABSOLUTE, at 0x58, root
   \   union <unnamed> volatile __io _A_EIFR
   \                     _A_EIFR:
   \   00000000                      DS8 1

   \                                 In  segment ABSOLUTE, at 0x57, root
   \   union <unnamed> volatile __io _A_TIMSK
   \                     _A_TIMSK:
   \   00000000                      DS8 1

   \                                 In  segment ABSOLUTE, at 0x56, root
   \   union <unnamed> volatile __io _A_TIFR
   \                     _A_TIFR:
   \   00000000                      DS8 1

   \                                 In  segment ABSOLUTE, at 0x55, root
   \   union <unnamed> volatile __io _A_MCUCR
   \                     _A_MCUCR:
   \   00000000                      DS8 1

   \                                 In  segment ABSOLUTE, at 0x54, root
   \   union <unnamed> volatile __io _A_MCUCSR
   \                     _A_MCUCSR:
   \   00000000                      DS8 1

   \                                 In  segment ABSOLUTE, at 0x53, root
   \   union <unnamed> volatile __io _A_TCCR0
   \                     _A_TCCR0:
   \   00000000                      DS8 1

   \                                 In  segment ABSOLUTE, at 0x52, root
   \   union <unnamed> volatile __io _A_TCNT0
   \                     _A_TCNT0:
   \   00000000                      DS8 1

   \                                 In  segment ABSOLUTE, at 0x51, root
   \   union <unnamed> volatile __io _A_OCR0
   \                     _A_OCR0:
   \   00000000                      DS8 1

   \                                 In  segment ABSOLUTE, at 0x50, root
   \   union <unnamed> volatile __io _A_ASSR
   \                     _A_ASSR:
   \   00000000                      DS8 1

   \                                 In  segment ABSOLUTE, at 0x4f, root
   \   union <unnamed> volatile __io _A_TCCR1A
   \                     _A_TCCR1A:
   \   00000000                      DS8 1

   \                                 In  segment ABSOLUTE, at 0x4e, root
   \   union <unnamed> volatile __io _A_TCCR1B
   \                     _A_TCCR1B:
   \   00000000                      DS8 1

   \                                 In  segment ABSOLUTE, at 0x4c, root
   \   union <unnamed> volatile __io _A_TCNT1
   \                     _A_TCNT1:
   \   00000000                      DS8 2

   \                                 In  segment ABSOLUTE, at 0x4a, root
   \   union <unnamed> volatile __io _A_OCR1A
   \                     _A_OCR1A:
   \   00000000                      DS8 2

   \                                 In  segment ABSOLUTE, at 0x48, root
   \   union <unnamed> volatile __io _A_OCR1B
   \                     _A_OCR1B:
   \   00000000                      DS8 2

   \                                 In  segment ABSOLUTE, at 0x46, root
   \   union <unnamed> volatile __io _A_ICR1
   \                     _A_ICR1:
   \   00000000                      DS8 2

   \                                 In  segment ABSOLUTE, at 0x45, root
   \   union <unnamed> volatile __io _A_TCCR2
   \                     _A_TCCR2:
   \   00000000                      DS8 1

   \                                 In  segment ABSOLUTE, at 0x44, root
   \   union <unnamed> volatile __io _A_TCNT2
   \                     _A_TCNT2:
   \   00000000                      DS8 1

   \                                 In  segment ABSOLUTE, at 0x43, root
   \   union <unnamed> volatile __io _A_OCR2
   \                     _A_OCR2:
   \   00000000                      DS8 1

   \                                 In  segment ABSOLUTE, at 0x42, root
   \   union <unnamed> volatile __io _A_OCDR
   \                     _A_OCDR:
   \   00000000                      DS8 1

   \                                 In  segment ABSOLUTE, at 0x41, root
   \   union <unnamed> volatile __io _A_WDTCR
   \                     _A_WDTCR:
   \   00000000                      DS8 1

   \                                 In  segment ABSOLUTE, at 0x40, root
   \   union <unnamed> volatile __io _A_SFIOR
   \                     _A_SFIOR:
   \   00000000                      DS8 1

   \                                 In  segment ABSOLUTE, at 0x3e, root
   \   union <unnamed> volatile __io _A_EEAR
   \                     _A_EEAR:
   \   00000000                      DS8 2

   \                                 In  segment ABSOLUTE, at 0x3d, root
   \   union <unnamed> volatile __io _A_EEDR
   \                     _A_EEDR:
   \   00000000                      DS8 1

   \                                 In  segment ABSOLUTE, at 0x3c, root
   \   union <unnamed> volatile __io _A_EECR
   \                     _A_EECR:
   \   00000000                      DS8 1

   \                                 In  segment ABSOLUTE, at 0x3b, root
   \   union <unnamed> volatile __io _A_PORTA
   \                     _A_PORTA:
   \   00000000                      DS8 1

   \                                 In  segment ABSOLUTE, at 0x3a, root
   \   union <unnamed> volatile __io _A_DDRA
   \                     _A_DDRA:
   \   00000000                      DS8 1

   \                                 In  segment ABSOLUTE, at 0x39, root
   \   union <unnamed> volatile __io _A_PINA
   \                     _A_PINA:
   \   00000000                      DS8 1

   \                                 In  segment ABSOLUTE, at 0x38, root
   \   union <unnamed> volatile __io _A_PORTB
   \                     _A_PORTB:
   \   00000000                      DS8 1

   \                                 In  segment ABSOLUTE, at 0x37, root
   \   union <unnamed> volatile __io _A_DDRB
   \                     _A_DDRB:
   \   00000000                      DS8 1

   \                                 In  segment ABSOLUTE, at 0x36, root
   \   union <unnamed> volatile __io _A_PINB
   \                     _A_PINB:
   \   00000000                      DS8 1

   \                                 In  segment ABSOLUTE, at 0x35, root
   \   union <unnamed> volatile __io _A_PORTC
   \                     _A_PORTC:
   \   00000000                      DS8 1

   \                                 In  segment ABSOLUTE, at 0x34, root
   \   union <unnamed> volatile __io _A_DDRC
   \                     _A_DDRC:
   \   00000000                      DS8 1

   \                                 In  segment ABSOLUTE, at 0x33, root
   \   union <unnamed> volatile __io _A_PINC
   \                     _A_PINC:
   \   00000000                      DS8 1

   \                                 In  segment ABSOLUTE, at 0x32, root
   \   union <unnamed> volatile __io _A_PORTD
   \                     _A_PORTD:
   \   00000000                      DS8 1

   \                                 In  segment ABSOLUTE, at 0x31, root
   \   union <unnamed> volatile __io _A_DDRD
   \                     _A_DDRD:
   \   00000000                      DS8 1

   \                                 In  segment ABSOLUTE, at 0x30, root
   \   union <unnamed> volatile __io _A_PIND
   \                     _A_PIND:
   \   00000000                      DS8 1

   \                                 In  segment ABSOLUTE, at 0x2f, root
   \   union <unnamed> volatile __io _A_SPDR
   \                     _A_SPDR:
   \   00000000                      DS8 1

   \                                 In  segment ABSOLUTE, at 0x2e, root
   \   union <unnamed> volatile __io _A_SPSR
   \                     _A_SPSR:
   \   00000000                      DS8 1

   \                                 In  segment ABSOLUTE, at 0x2d, root
   \   union <unnamed> volatile __io _A_SPCR
   \                     _A_SPCR:
   \   00000000                      DS8 1

   \                                 In  segment ABSOLUTE, at 0x2c, root
   \   union <unnamed> volatile __io _A_UDR0
   \                     _A_UDR0:
   \   00000000                      DS8 1

   \                                 In  segment ABSOLUTE, at 0x2b, root
   \   union <unnamed> volatile __io _A_UCSR0A
   \                     _A_UCSR0A:
   \   00000000                      DS8 1

   \                                 In  segment ABSOLUTE, at 0x2a, root
   \   union <unnamed> volatile __io _A_UCSR0B
   \                     _A_UCSR0B:
   \   00000000                      DS8 1

   \                                 In  segment ABSOLUTE, at 0x29, root
   \   union <unnamed> volatile __io _A_UBRR0L
   \                     _A_UBRR0L:
   \   00000000                      DS8 1

   \                                 In  segment ABSOLUTE, at 0x28, root
   \   union <unnamed> volatile __io _A_ACSR
   \                     _A_ACSR:
   \   00000000                      DS8 1

   \                                 In  segment ABSOLUTE, at 0x27, root
   \   union <unnamed> volatile __io _A_ADMUX
   \                     _A_ADMUX:
   \   00000000                      DS8 1

   \                                 In  segment ABSOLUTE, at 0x26, root
   \   union <unnamed> volatile __io _A_ADCSRA
   \                     _A_ADCSRA:
   \   00000000                      DS8 1

   \                                 In  segment ABSOLUTE, at 0x24, root
   \   union <unnamed> volatile __io _A_ADC
   \                     _A_ADC:
   \   00000000                      DS8 2

   \                                 In  segment ABSOLUTE, at 0x23, root
   \   union <unnamed> volatile __io _A_PORTE
   \                     _A_PORTE:
   \   00000000                      DS8 1

   \                                 In  segment ABSOLUTE, at 0x22, root
   \   union <unnamed> volatile __io _A_DDRE
   \                     _A_DDRE:
   \   00000000                      DS8 1

   \                                 In  segment ABSOLUTE, at 0x21, root
   \   union <unnamed> volatile __io _A_PINE
   \                     _A_PINE:
   \   00000000                      DS8 1

   \                                 In  segment ABSOLUTE, at 0x20, root
   \   union <unnamed> volatile __io _A_PINF
   \                     _A_PINF:
   \   00000000                      DS8 1

      static __flash TDataBase CFlash::xMainDataBase;
                               ^
"D:\Projects\CurrentProjects\CautoProjects\PSS48Color\include\Platform.h",368  Warning[Pe427]: 
          qualified name is not allowed in member declaration

      static __flash TDataBaseBlockPositionData CFlash::axDataBaseBlocksPositionData[];
                                                ^
"D:\Projects\CurrentProjects\CautoProjects\PSS48Color\include\Platform.h",369  Warning[Pe427]: 
          qualified name is not allowed in member declaration
     10          #include "Pss21.h"

   \                                 In  segment CODE, align 2, keep-with-next
   \   __version_3 void CAlarmWindow::SetActivityState(uint8_t)
   \                     ??SetActivityState:
   \   00000000   01F8               MOVW    R31:R30, R17:R16
   \   00000002   8320               ST      Z, R18
   \   00000004   9508               RET

   \                                 In  segment CODE, align 2, keep-with-next
   \   __version_3 uint8_t CAlarmDfa::ALARM_TYPE()
   \                     ??ALARM_TYPE:
   \   00000000   0198               MOVW    R19:R18, R17:R16
   \   00000002   E000               LDI     R16, 0
   \   00000004   9508               RET

   \                                 In  segment CODE, align 2, keep-with-next
   \   __version_3 uint8_t CAlarmDfa::ACTIVE_LEVEL()
   \                     ??ACTIVE_LEVEL:
   \   00000000   0198               MOVW    R19:R18, R17:R16
   \   00000002   E000               LDI     R16, 0
   \   00000004   9508               RET

   \                                 In  segment CODE, align 2, keep-with-next
   \   __version_3 uint8_t CAlarmDfa::IS_NAMUR_ON()
   \                     ??IS_NAMUR_ON:
   \   00000000   0198               MOVW    R19:R18, R17:R16
   \   00000002   E000               LDI     R16, 0
   \   00000004   9508               RET

   \                                 In  segment CODE, align 2, keep-with-next
   \   __version_3 uint8_t CAlarmDfa::GetDiscreteStateIndex()
   \                     ??GetDiscreteStateIndex:
   \   00000000   01F8               MOVW    R31:R30, R17:R16
   \   00000002   8105               LDD     R16, Z+5
   \   00000004   9508               RET

   \                                 In  segment CODE, align 2, keep-with-next
   \   __version_3 uint8_t CAlarmDfa::GetAlarmWindowIndex()
   \                     ??GetAlarmWindowIndex:
   \   00000000   01F8               MOVW    R31:R30, R17:R16
   \   00000002   8103               LDD     R16, Z+3
   \   00000004   9508               RET

   \                                 In  segment CODE, align 2, keep-with-next
   \   __version_3 uint8_t *CAlarmDfa::GetLinkedDiscreteOutputsPointer()
   \                     ??GetLinkedDiscreteOutputsPointer:
   \   00000000   5F0C               SUBI    R16, 252
   \   00000002   4F1F               SBCI    R17, 255
   \   00000004   9508               RET

   \                                 In  segment CODE, align 2, keep-with-next
   \   __version_3 uint8_t CNormalAlarmDfa::ALARM_TYPE()
   \                     ??ALARM_TYPE_1:
   \   00000000   0198               MOVW    R19:R18, R17:R16
   \   00000002   E000               LDI     R16, 0
   \   00000004   9508               RET

   \                                 In  segment CODE, align 2, keep-with-next
   \   __version_3 uint8_t CNormalAlarmDfa::ACTIVE_LEVEL()
   \                     ??ACTIVE_LEVEL_1:
   \   00000000   0198               MOVW    R19:R18, R17:R16
   \   00000002   E000               LDI     R16, 0
   \   00000004   9508               RET

   \                                 In  segment CODE, align 2, keep-with-next
   \   __version_3 uint8_t CNormalAlarmDfa::IS_NAMUR_ON()
   \                     ??IS_NAMUR_ON_1:
   \   00000000   0198               MOVW    R19:R18, R17:R16
   \   00000002   E000               LDI     R16, 0
   \   00000004   9508               RET

   \                                 In  segment CODE, align 2, keep-with-next
   \   __version_3 uint8_t CPreventiveAlarmLowLevelDfa::ALARM_TYPE()
   \                     ??ALARM_TYPE_2:
   \   00000000   0198               MOVW    R19:R18, R17:R16
   \   00000002   E002               LDI     R16, 2
   \   00000004   9508               RET

   \                                 In  segment CODE, align 2, keep-with-next
   \   __version_3 uint8_t CPreventiveAlarmLowLevelDfa::ACTIVE_LEVEL()
   \                     ??ACTIVE_LEVEL_2:
   \   00000000   0198               MOVW    R19:R18, R17:R16
   \   00000002   E000               LDI     R16, 0
   \   00000004   9508               RET

   \                                 In  segment CODE, align 2, keep-with-next
   \   __version_3 uint8_t CPreventiveAlarmLowLevelDfa::IS_NAMUR_ON()
   \                     ??IS_NAMUR_ON_2:
   \   00000000   0198               MOVW    R19:R18, R17:R16
   \   00000002   E000               LDI     R16, 0
   \   00000004   9508               RET

   \                                 In  segment CODE, align 2, keep-with-next
   \   __version_3 uint8_t CPreventiveAlarmHighLevelDfa::ALARM_TYPE()
   \                     ??ALARM_TYPE_3:
   \   00000000   0198               MOVW    R19:R18, R17:R16
   \   00000002   E002               LDI     R16, 2
   \   00000004   9508               RET

   \                                 In  segment CODE, align 2, keep-with-next
   \   __version_3 uint8_t CPreventiveAlarmHighLevelDfa::ACTIVE_LEVEL()
   \                     ??ACTIVE_LEVEL_3:
   \   00000000   0198               MOVW    R19:R18, R17:R16
   \   00000002   E001               LDI     R16, 1
   \   00000004   9508               RET

   \                                 In  segment CODE, align 2, keep-with-next
   \   __version_3 uint8_t CPreventiveAlarmHighLevelDfa::IS_NAMUR_ON()
   \                     ??IS_NAMUR_ON_3:
   \   00000000   0198               MOVW    R19:R18, R17:R16
   \   00000002   E000               LDI     R16, 0
   \   00000004   9508               RET

   \                                 In  segment CODE, align 2, keep-with-next
   \   __version_3 uint8_t CPreventiveAlarmLowLevelNamurDfa::ALARM_TYPE()
   \                     ??ALARM_TYPE_4:
   \   00000000   0198               MOVW    R19:R18, R17:R16
   \   00000002   E002               LDI     R16, 2
   \   00000004   9508               RET

   \                                 In  segment CODE, align 2, keep-with-next
   \   __version_3 uint8_t CPreventiveAlarmLowLevelNamurDfa::ACTIVE_LEVEL()
   \                     ??ACTIVE_LEVEL_4:
   \   00000000   0198               MOVW    R19:R18, R17:R16
   \   00000002   E000               LDI     R16, 0
   \   00000004   9508               RET

   \                                 In  segment CODE, align 2, keep-with-next
   \   __version_3 uint8_t CPreventiveAlarmLowLevelNamurDfa::IS_NAMUR_ON()
   \                     ??IS_NAMUR_ON_4:
   \   00000000   0198               MOVW    R19:R18, R17:R16
   \   00000002   E001               LDI     R16, 1
   \   00000004   9508               RET

   \                                 In  segment CODE, align 2, keep-with-next
   \   __version_3 uint8_t CPreventiveAlarmHighLevelNamurDfa::ALARM_TYPE()
   \                     ??ALARM_TYPE_5:
   \   00000000   0198               MOVW    R19:R18, R17:R16
   \   00000002   E002               LDI     R16, 2
   \   00000004   9508               RET

   \                                 In  segment CODE, align 2, keep-with-next
   \   __version_3 uint8_t CPreventiveAlarmHighLevelNamurDfa::ACTIVE_LEVEL()
   \                     ??ACTIVE_LEVEL_5:
   \   00000000   0198               MOVW    R19:R18, R17:R16
   \   00000002   E001               LDI     R16, 1
   \   00000004   9508               RET

   \                                 In  segment CODE, align 2, keep-with-next
   \   __version_3 uint8_t CPreventiveAlarmHighLevelNamurDfa::IS_NAMUR_ON()
   \                     ??IS_NAMUR_ON_5:
   \   00000000   0198               MOVW    R19:R18, R17:R16
   \   00000002   E001               LDI     R16, 1
   \   00000004   9508               RET

   \                                 In  segment CODE, align 2, keep-with-next
   \   __version_3 uint8_t CEmergencyAlarmLowLevelDfa::ALARM_TYPE()
   \                     ??ALARM_TYPE_6:
   \   00000000   0198               MOVW    R19:R18, R17:R16
   \   00000002   E003               LDI     R16, 3
   \   00000004   9508               RET

   \                                 In  segment CODE, align 2, keep-with-next
   \   __version_3 uint8_t CEmergencyAlarmLowLevelDfa::ACTIVE_LEVEL()
   \                     ??ACTIVE_LEVEL_6:
   \   00000000   0198               MOVW    R19:R18, R17:R16
   \   00000002   E000               LDI     R16, 0
   \   00000004   9508               RET

   \                                 In  segment CODE, align 2, keep-with-next
   \   __version_3 uint8_t CEmergencyAlarmLowLevelDfa::IS_NAMUR_ON()
   \                     ??IS_NAMUR_ON_6:
   \   00000000   0198               MOVW    R19:R18, R17:R16
   \   00000002   E000               LDI     R16, 0
   \   00000004   9508               RET

   \                                 In  segment CODE, align 2, keep-with-next
   \   __version_3 uint8_t CEmergencyAlarmHighLevelDfa::ALARM_TYPE()
   \                     ??ALARM_TYPE_7:
   \   00000000   0198               MOVW    R19:R18, R17:R16
   \   00000002   E003               LDI     R16, 3
   \   00000004   9508               RET

   \                                 In  segment CODE, align 2, keep-with-next
   \   __version_3 uint8_t CEmergencyAlarmHighLevelDfa::ACTIVE_LEVEL()
   \                     ??ACTIVE_LEVEL_7:
   \   00000000   0198               MOVW    R19:R18, R17:R16
   \   00000002   E001               LDI     R16, 1
   \   00000004   9508               RET

   \                                 In  segment CODE, align 2, keep-with-next
   \   __version_3 uint8_t CEmergencyAlarmHighLevelDfa::IS_NAMUR_ON()
   \                     ??IS_NAMUR_ON_7:
   \   00000000   0198               MOVW    R19:R18, R17:R16
   \   00000002   E000               LDI     R16, 0
   \   00000004   9508               RET

   \                                 In  segment CODE, align 2, keep-with-next
   \   __version_3 uint8_t CEmergencyAlarmLowLevelNamurDfa::ALARM_TYPE()
   \                     ??ALARM_TYPE_8:
   \   00000000   0198               MOVW    R19:R18, R17:R16
   \   00000002   E003               LDI     R16, 3
   \   00000004   9508               RET

   \                                 In  segment CODE, align 2, keep-with-next
   \   __version_3 uint8_t CEmergencyAlarmLowLevelNamurDfa::ACTIVE_LEVEL()
   \                     ??ACTIVE_LEVEL_8:
   \   00000000   0198               MOVW    R19:R18, R17:R16
   \   00000002   E000               LDI     R16, 0
   \   00000004   9508               RET

   \                                 In  segment CODE, align 2, keep-with-next
   \   __version_3 uint8_t CEmergencyAlarmLowLevelNamurDfa::IS_NAMUR_ON()
   \                     ??IS_NAMUR_ON_8:
   \   00000000   0198               MOVW    R19:R18, R17:R16
   \   00000002   E001               LDI     R16, 1
   \   00000004   9508               RET

   \                                 In  segment CODE, align 2, keep-with-next
   \   __version_3 uint8_t CEmergencyAlarmHighLevelNamurDfa::ALARM_TYPE()
   \                     ??ALARM_TYPE_9:
   \   00000000   0198               MOVW    R19:R18, R17:R16
   \   00000002   E003               LDI     R16, 3
   \   00000004   9508               RET

   \                                 In  segment CODE, align 2, keep-with-next
   \   __version_3 uint8_t CEmergencyAlarmHighLevelNamurDfa::ACTIVE_LEVEL()
   \                     ??ACTIVE_LEVEL_9:
   \   00000000   0198               MOVW    R19:R18, R17:R16
   \   00000002   E001               LDI     R16, 1
   \   00000004   9508               RET

   \                                 In  segment CODE, align 2, keep-with-next
   \   __version_3 uint8_t CEmergencyAlarmHighLevelNamurDfa::IS_NAMUR_ON()
   \                     ??IS_NAMUR_ON_9:
   \   00000000   0198               MOVW    R19:R18, R17:R16
   \   00000002   E001               LDI     R16, 1
   \   00000004   9508               RET

   \                                 In  segment CODE, align 2, keep-with-next
   \   __version_3 uint8_t CIndicationAlarmLowLevelDfa::ALARM_TYPE()
   \                     ??ALARM_TYPE_10:
   \   00000000   0198               MOVW    R19:R18, R17:R16
   \   00000002   E001               LDI     R16, 1
   \   00000004   9508               RET

   \                                 In  segment CODE, align 2, keep-with-next
   \   __version_3 uint8_t CIndicationAlarmLowLevelDfa::ACTIVE_LEVEL()
   \                     ??ACTIVE_LEVEL_10:
   \   00000000   0198               MOVW    R19:R18, R17:R16
   \   00000002   E000               LDI     R16, 0
   \   00000004   9508               RET

   \                                 In  segment CODE, align 2, keep-with-next
   \   __version_3 uint8_t CIndicationAlarmLowLevelDfa::IS_NAMUR_ON()
   \                     ??IS_NAMUR_ON_10:
   \   00000000   0198               MOVW    R19:R18, R17:R16
   \   00000002   E000               LDI     R16, 0
   \   00000004   9508               RET

   \                                 In  segment CODE, align 2, keep-with-next
   \   __version_3 uint8_t CIndicationAlarmHighLevelDfa::ALARM_TYPE()
   \                     ??ALARM_TYPE_11:
   \   00000000   0198               MOVW    R19:R18, R17:R16
   \   00000002   E001               LDI     R16, 1
   \   00000004   9508               RET

   \                                 In  segment CODE, align 2, keep-with-next
   \   __version_3 uint8_t CIndicationAlarmHighLevelDfa::ACTIVE_LEVEL()
   \                     ??ACTIVE_LEVEL_11:
   \   00000000   0198               MOVW    R19:R18, R17:R16
   \   00000002   E001               LDI     R16, 1
   \   00000004   9508               RET

   \                                 In  segment CODE, align 2, keep-with-next
   \   __version_3 uint8_t CIndicationAlarmHighLevelDfa::IS_NAMUR_ON()
   \                     ??IS_NAMUR_ON_11:
   \   00000000   0198               MOVW    R19:R18, R17:R16
   \   00000002   E000               LDI     R16, 0
   \   00000004   9508               RET

   \                                 In  segment CODE, align 2, keep-with-next
   \   __version_3 uint8_t CIndicationAlarmLowLevelNamurDfa::ALARM_TYPE()
   \                     ??ALARM_TYPE_12:
   \   00000000   0198               MOVW    R19:R18, R17:R16
   \   00000002   E001               LDI     R16, 1
   \   00000004   9508               RET

   \                                 In  segment CODE, align 2, keep-with-next
   \   __version_3 uint8_t CIndicationAlarmLowLevelNamurDfa::ACTIVE_LEVEL()
   \                     ??ACTIVE_LEVEL_12:
   \   00000000   0198               MOVW    R19:R18, R17:R16
   \   00000002   E000               LDI     R16, 0
   \   00000004   9508               RET

   \                                 In  segment CODE, align 2, keep-with-next
   \   __version_3 uint8_t CIndicationAlarmLowLevelNamurDfa::IS_NAMUR_ON()
   \                     ??IS_NAMUR_ON_12:
   \   00000000   0198               MOVW    R19:R18, R17:R16
   \   00000002   E001               LDI     R16, 1
   \   00000004   9508               RET

   \                                 In  segment CODE, align 2, keep-with-next
   \   __version_3 uint8_t CIndicationAlarmHighLevelNamurDfa::ALARM_TYPE()
   \                     ??ALARM_TYPE_13:
   \   00000000   0198               MOVW    R19:R18, R17:R16
   \   00000002   E001               LDI     R16, 1
   \   00000004   9508               RET

   \                                 In  segment CODE, align 2, keep-with-next
   \   __version_3 uint8_t CIndicationAlarmHighLevelNamurDfa::ACTIVE_LEVEL()
   \                     ??ACTIVE_LEVEL_13:
   \   00000000   0198               MOVW    R19:R18, R17:R16
   \   00000002   E001               LDI     R16, 1
   \   00000004   9508               RET

   \                                 In  segment CODE, align 2, keep-with-next
   \   __version_3 uint8_t CIndicationAlarmHighLevelNamurDfa::IS_NAMUR_ON()
   \                     ??IS_NAMUR_ON_13:
   \   00000000   0198               MOVW    R19:R18, R17:R16
   \   00000002   E001               LDI     R16, 1
   \   00000004   9508               RET

   \                                 In  segment CODE, align 2, keep-with-next
   \   __version_3 uint8_t CErrorAlarmDfa::ALARM_TYPE()
   \                     ??ALARM_TYPE_14:
   \   00000000   0198               MOVW    R19:R18, R17:R16
   \   00000002   E007               LDI     R16, 7
   \   00000004   9508               RET

   \                                 In  segment CODE, align 2, keep-with-next
   \   __version_3 uint8_t CErrorAlarmDfa::ACTIVE_LEVEL()
   \                     ??ACTIVE_LEVEL_14:
   \   00000000   0198               MOVW    R19:R18, R17:R16
   \   00000002   E000               LDI     R16, 0
   \   00000004   9508               RET

   \                                 In  segment CODE, align 2, keep-with-next
   \   __version_3 uint8_t CErrorAlarmDfa::GetDiscreteStateIndex()
   \                     ??GetDiscreteStateIndex_1:
   \   00000000   01F8               MOVW    R31:R30, R17:R16
   \   00000002   8104               LDD     R16, Z+4
   \   00000004   9508               RET

   \                                 In  segment CODE, align 2, keep-with-next
   \   __version_3 uint8_t CErrorAlarmDfa::GetAlarmWindowIndex()
   \                     ??GetAlarmWindowIndex_1:
   \   00000000   01F8               MOVW    R31:R30, R17:R16
   \   00000002   8103               LDD     R16, Z+3
   \   00000004   9508               RET

      virtual bool IsSolved(void) {};
                                   ^
"D:\Projects\CurrentProjects\CautoProjects\PSS48Color\include\Task.h",20  Warning[Pe940]: 
          missing return statement at end of non-void function
          "CTaskInterface::IsSolved"

      virtual bool IsSourceStateActive(void) {};
                                              ^
"D:\Projects\CurrentProjects\CautoProjects\PSS48Color\include\Task.h",23  Warning[Pe940]: 
          missing return statement at end of non-void function
          "CTaskInterface::IsSourceStateActive"

      bool IsSolved(void) {};
                           ^
"D:\Projects\CurrentProjects\CautoProjects\PSS48Color\include\Task.h",58  Warning[Pe940]: 
          missing return statement at end of non-void function
          "CIsRegularButtonPressedInterface::IsSolved"

      virtual bool IsSourceStateActive(void) {};
                                              ^
"D:\Projects\CurrentProjects\CautoProjects\PSS48Color\include\Task.h",61  Warning[Pe940]: 
          missing return statement at end of non-void function
          "CIsRegularButtonPressedInterface::IsSourceStateActive"

      virtual uint16_t KEY_PRESSED_TIME(void) {};
                                               ^
"D:\Projects\CurrentProjects\CautoProjects\PSS48Color\include\Task.h",63  Warning[Pe940]: 
          missing return statement at end of non-void function
          "CIsRegularButtonPressedInterface::KEY_PRESSED_TIME"

   \                                 In  segment CODE, align 2, keep-with-next
   \   __version_3 uint8_t CPss21::GetDiscreteSignalsReceipt()
   \                     ??GetDiscreteSignalsReceipt:
   \   00000000   9100....           LDS     R16, ??m_uiDiscreteSignalsReceipt
   \   00000004   9508               RET

   \                                 In  segment CODE, align 2, keep-with-next
   \   __version_3 uint8_t CPss21::GetDiscreteSignalsReset()
   \                     ??GetDiscreteSignalsReset:
   \   00000000   9100....           LDS     R16, ??m_uiDiscreteSignalsReset
   \   00000004   9508               RET

   \                                 In  segment CODE, align 2, keep-with-next
   \   __version_3 void CPss21::SetCommonAlarmType(uint8_t)
   \                     ??SetCommonAlarmType:
   \   00000000   9300....           STS     ??m_uiCommonAlarmType, R16
   \   00000004   9508               RET

   \                                 In  segment CODE, align 2, keep-with-next
   \   __version_3 uint8_t CPss21::GetCommonAlarmType()
   \                     ??GetCommonAlarmType:
   \   00000000   9100....           LDS     R16, ??m_uiCommonAlarmType
   \   00000004   9508               RET

   \                                 In  segment CODE, align 2, keep-with-next
   \   __version_3 CAlarmWindow *CPss21::GetAlarmWindowControlPointer(uint8_t)
   \                     ??GetAlarmWindowControlPointer:
   \   00000000   E010               LDI     R17, 0
   \   00000002   E048               LDI     R20, 8
   \   00000004   E050               LDI     R21, 0
   \   00000006   ........           CALL    ?S_EC_MUL_L02
   \   0000000A   0198               MOVW    R19:R18, R17:R16
   \   0000000C   ....               LDI     R16, LOW(??m_axAlarmWindowControl)
   \   0000000E   ....               LDI     R17, (??m_axAlarmWindowControl) >> 8
   \   00000010   0F02               ADD     R16, R18
   \   00000012   1F13               ADC     R17, R19
   \   00000014   9508               RET
     11          
     12          //-----------------------------------------------------------------------------------------------------

   \                                 In  segment CODE, align 2, keep-with-next
     13          CAlarmDfa::CAlarmDfa()
   \                     ??CAlarmDfa:
   \   00000000   93BA               ST      -Y, R27
   \   00000002   93AA               ST      -Y, R26
   \   00000004   01D8               MOVW    R27:R26, R17:R16
     14          {
   \   00000006   018D               MOVW    R17:R16, R27:R26
   \   00000008   ........           CALL    ??CDfaLite
   \   0000000C   ....               LDI     R16, LOW(??__vtbl_1)
   \   0000000E   ....               LDI     R17, (??__vtbl_1) >> 8
   \   00000010   01FD               MOVW    R31:R30, R27:R26
   \   00000012   8301               STD     Z+1, R16
   \   00000014   8312               STD     Z+2, R17
     15              //ctor
     16          }
   \   00000016   018D               MOVW    R17:R16, R27:R26
   \   00000018   91A9               LD      R26, Y+
   \   0000001A   91B9               LD      R27, Y+
   \   0000001C   9508               RET
     17          
     18          //-----------------------------------------------------------------------------------------------------

   \                                 In  segment CODE, align 2, keep-with-next
     19          CAlarmDfa::~CAlarmDfa()
   \                     `?~CAlarmDfa`:
     20          {
   \   00000000   ........           CALL    ?PROLOGUE4_L09
   \   00000004   01C8               MOVW    R25:R24, R17:R16
   \   00000006   01D9               MOVW    R27:R26, R19:R18
   \   00000008   2F08               MOV     R16, R24
   \   0000000A   2B09               OR      R16, R25
   \   0000000C   F051               BREQ    `?~CAlarmDfa_1`
     21              //dtor
     22          }
   \   0000000E   E020               LDI     R18, 0
   \   00000010   E030               LDI     R19, 0
   \   00000012   018C               MOVW    R17:R16, R25:R24
   \   00000014   ........           CALL    `?~CDfaLite`
   \   00000018   FBA0               BST     R26, 0
   \   0000001A   F41E               BRTC    `?~CAlarmDfa_1`
   \   0000001C   018C               MOVW    R17:R16, R25:R24
   \   0000001E   ........           CALL    `??operator delete`
   \                     `?~CAlarmDfa_1`:
   \   00000022   E0E4               LDI     R30, 4
   \   00000024   ........           JMP     ?EPILOGUE_B4_L09
     23          
     24          //-----------------------------------------------------------------------------------------------------
     25          // Автомат обработки сигнализации дискретного сигнала.

   \                                 In  segment CODE, align 2, keep-with-next
     26          void CAlarmDfa::Fsm(void)
   \                     ??Fsm:
     27          {
   \   00000000   ........           CALL    ?PROLOGUE5_L09
   \   00000004                      REQUIRE ?Register_R4_is_cg_reg
   \   00000004   01D8               MOVW    R27:R26, R17:R16
     28              bool bIsDiscreteInputStateActive = false;
   \   00000006   E080               LDI     R24, 0
     29              bool bIsNamurActive = false;
   \   00000008   E090               LDI     R25, 0
     30              // тип текущего дискретного сигнала namur?
     31              if (IS_NAMUR_ON())
   \   0000000A   018D               MOVW    R17:R16, R27:R26
   \   0000000C   01FD               MOVW    R31:R30, R27:R26
   \   0000000E   8121               LDD     R18, Z+1
   \   00000010   8132               LDD     R19, Z+2
   \   00000012   01F9               MOVW    R31:R30, R19:R18
   \   00000014   9638               ADIW    R31:R30, 8
   \   00000016   9125               LPM     R18, Z+
   \   00000018   9134               LPM     R19, Z
   \   0000001A   9739               SBIW    R31:R30, 9
   \   0000001C   01F9               MOVW    R31:R30, R19:R18
   \   0000001E   9509               ICALL
   \   00000020   2300               TST     R16
   \   00000022   F011               BREQ    ??Fsm_3
   \   00000024   E001               LDI     R16, 1
   \   00000026   C001               RJMP    ??Fsm_4
   \                     ??Fsm_3:
   \   00000028   E000               LDI     R16, 0
   \                     ??Fsm_4:
   \   0000002A   2300               TST     R16
   \   0000002C   F409               BRNE    $+2+2
   \   0000002E   C06B               RJMP    ??Fsm_5
     32              {
     33                  switch (CPss21::GetDiscreteInputsBadState(GetDiscreteStateIndex()))
   \   00000030   018D               MOVW    R17:R16, R27:R26
   \   00000032   ........           CALL    ??GetDiscreteStateIndex
   \   00000036   ........           CALL    ??GetDiscreteInputsBadState
   \   0000003A   5000               SUBI    R16, 0
   \   0000003C   F049               BREQ    ??Fsm_6
   \   0000003E   950A               DEC     R16
   \   00000040   F039               BREQ    ??Fsm_6
   \   00000042   950A               DEC     R16
   \   00000044   F409               BRNE    $+2+2
   \   00000046   C056               RJMP    ??Fsm_7
   \   00000048   950A               DEC     R16
   \   0000004A   F409               BRNE    $+2+2
   \   0000004C   C053               RJMP    ??Fsm_7
   \   0000004E   C0CC               RJMP    ??Fsm_8
     34                  {
     35                  case OFF:
     36                  case ON:
     37                      // Дискретный сигнал активен?
     38                      // уровень сигналы типа "СУХОЙ КОНТАКТ" (СК) определяем по состояниям дискретного входа:
     39                      // 2 - обрыв(разомкнуто), и 3 - КЗ(замкнуто).
     40                      if (ACTIVE_LEVEL())
   \                     ??Fsm_6:
   \   00000050   018D               MOVW    R17:R16, R27:R26
   \   00000052   01FD               MOVW    R31:R30, R27:R26
   \   00000054   8121               LDD     R18, Z+1
   \   00000056   8132               LDD     R19, Z+2
   \   00000058   01F9               MOVW    R31:R30, R19:R18
   \   0000005A   9636               ADIW    R31:R30, 6
   \   0000005C   9125               LPM     R18, Z+
   \   0000005E   9134               LPM     R19, Z
   \   00000060   9737               SBIW    R31:R30, 7
   \   00000062   01F9               MOVW    R31:R30, R19:R18
   \   00000064   9509               ICALL
   \   00000066   2300               TST     R16
   \   00000068   F011               BREQ    ??Fsm_9
   \   0000006A   E001               LDI     R16, 1
   \   0000006C   C001               RJMP    ??Fsm_10
   \                     ??Fsm_9:
   \   0000006E   E000               LDI     R16, 0
   \                     ??Fsm_10:
   \   00000070   2300               TST     R16
   \   00000072   F101               BREQ    ??Fsm_11
     41                      {
     42                          if ((CPss21::GetDiscreteInputsBadState(GetDiscreteStateIndex()) & 0x03) == 0)
   \   00000074   018D               MOVW    R17:R16, R27:R26
   \   00000076   ........           CALL    ??GetDiscreteStateIndex
   \   0000007A   ........           CALL    ??GetDiscreteInputsBadState
   \   0000007E   7003               ANDI    R16, 0x03
   \   00000080   2300               TST     R16
   \   00000082   F441               BRNE    ??Fsm_12
     43                          {
     44                              bIsDiscreteInputStateActive = true;
   \   00000084   E081               LDI     R24, 1
     45                              // установим значение текущего дискретного входа отображаемое в пространстве модбас
     46                              // интерпретированное с учетом условия активности.
     47                              CPss21::SetDiscreteInputState(GetDiscreteStateIndex(), 1);
   \   00000086   018D               MOVW    R17:R16, R27:R26
   \   00000088   ........           CALL    ??GetDiscreteStateIndex
   \   0000008C   E011               LDI     R17, 1
   \   0000008E   ........           CALL    ??SetDiscreteInputState
   \   00000092   C0AA               RJMP    ??Fsm_8
     48                          }
     49                          else if ((CPss21::GetDiscreteInputsBadState(GetDiscreteStateIndex()) & 0x03) == 1)
   \                     ??Fsm_12:
   \   00000094   018D               MOVW    R17:R16, R27:R26
   \   00000096   ........           CALL    ??GetDiscreteStateIndex
   \   0000009A   ........           CALL    ??GetDiscreteInputsBadState
   \   0000009E   7003               ANDI    R16, 0x03
   \   000000A0   3001               CPI     R16, 1
   \   000000A2   F539               BRNE    ??Fsm_13
     50                          {
     51                              bIsDiscreteInputStateActive = false;
   \   000000A4   E080               LDI     R24, 0
     52                              // установим значение текущего дискретного входа отображаемое в пространстве модбас
     53                              // интерпретированное с учетом условия активности.
     54                              CPss21::SetDiscreteInputState(GetDiscreteStateIndex(), 0);
   \   000000A6   018D               MOVW    R17:R16, R27:R26
   \   000000A8   ........           CALL    ??GetDiscreteStateIndex
   \   000000AC   E010               LDI     R17, 0
   \   000000AE   ........           CALL    ??SetDiscreteInputState
   \   000000B2   C09A               RJMP    ??Fsm_8
     55                          }
     56                      }
     57                      else
     58                      {
     59                          if ((CPss21::GetDiscreteInputsBadState(GetDiscreteStateIndex()) & 0x03) == 1)
   \                     ??Fsm_11:
   \   000000B4   018D               MOVW    R17:R16, R27:R26
   \   000000B6   ........           CALL    ??GetDiscreteStateIndex
   \   000000BA   ........           CALL    ??GetDiscreteInputsBadState
   \   000000BE   7003               ANDI    R16, 0x03
   \   000000C0   3001               CPI     R16, 1
   \   000000C2   F441               BRNE    ??Fsm_14
     60                          {
     61                              bIsDiscreteInputStateActive = true;
   \   000000C4   E081               LDI     R24, 1
     62                              // установим значение текущего дискретного входа отображаемое в пространстве модбас
     63                              // интерпретированное с учетом условия активности.
     64                              CPss21::SetDiscreteInputState(GetDiscreteStateIndex(), 1);
   \   000000C6   018D               MOVW    R17:R16, R27:R26
   \   000000C8   ........           CALL    ??GetDiscreteStateIndex
   \   000000CC   E011               LDI     R17, 1
   \   000000CE   ........           CALL    ??SetDiscreteInputState
   \   000000D2   C08A               RJMP    ??Fsm_8
     65                          }
     66                          else if ((CPss21::GetDiscreteInputsBadState(GetDiscreteStateIndex()) & 0x03) == 0)
   \                     ??Fsm_14:
   \   000000D4   018D               MOVW    R17:R16, R27:R26
   \   000000D6   ........           CALL    ??GetDiscreteStateIndex
   \   000000DA   ........           CALL    ??GetDiscreteInputsBadState
   \   000000DE   7003               ANDI    R16, 0x03
   \   000000E0   2300               TST     R16
   \   000000E2   F439               BRNE    ??Fsm_13
     67                          {
     68                              bIsDiscreteInputStateActive = false;
   \   000000E4   E080               LDI     R24, 0
     69                              // установим значение текущего дискретного входа отображаемое в пространстве модбас
     70                              // интерпретированное с учетом условия активности.
     71                              CPss21::SetDiscreteInputState(GetDiscreteStateIndex(), 0);
   \   000000E6   018D               MOVW    R17:R16, R27:R26
   \   000000E8   ........           CALL    ??GetDiscreteStateIndex
   \   000000EC   E010               LDI     R17, 0
   \   000000EE   ........           CALL    ??SetDiscreteInputState
     72                          }
     73                      }
     74                      break;
   \                     ??Fsm_13:
   \   000000F2   C07A               RJMP    ??Fsm_8
     75          
     76                  case WIRE_BREAK:
     77                  case SHORT_CIRCUIT:
     78                      bIsDiscreteInputStateActive = false;
   \                     ??Fsm_7:
   \   000000F4   E080               LDI     R24, 0
     79                      bIsNamurActive = true;
   \   000000F6   E091               LDI     R25, 1
     80                      // установим значение текущего дискретного входа отображаемое в пространстве модбас
     81                      // интерпретированное с учетом условия активности.
     82                      CPss21::SetDiscreteInputState(GetDiscreteStateIndex(), 0);
   \   000000F8   018D               MOVW    R17:R16, R27:R26
   \   000000FA   ........           CALL    ??GetDiscreteStateIndex
   \   000000FE   E010               LDI     R17, 0
   \   00000100   ........           CALL    ??SetDiscreteInputState
     83                      break;
   \   00000104   C071               RJMP    ??Fsm_8
     84          
     85                  default:
     86                      break;
     87                  }
     88              }
     89              else
     90              {
     91                  // Дискретный сигнал активен?
     92                  // уровень сигналы типа "СУХОЙ КОНТАКТ" (СК) определяем по состояниям дискретного входа:
     93                  // 2 - обрыв(разомкнуто), и 3 - КЗ(замкнуто).
     94                  if (ACTIVE_LEVEL())
   \                     ??Fsm_5:
   \   00000106   018D               MOVW    R17:R16, R27:R26
   \   00000108   01FD               MOVW    R31:R30, R27:R26
   \   0000010A   8121               LDD     R18, Z+1
   \   0000010C   8132               LDD     R19, Z+2
   \   0000010E   01F9               MOVW    R31:R30, R19:R18
   \   00000110   9636               ADIW    R31:R30, 6
   \   00000112   9125               LPM     R18, Z+
   \   00000114   9134               LPM     R19, Z
   \   00000116   9737               SBIW    R31:R30, 7
   \   00000118   01F9               MOVW    R31:R30, R19:R18
   \   0000011A   9509               ICALL
   \   0000011C   2300               TST     R16
   \   0000011E   F011               BREQ    ??Fsm_15
   \   00000120   E001               LDI     R16, 1
   \   00000122   C001               RJMP    ??Fsm_16
   \                     ??Fsm_15:
   \   00000124   E000               LDI     R16, 0
   \                     ??Fsm_16:
   \   00000126   2300               TST     R16
   \   00000128   F181               BREQ    ??Fsm_17
     95                  {
     96                      if (((CPss21::GetDiscreteInputsBadState(GetDiscreteStateIndex()) & 0x03) == 2) ||
     97                              ((CPss21::GetDiscreteInputsBadState(GetDiscreteStateIndex()) & 0x03) == 1))
   \   0000012A   018D               MOVW    R17:R16, R27:R26
   \   0000012C   ........           CALL    ??GetDiscreteStateIndex
   \   00000130   ........           CALL    ??GetDiscreteInputsBadState
   \   00000134   7003               ANDI    R16, 0x03
   \   00000136   3002               CPI     R16, 2
   \   00000138   F041               BREQ    ??Fsm_18
   \   0000013A   018D               MOVW    R17:R16, R27:R26
   \   0000013C   ........           CALL    ??GetDiscreteStateIndex
   \   00000140   ........           CALL    ??GetDiscreteInputsBadState
   \   00000144   7003               ANDI    R16, 0x03
   \   00000146   3001               CPI     R16, 1
   \   00000148   F441               BRNE    ??Fsm_19
     98                      {
     99                          bIsDiscreteInputStateActive = true;
   \                     ??Fsm_18:
   \   0000014A   E081               LDI     R24, 1
    100                          // установим значение текущего дискретного входа отображаемое в пространстве модбас
    101                          // интерпретированное с учетом условия активности.
    102                          CPss21::SetDiscreteInputState(GetDiscreteStateIndex(), 1);
   \   0000014C   018D               MOVW    R17:R16, R27:R26
   \   0000014E   ........           CALL    ??GetDiscreteStateIndex
   \   00000152   E011               LDI     R17, 1
   \   00000154   ........           CALL    ??SetDiscreteInputState
   \   00000158   C047               RJMP    ??Fsm_8
    103                      }
    104                      else if (((CPss21::GetDiscreteInputsBadState(GetDiscreteStateIndex()) & 0x03) == 3) ||
    105                               ((CPss21::GetDiscreteInputsBadState(GetDiscreteStateIndex()) & 0x03) == 0))
   \                     ??Fsm_19:
   \   0000015A   018D               MOVW    R17:R16, R27:R26
   \   0000015C   ........           CALL    ??GetDiscreteStateIndex
   \   00000160   ........           CALL    ??GetDiscreteInputsBadState
   \   00000164   7003               ANDI    R16, 0x03
   \   00000166   3003               CPI     R16, 3
   \   00000168   F041               BREQ    ??Fsm_20
   \   0000016A   018D               MOVW    R17:R16, R27:R26
   \   0000016C   ........           CALL    ??GetDiscreteStateIndex
   \   00000170   ........           CALL    ??GetDiscreteInputsBadState
   \   00000174   7003               ANDI    R16, 0x03
   \   00000176   2300               TST     R16
   \   00000178   F5B9               BRNE    ??Fsm_8
    106                      {
    107                          bIsDiscreteInputStateActive = false;
   \                     ??Fsm_20:
   \   0000017A   E080               LDI     R24, 0
    108                          // установим значение текущего дискретного входа отображаемое в пространстве модбас
    109                          // интерпретированное с учетом условия активности.
    110                          CPss21::SetDiscreteInputState(GetDiscreteStateIndex(), 0);
   \   0000017C   018D               MOVW    R17:R16, R27:R26
   \   0000017E   ........           CALL    ??GetDiscreteStateIndex
   \   00000182   E010               LDI     R17, 0
   \   00000184   ........           CALL    ??SetDiscreteInputState
   \   00000188   C02F               RJMP    ??Fsm_8
    111                      }
    112                  }
    113                  else
    114                  {
    115                      if (((CPss21::GetDiscreteInputsBadState(GetDiscreteStateIndex()) & 0x03) == 3) ||
    116                              ((CPss21::GetDiscreteInputsBadState(GetDiscreteStateIndex()) & 0x03) == 0))
   \                     ??Fsm_17:
   \   0000018A   018D               MOVW    R17:R16, R27:R26
   \   0000018C   ........           CALL    ??GetDiscreteStateIndex
   \   00000190   ........           CALL    ??GetDiscreteInputsBadState
   \   00000194   7003               ANDI    R16, 0x03
   \   00000196   3003               CPI     R16, 3
   \   00000198   F041               BREQ    ??Fsm_21
   \   0000019A   018D               MOVW    R17:R16, R27:R26
   \   0000019C   ........           CALL    ??GetDiscreteStateIndex
   \   000001A0   ........           CALL    ??GetDiscreteInputsBadState
   \   000001A4   7003               ANDI    R16, 0x03
   \   000001A6   2300               TST     R16
   \   000001A8   F441               BRNE    ??Fsm_22
    117                      {
    118                          bIsDiscreteInputStateActive = true;
   \                     ??Fsm_21:
   \   000001AA   E081               LDI     R24, 1
    119                          // установим значение текущего дискретного входа отображаемое в пространстве модбас
    120                          // интерпретированное с учетом условия активности.
    121                          CPss21::SetDiscreteInputState(GetDiscreteStateIndex(), 1);
   \   000001AC   018D               MOVW    R17:R16, R27:R26
   \   000001AE   ........           CALL    ??GetDiscreteStateIndex
   \   000001B2   E011               LDI     R17, 1
   \   000001B4   ........           CALL    ??SetDiscreteInputState
   \   000001B8   C017               RJMP    ??Fsm_8
    122                      }
    123                      else if (((CPss21::GetDiscreteInputsBadState(GetDiscreteStateIndex()) & 0x03) == 2) ||
    124                               ((CPss21::GetDiscreteInputsBadState(GetDiscreteStateIndex()) & 0x03) == 1))
   \                     ??Fsm_22:
   \   000001BA   018D               MOVW    R17:R16, R27:R26
   \   000001BC   ........           CALL    ??GetDiscreteStateIndex
   \   000001C0   ........           CALL    ??GetDiscreteInputsBadState
   \   000001C4   7003               ANDI    R16, 0x03
   \   000001C6   3002               CPI     R16, 2
   \   000001C8   F041               BREQ    ??Fsm_23
   \   000001CA   018D               MOVW    R17:R16, R27:R26
   \   000001CC   ........           CALL    ??GetDiscreteStateIndex
   \   000001D0   ........           CALL    ??GetDiscreteInputsBadState
   \   000001D4   7003               ANDI    R16, 0x03
   \   000001D6   3001               CPI     R16, 1
   \   000001D8   F439               BRNE    ??Fsm_8
    125                      {
    126                          bIsDiscreteInputStateActive = false;
   \                     ??Fsm_23:
   \   000001DA   E080               LDI     R24, 0
    127                          // установим значение текущего дискретного входа отображаемое в пространстве модбас
    128                          // интерпретированное с учетом условия активности.
    129                          CPss21::SetDiscreteInputState(GetDiscreteStateIndex(), 0);
   \   000001DC   018D               MOVW    R17:R16, R27:R26
   \   000001DE   ........           CALL    ??GetDiscreteStateIndex
   \   000001E2   E010               LDI     R17, 0
   \   000001E4   ........           CALL    ??SetDiscreteInputState
    130                      }
    131                  }
    132              }
    133          
    134              switch (GetFsmState())
   \                     ??Fsm_8:
   \   000001E8   018D               MOVW    R17:R16, R27:R26
   \   000001EA   ........           CALL    ??GetFsmState
   \   000001EE   ....               LDI     R30, LOW(`?<Jumptable for Fsm>_0`)
   \   000001F0   ....               LDI     R31, (`?<Jumptable for Fsm>_0`) >> 16
   \   000001F2   BFFB               OUT     0x3B, R31
   \   000001F4   ....               LDI     R31, HIGH(`?<Jumptable for Fsm>_0`)
   \   000001F6   ........           JMP     ?CV_SWITCH_L06
    135              {
    136              case START:
    137                  break;
    138          
    139          //    case ACTIVE_STATE_CHECK:
    140          //        break;
    141          
    142              case ACTIVE_STATE_WAITING:
    143                  CPss21::m_aucRtuHoldingRegistersArray[0] = CPss21::m_aucDiscreteInputsBadState[0];
   \                     ??Fsm_24:
   \   000001FA   9100....           LDS     R16, ??m_aucDiscreteInputsBadState
   \   000001FE   E010               LDI     R17, 0
   \   00000200   ....               LDI     R30, LOW(??m_aucRtuHoldingRegistersArray)
   \   00000202   ....               LDI     R31, (??m_aucRtuHoldingRegistersArray) >> 8
   \   00000204   8300               ST      Z, R16
   \   00000206   8311               STD     Z+1, R17
    144                  // тип текущего дискретного сигнала namur?
    145                  if (IS_NAMUR_ON())
   \   00000208   018D               MOVW    R17:R16, R27:R26
   \   0000020A   01FD               MOVW    R31:R30, R27:R26
   \   0000020C   8121               LDD     R18, Z+1
   \   0000020E   8132               LDD     R19, Z+2
   \   00000210   01F9               MOVW    R31:R30, R19:R18
   \   00000212   9638               ADIW    R31:R30, 8
   \   00000214   9125               LPM     R18, Z+
   \   00000216   9134               LPM     R19, Z
   \   00000218   9739               SBIW    R31:R30, 9
   \   0000021A   01F9               MOVW    R31:R30, R19:R18
   \   0000021C   9509               ICALL
   \   0000021E   2300               TST     R16
   \   00000220   F011               BREQ    ??Fsm_25
   \   00000222   E001               LDI     R16, 1
   \   00000224   C001               RJMP    ??Fsm_26
   \                     ??Fsm_25:
   \   00000226   E000               LDI     R16, 0
   \                     ??Fsm_26:
   \   00000228   2300               TST     R16
   \   0000022A   F409               BRNE    $+2+2
   \   0000022C   C04D               RJMP    ??Fsm_27
    146                  {
    147                      if (bIsNamurActive)
   \   0000022E   2399               TST     R25
   \   00000230   F029               BREQ    ??Fsm_28
    148                      {
    149                          SetFsmState(NAMUR_STATE_ON);
   \   00000232   E028               LDI     R18, 8
   \   00000234   018D               MOVW    R17:R16, R27:R26
   \   00000236   ........           CALL    ??SetFsmState
   \   0000023A   C157               RJMP    ??Fsm_29
    150                      }
    151                      else
    152                      {
    153                          // Дискретный сигнал активен?
    154                          if (bIsDiscreteInputStateActive)
   \                     ??Fsm_28:
   \   0000023C   2388               TST     R24
   \   0000023E   F409               BRNE    $+2+2
   \   00000240   C154               RJMP    ??Fsm_29
    155                          {
    156                              // Установим связанные дискретный выходы - новое нарушение.
    157                              CPss21::DiscreteOutputsSet(GetLinkedDiscreteOutputsPointer(), NEW_VIOLATION);
   \   00000242   018D               MOVW    R17:R16, R27:R26
   \   00000244   ........           CALL    ??GetLinkedDiscreteOutputsPointer
   \   00000248   E021               LDI     R18, 1
   \   0000024A   ........           CALL    ??DiscreteOutputsSet
    158                              // Установим тип сигнализации связанному окну в массиве управления окнами извещателя.
    159                              CPss21::SetAlarmWindowType(GetAlarmWindowIndex(), ALARM_TYPE());
   \   0000024E   018D               MOVW    R17:R16, R27:R26
   \   00000250   01FD               MOVW    R31:R30, R27:R26
   \   00000252   8121               LDD     R18, Z+1
   \   00000254   8132               LDD     R19, Z+2
   \   00000256   01F9               MOVW    R31:R30, R19:R18
   \   00000258   9634               ADIW    R31:R30, 4
   \   0000025A   9125               LPM     R18, Z+
   \   0000025C   9134               LPM     R19, Z
   \   0000025E   9735               SBIW    R31:R30, 5
   \   00000260   01F9               MOVW    R31:R30, R19:R18
   \   00000262   9509               ICALL
   \   00000264   2E40               MOV     R4, R16
   \   00000266   018D               MOVW    R17:R16, R27:R26
   \   00000268   ........           CALL    ??GetAlarmWindowIndex
   \   0000026C   2D14               MOV     R17, R4
   \   0000026E   ........           CALL    ??SetAlarmWindowType
    160                              CPss21::SetAlarmWindowColor(GetAlarmWindowIndex(), ALARM_TYPE());
   \   00000272   018D               MOVW    R17:R16, R27:R26
   \   00000274   01FD               MOVW    R31:R30, R27:R26
   \   00000276   8121               LDD     R18, Z+1
   \   00000278   8132               LDD     R19, Z+2
   \   0000027A   01F9               MOVW    R31:R30, R19:R18
   \   0000027C   9634               ADIW    R31:R30, 4
   \   0000027E   9125               LPM     R18, Z+
   \   00000280   9134               LPM     R19, Z
   \   00000282   9735               SBIW    R31:R30, 5
   \   00000284   01F9               MOVW    R31:R30, R19:R18
   \   00000286   9509               ICALL
   \   00000288   2E40               MOV     R4, R16
   \   0000028A   018D               MOVW    R17:R16, R27:R26
   \   0000028C   ........           CALL    ??GetAlarmWindowIndex
   \   00000290   2D14               MOV     R17, R4
   \   00000292   ........           CALL    ??SetAlarmWindowColor
    161                              CPss21::GetAlarmWindowControlPointer(GetAlarmWindowIndex()) -> SetActivityState(1);
   \   00000296   018D               MOVW    R17:R16, R27:R26
   \   00000298   ........           CALL    ??GetAlarmWindowIndex
   \   0000029C   ........           CALL    ??GetAlarmWindowControlPointer
   \   000002A0   E021               LDI     R18, 1
   \   000002A2   ........           CALL    ??SetActivityState
    162                              CPss21::BoardWindowsUpdate();
   \   000002A6   ........           CALL    ??BoardWindowsUpdate
    163                              // Запрограммирован режим автоматического сброса предупредительой и аварийной
    164                              // сигнализации при переходе дискретного сигнала в неактивное состояние?
    165                              if (CPss21::m_xDeviceConfiguration.AutoUnset)
   \   000002AA   ....               LDI     R30, LOW(??m_xDeviceConfiguration)
   \   000002AC   ....               LDI     R31, (??m_xDeviceConfiguration) >> 8
   \   000002AE   8103               LDD     R16, Z+3
   \   000002B0   FF03               SBRS    R16, 3
   \   000002B2   C005               RJMP    ??Fsm_30
    166                              {
    167                                  SetFsmState(RECEIPT_OR_RESET_OR_AUTOUNSET_WAITING);
   \   000002B4   E023               LDI     R18, 3
   \   000002B6   018D               MOVW    R17:R16, R27:R26
   \   000002B8   ........           CALL    ??SetFsmState
   \   000002BC   C116               RJMP    ??Fsm_29
    168                              }
    169                              else
    170                              {
    171                                  SetFsmState(RECEIPT_OR_RESET_WAITING);
   \                     ??Fsm_30:
   \   000002BE   E022               LDI     R18, 2
   \   000002C0   018D               MOVW    R17:R16, R27:R26
   \   000002C2   ........           CALL    ??SetFsmState
   \   000002C6   C111               RJMP    ??Fsm_29
    172                              }
    173                          }
    174                      }
    175                  }
    176                  else
    177                  {
    178                      // Дискретный сигнал активен?
    179                      // уровень сигналы типа "СУХОЙ КОНТАКТ" (СК) определяем по состояниям дискретного входа:
    180                      // 2 - обрыв(разомкнуто), и 3 - КЗ(замкнуто).
    181                      if (bIsDiscreteInputStateActive)
   \                     ??Fsm_27:
   \   000002C8   2388               TST     R24
   \   000002CA   F409               BRNE    $+2+2
   \   000002CC   C10E               RJMP    ??Fsm_29
    182                      {
    183                          // Установим связанные дискретный выходы - новое нарушение.
    184                          CPss21::DiscreteOutputsSet(GetLinkedDiscreteOutputsPointer(), NEW_VIOLATION);
   \   000002CE   018D               MOVW    R17:R16, R27:R26
   \   000002D0   ........           CALL    ??GetLinkedDiscreteOutputsPointer
   \   000002D4   E021               LDI     R18, 1
   \   000002D6   ........           CALL    ??DiscreteOutputsSet
    185                          // Установим тип сигнализации связанному окну в массиве управления окнами извещателя.
    186                          CPss21::SetAlarmWindowType(GetAlarmWindowIndex(), ALARM_TYPE());
   \   000002DA   018D               MOVW    R17:R16, R27:R26
   \   000002DC   01FD               MOVW    R31:R30, R27:R26
   \   000002DE   8121               LDD     R18, Z+1
   \   000002E0   8132               LDD     R19, Z+2
   \   000002E2   01F9               MOVW    R31:R30, R19:R18
   \   000002E4   9634               ADIW    R31:R30, 4
   \   000002E6   9125               LPM     R18, Z+
   \   000002E8   9134               LPM     R19, Z
   \   000002EA   9735               SBIW    R31:R30, 5
   \   000002EC   01F9               MOVW    R31:R30, R19:R18
   \   000002EE   9509               ICALL
   \   000002F0   2E40               MOV     R4, R16
   \   000002F2   018D               MOVW    R17:R16, R27:R26
   \   000002F4   ........           CALL    ??GetAlarmWindowIndex
   \   000002F8   2D14               MOV     R17, R4
   \   000002FA   ........           CALL    ??SetAlarmWindowType
    187                          CPss21::SetAlarmWindowColor(GetAlarmWindowIndex(), ALARM_TYPE());
   \   000002FE   018D               MOVW    R17:R16, R27:R26
   \   00000300   01FD               MOVW    R31:R30, R27:R26
   \   00000302   8121               LDD     R18, Z+1
   \   00000304   8132               LDD     R19, Z+2
   \   00000306   01F9               MOVW    R31:R30, R19:R18
   \   00000308   9634               ADIW    R31:R30, 4
   \   0000030A   9125               LPM     R18, Z+
   \   0000030C   9134               LPM     R19, Z
   \   0000030E   9735               SBIW    R31:R30, 5
   \   00000310   01F9               MOVW    R31:R30, R19:R18
   \   00000312   9509               ICALL
   \   00000314   2E40               MOV     R4, R16
   \   00000316   018D               MOVW    R17:R16, R27:R26
   \   00000318   ........           CALL    ??GetAlarmWindowIndex
   \   0000031C   2D14               MOV     R17, R4
   \   0000031E   ........           CALL    ??SetAlarmWindowColor
    188                          CPss21::GetAlarmWindowControlPointer(GetAlarmWindowIndex()) -> SetActivityState(1);
   \   00000322   018D               MOVW    R17:R16, R27:R26
   \   00000324   ........           CALL    ??GetAlarmWindowIndex
   \   00000328   ........           CALL    ??GetAlarmWindowControlPointer
   \   0000032C   E021               LDI     R18, 1
   \   0000032E   ........           CALL    ??SetActivityState
    189                          CPss21::BoardWindowsUpdate();
   \   00000332   ........           CALL    ??BoardWindowsUpdate
    190                          // Запрограммирован режим автоматического сброса предупредительой и аварийной
    191                          // сигнализации при переходе дискретного сигнала в неактивное состояние?
    192                          if (CPss21::m_xDeviceConfiguration.AutoUnset)
   \   00000336   ....               LDI     R30, LOW(??m_xDeviceConfiguration)
   \   00000338   ....               LDI     R31, (??m_xDeviceConfiguration) >> 8
   \   0000033A   8103               LDD     R16, Z+3
   \   0000033C   FF03               SBRS    R16, 3
   \   0000033E   C005               RJMP    ??Fsm_31
    193                          {
    194                              SetFsmState(RECEIPT_OR_RESET_OR_AUTOUNSET_WAITING);
   \   00000340   E023               LDI     R18, 3
   \   00000342   018D               MOVW    R17:R16, R27:R26
   \   00000344   ........           CALL    ??SetFsmState
   \   00000348   C0D0               RJMP    ??Fsm_29
    195                          }
    196                          else
    197                          {
    198                              SetFsmState(RECEIPT_OR_RESET_WAITING);
   \                     ??Fsm_31:
   \   0000034A   E022               LDI     R18, 2
   \   0000034C   018D               MOVW    R17:R16, R27:R26
   \   0000034E   ........           CALL    ??SetFsmState
    199                          }
    200                      }
    201                  }
    202                  break;
   \   00000352   C0CB               RJMP    ??Fsm_29
    203          
    204              case RECEIPT_OR_RESET_OR_AUTOUNSET_WAITING:
    205                  // Запрограммирован режим автоматического сброса предупредительой и аварийной
    206                  // сигнализации при переходе дискретного сигнала в неактивное состояние.
    207                  // Дискретный сигнал активен?
    208                  if (bIsDiscreteInputStateActive)
   \                     ??Fsm_32:
   \   00000354   2388               TST     R24
   \   00000356   F059               BREQ    ??Fsm_33
    209                  {
    210                      // Установим связанные дискретный выходы - не новое нарушение.
    211                      CPss21::DiscreteOutputsSet(GetLinkedDiscreteOutputsPointer(), NOT_NEW_VIOLATION);
   \   00000358   018D               MOVW    R17:R16, R27:R26
   \   0000035A   ........           CALL    ??GetLinkedDiscreteOutputsPointer
   \   0000035E   E020               LDI     R18, 0
   \   00000360   ........           CALL    ??DiscreteOutputsSet
    212                  }
    213                  else
    214                  {
    215                      // Установим тип сигнализации связанному окну в массиве управления окнами извещателя.
    216                      CPss21::SetAlarmWindowType(GetAlarmWindowIndex(), NORMAL);
    217                      SetFsmState(ACTIVE_STATE_WAITING);
    218                      break;
    219                  }
    220          
    221                  // Событие сброшено?
    222                  if (CPss21::GetDiscreteSignalsReset())
   \   00000364   ........           CALL    ??GetDiscreteSignalsReset
   \   00000368   2300               TST     R16
   \   0000036A   F461               BRNE    ??Fsm_34
   \   0000036C   C016               RJMP    ??Fsm_35
   \                     ??Fsm_33:
   \   0000036E   018D               MOVW    R17:R16, R27:R26
   \   00000370   ........           CALL    ??GetAlarmWindowIndex
   \   00000374   E010               LDI     R17, 0
   \   00000376   ........           CALL    ??SetAlarmWindowType
   \   0000037A   E021               LDI     R18, 1
   \   0000037C   018D               MOVW    R17:R16, R27:R26
   \   0000037E   ........           CALL    ??SetFsmState
   \   00000382   C0B3               RJMP    ??Fsm_29
    223                  {
    224                      // Установим тип сигнализации связанному окну в массиве управления окнами извещателя.
    225                      CPss21::SetAlarmWindowType(GetAlarmWindowIndex(), INDICATION);
   \                     ??Fsm_34:
   \   00000384   018D               MOVW    R17:R16, R27:R26
   \   00000386   ........           CALL    ??GetAlarmWindowIndex
   \   0000038A   E011               LDI     R17, 1
   \   0000038C   ........           CALL    ??SetAlarmWindowType
    226                      SetFsmState(RESETED_NOT_ACTIVE_STATE_WAITING);
   \   00000390   E025               LDI     R18, 5
   \   00000392   018D               MOVW    R17:R16, R27:R26
   \   00000394   ........           CALL    ??SetFsmState
   \   00000398   C0A8               RJMP    ??Fsm_29
    227                  }
    228                  // Событие квитировано?
    229                  else if (CPss21::GetDiscreteSignalsReceipt())
   \                     ??Fsm_35:
   \   0000039A   ........           CALL    ??GetDiscreteSignalsReceipt
   \   0000039E   2300               TST     R16
   \   000003A0   F051               BREQ    ??Fsm_36
    230                  {
    231                      // Установим тип сигнализации связанному окну в массиве управления окнами извещателя.
    232                      CPss21::SetAlarmWindowType(GetAlarmWindowIndex(), INDICATION);
   \   000003A2   018D               MOVW    R17:R16, R27:R26
   \   000003A4   ........           CALL    ??GetAlarmWindowIndex
   \   000003A8   E011               LDI     R17, 1
   \   000003AA   ........           CALL    ??SetAlarmWindowType
    233                      SetFsmState(RECEIPTED_RESET_OR_NOT_ACTIVE_STATE_WAITING);
   \   000003AE   E024               LDI     R18, 4
   \   000003B0   018D               MOVW    R17:R16, R27:R26
   \   000003B2   ........           CALL    ??SetFsmState
    234                  }
    235                  break;
   \                     ??Fsm_36:
   \   000003B6   C099               RJMP    ??Fsm_29
    236          
    237              case RECEIPT_OR_RESET_WAITING:
    238                  // Дискретный сигнал активен?
    239                  if (bIsDiscreteInputStateActive)
   \                     ??Fsm_37:
   \   000003B8   2388               TST     R24
   \   000003BA   F031               BREQ    ??Fsm_38
    240                  {
    241                      // Установим связанные дискретный выходы - не новое нарушение.
    242                      CPss21::DiscreteOutputsSet(GetLinkedDiscreteOutputsPointer(), NOT_NEW_VIOLATION);
   \   000003BC   018D               MOVW    R17:R16, R27:R26
   \   000003BE   ........           CALL    ??GetLinkedDiscreteOutputsPointer
   \   000003C2   E020               LDI     R18, 0
   \   000003C4   ........           CALL    ??DiscreteOutputsSet
    243                  }
    244          
    245                  // Событие сброшено?
    246                  if (CPss21::GetDiscreteSignalsReset())
   \                     ??Fsm_38:
   \   000003C8   ........           CALL    ??GetDiscreteSignalsReset
   \   000003CC   2300               TST     R16
   \   000003CE   F059               BREQ    ??Fsm_39
    247                  {
    248                      // Установим тип сигнализации связанному окну в массиве управления окнами извещателя.
    249                      CPss21::SetAlarmWindowType(GetAlarmWindowIndex(), INDICATION);
   \   000003D0   018D               MOVW    R17:R16, R27:R26
   \   000003D2   ........           CALL    ??GetAlarmWindowIndex
   \   000003D6   E011               LDI     R17, 1
   \   000003D8   ........           CALL    ??SetAlarmWindowType
    250                      SetFsmState(RESETED_NOT_ACTIVE_STATE_WAITING);
   \   000003DC   E025               LDI     R18, 5
   \   000003DE   018D               MOVW    R17:R16, R27:R26
   \   000003E0   ........           CALL    ??SetFsmState
   \   000003E4   C082               RJMP    ??Fsm_29
    251                  }
    252                  // Событие квитировано?
    253                  else if (CPss21::GetDiscreteSignalsReceipt())
   \                     ??Fsm_39:
   \   000003E6   ........           CALL    ??GetDiscreteSignalsReceipt
   \   000003EA   2300               TST     R16
   \   000003EC   F051               BREQ    ??Fsm_40
    254                  {
    255                      // Установим тип сигнализации связанному окну в массиве управления окнами извещателя.
    256                      CPss21::SetAlarmWindowType(GetAlarmWindowIndex(), INDICATION);
   \   000003EE   018D               MOVW    R17:R16, R27:R26
   \   000003F0   ........           CALL    ??GetAlarmWindowIndex
   \   000003F4   E011               LDI     R17, 1
   \   000003F6   ........           CALL    ??SetAlarmWindowType
    257                      SetFsmState(RECEIPTED_RESET_OR_NOT_ACTIVE_STATE_WAITING);
   \   000003FA   E024               LDI     R18, 4
   \   000003FC   018D               MOVW    R17:R16, R27:R26
   \   000003FE   ........           CALL    ??SetFsmState
    258                  }
    259                  break;
   \                     ??Fsm_40:
   \   00000402   C073               RJMP    ??Fsm_29
    260          
    261              case RECEIPTED_RESET_OR_NOT_ACTIVE_STATE_WAITING:
    262                  // Событие сброшено?
    263                  if (CPss21::GetDiscreteSignalsReset())
   \                     ??Fsm_41:
   \   00000404   ........           CALL    ??GetDiscreteSignalsReset
   \   00000408   2300               TST     R16
   \   0000040A   F029               BREQ    ??Fsm_42
    264                  {
    265                      SetFsmState(RESETED_NOT_ACTIVE_STATE_WAITING);
   \   0000040C   E025               LDI     R18, 5
   \   0000040E   018D               MOVW    R17:R16, R27:R26
   \   00000410   ........           CALL    ??SetFsmState
   \   00000414   C06A               RJMP    ??Fsm_29
    266                  }
    267                  // Дискретный сигнал не активен?
    268                  else if (!(bIsDiscreteInputStateActive))
   \                     ??Fsm_42:
   \   00000416   2388               TST     R24
   \   00000418   F429               BRNE    ??Fsm_43
    269                  {
    270                      SetFsmState(RECEIPTED_RESET_WAITING);
   \   0000041A   E026               LDI     R18, 6
   \   0000041C   018D               MOVW    R17:R16, R27:R26
   \   0000041E   ........           CALL    ??SetFsmState
   \   00000422   C063               RJMP    ??Fsm_29
    271                  }
    272                  else
    273                  {
    274                      // Установим связанные дискретный выходы - не новое нарушение.
    275                      CPss21::DiscreteOutputsSet(GetLinkedDiscreteOutputsPointer(), NOT_NEW_VIOLATION);
   \                     ??Fsm_43:
   \   00000424   018D               MOVW    R17:R16, R27:R26
   \   00000426   ........           CALL    ??GetLinkedDiscreteOutputsPointer
   \   0000042A   E020               LDI     R18, 0
   \   0000042C   ........           CALL    ??DiscreteOutputsSet
    276                  }
    277                  break;
   \   00000430   C05C               RJMP    ??Fsm_29
    278          
    279              case RESETED_NOT_ACTIVE_STATE_WAITING:
    280          //        if (bIsNamurActive)
    281          //        {
    282          //            SetFsmState(NAMUR_STATE_ON);
    283          //            break;
    284          //        }
    285          
    286                  // Дискретный сигнал не активен?
    287                  if (!(bIsDiscreteInputStateActive))
   \                     ??Fsm_44:
   \   00000432   2388               TST     R24
   \   00000434   F459               BRNE    ??Fsm_45
    288                  {
    289                      // Установим тип сигнализации связанному окну в массиве управления окнами извещателя.
    290                      CPss21::SetAlarmWindowType(GetAlarmWindowIndex(), NORMAL);
   \   00000436   018D               MOVW    R17:R16, R27:R26
   \   00000438   ........           CALL    ??GetAlarmWindowIndex
   \   0000043C   E010               LDI     R17, 0
   \   0000043E   ........           CALL    ??SetAlarmWindowType
    291                      SetFsmState(ACTIVE_STATE_WAITING);
   \   00000442   E021               LDI     R18, 1
   \   00000444   018D               MOVW    R17:R16, R27:R26
   \   00000446   ........           CALL    ??SetFsmState
   \   0000044A   C04F               RJMP    ??Fsm_29
    292                  }
    293                  else
    294                  {
    295                      // Установим связанные дискретный выходы - не новое нарушение.
    296                      CPss21::DiscreteOutputsSet(GetLinkedDiscreteOutputsPointer(), NOT_NEW_VIOLATION);
   \                     ??Fsm_45:
   \   0000044C   018D               MOVW    R17:R16, R27:R26
   \   0000044E   ........           CALL    ??GetLinkedDiscreteOutputsPointer
   \   00000452   E020               LDI     R18, 0
   \   00000454   ........           CALL    ??DiscreteOutputsSet
    297                  }
    298                  break;
   \   00000458   C048               RJMP    ??Fsm_29
    299          
    300              case RECEIPTED_RESET_WAITING:
    301                  // Дискретный сигнал активен?
    302                  if (bIsDiscreteInputStateActive)
   \                     ??Fsm_46:
   \   0000045A   2388               TST     R24
   \   0000045C   F031               BREQ    ??Fsm_47
    303                  {
    304                      // Установим связанные дискретный выходы - не новое нарушение.
    305                      CPss21::DiscreteOutputsSet(GetLinkedDiscreteOutputsPointer(), NOT_NEW_VIOLATION);
   \   0000045E   018D               MOVW    R17:R16, R27:R26
   \   00000460   ........           CALL    ??GetLinkedDiscreteOutputsPointer
   \   00000464   E020               LDI     R18, 0
   \   00000466   ........           CALL    ??DiscreteOutputsSet
    306                  }
    307          
    308                  // Событие сброшено?
    309                  if (CPss21::GetDiscreteSignalsReset())
   \                     ??Fsm_47:
   \   0000046A   ........           CALL    ??GetDiscreteSignalsReset
   \   0000046E   2300               TST     R16
   \   00000470   F1E1               BREQ    ??Fsm_29
    310                  {
    311                      // Установим тип сигнализации связанному окну в массиве управления окнами извещателя.
    312                      CPss21::SetAlarmWindowType(GetAlarmWindowIndex(), NORMAL);
   \   00000472   018D               MOVW    R17:R16, R27:R26
   \   00000474   ........           CALL    ??GetAlarmWindowIndex
   \   00000478   E010               LDI     R17, 0
   \   0000047A   ........           CALL    ??SetAlarmWindowType
    313                      SetFsmState(ACTIVE_STATE_WAITING);
   \   0000047E   E021               LDI     R18, 1
   \   00000480   018D               MOVW    R17:R16, R27:R26
   \   00000482   ........           CALL    ??SetFsmState
    314                  }
    315                  break;
   \   00000486   C031               RJMP    ??Fsm_29
    316          
    317              case NAMUR_STATE_ON:
    318                  // Установим тип сигнализации связанному окну в массиве управления окнами извещателя.
    319                  CPss21::SetAlarmWindowType(GetAlarmWindowIndex(), INDICATION);
   \                     ??Fsm_48:
   \   00000488   018D               MOVW    R17:R16, R27:R26
   \   0000048A   ........           CALL    ??GetAlarmWindowIndex
   \   0000048E   E011               LDI     R17, 1
   \   00000490   ........           CALL    ??SetAlarmWindowType
    320                  CPss21::SetAlarmWindowColor(GetAlarmWindowIndex(), NAMUR_INDICATION);
   \   00000494   018D               MOVW    R17:R16, R27:R26
   \   00000496   ........           CALL    ??GetAlarmWindowIndex
   \   0000049A   E016               LDI     R17, 6
   \   0000049C   ........           CALL    ??SetAlarmWindowColor
    321                  CPss21::GetAlarmWindowControlPointer(GetAlarmWindowIndex()) -> SetActivityState(1);
   \   000004A0   018D               MOVW    R17:R16, R27:R26
   \   000004A2   ........           CALL    ??GetAlarmWindowIndex
   \   000004A6   ........           CALL    ??GetAlarmWindowControlPointer
   \   000004AA   E021               LDI     R18, 1
   \   000004AC   ........           CALL    ??SetActivityState
    322                  CPss21::BoardWindowsUpdate();
   \   000004B0   ........           CALL    ??BoardWindowsUpdate
    323                  SetFsmState(NAMUR_INPUT_CORRECT_STATE_WAITING);
   \   000004B4   E029               LDI     R18, 9
   \   000004B6   018D               MOVW    R17:R16, R27:R26
   \   000004B8   ........           CALL    ??SetFsmState
    324                  break;
   \   000004BC   C016               RJMP    ??Fsm_29
    325          
    326              case NAMUR_INPUT_CORRECT_STATE_WAITING:
    327                  // дискретный сигнал достоверен?
    328                  if (!(bIsNamurActive))
   \                     ??Fsm_49:
   \   000004BE   2399               TST     R25
   \   000004C0   F4A1               BRNE    ??Fsm_29
    329                  {
    330                      // Установим тип сигнализации связанному окну в массиве управления окнами извещателя.
    331                      CPss21::SetAlarmWindowType(GetAlarmWindowIndex(), NORMAL);
   \   000004C2   018D               MOVW    R17:R16, R27:R26
   \   000004C4   ........           CALL    ??GetAlarmWindowIndex
   \   000004C8   E010               LDI     R17, 0
   \   000004CA   ........           CALL    ??SetAlarmWindowType
    332                      CPss21::GetAlarmWindowControlPointer(GetAlarmWindowIndex()) -> SetActivityState(0);
   \   000004CE   018D               MOVW    R17:R16, R27:R26
   \   000004D0   ........           CALL    ??GetAlarmWindowIndex
   \   000004D4   ........           CALL    ??GetAlarmWindowControlPointer
   \   000004D8   E020               LDI     R18, 0
   \   000004DA   ........           CALL    ??SetActivityState
    333                      CPss21::BoardWindowsUpdate();
   \   000004DE   ........           CALL    ??BoardWindowsUpdate
    334                      SetFsmState(ACTIVE_STATE_WAITING);
   \   000004E2   E021               LDI     R18, 1
   \   000004E4   018D               MOVW    R17:R16, R27:R26
   \   000004E6   ........           CALL    ??SetFsmState
    335                  }
    336                  break;
    337          
    338              default:
    339                  break;
    340              }
    341          }
   \                     ??Fsm_29:
   \   000004EA   E0E5               LDI     R30, 5
   \   000004EC   ........           JMP     ?EPILOGUE_B5_L09
    342          //-----------------------------------------------------------------------------------------------------
    343          
    344          
    345          
    346          
    347          
    348          
    349          
    350          
    351          //-----------------------------------------------------------------------------------------------------

   \                                 In  segment CODE, align 2, keep-with-next
    352          CNormalAlarmDfa::CNormalAlarmDfa()
   \                     ??CNormalAlarmDfa:
   \   00000000   93BA               ST      -Y, R27
   \   00000002   93AA               ST      -Y, R26
   \   00000004   01D8               MOVW    R27:R26, R17:R16
    353          {
   \   00000006   018D               MOVW    R17:R16, R27:R26
   \   00000008   ....               RCALL   ??CAlarmDfa
   \   0000000A   ....               LDI     R16, LOW(??__vtbl_2)
   \   0000000C   ....               LDI     R17, (??__vtbl_2) >> 8
   \   0000000E   01FD               MOVW    R31:R30, R27:R26
   \   00000010   8301               STD     Z+1, R16
   \   00000012   8312               STD     Z+2, R17
    354              SetFsmState(START);
   \   00000014   E020               LDI     R18, 0
   \   00000016   018D               MOVW    R17:R16, R27:R26
   \   00000018   ........           CALL    ??SetFsmState
    355          }
   \   0000001C   018D               MOVW    R17:R16, R27:R26
   \   0000001E   91A9               LD      R26, Y+
   \   00000020   91B9               LD      R27, Y+
   \   00000022   9508               RET
    356          
    357          //-----------------------------------------------------------------------------------------------------

   \                                 In  segment CODE, align 2, keep-with-next
    358          CNormalAlarmDfa::~CNormalAlarmDfa()
   \                     `?~CNormalAlarmDfa`:
    359          {
   \   00000000   ........           CALL    ?PROLOGUE4_L09
   \   00000004   01C8               MOVW    R25:R24, R17:R16
   \   00000006   01D9               MOVW    R27:R26, R19:R18
   \   00000008   2F08               MOV     R16, R24
   \   0000000A   2B09               OR      R16, R25
   \   0000000C   F049               BREQ    `?~CNormalAlarmDfa_1`
    360              //dtor
    361          }
   \   0000000E   E020               LDI     R18, 0
   \   00000010   E030               LDI     R19, 0
   \   00000012   018C               MOVW    R17:R16, R25:R24
   \   00000014   ....               RCALL   `?~CAlarmDfa`
   \   00000016   FBA0               BST     R26, 0
   \   00000018   F41E               BRTC    `?~CNormalAlarmDfa_1`
   \   0000001A   018C               MOVW    R17:R16, R25:R24
   \   0000001C   ........           CALL    `??operator delete`
   \                     `?~CNormalAlarmDfa_1`:
   \   00000020   E0E4               LDI     R30, 4
   \   00000022   ........           JMP     ?EPILOGUE_B4_L09
    362          
    363          //-----------------------------------------------------------------------------------------------------
    364          
    365          
    366          
    367          
    368          
    369          
    370          
    371          
    372          //-----------------------------------------------------------------------------------------------------

   \                                 In  segment CODE, align 2, keep-with-next
    373          CPreventiveAlarmLowLevelDfa::CPreventiveAlarmLowLevelDfa()
   \                     ??CPreventiveAlarmLowLevelDfa:
   \   00000000   93BA               ST      -Y, R27
   \   00000002   93AA               ST      -Y, R26
   \   00000004   01D8               MOVW    R27:R26, R17:R16
    374          {
   \   00000006   018D               MOVW    R17:R16, R27:R26
   \   00000008   ....               RCALL   ??CAlarmDfa
   \   0000000A   ....               LDI     R16, LOW(??__vtbl_3)
   \   0000000C   ....               LDI     R17, (??__vtbl_3) >> 8
   \   0000000E   01FD               MOVW    R31:R30, R27:R26
   \   00000010   8301               STD     Z+1, R16
   \   00000012   8312               STD     Z+2, R17
    375              SetFsmState(ACTIVE_STATE_WAITING);
   \   00000014   E021               LDI     R18, 1
   \   00000016   018D               MOVW    R17:R16, R27:R26
   \   00000018   ........           CALL    ??SetFsmState
    376          }
   \   0000001C   018D               MOVW    R17:R16, R27:R26
   \   0000001E   91A9               LD      R26, Y+
   \   00000020   91B9               LD      R27, Y+
   \   00000022   9508               RET
    377          
    378          //-----------------------------------------------------------------------------------------------------

   \                                 In  segment CODE, align 2, keep-with-next
    379          CPreventiveAlarmLowLevelDfa::~CPreventiveAlarmLowLevelDfa()
   \                     `?~CPreventiveAlarmLowLevelDfa`:
    380          {
   \   00000000   ........           CALL    ?PROLOGUE4_L09
   \   00000004   01C8               MOVW    R25:R24, R17:R16
   \   00000006   01D9               MOVW    R27:R26, R19:R18
   \   00000008   2F08               MOV     R16, R24
   \   0000000A   2B09               OR      R16, R25
   \   0000000C   F049               BREQ    `?~CPreventiveAlarmLowLevelDfa_1`
    381              //dtor
    382          }
   \   0000000E   E020               LDI     R18, 0
   \   00000010   E030               LDI     R19, 0
   \   00000012   018C               MOVW    R17:R16, R25:R24
   \   00000014   ....               RCALL   `?~CAlarmDfa`
   \   00000016   FBA0               BST     R26, 0
   \   00000018   F41E               BRTC    `?~CPreventiveAlarmLowLevelDfa_1`
   \   0000001A   018C               MOVW    R17:R16, R25:R24
   \   0000001C   ........           CALL    `??operator delete`
   \                     `?~CPreventiveAlarmLowLevelDfa_1`:
   \   00000020   E0E4               LDI     R30, 4
   \   00000022   ........           JMP     ?EPILOGUE_B4_L09
    383          
    384          //-----------------------------------------------------------------------------------------------------

   \                                 In  segment CODE, align 2, keep-with-next
    385          CPreventiveAlarmHighLevelDfa::CPreventiveAlarmHighLevelDfa()
   \                     ??CPreventiveAlarmHighLevelDfa:
   \   00000000   93BA               ST      -Y, R27
   \   00000002   93AA               ST      -Y, R26
   \   00000004   01D8               MOVW    R27:R26, R17:R16
    386          {
   \   00000006   018D               MOVW    R17:R16, R27:R26
   \   00000008   ....               RCALL   ??CAlarmDfa
   \   0000000A   ....               LDI     R16, LOW(??__vtbl_4)
   \   0000000C   ....               LDI     R17, (??__vtbl_4) >> 8
   \   0000000E   01FD               MOVW    R31:R30, R27:R26
   \   00000010   8301               STD     Z+1, R16
   \   00000012   8312               STD     Z+2, R17
    387              SetFsmState(ACTIVE_STATE_WAITING);
   \   00000014   E021               LDI     R18, 1
   \   00000016   018D               MOVW    R17:R16, R27:R26
   \   00000018   ........           CALL    ??SetFsmState
    388          }
   \   0000001C   018D               MOVW    R17:R16, R27:R26
   \   0000001E   91A9               LD      R26, Y+
   \   00000020   91B9               LD      R27, Y+
   \   00000022   9508               RET
    389          
    390          //-----------------------------------------------------------------------------------------------------

   \                                 In  segment CODE, align 2, keep-with-next
    391          CPreventiveAlarmHighLevelDfa::~CPreventiveAlarmHighLevelDfa()
   \                     `?~CPreventiveAlarmHighLevelDfa`:
    392          {
   \   00000000   ........           CALL    ?PROLOGUE4_L09
   \   00000004   01C8               MOVW    R25:R24, R17:R16
   \   00000006   01D9               MOVW    R27:R26, R19:R18
   \   00000008   2F08               MOV     R16, R24
   \   0000000A   2B09               OR      R16, R25
   \   0000000C   F049               BREQ    `?~CPreventiveAlarmHighLevelDfa_1`
    393              //dtor
    394          }
   \   0000000E   E020               LDI     R18, 0
   \   00000010   E030               LDI     R19, 0
   \   00000012   018C               MOVW    R17:R16, R25:R24
   \   00000014   ....               RCALL   `?~CAlarmDfa`
   \   00000016   FBA0               BST     R26, 0
   \   00000018   F41E               BRTC    `?~CPreventiveAlarmHighLevelDfa_1`
   \   0000001A   018C               MOVW    R17:R16, R25:R24
   \   0000001C   ........           CALL    `??operator delete`
   \                     `?~CPreventiveAlarmHighLevelDfa_1`:
   \   00000020   E0E4               LDI     R30, 4
   \   00000022   ........           JMP     ?EPILOGUE_B4_L09
    395          
    396          //-----------------------------------------------------------------------------------------------------

   \                                 In  segment CODE, align 2, keep-with-next
    397          CPreventiveAlarmLowLevelNamurDfa::CPreventiveAlarmLowLevelNamurDfa()
   \                     ??CPreventiveAlarmLowLevelNamurDfa:
   \   00000000   93BA               ST      -Y, R27
   \   00000002   93AA               ST      -Y, R26
   \   00000004   01D8               MOVW    R27:R26, R17:R16
    398          {
   \   00000006   018D               MOVW    R17:R16, R27:R26
   \   00000008   ....               RCALL   ??CAlarmDfa
   \   0000000A   ....               LDI     R16, LOW(??__vtbl_5)
   \   0000000C   ....               LDI     R17, (??__vtbl_5) >> 8
   \   0000000E   01FD               MOVW    R31:R30, R27:R26
   \   00000010   8301               STD     Z+1, R16
   \   00000012   8312               STD     Z+2, R17
    399              SetFsmState(ACTIVE_STATE_WAITING);
   \   00000014   E021               LDI     R18, 1
   \   00000016   018D               MOVW    R17:R16, R27:R26
   \   00000018   ........           CALL    ??SetFsmState
    400          }
   \   0000001C   018D               MOVW    R17:R16, R27:R26
   \   0000001E   91A9               LD      R26, Y+
   \   00000020   91B9               LD      R27, Y+
   \   00000022   9508               RET
    401          
    402          //-----------------------------------------------------------------------------------------------------

   \                                 In  segment CODE, align 2, keep-with-next
    403          CPreventiveAlarmLowLevelNamurDfa::~CPreventiveAlarmLowLevelNamurDfa()
   \                     `?~CPreventiveAlarmLowLevelNamurDfa`:
    404          {
   \   00000000   ........           CALL    ?PROLOGUE4_L09
   \   00000004   01C8               MOVW    R25:R24, R17:R16
   \   00000006   01D9               MOVW    R27:R26, R19:R18
   \   00000008   2F08               MOV     R16, R24
   \   0000000A   2B09               OR      R16, R25
   \   0000000C   F049               BREQ    `?~CPreventiveAlarmLowLevelNamurDfa_1`
    405              //dtor
    406          }
   \   0000000E   E020               LDI     R18, 0
   \   00000010   E030               LDI     R19, 0
   \   00000012   018C               MOVW    R17:R16, R25:R24
   \   00000014   ....               RCALL   `?~CAlarmDfa`
   \   00000016   FBA0               BST     R26, 0
   \   00000018   F41E               BRTC    `?~CPreventiveAlarmLowLevelNamurDfa_1`
   \   0000001A   018C               MOVW    R17:R16, R25:R24
   \   0000001C   ........           CALL    `??operator delete`
   \                     `?~CPreventiveAlarmLowLevelNamurDfa_1`:
   \   00000020   E0E4               LDI     R30, 4
   \   00000022   ........           JMP     ?EPILOGUE_B4_L09
    407          
    408          //-----------------------------------------------------------------------------------------------------

   \                                 In  segment CODE, align 2, keep-with-next
    409          CPreventiveAlarmHighLevelNamurDfa::CPreventiveAlarmHighLevelNamurDfa()
   \                     ??CPreventiveAlarmHighLevelNamurDfa:
   \   00000000   93BA               ST      -Y, R27
   \   00000002   93AA               ST      -Y, R26
   \   00000004   01D8               MOVW    R27:R26, R17:R16
    410          {
   \   00000006   018D               MOVW    R17:R16, R27:R26
   \   00000008   ....               RCALL   ??CAlarmDfa
   \   0000000A   ....               LDI     R16, LOW(??__vtbl_6)
   \   0000000C   ....               LDI     R17, (??__vtbl_6) >> 8
   \   0000000E   01FD               MOVW    R31:R30, R27:R26
   \   00000010   8301               STD     Z+1, R16
   \   00000012   8312               STD     Z+2, R17
    411              SetFsmState(ACTIVE_STATE_WAITING);
   \   00000014   E021               LDI     R18, 1
   \   00000016   018D               MOVW    R17:R16, R27:R26
   \   00000018   ........           CALL    ??SetFsmState
    412          }
   \   0000001C   018D               MOVW    R17:R16, R27:R26
   \   0000001E   91A9               LD      R26, Y+
   \   00000020   91B9               LD      R27, Y+
   \   00000022   9508               RET
    413          
    414          //-----------------------------------------------------------------------------------------------------

   \                                 In  segment CODE, align 2, keep-with-next
    415          CPreventiveAlarmHighLevelNamurDfa::~CPreventiveAlarmHighLevelNamurDfa()
   \                     `?~CPreventiveAlarmHighLevelNamurDfa`:
    416          {
   \   00000000   ........           CALL    ?PROLOGUE4_L09
   \   00000004   01C8               MOVW    R25:R24, R17:R16
   \   00000006   01D9               MOVW    R27:R26, R19:R18
   \   00000008   2F08               MOV     R16, R24
   \   0000000A   2B09               OR      R16, R25
   \   0000000C   F049               BREQ    `?~CPreventiveAlarmHighLevelNamurDfa_1`
    417              //dtor
    418          }
   \   0000000E   E020               LDI     R18, 0
   \   00000010   E030               LDI     R19, 0
   \   00000012   018C               MOVW    R17:R16, R25:R24
   \   00000014   ....               RCALL   `?~CAlarmDfa`
   \   00000016   FBA0               BST     R26, 0
   \   00000018   F41E               BRTC    `?~CPreventiveAlarmHighLevelNamurDfa_1`
   \   0000001A   018C               MOVW    R17:R16, R25:R24
   \   0000001C   ........           CALL    `??operator delete`
   \                     `?~CPreventiveAlarmHighLevelNamurDfa_1`:
   \   00000020   E0E4               LDI     R30, 4
   \   00000022   ........           JMP     ?EPILOGUE_B4_L09
    419          //-----------------------------------------------------------------------------------------------------
    420          
    421          
    422          
    423          
    424          
    425          
    426          
    427          //-----------------------------------------------------------------------------------------------------

   \                                 In  segment CODE, align 2, keep-with-next
    428          CEmergencyAlarmLowLevelDfa::CEmergencyAlarmLowLevelDfa()
   \                     ??CEmergencyAlarmLowLevelDfa:
   \   00000000   93BA               ST      -Y, R27
   \   00000002   93AA               ST      -Y, R26
   \   00000004   01D8               MOVW    R27:R26, R17:R16
    429          {
   \   00000006   018D               MOVW    R17:R16, R27:R26
   \   00000008   ....               RCALL   ??CAlarmDfa
   \   0000000A   ....               LDI     R16, LOW(??__vtbl_7)
   \   0000000C   ....               LDI     R17, (??__vtbl_7) >> 8
   \   0000000E   01FD               MOVW    R31:R30, R27:R26
   \   00000010   8301               STD     Z+1, R16
   \   00000012   8312               STD     Z+2, R17
    430              SetFsmState(ACTIVE_STATE_WAITING);
   \   00000014   E021               LDI     R18, 1
   \   00000016   018D               MOVW    R17:R16, R27:R26
   \   00000018   ........           CALL    ??SetFsmState
    431          }
   \   0000001C   018D               MOVW    R17:R16, R27:R26
   \   0000001E   91A9               LD      R26, Y+
   \   00000020   91B9               LD      R27, Y+
   \   00000022   9508               RET
    432          
    433          //-----------------------------------------------------------------------------------------------------

   \                                 In  segment CODE, align 2, keep-with-next
    434          CEmergencyAlarmLowLevelDfa::~CEmergencyAlarmLowLevelDfa()
   \                     `?~CEmergencyAlarmLowLevelDfa`:
    435          {
   \   00000000   ........           CALL    ?PROLOGUE4_L09
   \   00000004   01C8               MOVW    R25:R24, R17:R16
   \   00000006   01D9               MOVW    R27:R26, R19:R18
   \   00000008   2F08               MOV     R16, R24
   \   0000000A   2B09               OR      R16, R25
   \   0000000C   F049               BREQ    `?~CEmergencyAlarmLowLevelDfa_1`
    436              //dtor
    437          }
   \   0000000E   E020               LDI     R18, 0
   \   00000010   E030               LDI     R19, 0
   \   00000012   018C               MOVW    R17:R16, R25:R24
   \   00000014   ....               RCALL   `?~CAlarmDfa`
   \   00000016   FBA0               BST     R26, 0
   \   00000018   F41E               BRTC    `?~CEmergencyAlarmLowLevelDfa_1`
   \   0000001A   018C               MOVW    R17:R16, R25:R24
   \   0000001C   ........           CALL    `??operator delete`
   \                     `?~CEmergencyAlarmLowLevelDfa_1`:
   \   00000020   E0E4               LDI     R30, 4
   \   00000022   ........           JMP     ?EPILOGUE_B4_L09
    438          
    439          //-----------------------------------------------------------------------------------------------------

   \                                 In  segment CODE, align 2, keep-with-next
    440          CEmergencyAlarmHighLevelDfa::CEmergencyAlarmHighLevelDfa()
   \                     ??CEmergencyAlarmHighLevelDfa:
   \   00000000   93BA               ST      -Y, R27
   \   00000002   93AA               ST      -Y, R26
   \   00000004   01D8               MOVW    R27:R26, R17:R16
    441          {
   \   00000006   018D               MOVW    R17:R16, R27:R26
   \   00000008   ....               RCALL   ??CAlarmDfa
   \   0000000A   ....               LDI     R16, LOW(??__vtbl_8)
   \   0000000C   ....               LDI     R17, (??__vtbl_8) >> 8
   \   0000000E   01FD               MOVW    R31:R30, R27:R26
   \   00000010   8301               STD     Z+1, R16
   \   00000012   8312               STD     Z+2, R17
    442              SetFsmState(ACTIVE_STATE_WAITING);
   \   00000014   E021               LDI     R18, 1
   \   00000016   018D               MOVW    R17:R16, R27:R26
   \   00000018   ........           CALL    ??SetFsmState
    443          }
   \   0000001C   018D               MOVW    R17:R16, R27:R26
   \   0000001E   91A9               LD      R26, Y+
   \   00000020   91B9               LD      R27, Y+
   \   00000022   9508               RET
    444          
    445          //-----------------------------------------------------------------------------------------------------

   \                                 In  segment CODE, align 2, keep-with-next
    446          CEmergencyAlarmHighLevelDfa::~CEmergencyAlarmHighLevelDfa()
   \                     `?~CEmergencyAlarmHighLevelDfa`:
    447          {
   \   00000000   ........           CALL    ?PROLOGUE4_L09
   \   00000004   01C8               MOVW    R25:R24, R17:R16
   \   00000006   01D9               MOVW    R27:R26, R19:R18
   \   00000008   2F08               MOV     R16, R24
   \   0000000A   2B09               OR      R16, R25
   \   0000000C   F049               BREQ    `?~CEmergencyAlarmHighLevelDfa_1`
    448              //dtor
    449          }
   \   0000000E   E020               LDI     R18, 0
   \   00000010   E030               LDI     R19, 0
   \   00000012   018C               MOVW    R17:R16, R25:R24
   \   00000014   ....               RCALL   `?~CAlarmDfa`
   \   00000016   FBA0               BST     R26, 0
   \   00000018   F41E               BRTC    `?~CEmergencyAlarmHighLevelDfa_1`
   \   0000001A   018C               MOVW    R17:R16, R25:R24
   \   0000001C   ........           CALL    `??operator delete`
   \                     `?~CEmergencyAlarmHighLevelDfa_1`:
   \   00000020   E0E4               LDI     R30, 4
   \   00000022   ........           JMP     ?EPILOGUE_B4_L09
    450          
    451          
    452          //-----------------------------------------------------------------------------------------------------

   \                                 In  segment CODE, align 2, keep-with-next
    453          CEmergencyAlarmLowLevelNamurDfa::CEmergencyAlarmLowLevelNamurDfa()
   \                     ??CEmergencyAlarmLowLevelNamurDfa:
   \   00000000   93BA               ST      -Y, R27
   \   00000002   93AA               ST      -Y, R26
   \   00000004   01D8               MOVW    R27:R26, R17:R16
    454          {
   \   00000006   018D               MOVW    R17:R16, R27:R26
   \   00000008   ....               RCALL   ??CAlarmDfa
   \   0000000A   ....               LDI     R16, LOW(??__vtbl_9)
   \   0000000C   ....               LDI     R17, (??__vtbl_9) >> 8
   \   0000000E   01FD               MOVW    R31:R30, R27:R26
   \   00000010   8301               STD     Z+1, R16
   \   00000012   8312               STD     Z+2, R17
    455              SetFsmState(ACTIVE_STATE_WAITING);
   \   00000014   E021               LDI     R18, 1
   \   00000016   018D               MOVW    R17:R16, R27:R26
   \   00000018   ........           CALL    ??SetFsmState
    456          }
   \   0000001C   018D               MOVW    R17:R16, R27:R26
   \   0000001E   91A9               LD      R26, Y+
   \   00000020   91B9               LD      R27, Y+
   \   00000022   9508               RET
    457          
    458          //-----------------------------------------------------------------------------------------------------

   \                                 In  segment CODE, align 2, keep-with-next
    459          CEmergencyAlarmLowLevelNamurDfa::~CEmergencyAlarmLowLevelNamurDfa()
   \                     `?~CEmergencyAlarmLowLevelNamurDfa`:
    460          {
   \   00000000   ........           CALL    ?PROLOGUE4_L09
   \   00000004   01C8               MOVW    R25:R24, R17:R16
   \   00000006   01D9               MOVW    R27:R26, R19:R18
   \   00000008   2F08               MOV     R16, R24
   \   0000000A   2B09               OR      R16, R25
   \   0000000C   F049               BREQ    `?~CEmergencyAlarmLowLevelNamurDfa_1`
    461              //dtor
    462          }
   \   0000000E   E020               LDI     R18, 0
   \   00000010   E030               LDI     R19, 0
   \   00000012   018C               MOVW    R17:R16, R25:R24
   \   00000014   ....               RCALL   `?~CAlarmDfa`
   \   00000016   FBA0               BST     R26, 0
   \   00000018   F41E               BRTC    `?~CEmergencyAlarmLowLevelNamurDfa_1`
   \   0000001A   018C               MOVW    R17:R16, R25:R24
   \   0000001C   ........           CALL    `??operator delete`
   \                     `?~CEmergencyAlarmLowLevelNamurDfa_1`:
   \   00000020   E0E4               LDI     R30, 4
   \   00000022   ........           JMP     ?EPILOGUE_B4_L09
    463          
    464          //-----------------------------------------------------------------------------------------------------

   \                                 In  segment CODE, align 2, keep-with-next
    465          CEmergencyAlarmHighLevelNamurDfa::CEmergencyAlarmHighLevelNamurDfa()
   \                     ??CEmergencyAlarmHighLevelNamurDfa:
   \   00000000   93BA               ST      -Y, R27
   \   00000002   93AA               ST      -Y, R26
   \   00000004   01D8               MOVW    R27:R26, R17:R16
    466          {
   \   00000006   018D               MOVW    R17:R16, R27:R26
   \   00000008   ....               RCALL   ??CAlarmDfa
   \   0000000A   ....               LDI     R16, LOW(??__vtbl_10)
   \   0000000C   ....               LDI     R17, (??__vtbl_10) >> 8
   \   0000000E   01FD               MOVW    R31:R30, R27:R26
   \   00000010   8301               STD     Z+1, R16
   \   00000012   8312               STD     Z+2, R17
    467              SetFsmState(ACTIVE_STATE_WAITING);
   \   00000014   E021               LDI     R18, 1
   \   00000016   018D               MOVW    R17:R16, R27:R26
   \   00000018   ........           CALL    ??SetFsmState
    468          }
   \   0000001C   018D               MOVW    R17:R16, R27:R26
   \   0000001E   91A9               LD      R26, Y+
   \   00000020   91B9               LD      R27, Y+
   \   00000022   9508               RET
    469          
    470          //-----------------------------------------------------------------------------------------------------

   \                                 In  segment CODE, align 2, keep-with-next
    471          CEmergencyAlarmHighLevelNamurDfa::~CEmergencyAlarmHighLevelNamurDfa()
   \                     `?~CEmergencyAlarmHighLevelNamurDfa`:
    472          {
   \   00000000   ........           CALL    ?PROLOGUE4_L09
   \   00000004   01C8               MOVW    R25:R24, R17:R16
   \   00000006   01D9               MOVW    R27:R26, R19:R18
   \   00000008   2F08               MOV     R16, R24
   \   0000000A   2B09               OR      R16, R25
   \   0000000C   F049               BREQ    `?~CEmergencyAlarmHighLevelNamurDfa_1`
    473              //dtor
    474          }
   \   0000000E   E020               LDI     R18, 0
   \   00000010   E030               LDI     R19, 0
   \   00000012   018C               MOVW    R17:R16, R25:R24
   \   00000014   ....               RCALL   `?~CAlarmDfa`
   \   00000016   FBA0               BST     R26, 0
   \   00000018   F41E               BRTC    `?~CEmergencyAlarmHighLevelNamurDfa_1`
   \   0000001A   018C               MOVW    R17:R16, R25:R24
   \   0000001C   ........           CALL    `??operator delete`
   \                     `?~CEmergencyAlarmHighLevelNamurDfa_1`:
   \   00000020   E0E4               LDI     R30, 4
   \   00000022   ........           JMP     ?EPILOGUE_B4_L09
    475          //-----------------------------------------------------------------------------------------------------
    476          
    477          
    478          
    479          
    480          
    481          
    482          
    483          
    484          //-----------------------------------------------------------------------------------------------------

   \                                 In  segment CODE, align 2, keep-with-next
    485          CIndicationAlarmLowLevelDfa::CIndicationAlarmLowLevelDfa()
   \                     ??CIndicationAlarmLowLevelDfa:
   \   00000000   93BA               ST      -Y, R27
   \   00000002   93AA               ST      -Y, R26
   \   00000004   01D8               MOVW    R27:R26, R17:R16
    486          {
   \   00000006   018D               MOVW    R17:R16, R27:R26
   \   00000008   ....               RCALL   ??CAlarmDfa
   \   0000000A   ....               LDI     R16, LOW(??__vtbl_11)
   \   0000000C   ....               LDI     R17, (??__vtbl_11) >> 8
   \   0000000E   01FD               MOVW    R31:R30, R27:R26
   \   00000010   8301               STD     Z+1, R16
   \   00000012   8312               STD     Z+2, R17
    487              SetFsmState(ACTIVE_STATE_WAITING);
   \   00000014   E021               LDI     R18, 1
   \   00000016   018D               MOVW    R17:R16, R27:R26
   \   00000018   ........           CALL    ??SetFsmState
    488          }
   \   0000001C   018D               MOVW    R17:R16, R27:R26
   \   0000001E   91A9               LD      R26, Y+
   \   00000020   91B9               LD      R27, Y+
   \   00000022   9508               RET
    489          
    490          //-----------------------------------------------------------------------------------------------------

   \                                 In  segment CODE, align 2, keep-with-next
    491          CIndicationAlarmLowLevelDfa::~CIndicationAlarmLowLevelDfa()
   \                     `?~CIndicationAlarmLowLevelDfa`:
    492          {
   \   00000000   ........           CALL    ?PROLOGUE4_L09
   \   00000004   01C8               MOVW    R25:R24, R17:R16
   \   00000006   01D9               MOVW    R27:R26, R19:R18
   \   00000008   2F08               MOV     R16, R24
   \   0000000A   2B09               OR      R16, R25
   \   0000000C   F049               BREQ    `?~CIndicationAlarmLowLevelDfa_1`
    493              //dtor
    494          }
   \   0000000E   E020               LDI     R18, 0
   \   00000010   E030               LDI     R19, 0
   \   00000012   018C               MOVW    R17:R16, R25:R24
   \   00000014   ....               RCALL   `?~CAlarmDfa`
   \   00000016   FBA0               BST     R26, 0
   \   00000018   F41E               BRTC    `?~CIndicationAlarmLowLevelDfa_1`
   \   0000001A   018C               MOVW    R17:R16, R25:R24
   \   0000001C   ........           CALL    `??operator delete`
   \                     `?~CIndicationAlarmLowLevelDfa_1`:
   \   00000020   E0E4               LDI     R30, 4
   \   00000022   ........           JMP     ?EPILOGUE_B4_L09
    495          
    496          //-----------------------------------------------------------------------------------------------------
    497          // Автомат обработки сигнализации дискретного сигнала.

   \                                 In  segment CODE, align 2, keep-with-next
    498          void CIndicationAlarmLowLevelDfa::Fsm(void)
   \                     ??Fsm_1:
    499          {
   \   00000000   ........           CALL    ?PROLOGUE5_L09
   \   00000004                      REQUIRE ?Register_R4_is_cg_reg
   \   00000004   01D8               MOVW    R27:R26, R17:R16
    500              bool bIsDiscreteInputStateActive = false;
   \   00000006   E080               LDI     R24, 0
    501              bool bIsNamurActive = false;
   \   00000008   E090               LDI     R25, 0
    502              // тип текущего дискретного сигнала namur?
    503              if (IS_NAMUR_ON())
   \   0000000A   018D               MOVW    R17:R16, R27:R26
   \   0000000C   01FD               MOVW    R31:R30, R27:R26
   \   0000000E   8121               LDD     R18, Z+1
   \   00000010   8132               LDD     R19, Z+2
   \   00000012   01F9               MOVW    R31:R30, R19:R18
   \   00000014   9638               ADIW    R31:R30, 8
   \   00000016   9125               LPM     R18, Z+
   \   00000018   9134               LPM     R19, Z
   \   0000001A   9739               SBIW    R31:R30, 9
   \   0000001C   01F9               MOVW    R31:R30, R19:R18
   \   0000001E   9509               ICALL
   \   00000020   2300               TST     R16
   \   00000022   F011               BREQ    ??Fsm_50
   \   00000024   E001               LDI     R16, 1
   \   00000026   C001               RJMP    ??Fsm_51
   \                     ??Fsm_50:
   \   00000028   E000               LDI     R16, 0
   \                     ??Fsm_51:
   \   0000002A   2300               TST     R16
   \   0000002C   F409               BRNE    $+2+2
   \   0000002E   C06B               RJMP    ??Fsm_52
    504              {
    505                  switch (CPss21::GetDiscreteInputsBadState(GetDiscreteStateIndex()))
   \   00000030   018D               MOVW    R17:R16, R27:R26
   \   00000032   ........           CALL    ??GetDiscreteStateIndex
   \   00000036   ........           CALL    ??GetDiscreteInputsBadState
   \   0000003A   5000               SUBI    R16, 0
   \   0000003C   F049               BREQ    ??Fsm_53
   \   0000003E   950A               DEC     R16
   \   00000040   F039               BREQ    ??Fsm_53
   \   00000042   950A               DEC     R16
   \   00000044   F409               BRNE    $+2+2
   \   00000046   C056               RJMP    ??Fsm_54
   \   00000048   950A               DEC     R16
   \   0000004A   F409               BRNE    $+2+2
   \   0000004C   C053               RJMP    ??Fsm_54
   \   0000004E   C0CC               RJMP    ??Fsm_55
    506                  {
    507                  case OFF:
    508                  case ON:
    509                      // Дискретный сигнал активен?
    510                      // уровень сигналы типа "СУХОЙ КОНТАКТ" (СК) определяем по состояниям дискретного входа:
    511                      // 2 - обрыв(разомкнуто), и 3 - КЗ(замкнуто).
    512                      if (ACTIVE_LEVEL())
   \                     ??Fsm_53:
   \   00000050   018D               MOVW    R17:R16, R27:R26
   \   00000052   01FD               MOVW    R31:R30, R27:R26
   \   00000054   8121               LDD     R18, Z+1
   \   00000056   8132               LDD     R19, Z+2
   \   00000058   01F9               MOVW    R31:R30, R19:R18
   \   0000005A   9636               ADIW    R31:R30, 6
   \   0000005C   9125               LPM     R18, Z+
   \   0000005E   9134               LPM     R19, Z
   \   00000060   9737               SBIW    R31:R30, 7
   \   00000062   01F9               MOVW    R31:R30, R19:R18
   \   00000064   9509               ICALL
   \   00000066   2300               TST     R16
   \   00000068   F011               BREQ    ??Fsm_56
   \   0000006A   E001               LDI     R16, 1
   \   0000006C   C001               RJMP    ??Fsm_57
   \                     ??Fsm_56:
   \   0000006E   E000               LDI     R16, 0
   \                     ??Fsm_57:
   \   00000070   2300               TST     R16
   \   00000072   F101               BREQ    ??Fsm_58
    513                      {
    514                          if ((CPss21::GetDiscreteInputsBadState(GetDiscreteStateIndex()) & 0x03) == 0)
   \   00000074   018D               MOVW    R17:R16, R27:R26
   \   00000076   ........           CALL    ??GetDiscreteStateIndex
   \   0000007A   ........           CALL    ??GetDiscreteInputsBadState
   \   0000007E   7003               ANDI    R16, 0x03
   \   00000080   2300               TST     R16
   \   00000082   F441               BRNE    ??Fsm_59
    515                          {
    516                              bIsDiscreteInputStateActive = true;
   \   00000084   E081               LDI     R24, 1
    517                              // установим значение текущего дискретного входа отображаемое в пространстве модбас
    518                              // интерпретированное с учетом условия активности.
    519                              CPss21::SetDiscreteInputState(GetDiscreteStateIndex(), 1);
   \   00000086   018D               MOVW    R17:R16, R27:R26
   \   00000088   ........           CALL    ??GetDiscreteStateIndex
   \   0000008C   E011               LDI     R17, 1
   \   0000008E   ........           CALL    ??SetDiscreteInputState
   \   00000092   C0AA               RJMP    ??Fsm_55
    520                          }
    521                          else if ((CPss21::GetDiscreteInputsBadState(GetDiscreteStateIndex()) & 0x03) == 1)
   \                     ??Fsm_59:
   \   00000094   018D               MOVW    R17:R16, R27:R26
   \   00000096   ........           CALL    ??GetDiscreteStateIndex
   \   0000009A   ........           CALL    ??GetDiscreteInputsBadState
   \   0000009E   7003               ANDI    R16, 0x03
   \   000000A0   3001               CPI     R16, 1
   \   000000A2   F539               BRNE    ??Fsm_60
    522                          {
    523                              bIsDiscreteInputStateActive = false;
   \   000000A4   E080               LDI     R24, 0
    524                              // установим значение текущего дискретного входа отображаемое в пространстве модбас
    525                              // интерпретированное с учетом условия активности.
    526                              CPss21::SetDiscreteInputState(GetDiscreteStateIndex(), 0);
   \   000000A6   018D               MOVW    R17:R16, R27:R26
   \   000000A8   ........           CALL    ??GetDiscreteStateIndex
   \   000000AC   E010               LDI     R17, 0
   \   000000AE   ........           CALL    ??SetDiscreteInputState
   \   000000B2   C09A               RJMP    ??Fsm_55
    527                          }
    528                      }
    529                      else
    530                      {
    531                          if ((CPss21::GetDiscreteInputsBadState(GetDiscreteStateIndex()) & 0x03) == 1)
   \                     ??Fsm_58:
   \   000000B4   018D               MOVW    R17:R16, R27:R26
   \   000000B6   ........           CALL    ??GetDiscreteStateIndex
   \   000000BA   ........           CALL    ??GetDiscreteInputsBadState
   \   000000BE   7003               ANDI    R16, 0x03
   \   000000C0   3001               CPI     R16, 1
   \   000000C2   F441               BRNE    ??Fsm_61
    532                          {
    533                              bIsDiscreteInputStateActive = true;
   \   000000C4   E081               LDI     R24, 1
    534                              // установим значение текущего дискретного входа отображаемое в пространстве модбас
    535                              // интерпретированное с учетом условия активности.
    536                              CPss21::SetDiscreteInputState(GetDiscreteStateIndex(), 1);
   \   000000C6   018D               MOVW    R17:R16, R27:R26
   \   000000C8   ........           CALL    ??GetDiscreteStateIndex
   \   000000CC   E011               LDI     R17, 1
   \   000000CE   ........           CALL    ??SetDiscreteInputState
   \   000000D2   C08A               RJMP    ??Fsm_55
    537                          }
    538                          else if ((CPss21::GetDiscreteInputsBadState(GetDiscreteStateIndex()) & 0x03) == 0)
   \                     ??Fsm_61:
   \   000000D4   018D               MOVW    R17:R16, R27:R26
   \   000000D6   ........           CALL    ??GetDiscreteStateIndex
   \   000000DA   ........           CALL    ??GetDiscreteInputsBadState
   \   000000DE   7003               ANDI    R16, 0x03
   \   000000E0   2300               TST     R16
   \   000000E2   F439               BRNE    ??Fsm_60
    539                          {
    540                              bIsDiscreteInputStateActive = false;
   \   000000E4   E080               LDI     R24, 0
    541                              // установим значение текущего дискретного входа отображаемое в пространстве модбас
    542                              // интерпретированное с учетом условия активности.
    543                              CPss21::SetDiscreteInputState(GetDiscreteStateIndex(), 0);
   \   000000E6   018D               MOVW    R17:R16, R27:R26
   \   000000E8   ........           CALL    ??GetDiscreteStateIndex
   \   000000EC   E010               LDI     R17, 0
   \   000000EE   ........           CALL    ??SetDiscreteInputState
    544                          }
    545                      }
    546                      break;
   \                     ??Fsm_60:
   \   000000F2   C07A               RJMP    ??Fsm_55
    547          
    548                  case WIRE_BREAK:
    549                  case SHORT_CIRCUIT:
    550                      bIsDiscreteInputStateActive = false;
   \                     ??Fsm_54:
   \   000000F4   E080               LDI     R24, 0
    551                      bIsNamurActive = true;
   \   000000F6   E091               LDI     R25, 1
    552                      // установим значение текущего дискретного входа отображаемое в пространстве модбас
    553                      // интерпретированное с учетом условия активности.
    554                      CPss21::SetDiscreteInputState(GetDiscreteStateIndex(), 0);
   \   000000F8   018D               MOVW    R17:R16, R27:R26
   \   000000FA   ........           CALL    ??GetDiscreteStateIndex
   \   000000FE   E010               LDI     R17, 0
   \   00000100   ........           CALL    ??SetDiscreteInputState
    555                      break;
   \   00000104   C071               RJMP    ??Fsm_55
    556          
    557                  default:
    558                      break;
    559                  }
    560              }
    561              else
    562              {
    563                  // Дискретный сигнал активен?
    564                  // уровень сигналы типа "СУХОЙ КОНТАКТ" (СК) определяем по состояниям дискретного входа:
    565                  // 2 - обрыв(разомкнуто), и 3 - КЗ(замкнуто).
    566                  if (ACTIVE_LEVEL())
   \                     ??Fsm_52:
   \   00000106   018D               MOVW    R17:R16, R27:R26
   \   00000108   01FD               MOVW    R31:R30, R27:R26
   \   0000010A   8121               LDD     R18, Z+1
   \   0000010C   8132               LDD     R19, Z+2
   \   0000010E   01F9               MOVW    R31:R30, R19:R18
   \   00000110   9636               ADIW    R31:R30, 6
   \   00000112   9125               LPM     R18, Z+
   \   00000114   9134               LPM     R19, Z
   \   00000116   9737               SBIW    R31:R30, 7
   \   00000118   01F9               MOVW    R31:R30, R19:R18
   \   0000011A   9509               ICALL
   \   0000011C   2300               TST     R16
   \   0000011E   F011               BREQ    ??Fsm_62
   \   00000120   E001               LDI     R16, 1
   \   00000122   C001               RJMP    ??Fsm_63
   \                     ??Fsm_62:
   \   00000124   E000               LDI     R16, 0
   \                     ??Fsm_63:
   \   00000126   2300               TST     R16
   \   00000128   F181               BREQ    ??Fsm_64
    567                  {
    568                      if (((CPss21::GetDiscreteInputsBadState(GetDiscreteStateIndex()) & 0x03) == 2) ||
    569                              ((CPss21::GetDiscreteInputsBadState(GetDiscreteStateIndex()) & 0x03) == 1))
   \   0000012A   018D               MOVW    R17:R16, R27:R26
   \   0000012C   ........           CALL    ??GetDiscreteStateIndex
   \   00000130   ........           CALL    ??GetDiscreteInputsBadState
   \   00000134   7003               ANDI    R16, 0x03
   \   00000136   3002               CPI     R16, 2
   \   00000138   F041               BREQ    ??Fsm_65
   \   0000013A   018D               MOVW    R17:R16, R27:R26
   \   0000013C   ........           CALL    ??GetDiscreteStateIndex
   \   00000140   ........           CALL    ??GetDiscreteInputsBadState
   \   00000144   7003               ANDI    R16, 0x03
   \   00000146   3001               CPI     R16, 1
   \   00000148   F441               BRNE    ??Fsm_66
    570                      {
    571                          bIsDiscreteInputStateActive = true;
   \                     ??Fsm_65:
   \   0000014A   E081               LDI     R24, 1
    572                          // установим значение текущего дискретного входа отображаемое в пространстве модбас
    573                          // интерпретированное с учетом условия активности.
    574                          CPss21::SetDiscreteInputState(GetDiscreteStateIndex(), 1);
   \   0000014C   018D               MOVW    R17:R16, R27:R26
   \   0000014E   ........           CALL    ??GetDiscreteStateIndex
   \   00000152   E011               LDI     R17, 1
   \   00000154   ........           CALL    ??SetDiscreteInputState
   \   00000158   C047               RJMP    ??Fsm_55
    575                      }
    576                      else if (((CPss21::GetDiscreteInputsBadState(GetDiscreteStateIndex()) & 0x03) == 3) ||
    577                               ((CPss21::GetDiscreteInputsBadState(GetDiscreteStateIndex()) & 0x03) == 0))
   \                     ??Fsm_66:
   \   0000015A   018D               MOVW    R17:R16, R27:R26
   \   0000015C   ........           CALL    ??GetDiscreteStateIndex
   \   00000160   ........           CALL    ??GetDiscreteInputsBadState
   \   00000164   7003               ANDI    R16, 0x03
   \   00000166   3003               CPI     R16, 3
   \   00000168   F041               BREQ    ??Fsm_67
   \   0000016A   018D               MOVW    R17:R16, R27:R26
   \   0000016C   ........           CALL    ??GetDiscreteStateIndex
   \   00000170   ........           CALL    ??GetDiscreteInputsBadState
   \   00000174   7003               ANDI    R16, 0x03
   \   00000176   2300               TST     R16
   \   00000178   F5B9               BRNE    ??Fsm_55
    578                      {
    579                          bIsDiscreteInputStateActive = false;
   \                     ??Fsm_67:
   \   0000017A   E080               LDI     R24, 0
    580                          // установим значение текущего дискретного входа отображаемое в пространстве модбас
    581                          // интерпретированное с учетом условия активности.
    582                          CPss21::SetDiscreteInputState(GetDiscreteStateIndex(), 0);
   \   0000017C   018D               MOVW    R17:R16, R27:R26
   \   0000017E   ........           CALL    ??GetDiscreteStateIndex
   \   00000182   E010               LDI     R17, 0
   \   00000184   ........           CALL    ??SetDiscreteInputState
   \   00000188   C02F               RJMP    ??Fsm_55
    583                      }
    584                  }
    585                  else
    586                  {
    587                      if (((CPss21::GetDiscreteInputsBadState(GetDiscreteStateIndex()) & 0x03) == 3) ||
    588                              ((CPss21::GetDiscreteInputsBadState(GetDiscreteStateIndex()) & 0x03) == 0))
   \                     ??Fsm_64:
   \   0000018A   018D               MOVW    R17:R16, R27:R26
   \   0000018C   ........           CALL    ??GetDiscreteStateIndex
   \   00000190   ........           CALL    ??GetDiscreteInputsBadState
   \   00000194   7003               ANDI    R16, 0x03
   \   00000196   3003               CPI     R16, 3
   \   00000198   F041               BREQ    ??Fsm_68
   \   0000019A   018D               MOVW    R17:R16, R27:R26
   \   0000019C   ........           CALL    ??GetDiscreteStateIndex
   \   000001A0   ........           CALL    ??GetDiscreteInputsBadState
   \   000001A4   7003               ANDI    R16, 0x03
   \   000001A6   2300               TST     R16
   \   000001A8   F441               BRNE    ??Fsm_69
    589                      {
    590                          bIsDiscreteInputStateActive = true;
   \                     ??Fsm_68:
   \   000001AA   E081               LDI     R24, 1
    591                          // установим значение текущего дискретного входа отображаемое в пространстве модбас
    592                          // интерпретированное с учетом условия активности.
    593                          CPss21::SetDiscreteInputState(GetDiscreteStateIndex(), 1);
   \   000001AC   018D               MOVW    R17:R16, R27:R26
   \   000001AE   ........           CALL    ??GetDiscreteStateIndex
   \   000001B2   E011               LDI     R17, 1
   \   000001B4   ........           CALL    ??SetDiscreteInputState
   \   000001B8   C017               RJMP    ??Fsm_55
    594                      }
    595                      else if (((CPss21::GetDiscreteInputsBadState(GetDiscreteStateIndex()) & 0x03) == 2) ||
    596                               ((CPss21::GetDiscreteInputsBadState(GetDiscreteStateIndex()) & 0x03) == 1))
   \                     ??Fsm_69:
   \   000001BA   018D               MOVW    R17:R16, R27:R26
   \   000001BC   ........           CALL    ??GetDiscreteStateIndex
   \   000001C0   ........           CALL    ??GetDiscreteInputsBadState
   \   000001C4   7003               ANDI    R16, 0x03
   \   000001C6   3002               CPI     R16, 2
   \   000001C8   F041               BREQ    ??Fsm_70
   \   000001CA   018D               MOVW    R17:R16, R27:R26
   \   000001CC   ........           CALL    ??GetDiscreteStateIndex
   \   000001D0   ........           CALL    ??GetDiscreteInputsBadState
   \   000001D4   7003               ANDI    R16, 0x03
   \   000001D6   3001               CPI     R16, 1
   \   000001D8   F439               BRNE    ??Fsm_55
    597                      {
    598                          bIsDiscreteInputStateActive = false;
   \                     ??Fsm_70:
   \   000001DA   E080               LDI     R24, 0
    599                          // установим значение текущего дискретного входа отображаемое в пространстве модбас
    600                          // интерпретированное с учетом условия активности.
    601                          CPss21::SetDiscreteInputState(GetDiscreteStateIndex(), 0);
   \   000001DC   018D               MOVW    R17:R16, R27:R26
   \   000001DE   ........           CALL    ??GetDiscreteStateIndex
   \   000001E2   E010               LDI     R17, 0
   \   000001E4   ........           CALL    ??SetDiscreteInputState
    602                      }
    603                  }
    604              }
    605          
    606              switch (GetFsmState())
   \                     ??Fsm_55:
   \   000001E8   018D               MOVW    R17:R16, R27:R26
   \   000001EA   ........           CALL    ??GetFsmState
   \   000001EE   5000               SUBI    R16, 0
   \   000001F0   F061               BREQ    ??Fsm_71
   \   000001F2   950A               DEC     R16
   \   000001F4   F059               BREQ    ??Fsm_72
   \   000001F6   5006               SUBI    R16, 6
   \   000001F8   F409               BRNE    $+2+2
   \   000001FA   C0A0               RJMP    ??Fsm_73
   \   000001FC   950A               DEC     R16
   \   000001FE   F409               BRNE    $+2+2
   \   00000200   C0F2               RJMP    ??Fsm_74
   \   00000202   950A               DEC     R16
   \   00000204   F409               BRNE    $+2+2
   \   00000206   C10A               RJMP    ??Fsm_75
   \   00000208   C11F               RJMP    ??Fsm_76
    607              {
    608              case START:
    609                  break;
   \                     ??Fsm_71:
   \   0000020A   C11E               RJMP    ??Fsm_76
    610          
    611              case ACTIVE_STATE_WAITING:
    612                  CPss21::m_aucRtuHoldingRegistersArray[0] = CPss21::m_aucDiscreteInputsBadState[0];
   \                     ??Fsm_72:
   \   0000020C   9100....           LDS     R16, ??m_aucDiscreteInputsBadState
   \   00000210   E010               LDI     R17, 0
   \   00000212   ....               LDI     R30, LOW(??m_aucRtuHoldingRegistersArray)
   \   00000214   ....               LDI     R31, (??m_aucRtuHoldingRegistersArray) >> 8
   \   00000216   8300               ST      Z, R16
   \   00000218   8311               STD     Z+1, R17
    613                  // тип текущего дискретного сигнала namur?
    614                  if (IS_NAMUR_ON())
   \   0000021A   018D               MOVW    R17:R16, R27:R26
   \   0000021C   01FD               MOVW    R31:R30, R27:R26
   \   0000021E   8121               LDD     R18, Z+1
   \   00000220   8132               LDD     R19, Z+2
   \   00000222   01F9               MOVW    R31:R30, R19:R18
   \   00000224   9638               ADIW    R31:R30, 8
   \   00000226   9125               LPM     R18, Z+
   \   00000228   9134               LPM     R19, Z
   \   0000022A   9739               SBIW    R31:R30, 9
   \   0000022C   01F9               MOVW    R31:R30, R19:R18
   \   0000022E   9509               ICALL
   \   00000230   2300               TST     R16
   \   00000232   F011               BREQ    ??Fsm_77
   \   00000234   E001               LDI     R16, 1
   \   00000236   C001               RJMP    ??Fsm_78
   \                     ??Fsm_77:
   \   00000238   E000               LDI     R16, 0
   \                     ??Fsm_78:
   \   0000023A   2300               TST     R16
   \   0000023C   F409               BRNE    $+2+2
   \   0000023E   C043               RJMP    ??Fsm_79
    615                  {
    616                      if (bIsNamurActive)
   \   00000240   2399               TST     R25
   \   00000242   F029               BREQ    ??Fsm_80
    617                      {
    618                          SetFsmState(NAMUR_STATE_ON);
   \   00000244   E028               LDI     R18, 8
   \   00000246   018D               MOVW    R17:R16, R27:R26
   \   00000248   ........           CALL    ??SetFsmState
   \   0000024C   C0FD               RJMP    ??Fsm_76
    619                      }
    620                      else
    621                      {
    622                          // Дискретный сигнал активен?
    623                          if (bIsDiscreteInputStateActive)
   \                     ??Fsm_80:
   \   0000024E   2388               TST     R24
   \   00000250   F409               BRNE    $+2+2
   \   00000252   C0FA               RJMP    ??Fsm_76
    624                          {
    625                              // Установим связанные дискретный выходы - новое нарушение.
    626                              CPss21::DiscreteOutputsSet(GetLinkedDiscreteOutputsPointer(), NEW_VIOLATION);
   \   00000254   018D               MOVW    R17:R16, R27:R26
   \   00000256   ........           CALL    ??GetLinkedDiscreteOutputsPointer
   \   0000025A   E021               LDI     R18, 1
   \   0000025C   ........           CALL    ??DiscreteOutputsSet
    627                              // Установим тип сигнализации связанному окну в массиве управления окнами извещателя.
    628                              CPss21::SetAlarmWindowType(GetAlarmWindowIndex(), ALARM_TYPE());
   \   00000260   018D               MOVW    R17:R16, R27:R26
   \   00000262   01FD               MOVW    R31:R30, R27:R26
   \   00000264   8121               LDD     R18, Z+1
   \   00000266   8132               LDD     R19, Z+2
   \   00000268   01F9               MOVW    R31:R30, R19:R18
   \   0000026A   9634               ADIW    R31:R30, 4
   \   0000026C   9125               LPM     R18, Z+
   \   0000026E   9134               LPM     R19, Z
   \   00000270   9735               SBIW    R31:R30, 5
   \   00000272   01F9               MOVW    R31:R30, R19:R18
   \   00000274   9509               ICALL
   \   00000276   2E40               MOV     R4, R16
   \   00000278   018D               MOVW    R17:R16, R27:R26
   \   0000027A   ........           CALL    ??GetAlarmWindowIndex
   \   0000027E   2D14               MOV     R17, R4
   \   00000280   ........           CALL    ??SetAlarmWindowType
    629                              CPss21::SetAlarmWindowColor(GetAlarmWindowIndex(), ALARM_TYPE());
   \   00000284   018D               MOVW    R17:R16, R27:R26
   \   00000286   01FD               MOVW    R31:R30, R27:R26
   \   00000288   8121               LDD     R18, Z+1
   \   0000028A   8132               LDD     R19, Z+2
   \   0000028C   01F9               MOVW    R31:R30, R19:R18
   \   0000028E   9634               ADIW    R31:R30, 4
   \   00000290   9125               LPM     R18, Z+
   \   00000292   9134               LPM     R19, Z
   \   00000294   9735               SBIW    R31:R30, 5
   \   00000296   01F9               MOVW    R31:R30, R19:R18
   \   00000298   9509               ICALL
   \   0000029A   2E40               MOV     R4, R16
   \   0000029C   018D               MOVW    R17:R16, R27:R26
   \   0000029E   ........           CALL    ??GetAlarmWindowIndex
   \   000002A2   2D14               MOV     R17, R4
   \   000002A4   ........           CALL    ??SetAlarmWindowColor
    630                              // Активизируем окно сигнализации, для отображения извещателем.
    631                              CPss21::GetAlarmWindowControlPointer(GetAlarmWindowIndex()) -> SetActivityState(1);
   \   000002A8   018D               MOVW    R17:R16, R27:R26
   \   000002AA   ........           CALL    ??GetAlarmWindowIndex
   \   000002AE   ........           CALL    ??GetAlarmWindowControlPointer
   \   000002B2   E021               LDI     R18, 1
   \   000002B4   ........           CALL    ??SetActivityState
    632                              CPss21::BoardWindowsUpdate();
   \   000002B8   ........           CALL    ??BoardWindowsUpdate
    633                              SetFsmState(NOT_ACTIVE_STATE_WAITING);
   \   000002BC   E027               LDI     R18, 7
   \   000002BE   018D               MOVW    R17:R16, R27:R26
   \   000002C0   ........           CALL    ??SetFsmState
   \   000002C4   C0C1               RJMP    ??Fsm_76
    634                          }
    635                      }
    636                  }
    637                  else
    638                  {
    639                      // Дискретный сигнал активен?
    640                      // уровень сигналы типа "СУХОЙ КОНТАКТ" (СК) определяем по состояниям дискретного входа:
    641                      // 2 - обрыв(разомкнуто), и 3 - КЗ(замкнуто).
    642                      if (bIsDiscreteInputStateActive)
   \                     ??Fsm_79:
   \   000002C6   2388               TST     R24
   \   000002C8   F1C1               BREQ    ??Fsm_81
    643                      {
    644                          // Установим связанные дискретный выходы - новое нарушение.
    645                          CPss21::DiscreteOutputsSet(GetLinkedDiscreteOutputsPointer(), NEW_VIOLATION);
   \   000002CA   018D               MOVW    R17:R16, R27:R26
   \   000002CC   ........           CALL    ??GetLinkedDiscreteOutputsPointer
   \   000002D0   E021               LDI     R18, 1
   \   000002D2   ........           CALL    ??DiscreteOutputsSet
    646                          // Установим тип сигнализации связанному окну в массиве управления окнами извещателя.
    647                          CPss21::SetAlarmWindowType(GetAlarmWindowIndex(), ALARM_TYPE());
   \   000002D6   018D               MOVW    R17:R16, R27:R26
   \   000002D8   01FD               MOVW    R31:R30, R27:R26
   \   000002DA   8121               LDD     R18, Z+1
   \   000002DC   8132               LDD     R19, Z+2
   \   000002DE   01F9               MOVW    R31:R30, R19:R18
   \   000002E0   9634               ADIW    R31:R30, 4
   \   000002E2   9125               LPM     R18, Z+
   \   000002E4   9134               LPM     R19, Z
   \   000002E6   9735               SBIW    R31:R30, 5
   \   000002E8   01F9               MOVW    R31:R30, R19:R18
   \   000002EA   9509               ICALL
   \   000002EC   2E40               MOV     R4, R16
   \   000002EE   018D               MOVW    R17:R16, R27:R26
   \   000002F0   ........           CALL    ??GetAlarmWindowIndex
   \   000002F4   2D14               MOV     R17, R4
   \   000002F6   ........           CALL    ??SetAlarmWindowType
    648                          CPss21::SetAlarmWindowColor(GetAlarmWindowIndex(), ALARM_TYPE());
   \   000002FA   018D               MOVW    R17:R16, R27:R26
   \   000002FC   01FD               MOVW    R31:R30, R27:R26
   \   000002FE   8121               LDD     R18, Z+1
   \   00000300   8132               LDD     R19, Z+2
   \   00000302   01F9               MOVW    R31:R30, R19:R18
   \   00000304   9634               ADIW    R31:R30, 4
   \   00000306   9125               LPM     R18, Z+
   \   00000308   9134               LPM     R19, Z
   \   0000030A   9735               SBIW    R31:R30, 5
   \   0000030C   01F9               MOVW    R31:R30, R19:R18
   \   0000030E   9509               ICALL
   \   00000310   2E40               MOV     R4, R16
   \   00000312   018D               MOVW    R17:R16, R27:R26
   \   00000314   ........           CALL    ??GetAlarmWindowIndex
   \   00000318   2D14               MOV     R17, R4
   \   0000031A   ........           CALL    ??SetAlarmWindowColor
    649                          // Активизируем окно сигнализации, для отображения извещателем.
    650                          CPss21::GetAlarmWindowControlPointer(GetAlarmWindowIndex()) -> SetActivityState(1);
   \   0000031E   018D               MOVW    R17:R16, R27:R26
   \   00000320   ........           CALL    ??GetAlarmWindowIndex
   \   00000324   ........           CALL    ??GetAlarmWindowControlPointer
   \   00000328   E021               LDI     R18, 1
   \   0000032A   ........           CALL    ??SetActivityState
    651                          CPss21::BoardWindowsUpdate();
   \   0000032E   ........           CALL    ??BoardWindowsUpdate
    652                          SetFsmState(NOT_ACTIVE_STATE_WAITING);
   \   00000332   E027               LDI     R18, 7
   \   00000334   018D               MOVW    R17:R16, R27:R26
   \   00000336   ........           CALL    ??SetFsmState
    653                      }
    654                  }
    655          
    656                  break;
   \                     ??Fsm_81:
   \   0000033A   C086               RJMP    ??Fsm_76
    657          
    658              case NOT_ACTIVE_STATE_WAITING:
    659                  // тип текущего дискретного сигнала namur?
    660                  if (IS_NAMUR_ON())
   \                     ??Fsm_73:
   \   0000033C   018D               MOVW    R17:R16, R27:R26
   \   0000033E   01FD               MOVW    R31:R30, R27:R26
   \   00000340   8121               LDD     R18, Z+1
   \   00000342   8132               LDD     R19, Z+2
   \   00000344   01F9               MOVW    R31:R30, R19:R18
   \   00000346   9638               ADIW    R31:R30, 8
   \   00000348   9125               LPM     R18, Z+
   \   0000034A   9134               LPM     R19, Z
   \   0000034C   9739               SBIW    R31:R30, 9
   \   0000034E   01F9               MOVW    R31:R30, R19:R18
   \   00000350   9509               ICALL
   \   00000352   2300               TST     R16
   \   00000354   F011               BREQ    ??Fsm_82
   \   00000356   E001               LDI     R16, 1
   \   00000358   C001               RJMP    ??Fsm_83
   \                     ??Fsm_82:
   \   0000035A   E000               LDI     R16, 0
   \                     ??Fsm_83:
   \   0000035C   2300               TST     R16
   \   0000035E   F129               BREQ    ??Fsm_84
    661                  {
    662                      if (bIsNamurActive)
   \   00000360   2399               TST     R25
   \   00000362   F029               BREQ    ??Fsm_85
    663                      {
    664                          SetFsmState(NAMUR_STATE_ON);
   \   00000364   E028               LDI     R18, 8
   \   00000366   018D               MOVW    R17:R16, R27:R26
   \   00000368   ........           CALL    ??SetFsmState
   \   0000036C   C06D               RJMP    ??Fsm_76
    665                      }
    666                      else
    667                      {
    668                          // Дискретный сигнал не активен?
    669                          if (!(bIsDiscreteInputStateActive))
   \                     ??Fsm_85:
   \   0000036E   2388               TST     R24
   \   00000370   F4A9               BRNE    ??Fsm_86
    670                          {
    671                              // Установим тип сигнализации связанному окну в массиве управления окнами извещателя.
    672                              CPss21::SetAlarmWindowType(GetAlarmWindowIndex(), NORMAL);
   \   00000372   018D               MOVW    R17:R16, R27:R26
   \   00000374   ........           CALL    ??GetAlarmWindowIndex
   \   00000378   E010               LDI     R17, 0
   \   0000037A   ........           CALL    ??SetAlarmWindowType
    673                              // Деактмвируем окно сигнализации, для прекращения отображения извещателем.
    674                              CPss21::GetAlarmWindowControlPointer(GetAlarmWindowIndex()) -> SetActivityState(0);
   \   0000037E   018D               MOVW    R17:R16, R27:R26
   \   00000380   ........           CALL    ??GetAlarmWindowIndex
   \   00000384   ........           CALL    ??GetAlarmWindowControlPointer
   \   00000388   E020               LDI     R18, 0
   \   0000038A   ........           CALL    ??SetActivityState
    675                              CPss21::BoardWindowsUpdate();
   \   0000038E   ........           CALL    ??BoardWindowsUpdate
    676                              SetFsmState(ACTIVE_STATE_WAITING);
   \   00000392   E021               LDI     R18, 1
   \   00000394   018D               MOVW    R17:R16, R27:R26
   \   00000396   ........           CALL    ??SetFsmState
   \   0000039A   C056               RJMP    ??Fsm_76
    677                          }
    678                          else
    679                          {
    680                              // Установим связанные дискретный выходы - не новое нарушение.
    681                              CPss21::DiscreteOutputsSet(GetLinkedDiscreteOutputsPointer(), NOT_NEW_VIOLATION);
   \                     ??Fsm_86:
   \   0000039C   018D               MOVW    R17:R16, R27:R26
   \   0000039E   ........           CALL    ??GetLinkedDiscreteOutputsPointer
   \   000003A2   E020               LDI     R18, 0
   \   000003A4   ........           CALL    ??DiscreteOutputsSet
   \   000003A8   C04F               RJMP    ??Fsm_76
    682                          }
    683                      }
    684                  }
    685                  else
    686                  {
    687                      // Дискретный сигнал не активен?
    688                      if (!(bIsDiscreteInputStateActive))
   \                     ??Fsm_84:
   \   000003AA   2388               TST     R24
   \   000003AC   F4A9               BRNE    ??Fsm_87
    689                      {
    690                          // Установим тип сигнализации связанному окну в массиве управления окнами извещателя.
    691                          CPss21::SetAlarmWindowType(GetAlarmWindowIndex(), NORMAL);
   \   000003AE   018D               MOVW    R17:R16, R27:R26
   \   000003B0   ........           CALL    ??GetAlarmWindowIndex
   \   000003B4   E010               LDI     R17, 0
   \   000003B6   ........           CALL    ??SetAlarmWindowType
    692                          // Деактмвируем окно сигнализации, для прекращения отображения извещателем.
    693                          CPss21::GetAlarmWindowControlPointer(GetAlarmWindowIndex()) -> SetActivityState(0);
   \   000003BA   018D               MOVW    R17:R16, R27:R26
   \   000003BC   ........           CALL    ??GetAlarmWindowIndex
   \   000003C0   ........           CALL    ??GetAlarmWindowControlPointer
   \   000003C4   E020               LDI     R18, 0
   \   000003C6   ........           CALL    ??SetActivityState
    694                          CPss21::BoardWindowsUpdate();
   \   000003CA   ........           CALL    ??BoardWindowsUpdate
    695                          SetFsmState(ACTIVE_STATE_WAITING);
   \   000003CE   E021               LDI     R18, 1
   \   000003D0   018D               MOVW    R17:R16, R27:R26
   \   000003D2   ........           CALL    ??SetFsmState
   \   000003D6   C038               RJMP    ??Fsm_76
    696                      }
    697                      else
    698                      {
    699                          // Установим связанные дискретный выходы - не новое нарушение.
    700                          CPss21::DiscreteOutputsSet(GetLinkedDiscreteOutputsPointer(), NOT_NEW_VIOLATION);
   \                     ??Fsm_87:
   \   000003D8   018D               MOVW    R17:R16, R27:R26
   \   000003DA   ........           CALL    ??GetLinkedDiscreteOutputsPointer
   \   000003DE   E020               LDI     R18, 0
   \   000003E0   ........           CALL    ??DiscreteOutputsSet
    701                      }
    702                  }
    703                  break;
   \   000003E4   C031               RJMP    ??Fsm_76
    704          
    705              case NAMUR_STATE_ON:
    706                  // Установим тип сигнализации связанному окну в массиве управления окнами извещателя.
    707                  CPss21::SetAlarmWindowType(GetAlarmWindowIndex(), INDICATION);
   \                     ??Fsm_74:
   \   000003E6   018D               MOVW    R17:R16, R27:R26
   \   000003E8   ........           CALL    ??GetAlarmWindowIndex
   \   000003EC   E011               LDI     R17, 1
   \   000003EE   ........           CALL    ??SetAlarmWindowType
    708                  CPss21::SetAlarmWindowColor(GetAlarmWindowIndex(), NAMUR_INDICATION);
   \   000003F2   018D               MOVW    R17:R16, R27:R26
   \   000003F4   ........           CALL    ??GetAlarmWindowIndex
   \   000003F8   E016               LDI     R17, 6
   \   000003FA   ........           CALL    ??SetAlarmWindowColor
    709                  CPss21::GetAlarmWindowControlPointer(GetAlarmWindowIndex()) -> SetActivityState(1);
   \   000003FE   018D               MOVW    R17:R16, R27:R26
   \   00000400   ........           CALL    ??GetAlarmWindowIndex
   \   00000404   ........           CALL    ??GetAlarmWindowControlPointer
   \   00000408   E021               LDI     R18, 1
   \   0000040A   ........           CALL    ??SetActivityState
    710                  CPss21::BoardWindowsUpdate();
   \   0000040E   ........           CALL    ??BoardWindowsUpdate
    711                  SetFsmState(NAMUR_INPUT_CORRECT_STATE_WAITING);
   \   00000412   E029               LDI     R18, 9
   \   00000414   018D               MOVW    R17:R16, R27:R26
   \   00000416   ........           CALL    ??SetFsmState
    712                  break;
   \   0000041A   C016               RJMP    ??Fsm_76
    713          
    714              case NAMUR_INPUT_CORRECT_STATE_WAITING:
    715                  // дискретный сигнал достоверен?
    716                  if (!(bIsNamurActive))
   \                     ??Fsm_75:
   \   0000041C   2399               TST     R25
   \   0000041E   F4A1               BRNE    ??Fsm_76
    717                  {
    718                      // Установим тип сигнализации связанному окну в массиве управления окнами извещателя.
    719                      CPss21::SetAlarmWindowType(GetAlarmWindowIndex(), NORMAL);
   \   00000420   018D               MOVW    R17:R16, R27:R26
   \   00000422   ........           CALL    ??GetAlarmWindowIndex
   \   00000426   E010               LDI     R17, 0
   \   00000428   ........           CALL    ??SetAlarmWindowType
    720                      CPss21::GetAlarmWindowControlPointer(GetAlarmWindowIndex()) -> SetActivityState(0);
   \   0000042C   018D               MOVW    R17:R16, R27:R26
   \   0000042E   ........           CALL    ??GetAlarmWindowIndex
   \   00000432   ........           CALL    ??GetAlarmWindowControlPointer
   \   00000436   E020               LDI     R18, 0
   \   00000438   ........           CALL    ??SetActivityState
    721                      CPss21::BoardWindowsUpdate();
   \   0000043C   ........           CALL    ??BoardWindowsUpdate
    722                      SetFsmState(ACTIVE_STATE_WAITING);
   \   00000440   E021               LDI     R18, 1
   \   00000442   018D               MOVW    R17:R16, R27:R26
   \   00000444   ........           CALL    ??SetFsmState
    723                  }
    724                  break;
    725          
    726              default:
    727                  break;
    728              }
    729          }
   \                     ??Fsm_76:
   \   00000448   E0E5               LDI     R30, 5
   \   0000044A   ........           JMP     ?EPILOGUE_B5_L09
    730          //-----------------------------------------------------------------------------------------------------
    731          
    732          
    733          
    734          
    735          
    736          
    737          
    738          
    739          //-----------------------------------------------------------------------------------------------------

   \                                 In  segment CODE, align 2, keep-with-next
    740          CIndicationAlarmHighLevelDfa::CIndicationAlarmHighLevelDfa()
   \                     ??CIndicationAlarmHighLevelDfa:
   \   00000000   93BA               ST      -Y, R27
   \   00000002   93AA               ST      -Y, R26
   \   00000004   01D8               MOVW    R27:R26, R17:R16
    741          {
   \   00000006   018D               MOVW    R17:R16, R27:R26
   \   00000008   ....               RCALL   ??CIndicationAlarmLowLevelDfa
   \   0000000A   ....               LDI     R16, LOW(??__vtbl_12)
   \   0000000C   ....               LDI     R17, (??__vtbl_12) >> 8
   \   0000000E   01FD               MOVW    R31:R30, R27:R26
   \   00000010   8301               STD     Z+1, R16
   \   00000012   8312               STD     Z+2, R17
    742              SetFsmState(ACTIVE_STATE_WAITING);
   \   00000014   E021               LDI     R18, 1
   \   00000016   018D               MOVW    R17:R16, R27:R26
   \   00000018   ........           CALL    ??SetFsmState
    743          }
   \   0000001C   018D               MOVW    R17:R16, R27:R26
   \   0000001E   91A9               LD      R26, Y+
   \   00000020   91B9               LD      R27, Y+
   \   00000022   9508               RET
    744          
    745          //-----------------------------------------------------------------------------------------------------

   \                                 In  segment CODE, align 2, keep-with-next
    746          CIndicationAlarmHighLevelDfa::~CIndicationAlarmHighLevelDfa()
   \                     `?~CIndicationAlarmHighLevelDfa`:
    747          {
   \   00000000   ........           CALL    ?PROLOGUE4_L09
   \   00000004   01C8               MOVW    R25:R24, R17:R16
   \   00000006   01D9               MOVW    R27:R26, R19:R18
   \   00000008   2F08               MOV     R16, R24
   \   0000000A   2B09               OR      R16, R25
   \   0000000C   F049               BREQ    `?~CIndicationAlarmHighLevelDfa_1`
    748              //dtor
    749          }
   \   0000000E   E020               LDI     R18, 0
   \   00000010   E030               LDI     R19, 0
   \   00000012   018C               MOVW    R17:R16, R25:R24
   \   00000014   ....               RCALL   `?~CIndicationAlarmLowLevelDfa`
   \   00000016   FBA0               BST     R26, 0
   \   00000018   F41E               BRTC    `?~CIndicationAlarmHighLevelDfa_1`
   \   0000001A   018C               MOVW    R17:R16, R25:R24
   \   0000001C   ........           CALL    `??operator delete`
   \                     `?~CIndicationAlarmHighLevelDfa_1`:
   \   00000020   E0E4               LDI     R30, 4
   \   00000022   ........           JMP     ?EPILOGUE_B4_L09
    750          //-----------------------------------------------------------------------------------------------------
    751          
    752          
    753          //-----------------------------------------------------------------------------------------------------

   \                                 In  segment CODE, align 2, keep-with-next
    754          CIndicationAlarmLowLevelNamurDfa::CIndicationAlarmLowLevelNamurDfa()
   \                     ??CIndicationAlarmLowLevelNamurDfa:
   \   00000000   93BA               ST      -Y, R27
   \   00000002   93AA               ST      -Y, R26
   \   00000004   01D8               MOVW    R27:R26, R17:R16
    755          {
   \   00000006   018D               MOVW    R17:R16, R27:R26
   \   00000008   ....               RCALL   ??CIndicationAlarmLowLevelDfa
   \   0000000A   ....               LDI     R16, LOW(??__vtbl_13)
   \   0000000C   ....               LDI     R17, (??__vtbl_13) >> 8
   \   0000000E   01FD               MOVW    R31:R30, R27:R26
   \   00000010   8301               STD     Z+1, R16
   \   00000012   8312               STD     Z+2, R17
    756              SetFsmState(ACTIVE_STATE_WAITING);
   \   00000014   E021               LDI     R18, 1
   \   00000016   018D               MOVW    R17:R16, R27:R26
   \   00000018   ........           CALL    ??SetFsmState
    757          }
   \   0000001C   018D               MOVW    R17:R16, R27:R26
   \   0000001E   91A9               LD      R26, Y+
   \   00000020   91B9               LD      R27, Y+
   \   00000022   9508               RET
    758          
    759          //-----------------------------------------------------------------------------------------------------

   \                                 In  segment CODE, align 2, keep-with-next
    760          CIndicationAlarmLowLevelNamurDfa::~CIndicationAlarmLowLevelNamurDfa()
   \                     `?~CIndicationAlarmLowLevelNamurDfa`:
    761          {
   \   00000000   ........           CALL    ?PROLOGUE4_L09
   \   00000004   01C8               MOVW    R25:R24, R17:R16
   \   00000006   01D9               MOVW    R27:R26, R19:R18
   \   00000008   2F08               MOV     R16, R24
   \   0000000A   2B09               OR      R16, R25
   \   0000000C   F049               BREQ    `?~CIndicationAlarmLowLevelNamurDfa_1`
    762              //dtor
    763          }
   \   0000000E   E020               LDI     R18, 0
   \   00000010   E030               LDI     R19, 0
   \   00000012   018C               MOVW    R17:R16, R25:R24
   \   00000014   ....               RCALL   `?~CIndicationAlarmLowLevelDfa`
   \   00000016   FBA0               BST     R26, 0
   \   00000018   F41E               BRTC    `?~CIndicationAlarmLowLevelNamurDfa_1`
   \   0000001A   018C               MOVW    R17:R16, R25:R24
   \   0000001C   ........           CALL    `??operator delete`
   \                     `?~CIndicationAlarmLowLevelNamurDfa_1`:
   \   00000020   E0E4               LDI     R30, 4
   \   00000022   ........           JMP     ?EPILOGUE_B4_L09
    764          //-----------------------------------------------------------------------------------------------------

   \                                 In  segment CODE, align 2, keep-with-next
    765          CIndicationAlarmHighLevelNamurDfa::CIndicationAlarmHighLevelNamurDfa()
   \                     ??CIndicationAlarmHighLevelNamurDfa:
   \   00000000   93BA               ST      -Y, R27
   \   00000002   93AA               ST      -Y, R26
   \   00000004   01D8               MOVW    R27:R26, R17:R16
    766          {
   \   00000006   018D               MOVW    R17:R16, R27:R26
   \   00000008   ....               RCALL   ??CIndicationAlarmLowLevelDfa
   \   0000000A   ....               LDI     R16, LOW(??__vtbl_14)
   \   0000000C   ....               LDI     R17, (??__vtbl_14) >> 8
   \   0000000E   01FD               MOVW    R31:R30, R27:R26
   \   00000010   8301               STD     Z+1, R16
   \   00000012   8312               STD     Z+2, R17
    767              SetFsmState(ACTIVE_STATE_WAITING);
   \   00000014   E021               LDI     R18, 1
   \   00000016   018D               MOVW    R17:R16, R27:R26
   \   00000018   ........           CALL    ??SetFsmState
    768          }
   \   0000001C   018D               MOVW    R17:R16, R27:R26
   \   0000001E   91A9               LD      R26, Y+
   \   00000020   91B9               LD      R27, Y+
   \   00000022   9508               RET
    769          
    770          //-----------------------------------------------------------------------------------------------------

   \                                 In  segment CODE, align 2, keep-with-next
    771          CIndicationAlarmHighLevelNamurDfa::~CIndicationAlarmHighLevelNamurDfa()
   \                     `?~CIndicationAlarmHighLevelNamurDfa`:
    772          {
   \   00000000   ........           CALL    ?PROLOGUE4_L09
   \   00000004   01C8               MOVW    R25:R24, R17:R16
   \   00000006   01D9               MOVW    R27:R26, R19:R18
   \   00000008   2F08               MOV     R16, R24
   \   0000000A   2B09               OR      R16, R25
   \   0000000C   F049               BREQ    `?~CIndicationAlarmHighLevelNamurDfa_1`
    773              //dtor
    774          }
   \   0000000E   E020               LDI     R18, 0
   \   00000010   E030               LDI     R19, 0
   \   00000012   018C               MOVW    R17:R16, R25:R24
   \   00000014   ....               RCALL   `?~CIndicationAlarmLowLevelDfa`
   \   00000016   FBA0               BST     R26, 0
   \   00000018   F41E               BRTC    `?~CIndicationAlarmHighLevelNamurDfa_1`
   \   0000001A   018C               MOVW    R17:R16, R25:R24
   \   0000001C   ........           CALL    `??operator delete`
   \                     `?~CIndicationAlarmHighLevelNamurDfa_1`:
   \   00000020   E0E4               LDI     R30, 4
   \   00000022   ........           JMP     ?EPILOGUE_B4_L09
    775          
    776          
    777          
    778          
    779          
    780          
    781          
    782          //-----------------------------------------------------------------------------------------------------

   \                                 In  segment CODE, align 2, keep-with-next
    783          CErrorAlarmDfa::CErrorAlarmDfa()
   \                     ??CErrorAlarmDfa:
   \   00000000   93BA               ST      -Y, R27
   \   00000002   93AA               ST      -Y, R26
   \   00000004   01D8               MOVW    R27:R26, R17:R16
    784          {
   \   00000006   018D               MOVW    R17:R16, R27:R26
   \   00000008   ........           CALL    ??CDfaLite
   \   0000000C   ....               LDI     R16, LOW(??__vtbl_15)
   \   0000000E   ....               LDI     R17, (??__vtbl_15) >> 8
   \   00000010   01FD               MOVW    R31:R30, R27:R26
   \   00000012   8301               STD     Z+1, R16
   \   00000014   8312               STD     Z+2, R17
    785              SetFsmState(ACTIVE_STATE_WAITING);
   \   00000016   E021               LDI     R18, 1
   \   00000018   018D               MOVW    R17:R16, R27:R26
   \   0000001A   ........           CALL    ??SetFsmState
    786          }
   \   0000001E   018D               MOVW    R17:R16, R27:R26
   \   00000020   91A9               LD      R26, Y+
   \   00000022   91B9               LD      R27, Y+
   \   00000024   9508               RET
    787          
    788          //-----------------------------------------------------------------------------------------------------

   \                                 In  segment CODE, align 2, keep-with-next
    789          CErrorAlarmDfa::~CErrorAlarmDfa()
   \                     `?~CErrorAlarmDfa`:
    790          {
   \   00000000   ........           CALL    ?PROLOGUE4_L09
   \   00000004   01C8               MOVW    R25:R24, R17:R16
   \   00000006   01D9               MOVW    R27:R26, R19:R18
   \   00000008   2F08               MOV     R16, R24
   \   0000000A   2B09               OR      R16, R25
   \   0000000C   F051               BREQ    `?~CErrorAlarmDfa_1`
    791              //dtor
    792          }
   \   0000000E   E020               LDI     R18, 0
   \   00000010   E030               LDI     R19, 0
   \   00000012   018C               MOVW    R17:R16, R25:R24
   \   00000014   ........           CALL    `?~CDfaLite`
   \   00000018   FBA0               BST     R26, 0
   \   0000001A   F41E               BRTC    `?~CErrorAlarmDfa_1`
   \   0000001C   018C               MOVW    R17:R16, R25:R24
   \   0000001E   ........           CALL    `??operator delete`
   \                     `?~CErrorAlarmDfa_1`:
   \   00000022   E0E4               LDI     R30, 4
   \   00000024   ........           JMP     ?EPILOGUE_B4_L09
    793          
    794          //-----------------------------------------------------------------------------------------------------
    795          // Автомат обработки системных ошибок.

   \                                 In  segment CODE, align 2, keep-with-next
    796          void CErrorAlarmDfa::Fsm(void)
   \                     ??Fsm_2:
    797          {
   \   00000000   ........           CALL    ?PROLOGUE5_L09
   \   00000004                      REQUIRE ?Register_R4_is_cg_reg
   \   00000004   01D8               MOVW    R27:R26, R17:R16
    798              switch (GetFsmState())
   \   00000006   018D               MOVW    R17:R16, R27:R26
   \   00000008   ........           CALL    ??GetFsmState
   \   0000000C   5000               SUBI    R16, 0
   \   0000000E   F049               BREQ    ??Fsm_88
   \   00000010   950A               DEC     R16
   \   00000012   F041               BREQ    ??Fsm_89
   \   00000014   950A               DEC     R16
   \   00000016   F409               BRNE    $+2+2
   \   00000018   C063               RJMP    ??Fsm_90
   \   0000001A   950A               DEC     R16
   \   0000001C   F409               BRNE    $+2+2
   \   0000001E   C06B               RJMP    ??Fsm_91
   \   00000020   C08B               RJMP    ??Fsm_92
    799              {
    800              case START:
    801                  break;
   \                     ??Fsm_88:
   \   00000022   C08A               RJMP    ??Fsm_92
    802          
    803              case ACTIVE_STATE_WAITING:
    804                  // Дискретный сигнал активен?
    805                  if (CPss21::GetErrorAlarmState(GetDiscreteStateIndex()) ^ ACTIVE_LEVEL())
   \                     ??Fsm_89:
   \   00000024   01FD               MOVW    R31:R30, R27:R26
   \   00000026   8181               LDD     R24, Z+1
   \   00000028   8192               LDD     R25, Z+2
   \   0000002A   9606               ADIW    R25:R24, 6
   \   0000002C   018D               MOVW    R17:R16, R27:R26
   \   0000002E   ........           CALL    ??GetDiscreteStateIndex_1
   \   00000032   ........           CALL    ??GetErrorAlarmState
   \   00000036   2E40               MOV     R4, R16
   \   00000038   018D               MOVW    R17:R16, R27:R26
   \   0000003A   01FC               MOVW    R31:R30, R25:R24
   \   0000003C   9125               LPM     R18, Z+
   \   0000003E   9134               LPM     R19, Z
   \   00000040   9731               SBIW    R31:R30, 1
   \   00000042   01F9               MOVW    R31:R30, R19:R18
   \   00000044   9509               ICALL
   \   00000046   2640               EOR     R4, R16
   \   00000048   2044               TST     R4
   \   0000004A   F011               BREQ    ??Fsm_93
   \   0000004C   E001               LDI     R16, 1
   \   0000004E   C001               RJMP    ??Fsm_94
   \                     ??Fsm_93:
   \   00000050   E000               LDI     R16, 0
   \                     ??Fsm_94:
   \   00000052   2300               TST     R16
   \   00000054   F409               BRNE    $+2+2
   \   00000056   C070               RJMP    ??Fsm_92
    806                  {
    807                      // Тип запрограммированной сигнализации дискретного сигнала имеет более высокий приоритет,
    808                      // чем тип общей сигнализации?
    809                      if ((CPss21::GetCommonAlarmType() != ERROR) &&
    810                              (CPss21::GetCommonAlarmType() < ALARM_TYPE()))
   \   00000058   ........           CALL    ??GetCommonAlarmType
   \   0000005C   3007               CPI     R16, 7
   \   0000005E   F121               BREQ    ??Fsm_95
   \   00000060   01FD               MOVW    R31:R30, R27:R26
   \   00000062   8181               LDD     R24, Z+1
   \   00000064   8192               LDD     R25, Z+2
   \   00000066   9604               ADIW    R25:R24, 4
   \   00000068   ........           CALL    ??GetCommonAlarmType
   \   0000006C   2E40               MOV     R4, R16
   \   0000006E   018D               MOVW    R17:R16, R27:R26
   \   00000070   01FC               MOVW    R31:R30, R25:R24
   \   00000072   9125               LPM     R18, Z+
   \   00000074   9134               LPM     R19, Z
   \   00000076   9731               SBIW    R31:R30, 1
   \   00000078   01F9               MOVW    R31:R30, R19:R18
   \   0000007A   9509               ICALL
   \   0000007C   1640               CP      R4, R16
   \   0000007E   F010               BRCS    ??Fsm_96
   \   00000080   E001               LDI     R16, 1
   \   00000082   C001               RJMP    ??Fsm_97
   \                     ??Fsm_96:
   \   00000084   E000               LDI     R16, 0
   \                     ??Fsm_97:
   \   00000086   2300               TST     R16
   \   00000088   F479               BRNE    ??Fsm_95
    811                      {
    812                          // Установим тип общей сигнализацию.
    813                          CPss21::SetCommonAlarmType(ALARM_TYPE());
   \   0000008A   018D               MOVW    R17:R16, R27:R26
   \   0000008C   9611               ADIW    R27:R26, 1
   \   0000008E   91ED               LD      R30, X+
   \   00000090   91FC               LD      R31, X
   \   00000092   9712               SBIW    R27:R26, 2
   \   00000094   9634               ADIW    R31:R30, 4
   \   00000096   9125               LPM     R18, Z+
   \   00000098   9134               LPM     R19, Z
   \   0000009A   9735               SBIW    R31:R30, 5
   \   0000009C   01F9               MOVW    R31:R30, R19:R18
   \   0000009E   9509               ICALL
   \   000000A0   ........           CALL    ??SetCommonAlarmType
    814          
    815                          // Изменим тип общей сигнализацию.
    816                          CPss21::AlarmTypeErrorChange();
   \   000000A4   ........           CALL    ??AlarmTypeErrorChange
    817                      }
    818          
    819                      CPss21::SetAlarmWindowColor(GetAlarmWindowIndex(), ALARM_TYPE());
   \                     ??Fsm_95:
   \   000000A8   018D               MOVW    R17:R16, R27:R26
   \   000000AA   9611               ADIW    R27:R26, 1
   \   000000AC   91ED               LD      R30, X+
   \   000000AE   91FC               LD      R31, X
   \   000000B0   9712               SBIW    R27:R26, 2
   \   000000B2   9634               ADIW    R31:R30, 4
   \   000000B4   9125               LPM     R18, Z+
   \   000000B6   9134               LPM     R19, Z
   \   000000B8   9735               SBIW    R31:R30, 5
   \   000000BA   01F9               MOVW    R31:R30, R19:R18
   \   000000BC   9509               ICALL
   \   000000BE   2F80               MOV     R24, R16
   \   000000C0   018D               MOVW    R17:R16, R27:R26
   \   000000C2   ........           CALL    ??GetAlarmWindowIndex_1
   \   000000C6   2F18               MOV     R17, R24
   \   000000C8   ........           CALL    ??SetAlarmWindowColor
    820          //            // Установим тип сигнализации связанному окну в массиве управления окнами извещателя.
    821                      CPss21::ErrorWindowOn(GetAlarmWindowIndex());
   \   000000CC   018D               MOVW    R17:R16, R27:R26
   \   000000CE   ........           CALL    ??GetAlarmWindowIndex_1
   \   000000D2   ........           CALL    ??ErrorWindowOn
    822                      SetFsmState(RECEIPT_WAITING);
   \   000000D6   E022               LDI     R18, 2
   \   000000D8   018D               MOVW    R17:R16, R27:R26
   \   000000DA   ........           CALL    ??SetFsmState
    823                  }
    824                  break;
   \   000000DE   C02C               RJMP    ??Fsm_92
    825          
    826              case RECEIPT_WAITING:
    827                  // Событие квитировано?
    828                  if (CPss21::GetDiscreteSignalsReceipt())
   \                     ??Fsm_90:
   \   000000E0   ........           CALL    ??GetDiscreteSignalsReceipt
   \   000000E4   2300               TST     R16
   \   000000E6   F141               BREQ    ??Fsm_92
    829                  {
    830                      // Переведём автоматы сигнализаций в состояние - квитировано.
    831                      CPss21::AlarmTypeReceipt();
   \   000000E8   ........           CALL    ??AlarmTypeReceipt
    832                      SetFsmState(RECEIPTED_NOT_ACTIVE_STATE_WAITING);
   \   000000EC   E023               LDI     R18, 3
   \   000000EE   018D               MOVW    R17:R16, R27:R26
   \   000000F0   ........           CALL    ??SetFsmState
    833                  }
    834                  break;
   \   000000F4   C021               RJMP    ??Fsm_92
    835          
    836              case RECEIPTED_NOT_ACTIVE_STATE_WAITING:
    837                  // Дискретный сигнал не активен?
    838                  if (!(CPss21::GetErrorAlarmState(GetDiscreteStateIndex()) ^ ACTIVE_LEVEL()))
   \                     ??Fsm_91:
   \   000000F6   01FD               MOVW    R31:R30, R27:R26
   \   000000F8   8181               LDD     R24, Z+1
   \   000000FA   8192               LDD     R25, Z+2
   \   000000FC   9606               ADIW    R25:R24, 6
   \   000000FE   018D               MOVW    R17:R16, R27:R26
   \   00000100   ........           CALL    ??GetDiscreteStateIndex_1
   \   00000104   ........           CALL    ??GetErrorAlarmState
   \   00000108   2E40               MOV     R4, R16
   \   0000010A   018D               MOVW    R17:R16, R27:R26
   \   0000010C   01FC               MOVW    R31:R30, R25:R24
   \   0000010E   9125               LPM     R18, Z+
   \   00000110   9134               LPM     R19, Z
   \   00000112   9731               SBIW    R31:R30, 1
   \   00000114   01F9               MOVW    R31:R30, R19:R18
   \   00000116   9509               ICALL
   \   00000118   2640               EOR     R4, R16
   \   0000011A   2044               TST     R4
   \   0000011C   F411               BRNE    ??Fsm_98
   \   0000011E   E001               LDI     R16, 1
   \   00000120   C001               RJMP    ??Fsm_99
   \                     ??Fsm_98:
   \   00000122   E000               LDI     R16, 0
   \                     ??Fsm_99:
   \   00000124   2300               TST     R16
   \   00000126   F041               BREQ    ??Fsm_92
    839                  {
    840                      // Переведём автоматы сигнализаций в состояние - сброшено.
    841                      CPss21::AlarmTypeReset();
   \   00000128   ........           CALL    ??AlarmTypeReset
    842                      CPss21::AllAlarmWindowOff();
   \   0000012C   ........           CALL    ??AllAlarmWindowOff
    843                      SetFsmState(ACTIVE_STATE_WAITING);
   \   00000130   E021               LDI     R18, 1
   \   00000132   018D               MOVW    R17:R16, R27:R26
   \   00000134   ........           CALL    ??SetFsmState
    844                  }
    845                  break;
    846          
    847              default:
    848                  break;
    849              }
    850          }
   \                     ??Fsm_92:
   \   00000138   E0E5               LDI     R30, 5
   \   0000013A   ........           JMP     ?EPILOGUE_B5_L09

   \                                 In  segment SWITCH, align 2, keep-with-next
   \                     `?<Jumptable for Fsm>_0`:
   \   00000000   00                 DB      0
   \   00000001   00                 DB      0
   \   00000002   ....               DW      (??Fsm_29) /2
   \   00000004   000A               DW      10
   \   00000006   ....               DW      (??Fsm_29) /2
   \   00000008   ....               DW      (??Fsm_24) /2
   \   0000000A   ....               DW      (??Fsm_37) /2
   \   0000000C   ....               DW      (??Fsm_32) /2
   \   0000000E   ....               DW      (??Fsm_41) /2
   \   00000010   ....               DW      (??Fsm_44) /2
   \   00000012   ....               DW      (??Fsm_46) /2
   \   00000014   ....               DW      (??Fsm_29) /2
   \   00000016   ....               DW      (??Fsm_48) /2
   \   00000018   ....               DW      (??Fsm_49) /2

   \                                 In  segment CODE, align 2, keep-with-next
   \   __version_3 CAlarmDfa &CAlarmDfa::new CAlarmDfa()
   \                     `??new CAlarmDfa`:
   \   00000000   E007               LDI     R16, 7
   \   00000002   E010               LDI     R17, 0
   \   00000004   ........           CALL    `??operator new`
   \   00000008   2F20               MOV     R18, R16
   \   0000000A   2B21               OR      R18, R17
   \   0000000C   F011               BREQ    `??new CAlarmDfa_1`
   \   0000000E   ....               RCALL   ??CAlarmDfa
   \   00000010   9508               RET
   \                     `??new CAlarmDfa_1`:
   \   00000012   E000               LDI     R16, 0
   \   00000014   E010               LDI     R17, 0
   \   00000016   9508               RET

   \                                 In  segment CODE, align 2, keep-with-next
   \   __version_3 CNormalAlarmDfa &CNormalAlarmDfa::new CNormalAlarmDfa()
   \                     `??new CNormalAlarmDfa`:
   \   00000000   E007               LDI     R16, 7
   \   00000002   E010               LDI     R17, 0
   \   00000004   ........           CALL    `??operator new`
   \   00000008   2F20               MOV     R18, R16
   \   0000000A   2B21               OR      R18, R17
   \   0000000C   F011               BREQ    `??new CNormalAlarmDfa_1`
   \   0000000E   ....               RCALL   ??CNormalAlarmDfa
   \   00000010   9508               RET
   \                     `??new CNormalAlarmDfa_1`:
   \   00000012   E000               LDI     R16, 0
   \   00000014   E010               LDI     R17, 0
   \   00000016   9508               RET

   \                                 In  segment CODE, align 2, keep-with-next
   \   __version_3 CPreventiveAlarmLowLevelDfa &CPreventiveAlarmLowLevelDfa::new CPreventiveAlarmLowLevelDfa()
   \                     `??new CPreventiveAlarmLowLevelDfa`:
   \   00000000   E007               LDI     R16, 7
   \   00000002   E010               LDI     R17, 0
   \   00000004   ........           CALL    `??operator new`
   \   00000008   2F20               MOV     R18, R16
   \   0000000A   2B21               OR      R18, R17
   \   0000000C   F011               BREQ    `??new CPreventiveAlarmLowLevelDfa_1`
   \   0000000E   ....               RCALL   ??CPreventiveAlarmLowLevelDfa
   \   00000010   9508               RET
   \                     `??new CPreventiveAlarmLowLevelDfa_1`:
   \   00000012   E000               LDI     R16, 0
   \   00000014   E010               LDI     R17, 0
   \   00000016   9508               RET

   \                                 In  segment CODE, align 2, keep-with-next
   \   __version_3 CPreventiveAlarmHighLevelDfa &CPreventiveAlarmHighLevelDfa::new CPreventiveAlarmHighLevelDfa()
   \                     `??new CPreventiveAlarmHighLevelDfa`:
   \   00000000   E007               LDI     R16, 7
   \   00000002   E010               LDI     R17, 0
   \   00000004   ........           CALL    `??operator new`
   \   00000008   2F20               MOV     R18, R16
   \   0000000A   2B21               OR      R18, R17
   \   0000000C   F011               BREQ    `??new CPreventiveAlarmHighLevelDfa_1`
   \   0000000E   ....               RCALL   ??CPreventiveAlarmHighLevelDfa
   \   00000010   9508               RET
   \                     `??new CPreventiveAlarmHighLevelDfa_1`:
   \   00000012   E000               LDI     R16, 0
   \   00000014   E010               LDI     R17, 0
   \   00000016   9508               RET

   \                                 In  segment CODE, align 2, keep-with-next
   \   __version_3 CPreventiveAlarmLowLevelNamurDfa &CPreventiveAlarmLowLevelNamurDfa::new CPreventiveAlarmLowLevelNamurDfa()
   \                     `??new CPreventiveAlarmLowLevelNamurDfa`:
   \   00000000   E007               LDI     R16, 7
   \   00000002   E010               LDI     R17, 0
   \   00000004   ........           CALL    `??operator new`
   \   00000008   2F20               MOV     R18, R16
   \   0000000A   2B21               OR      R18, R17
   \   0000000C   F011               BREQ    `??new CPreventiveAlarmLowLevelNamurDfa_1`
   \   0000000E   ....               RCALL   ??CPreventiveAlarmLowLevelNamurDfa
   \   00000010   9508               RET
   \                     `??new CPreventiveAlarmLowLevelNamurDfa_1`:
   \   00000012   E000               LDI     R16, 0
   \   00000014   E010               LDI     R17, 0
   \   00000016   9508               RET

   \                                 In  segment CODE, align 2, keep-with-next
   \   __version_3 CPreventiveAlarmHighLevelNamurDfa &CPreventiveAlarmHighLevelNamurDfa::new CPreventiveAlarmHighLevelNamurDfa()
   \                     `??new CPreventiveAlarmHighLevelNamurDfa`:
   \   00000000   E007               LDI     R16, 7
   \   00000002   E010               LDI     R17, 0
   \   00000004   ........           CALL    `??operator new`
   \   00000008   2F20               MOV     R18, R16
   \   0000000A   2B21               OR      R18, R17
   \   0000000C   F011               BREQ    `??new CPreventiveAlarmHighLevelNamurDfa_1`
   \   0000000E   ....               RCALL   ??CPreventiveAlarmHighLevelNamurDfa
   \   00000010   9508               RET
   \                     `??new CPreventiveAlarmHighLevelNamurDfa_1`:
   \   00000012   E000               LDI     R16, 0
   \   00000014   E010               LDI     R17, 0
   \   00000016   9508               RET

   \                                 In  segment CODE, align 2, keep-with-next
   \   __version_3 CEmergencyAlarmLowLevelDfa &CEmergencyAlarmLowLevelDfa::new CEmergencyAlarmLowLevelDfa()
   \                     `??new CEmergencyAlarmLowLevelDfa`:
   \   00000000   E007               LDI     R16, 7
   \   00000002   E010               LDI     R17, 0
   \   00000004   ........           CALL    `??operator new`
   \   00000008   2F20               MOV     R18, R16
   \   0000000A   2B21               OR      R18, R17
   \   0000000C   F011               BREQ    `??new CEmergencyAlarmLowLevelDfa_1`
   \   0000000E   ....               RCALL   ??CEmergencyAlarmLowLevelDfa
   \   00000010   9508               RET
   \                     `??new CEmergencyAlarmLowLevelDfa_1`:
   \   00000012   E000               LDI     R16, 0
   \   00000014   E010               LDI     R17, 0
   \   00000016   9508               RET

   \                                 In  segment CODE, align 2, keep-with-next
   \   __version_3 CEmergencyAlarmHighLevelDfa &CEmergencyAlarmHighLevelDfa::new CEmergencyAlarmHighLevelDfa()
   \                     `??new CEmergencyAlarmHighLevelDfa`:
   \   00000000   E007               LDI     R16, 7
   \   00000002   E010               LDI     R17, 0
   \   00000004   ........           CALL    `??operator new`
   \   00000008   2F20               MOV     R18, R16
   \   0000000A   2B21               OR      R18, R17
   \   0000000C   F011               BREQ    `??new CEmergencyAlarmHighLevelDfa_1`
   \   0000000E   ....               RCALL   ??CEmergencyAlarmHighLevelDfa
   \   00000010   9508               RET
   \                     `??new CEmergencyAlarmHighLevelDfa_1`:
   \   00000012   E000               LDI     R16, 0
   \   00000014   E010               LDI     R17, 0
   \   00000016   9508               RET

   \                                 In  segment CODE, align 2, keep-with-next
   \   __version_3 CEmergencyAlarmLowLevelNamurDfa &CEmergencyAlarmLowLevelNamurDfa::new CEmergencyAlarmLowLevelNamurDfa()
   \                     `??new CEmergencyAlarmLowLevelNamurDfa`:
   \   00000000   E007               LDI     R16, 7
   \   00000002   E010               LDI     R17, 0
   \   00000004   ........           CALL    `??operator new`
   \   00000008   2F20               MOV     R18, R16
   \   0000000A   2B21               OR      R18, R17
   \   0000000C   F011               BREQ    `??new CEmergencyAlarmLowLevelNamurDfa_1`
   \   0000000E   ....               RCALL   ??CEmergencyAlarmLowLevelNamurDfa
   \   00000010   9508               RET
   \                     `??new CEmergencyAlarmLowLevelNamurDfa_1`:
   \   00000012   E000               LDI     R16, 0
   \   00000014   E010               LDI     R17, 0
   \   00000016   9508               RET

   \                                 In  segment CODE, align 2, keep-with-next
   \   __version_3 CEmergencyAlarmHighLevelNamurDfa &CEmergencyAlarmHighLevelNamurDfa::new CEmergencyAlarmHighLevelNamurDfa()
   \                     `??new CEmergencyAlarmHighLevelNamurDfa`:
   \   00000000   E007               LDI     R16, 7
   \   00000002   E010               LDI     R17, 0
   \   00000004   ........           CALL    `??operator new`
   \   00000008   2F20               MOV     R18, R16
   \   0000000A   2B21               OR      R18, R17
   \   0000000C   F011               BREQ    `??new CEmergencyAlarmHighLevelNamurDfa_1`
   \   0000000E   ....               RCALL   ??CEmergencyAlarmHighLevelNamurDfa
   \   00000010   9508               RET
   \                     `??new CEmergencyAlarmHighLevelNamurDfa_1`:
   \   00000012   E000               LDI     R16, 0
   \   00000014   E010               LDI     R17, 0
   \   00000016   9508               RET

   \                                 In  segment CODE, align 2, keep-with-next
   \   __version_3 CIndicationAlarmLowLevelDfa &CIndicationAlarmLowLevelDfa::new CIndicationAlarmLowLevelDfa()
   \                     `??new CIndicationAlarmLowLevelDfa`:
   \   00000000   E007               LDI     R16, 7
   \   00000002   E010               LDI     R17, 0
   \   00000004   ........           CALL    `??operator new`
   \   00000008   2F20               MOV     R18, R16
   \   0000000A   2B21               OR      R18, R17
   \   0000000C   F011               BREQ    `??new CIndicationAlarmLowLevelDfa_1`
   \   0000000E   ....               RCALL   ??CIndicationAlarmLowLevelDfa
   \   00000010   9508               RET
   \                     `??new CIndicationAlarmLowLevelDfa_1`:
   \   00000012   E000               LDI     R16, 0
   \   00000014   E010               LDI     R17, 0
   \   00000016   9508               RET

   \                                 In  segment CODE, align 2, keep-with-next
   \   __version_3 CIndicationAlarmHighLevelDfa &CIndicationAlarmHighLevelDfa::new CIndicationAlarmHighLevelDfa()
   \                     `??new CIndicationAlarmHighLevelDfa`:
   \   00000000   E007               LDI     R16, 7
   \   00000002   E010               LDI     R17, 0
   \   00000004   ........           CALL    `??operator new`
   \   00000008   2F20               MOV     R18, R16
   \   0000000A   2B21               OR      R18, R17
   \   0000000C   F011               BREQ    `??new CIndicationAlarmHighLevelDfa_1`
   \   0000000E   ....               RCALL   ??CIndicationAlarmHighLevelDfa
   \   00000010   9508               RET
   \                     `??new CIndicationAlarmHighLevelDfa_1`:
   \   00000012   E000               LDI     R16, 0
   \   00000014   E010               LDI     R17, 0
   \   00000016   9508               RET

   \                                 In  segment CODE, align 2, keep-with-next
   \   __version_3 CIndicationAlarmLowLevelNamurDfa &CIndicationAlarmLowLevelNamurDfa::new CIndicationAlarmLowLevelNamurDfa()
   \                     `??new CIndicationAlarmLowLevelNamurDfa`:
   \   00000000   E007               LDI     R16, 7
   \   00000002   E010               LDI     R17, 0
   \   00000004   ........           CALL    `??operator new`
   \   00000008   2F20               MOV     R18, R16
   \   0000000A   2B21               OR      R18, R17
   \   0000000C   F011               BREQ    `??new CIndicationAlarmLowLevelNamurDfa_1`
   \   0000000E   ....               RCALL   ??CIndicationAlarmLowLevelNamurDfa
   \   00000010   9508               RET
   \                     `??new CIndicationAlarmLowLevelNamurDfa_1`:
   \   00000012   E000               LDI     R16, 0
   \   00000014   E010               LDI     R17, 0
   \   00000016   9508               RET

   \                                 In  segment CODE, align 2, keep-with-next
   \   __version_3 CIndicationAlarmHighLevelNamurDfa &CIndicationAlarmHighLevelNamurDfa::new CIndicationAlarmHighLevelNamurDfa()
   \                     `??new CIndicationAlarmHighLevelNamurDfa`:
   \   00000000   E007               LDI     R16, 7
   \   00000002   E010               LDI     R17, 0
   \   00000004   ........           CALL    `??operator new`
   \   00000008   2F20               MOV     R18, R16
   \   0000000A   2B21               OR      R18, R17
   \   0000000C   F011               BREQ    `??new CIndicationAlarmHighLevelNamurDfa_1`
   \   0000000E   ....               RCALL   ??CIndicationAlarmHighLevelNamurDfa
   \   00000010   9508               RET
   \                     `??new CIndicationAlarmHighLevelNamurDfa_1`:
   \   00000012   E000               LDI     R16, 0
   \   00000014   E010               LDI     R17, 0
   \   00000016   9508               RET

   \                                 In  segment CODE, align 2, keep-with-next
   \   __version_3 CErrorAlarmDfa &CErrorAlarmDfa::new CErrorAlarmDfa()
   \                     `??new CErrorAlarmDfa`:
   \   00000000   E005               LDI     R16, 5
   \   00000002   E010               LDI     R17, 0
   \   00000004   ........           CALL    `??operator new`
   \   00000008   2F20               MOV     R18, R16
   \   0000000A   2B21               OR      R18, R17
   \   0000000C   F011               BREQ    `??new CErrorAlarmDfa_1`
   \   0000000E   ....               RCALL   ??CErrorAlarmDfa
   \   00000010   9508               RET
   \                     `??new CErrorAlarmDfa_1`:
   \   00000012   E000               LDI     R16, 0
   \   00000014   E010               LDI     R17, 0
   \   00000016   9508               RET
    851          //-----------------------------------------------------------------------------------------------------
    852          
    853          
    854          
    855          
    856          
    857          
    858          
    859          
    860          
    861          ////-----------------------------------------------------------------------------------------------------
    862          //CInputModuleErrorAlarmDfa::CInputModuleErrorAlarmDfa()
    863          //{
    864          //    SetFsmState(START);
    865          //}
    866          //
    867          ////-----------------------------------------------------------------------------------------------------
    868          //CInputModuleErrorAlarmDfa::~CInputModuleErrorAlarmDfa()
    869          //{
    870          //    //dtor
    871          //}
    872          //
    873          ////-----------------------------------------------------------------------------------------------------
    874          //
    875          //
    876          //
    877          //
    878          //
    879          //
    880          //
    881          //
    882          ////-----------------------------------------------------------------------------------------------------
    883          //COutpuModuleErrorAlarmDfa::COutpuModuleErrorAlarmDfa()
    884          //{
    885          //    SetFsmState(START);
    886          //}
    887          //
    888          ////-----------------------------------------------------------------------------------------------------
    889          //COutpuModuleErrorAlarmDfa::~COutpuModuleErrorAlarmDfa()
    890          //{
    891          //    //dtor
    892          //}
    893          //
    894          ////-----------------------------------------------------------------------------------------------------
    895          
    896          
    897          
    898          
    899          
    900          
    901          

   Maximum stack usage in bytes:

   CSTACK RSTACK Function
   ------ ------ --------
      0      2   CAlarmDfa::ACTIVE_LEVEL()
      0      2   CAlarmDfa::ALARM_TYPE()
      2      2   CAlarmDfa::CAlarmDfa()
        2      2   -> CDfaLite::CDfaLite()
      5      2   CAlarmDfa::Fsm()
        5      2   -- Indirect call
        5      2   -> CAlarmDfa::GetAlarmWindowIndex()
        5      2   -> CAlarmDfa::GetDiscreteStateIndex()
        5      2   -> CAlarmDfa::GetLinkedDiscreteOutputsPointer()
        5      2   -> CAlarmWindow::SetActivityState(uint8_t)
        5      2   -> CDfaLite::GetFsmState()
        5      2   -> CDfaLite::SetFsmState(uint8_t)
        5      2   -> CPss21::BoardWindowsUpdate()
        5      2   -> CPss21::DiscreteOutputsSet(uint8_t *, uint8_t)
        5      2   -> CPss21::GetAlarmWindowControlPointer(uint8_t)
        5      2   -> CPss21::GetDiscreteInputsBadState(uint8_t)
        5      2   -> CPss21::GetDiscreteSignalsReceipt()
        5      2   -> CPss21::GetDiscreteSignalsReset()
        5      2   -> CPss21::SetAlarmWindowColor(uint8_t, uint8_t)
        5      2   -> CPss21::SetAlarmWindowType(uint8_t, uint8_t)
        5      2   -> CPss21::SetDiscreteInputState(uint8_t, uint8_t)
        5      2 ?CV_SWITCH_L06
      0      2   CAlarmDfa::GetAlarmWindowIndex()
      0      2   CAlarmDfa::GetDiscreteStateIndex()
      0      2   CAlarmDfa::GetLinkedDiscreteOutputsPointer()
      0      2   CAlarmDfa::IS_NAMUR_ON()
      0      2   CAlarmDfa::new CAlarmDfa()
        0      2   -> CAlarmDfa::CAlarmDfa()
        0      2   -> operator new(unsigned int)
      4      2   CAlarmDfa::~CAlarmDfa()
        4      2   -> CDfaLite::~CDfaLite()
        4      2   -> operator delete(void *)
      0      2   CAlarmWindow::SetActivityState(uint8_t)
      0      2   CDfaLite::GetFsmState()
      0      2   CDfaLite::SetFsmState(uint8_t)
      0      2   CEmergencyAlarmHighLevelDfa::ACTIVE_LEVEL()
      0      2   CEmergencyAlarmHighLevelDfa::ALARM_TYPE()
      2      2   CEmergencyAlarmHighLevelDfa::CEmergencyAlarmHighLevelDfa()
        2      2   -> CAlarmDfa::CAlarmDfa()
        2      2   -> CDfaLite::SetFsmState(uint8_t)
      0      2   CEmergencyAlarmHighLevelDfa::IS_NAMUR_ON()
      0      2   CEmergencyAlarmHighLevelDfa::new CEmergencyAlarmHighLevelDfa()
        0      2   -> CEmergencyAlarmHighLevelDfa::CEmergencyAlarmHighLevelDfa()
        0      2   -> operator new(unsigned int)
      4      2   CEmergencyAlarmHighLevelDfa::~CEmergencyAlarmHighLevelDfa()
        4      2   -> CAlarmDfa::~CAlarmDfa()
        4      2   -> operator delete(void *)
      0      2   CEmergencyAlarmHighLevelNamurDfa::ACTIVE_LEVEL()
      0      2   CEmergencyAlarmHighLevelNamurDfa::ALARM_TYPE()
      2      2   CEmergencyAlarmHighLevelNamurDfa::CEmergencyAlarmHighLevelNamurDfa()
        2      2   -> CAlarmDfa::CAlarmDfa()
        2      2   -> CDfaLite::SetFsmState(uint8_t)
      0      2   CEmergencyAlarmHighLevelNamurDfa::IS_NAMUR_ON()
      0      2   CEmergencyAlarmHighLevelNamurDfa::new CEmergencyAlarmHighLevelNamurDfa()
        0      2   -> CEmergencyAlarmHighLevelNamurDfa::CEmergencyAlarmHighLevelNamurDfa()
        0      2   -> operator new(unsigned int)
      4      2   CEmergencyAlarmHighLevelNamurDfa::~CEmergencyAlarmHighLevelNamurDfa()
        4      2   -> CAlarmDfa::~CAlarmDfa()
        4      2   -> operator delete(void *)
      0      2   CEmergencyAlarmLowLevelDfa::ACTIVE_LEVEL()
      0      2   CEmergencyAlarmLowLevelDfa::ALARM_TYPE()
      2      2   CEmergencyAlarmLowLevelDfa::CEmergencyAlarmLowLevelDfa()
        2      2   -> CAlarmDfa::CAlarmDfa()
        2      2   -> CDfaLite::SetFsmState(uint8_t)
      0      2   CEmergencyAlarmLowLevelDfa::IS_NAMUR_ON()
      0      2   CEmergencyAlarmLowLevelDfa::new CEmergencyAlarmLowLevelDfa()
        0      2   -> CEmergencyAlarmLowLevelDfa::CEmergencyAlarmLowLevelDfa()
        0      2   -> operator new(unsigned int)
      4      2   CEmergencyAlarmLowLevelDfa::~CEmergencyAlarmLowLevelDfa()
        4      2   -> CAlarmDfa::~CAlarmDfa()
        4      2   -> operator delete(void *)
      0      2   CEmergencyAlarmLowLevelNamurDfa::ACTIVE_LEVEL()
      0      2   CEmergencyAlarmLowLevelNamurDfa::ALARM_TYPE()
      2      2   CEmergencyAlarmLowLevelNamurDfa::CEmergencyAlarmLowLevelNamurDfa()
        2      2   -> CAlarmDfa::CAlarmDfa()
        2      2   -> CDfaLite::SetFsmState(uint8_t)
      0      2   CEmergencyAlarmLowLevelNamurDfa::IS_NAMUR_ON()
      0      2   CEmergencyAlarmLowLevelNamurDfa::new CEmergencyAlarmLowLevelNamurDfa()
        0      2   -> CEmergencyAlarmLowLevelNamurDfa::CEmergencyAlarmLowLevelNamurDfa()
        0      2   -> operator new(unsigned int)
      4      2   CEmergencyAlarmLowLevelNamurDfa::~CEmergencyAlarmLowLevelNamurDfa()
        4      2   -> CAlarmDfa::~CAlarmDfa()
        4      2   -> operator delete(void *)
      0      2   CErrorAlarmDfa::ACTIVE_LEVEL()
      0      2   CErrorAlarmDfa::ALARM_TYPE()
      2      2   CErrorAlarmDfa::CErrorAlarmDfa()
        2      2   -> CDfaLite::CDfaLite()
        2      2   -> CDfaLite::SetFsmState(uint8_t)
      5      2   CErrorAlarmDfa::Fsm()
        5      2   -- Indirect call
        5      2   -> CDfaLite::GetFsmState()
        5      2   -> CDfaLite::SetFsmState(uint8_t)
        5      2   -> CErrorAlarmDfa::GetAlarmWindowIndex()
        5      2   -> CErrorAlarmDfa::GetDiscreteStateIndex()
        5      2   -> CPss21::AlarmTypeErrorChange()
        5      2   -> CPss21::AlarmTypeReceipt()
        5      2   -> CPss21::AlarmTypeReset()
        5      2   -> CPss21::AllAlarmWindowOff()
        5      2   -> CPss21::ErrorWindowOn(uint8_t)
        5      2   -> CPss21::GetCommonAlarmType()
        5      2   -> CPss21::GetDiscreteSignalsReceipt()
        5      2   -> CPss21::GetErrorAlarmState(uint8_t)
        5      2   -> CPss21::SetAlarmWindowColor(uint8_t, uint8_t)
        5      2   -> CPss21::SetCommonAlarmType(uint8_t)
      0      2   CErrorAlarmDfa::GetAlarmWindowIndex()
      0      2   CErrorAlarmDfa::GetDiscreteStateIndex()
      0      2   CErrorAlarmDfa::new CErrorAlarmDfa()
        0      2   -> CErrorAlarmDfa::CErrorAlarmDfa()
        0      2   -> operator new(unsigned int)
      4      2   CErrorAlarmDfa::~CErrorAlarmDfa()
        4      2   -> CDfaLite::~CDfaLite()
        4      2   -> operator delete(void *)
      0      2   CIndicationAlarmHighLevelDfa::ACTIVE_LEVEL()
      0      2   CIndicationAlarmHighLevelDfa::ALARM_TYPE()
      2      2   CIndicationAlarmHighLevelDfa::CIndicationAlarmHighLevelDfa()
        2      2   -> CDfaLite::SetFsmState(uint8_t)
        2      2   -> CIndicationAlarmLowLevelDfa::CIndicationAlarmLowLevelDfa()
      0      2   CIndicationAlarmHighLevelDfa::IS_NAMUR_ON()
      0      2   CIndicationAlarmHighLevelDfa::new CIndicationAlarmHighLevelDfa()
        0      2   -> CIndicationAlarmHighLevelDfa::CIndicationAlarmHighLevelDfa()
        0      2   -> operator new(unsigned int)
      4      2   CIndicationAlarmHighLevelDfa::~CIndicationAlarmHighLevelDfa()
        4      2   -> CIndicationAlarmLowLevelDfa::~CIndicationAlarmLowLevelDfa()
        4      2   -> operator delete(void *)
      0      2   CIndicationAlarmHighLevelNamurDfa::ACTIVE_LEVEL()
      0      2   CIndicationAlarmHighLevelNamurDfa::ALARM_TYPE()
      2      2   CIndicationAlarmHighLevelNamurDfa::CIndicationAlarmHighLevelNamurDfa()
        2      2   -> CDfaLite::SetFsmState(uint8_t)
        2      2   -> CIndicationAlarmLowLevelDfa::CIndicationAlarmLowLevelDfa()
      0      2   CIndicationAlarmHighLevelNamurDfa::IS_NAMUR_ON()
      0      2   CIndicationAlarmHighLevelNamurDfa::new CIndicationAlarmHighLevelNamurDfa()
        0      2   -> CIndicationAlarmHighLevelNamurDfa::CIndicationAlarmHighLevelNamurDfa()
        0      2   -> operator new(unsigned int)
      4      2   CIndicationAlarmHighLevelNamurDfa::~CIndicationAlarmHighLevelNamurDfa()
        4      2   -> CIndicationAlarmLowLevelDfa::~CIndicationAlarmLowLevelDfa()
        4      2   -> operator delete(void *)
      0      2   CIndicationAlarmLowLevelDfa::ACTIVE_LEVEL()
      0      2   CIndicationAlarmLowLevelDfa::ALARM_TYPE()
      2      2   CIndicationAlarmLowLevelDfa::CIndicationAlarmLowLevelDfa()
        2      2   -> CAlarmDfa::CAlarmDfa()
        2      2   -> CDfaLite::SetFsmState(uint8_t)
      5      2   CIndicationAlarmLowLevelDfa::Fsm()
        5      2   -- Indirect call
        5      2   -> CAlarmDfa::GetAlarmWindowIndex()
        5      2   -> CAlarmDfa::GetDiscreteStateIndex()
        5      2   -> CAlarmDfa::GetLinkedDiscreteOutputsPointer()
        5      2   -> CAlarmWindow::SetActivityState(uint8_t)
        5      2   -> CDfaLite::GetFsmState()
        5      2   -> CDfaLite::SetFsmState(uint8_t)
        5      2   -> CPss21::BoardWindowsUpdate()
        5      2   -> CPss21::DiscreteOutputsSet(uint8_t *, uint8_t)
        5      2   -> CPss21::GetAlarmWindowControlPointer(uint8_t)
        5      2   -> CPss21::GetDiscreteInputsBadState(uint8_t)
        5      2   -> CPss21::SetAlarmWindowColor(uint8_t, uint8_t)
        5      2   -> CPss21::SetAlarmWindowType(uint8_t, uint8_t)
        5      2   -> CPss21::SetDiscreteInputState(uint8_t, uint8_t)
      0      2   CIndicationAlarmLowLevelDfa::IS_NAMUR_ON()
      0      2   CIndicationAlarmLowLevelDfa::new CIndicationAlarmLowLevelDfa()
        0      2   -> CIndicationAlarmLowLevelDfa::CIndicationAlarmLowLevelDfa()
        0      2   -> operator new(unsigned int)
      4      2   CIndicationAlarmLowLevelDfa::~CIndicationAlarmLowLevelDfa()
        4      2   -> CAlarmDfa::~CAlarmDfa()
        4      2   -> operator delete(void *)
      0      2   CIndicationAlarmLowLevelNamurDfa::ACTIVE_LEVEL()
      0      2   CIndicationAlarmLowLevelNamurDfa::ALARM_TYPE()
      2      2   CIndicationAlarmLowLevelNamurDfa::CIndicationAlarmLowLevelNamurDfa()
        2      2   -> CDfaLite::SetFsmState(uint8_t)
        2      2   -> CIndicationAlarmLowLevelDfa::CIndicationAlarmLowLevelDfa()
      0      2   CIndicationAlarmLowLevelNamurDfa::IS_NAMUR_ON()
      0      2   CIndicationAlarmLowLevelNamurDfa::new CIndicationAlarmLowLevelNamurDfa()
        0      2   -> CIndicationAlarmLowLevelNamurDfa::CIndicationAlarmLowLevelNamurDfa()
        0      2   -> operator new(unsigned int)
      4      2   CIndicationAlarmLowLevelNamurDfa::~CIndicationAlarmLowLevelNamurDfa()
        4      2   -> CIndicationAlarmLowLevelDfa::~CIndicationAlarmLowLevelDfa()
        4      2   -> operator delete(void *)
      0      2   CNormalAlarmDfa::ACTIVE_LEVEL()
      0      2   CNormalAlarmDfa::ALARM_TYPE()
      2      2   CNormalAlarmDfa::CNormalAlarmDfa()
        2      2   -> CAlarmDfa::CAlarmDfa()
        2      2   -> CDfaLite::SetFsmState(uint8_t)
      0      2   CNormalAlarmDfa::IS_NAMUR_ON()
      0      2   CNormalAlarmDfa::new CNormalAlarmDfa()
        0      2   -> CNormalAlarmDfa::CNormalAlarmDfa()
        0      2   -> operator new(unsigned int)
      4      2   CNormalAlarmDfa::~CNormalAlarmDfa()
        4      2   -> CAlarmDfa::~CAlarmDfa()
        4      2   -> operator delete(void *)
      0      2   CPreventiveAlarmHighLevelDfa::ACTIVE_LEVEL()
      0      2   CPreventiveAlarmHighLevelDfa::ALARM_TYPE()
      2      2   CPreventiveAlarmHighLevelDfa::CPreventiveAlarmHighLevelDfa()
        2      2   -> CAlarmDfa::CAlarmDfa()
        2      2   -> CDfaLite::SetFsmState(uint8_t)
      0      2   CPreventiveAlarmHighLevelDfa::IS_NAMUR_ON()
      0      2   CPreventiveAlarmHighLevelDfa::new CPreventiveAlarmHighLevelDfa()
        0      2   -> CPreventiveAlarmHighLevelDfa::CPreventiveAlarmHighLevelDfa()
        0      2   -> operator new(unsigned int)
      4      2   CPreventiveAlarmHighLevelDfa::~CPreventiveAlarmHighLevelDfa()
        4      2   -> CAlarmDfa::~CAlarmDfa()
        4      2   -> operator delete(void *)
      0      2   CPreventiveAlarmHighLevelNamurDfa::ACTIVE_LEVEL()
      0      2   CPreventiveAlarmHighLevelNamurDfa::ALARM_TYPE()
      2      2   CPreventiveAlarmHighLevelNamurDfa::CPreventiveAlarmHighLevelNamurDfa()
        2      2   -> CAlarmDfa::CAlarmDfa()
        2      2   -> CDfaLite::SetFsmState(uint8_t)
      0      2   CPreventiveAlarmHighLevelNamurDfa::IS_NAMUR_ON()
      0      2   CPreventiveAlarmHighLevelNamurDfa::new CPreventiveAlarmHighLevelNamurDfa()
        0      2   -> CPreventiveAlarmHighLevelNamurDfa::CPreventiveAlarmHighLevelNamurDfa()
        0      2   -> operator new(unsigned int)
      4      2   CPreventiveAlarmHighLevelNamurDfa::~CPreventiveAlarmHighLevelNamurDfa()
        4      2   -> CAlarmDfa::~CAlarmDfa()
        4      2   -> operator delete(void *)
      0      2   CPreventiveAlarmLowLevelDfa::ACTIVE_LEVEL()
      0      2   CPreventiveAlarmLowLevelDfa::ALARM_TYPE()
      2      2   CPreventiveAlarmLowLevelDfa::CPreventiveAlarmLowLevelDfa()
        2      2   -> CAlarmDfa::CAlarmDfa()
        2      2   -> CDfaLite::SetFsmState(uint8_t)
      0      2   CPreventiveAlarmLowLevelDfa::IS_NAMUR_ON()
      0      2   CPreventiveAlarmLowLevelDfa::new CPreventiveAlarmLowLevelDfa()
        0      2   -> CPreventiveAlarmLowLevelDfa::CPreventiveAlarmLowLevelDfa()
        0      2   -> operator new(unsigned int)
      4      2   CPreventiveAlarmLowLevelDfa::~CPreventiveAlarmLowLevelDfa()
        4      2   -> CAlarmDfa::~CAlarmDfa()
        4      2   -> operator delete(void *)
      0      2   CPreventiveAlarmLowLevelNamurDfa::ACTIVE_LEVEL()
      0      2   CPreventiveAlarmLowLevelNamurDfa::ALARM_TYPE()
      2      2   CPreventiveAlarmLowLevelNamurDfa::CPreventiveAlarmLowLevelNamurDfa()
        2      2   -> CAlarmDfa::CAlarmDfa()
        2      2   -> CDfaLite::SetFsmState(uint8_t)
      0      2   CPreventiveAlarmLowLevelNamurDfa::IS_NAMUR_ON()
      0      2   CPreventiveAlarmLowLevelNamurDfa::new CPreventiveAlarmLowLevelNamurDfa()
        0      2   -> CPreventiveAlarmLowLevelNamurDfa::CPreventiveAlarmLowLevelNamurDfa()
        0      2   -> operator new(unsigned int)
      4      2   CPreventiveAlarmLowLevelNamurDfa::~CPreventiveAlarmLowLevelNamurDfa()
        4      2   -> CAlarmDfa::~CAlarmDfa()
        4      2   -> operator delete(void *)
      0      2   CPss21::GetAlarmWindowControlPointer(uint8_t)
        0      2 ?S_EC_MUL_L02
      0      2   CPss21::GetCommonAlarmType()
      0      2   CPss21::GetDiscreteSignalsReceipt()
      0      2   CPss21::GetDiscreteSignalsReset()
      0      2   CPss21::SetCommonAlarmType(uint8_t)


   Segment part sizes:

   Bytes  Function/Label
   -----  --------------
      26  ?<Jumptable for Fsm>_0
       6  CAlarmDfa::ACTIVE_LEVEL()
       6  CAlarmDfa::ALARM_TYPE()
      30  CAlarmDfa::CAlarmDfa()
    1264  CAlarmDfa::Fsm()
       6  CAlarmDfa::GetAlarmWindowIndex()
       6  CAlarmDfa::GetDiscreteStateIndex()
       6  CAlarmDfa::GetLinkedDiscreteOutputsPointer()
       6  CAlarmDfa::IS_NAMUR_ON()
      24  CAlarmDfa::new CAlarmDfa()
      40  CAlarmDfa::~CAlarmDfa()
       6  CAlarmWindow::SetActivityState(uint8_t)
       6  CDfaLite::GetFsmState()
       6  CDfaLite::SetFsmState(uint8_t)
       6  CEmergencyAlarmHighLevelDfa::ACTIVE_LEVEL()
       6  CEmergencyAlarmHighLevelDfa::ALARM_TYPE()
      36  CEmergencyAlarmHighLevelDfa::CEmergencyAlarmHighLevelDfa()
       6  CEmergencyAlarmHighLevelDfa::IS_NAMUR_ON()
      24  CEmergencyAlarmHighLevelDfa::new CEmergencyAlarmHighLevelDfa()
      38  CEmergencyAlarmHighLevelDfa::~CEmergencyAlarmHighLevelDfa()
       6  CEmergencyAlarmHighLevelNamurDfa::ACTIVE_LEVEL()
       6  CEmergencyAlarmHighLevelNamurDfa::ALARM_TYPE()
      36  CEmergencyAlarmHighLevelNamurDfa::CEmergencyAlarmHighLevelNamurDfa()
       6  CEmergencyAlarmHighLevelNamurDfa::IS_NAMUR_ON()
      24  CEmergencyAlarmHighLevelNamurDfa::new CEmergencyAlarmHighLevelNamurDfa()
      38  CEmergencyAlarmHighLevelNamurDfa::~CEmergencyAlarmHighLevelNamurDfa()
       6  CEmergencyAlarmLowLevelDfa::ACTIVE_LEVEL()
       6  CEmergencyAlarmLowLevelDfa::ALARM_TYPE()
      36  CEmergencyAlarmLowLevelDfa::CEmergencyAlarmLowLevelDfa()
       6  CEmergencyAlarmLowLevelDfa::IS_NAMUR_ON()
      24  CEmergencyAlarmLowLevelDfa::new CEmergencyAlarmLowLevelDfa()
      38  CEmergencyAlarmLowLevelDfa::~CEmergencyAlarmLowLevelDfa()
       6  CEmergencyAlarmLowLevelNamurDfa::ACTIVE_LEVEL()
       6  CEmergencyAlarmLowLevelNamurDfa::ALARM_TYPE()
      36  CEmergencyAlarmLowLevelNamurDfa::CEmergencyAlarmLowLevelNamurDfa()
       6  CEmergencyAlarmLowLevelNamurDfa::IS_NAMUR_ON()
      24  CEmergencyAlarmLowLevelNamurDfa::new CEmergencyAlarmLowLevelNamurDfa()
      38  CEmergencyAlarmLowLevelNamurDfa::~CEmergencyAlarmLowLevelNamurDfa()
       6  CErrorAlarmDfa::ACTIVE_LEVEL()
       6  CErrorAlarmDfa::ALARM_TYPE()
      38  CErrorAlarmDfa::CErrorAlarmDfa()
     318  CErrorAlarmDfa::Fsm()
       6  CErrorAlarmDfa::GetAlarmWindowIndex()
       6  CErrorAlarmDfa::GetDiscreteStateIndex()
      24  CErrorAlarmDfa::new CErrorAlarmDfa()
      40  CErrorAlarmDfa::~CErrorAlarmDfa()
       6  CIndicationAlarmHighLevelDfa::ACTIVE_LEVEL()
       6  CIndicationAlarmHighLevelDfa::ALARM_TYPE()
      36  CIndicationAlarmHighLevelDfa::CIndicationAlarmHighLevelDfa()
       6  CIndicationAlarmHighLevelDfa::IS_NAMUR_ON()
      24  CIndicationAlarmHighLevelDfa::new CIndicationAlarmHighLevelDfa()
      38  CIndicationAlarmHighLevelDfa::~CIndicationAlarmHighLevelDfa()
       6  CIndicationAlarmHighLevelNamurDfa::ACTIVE_LEVEL()
       6  CIndicationAlarmHighLevelNamurDfa::ALARM_TYPE()
      36  CIndicationAlarmHighLevelNamurDfa::CIndicationAlarmHighLevelNamurDfa()
       6  CIndicationAlarmHighLevelNamurDfa::IS_NAMUR_ON()
      24  CIndicationAlarmHighLevelNamurDfa::new CIndicationAlarmHighLevelNamurDfa()
      38  CIndicationAlarmHighLevelNamurDfa::~CIndicationAlarmHighLevelNamurDfa()
       6  CIndicationAlarmLowLevelDfa::ACTIVE_LEVEL()
       6  CIndicationAlarmLowLevelDfa::ALARM_TYPE()
      36  CIndicationAlarmLowLevelDfa::CIndicationAlarmLowLevelDfa()
    1102  CIndicationAlarmLowLevelDfa::Fsm()
       6  CIndicationAlarmLowLevelDfa::IS_NAMUR_ON()
      24  CIndicationAlarmLowLevelDfa::new CIndicationAlarmLowLevelDfa()
      38  CIndicationAlarmLowLevelDfa::~CIndicationAlarmLowLevelDfa()
       6  CIndicationAlarmLowLevelNamurDfa::ACTIVE_LEVEL()
       6  CIndicationAlarmLowLevelNamurDfa::ALARM_TYPE()
      36  CIndicationAlarmLowLevelNamurDfa::CIndicationAlarmLowLevelNamurDfa()
       6  CIndicationAlarmLowLevelNamurDfa::IS_NAMUR_ON()
      24  CIndicationAlarmLowLevelNamurDfa::new CIndicationAlarmLowLevelNamurDfa()
      38  CIndicationAlarmLowLevelNamurDfa::~CIndicationAlarmLowLevelNamurDfa()
       6  CNormalAlarmDfa::ACTIVE_LEVEL()
       6  CNormalAlarmDfa::ALARM_TYPE()
      36  CNormalAlarmDfa::CNormalAlarmDfa()
       6  CNormalAlarmDfa::IS_NAMUR_ON()
      24  CNormalAlarmDfa::new CNormalAlarmDfa()
      38  CNormalAlarmDfa::~CNormalAlarmDfa()
       6  CPreventiveAlarmHighLevelDfa::ACTIVE_LEVEL()
       6  CPreventiveAlarmHighLevelDfa::ALARM_TYPE()
      36  CPreventiveAlarmHighLevelDfa::CPreventiveAlarmHighLevelDfa()
       6  CPreventiveAlarmHighLevelDfa::IS_NAMUR_ON()
      24  CPreventiveAlarmHighLevelDfa::new CPreventiveAlarmHighLevelDfa()
      38  CPreventiveAlarmHighLevelDfa::~CPreventiveAlarmHighLevelDfa()
       6  CPreventiveAlarmHighLevelNamurDfa::ACTIVE_LEVEL()
       6  CPreventiveAlarmHighLevelNamurDfa::ALARM_TYPE()
      36  CPreventiveAlarmHighLevelNamurDfa::CPreventiveAlarmHighLevelNamurDfa()
       6  CPreventiveAlarmHighLevelNamurDfa::IS_NAMUR_ON()
      24  CPreventiveAlarmHighLevelNamurDfa::new CPreventiveAlarmHighLevelNamurDfa()
      38  CPreventiveAlarmHighLevelNamurDfa::~CPreventiveAlarmHighLevelNamurDfa()
       6  CPreventiveAlarmLowLevelDfa::ACTIVE_LEVEL()
       6  CPreventiveAlarmLowLevelDfa::ALARM_TYPE()
      36  CPreventiveAlarmLowLevelDfa::CPreventiveAlarmLowLevelDfa()
       6  CPreventiveAlarmLowLevelDfa::IS_NAMUR_ON()
      24  CPreventiveAlarmLowLevelDfa::new CPreventiveAlarmLowLevelDfa()
      38  CPreventiveAlarmLowLevelDfa::~CPreventiveAlarmLowLevelDfa()
       6  CPreventiveAlarmLowLevelNamurDfa::ACTIVE_LEVEL()
       6  CPreventiveAlarmLowLevelNamurDfa::ALARM_TYPE()
      36  CPreventiveAlarmLowLevelNamurDfa::CPreventiveAlarmLowLevelNamurDfa()
       6  CPreventiveAlarmLowLevelNamurDfa::IS_NAMUR_ON()
      24  CPreventiveAlarmLowLevelNamurDfa::new CPreventiveAlarmLowLevelNamurDfa()
      38  CPreventiveAlarmLowLevelNamurDfa::~CPreventiveAlarmLowLevelNamurDfa()
      22  CPss21::GetAlarmWindowControlPointer(uint8_t)
       6  CPss21::GetCommonAlarmType()
       6  CPss21::GetDiscreteSignalsReceipt()
       6  CPss21::GetDiscreteSignalsReset()
       6  CPss21::SetCommonAlarmType(uint8_t)
       1  _A_ACSR
       2  _A_ADC
       1  _A_ADCSRA
       1  _A_ADMUX
       1  _A_ASSR
       1  _A_DDRA
       1  _A_DDRB
       1  _A_DDRC
       1  _A_DDRD
       1  _A_DDRE
       1  _A_DDRF
       1  _A_DDRG
       2  _A_EEAR
       1  _A_EECR
       1  _A_EEDR
       1  _A_EICRA
       1  _A_EICRB
       1  _A_EIFR
       1  _A_EIMSK
       1  _A_ETIFR
       1  _A_ETIMSK
       2  _A_ICR1
       2  _A_ICR3
       1  _A_MCUCR
       1  _A_MCUCSR
       1  _A_OCDR
       1  _A_OCR0
       2  _A_OCR1A
       2  _A_OCR1B
       2  _A_OCR1C
       1  _A_OCR2
       2  _A_OCR3A
       2  _A_OCR3B
       2  _A_OCR3C
       1  _A_OSCCAL
       1  _A_PINA
       1  _A_PINB
       1  _A_PINC
       1  _A_PIND
       1  _A_PINE
       1  _A_PINF
       1  _A_PING
       1  _A_PORTA
       1  _A_PORTB
       1  _A_PORTC
       1  _A_PORTD
       1  _A_PORTE
       1  _A_PORTF
       1  _A_PORTG
       1  _A_RAMPZ
       1  _A_SFIOR
       2  _A_SP
       1  _A_SPCR
       1  _A_SPDR
       1  _A_SPMCSR
       1  _A_SPSR
       1  _A_SREG
       1  _A_TCCR0
       1  _A_TCCR1A
       1  _A_TCCR1B
       1  _A_TCCR1C
       1  _A_TCCR2
       1  _A_TCCR3A
       1  _A_TCCR3B
       1  _A_TCCR3C
       1  _A_TCNT0
       2  _A_TCNT1
       1  _A_TCNT2
       2  _A_TCNT3
       1  _A_TIFR
       1  _A_TIMSK
       1  _A_TWAR
       1  _A_TWBR
       1  _A_TWCR
       1  _A_TWDR
       1  _A_TWSR
       1  _A_UBRR0H
       1  _A_UBRR0L
       1  _A_UBRR1H
       1  _A_UBRR1L
       1  _A_UCSR0A
       1  _A_UCSR0B
       1  _A_UCSR0C
       1  _A_UCSR1A
       1  _A_UCSR1B
       1  _A_UCSR1C
       1  _A_UDR0
       1  _A_UDR1
       1  _A_WDTCR
       1  _A_XDIV
       1  _A_XMCRA
       1  _A_XMCRB
     170  -- Other

 
   105 bytes in segment ABSOLUTE
 4 512 bytes in segment CODE
   170 bytes in segment NEAR_F
    26 bytes in segment SWITCH
 
 4 202 bytes of CODE memory (+ 506 bytes shared)
     0 bytes of DATA memory (+ 105 bytes shared)

Errors: none
Warnings: 7
