###############################################################################
#
# IAR C/C++ Compiler V7.10.6.1378 for Atmel AVR           22/Aug/2024  06:57:54
# Copyright 1996-2018 IAR Systems AB.
#
#    Source file  =  
#        D:\Projects\CurrentProjects\CautoProjects\PSS48Color\src\Event.cpp
#    Command line =  
#        -f C:\Users\Admin\AppData\Local\Temp\EW4E92.tmp
#        (--string_literals_in_flash
#        D:\Projects\CurrentProjects\CautoProjects\PSS48Color\src\Event.cpp
#        --cpu=m128a -ms -o
#        D:\Projects\CurrentProjects\CautoProjects\PSS48Color\Debug\Obj -lC
#        D:\Projects\CurrentProjects\CautoProjects\PSS48Color\Debug\List -lB
#        D:\Projects\CurrentProjects\CautoProjects\PSS48Color\Debug\List -y
#        --initializers_in_flash --root_variables --no_cse --no_inline
#        --no_code_motion --no_cross_call --no_clustering --no_tbaa --debug
#        -DENABLE_BIT_DEFINITIONS -e -I
#        D:\Projects\CurrentProjects\CautoProjects\PSS48Color\Modbus\ -I
#        D:\Projects\CurrentProjects\CautoProjects\PSS48Color\include\
#        --eeprom_size 4096 --dlib --dlib_config "C:\Program Files (x86)\IAR
#        Systems\Embedded Workbench 8.0\avr\LIB\DLIB\dlAVR-3s-ec_mul-n.h" -On
#        --eec++)
#    Locale       =  Russian_RUS.1251
#    List file    =  
#        D:\Projects\CurrentProjects\CautoProjects\PSS48Color\Debug\List\Event.lst
#    Object file  =  
#        D:\Projects\CurrentProjects\CautoProjects\PSS48Color\Debug\Obj\Event.r90
#
###############################################################################

D:\Projects\CurrentProjects\CautoProjects\PSS48Color\src\Event.cpp
      1          //-----------------------------------------------------------------------------------------------------
      2          //  Source      : FileName.cpp
      3          //  Created     : 01.06.2022
      4          //  Author      : Alexandr Volvenkin
      5          //  email       : aav-36@mail.ru
      6          //  GitHub      : https://github.com/AlexandrVolvenkin
      7          //-----------------------------------------------------------------------------------------------------
      8          #include "Event.h"

   \                                 In  segment CODE, align 2, keep-with-next
   \   __version_3 void CDfaLite::SetFsmState(uint8_t)
   \                     ??SetFsmState:
   \   00000000   01F8               MOVW    R31:R30, R17:R16
   \   00000002   8320               ST      Z, R18
   \   00000004   9508               RET

   \                                 In  segment CODE, align 2, keep-with-next
   \   __version_3 uint8_t CDfaLite::GetFsmState()
   \                     ??GetFsmState:
   \   00000000   01F8               MOVW    R31:R30, R17:R16
   \   00000002   8100               LD      R16, Z
   \   00000004   9508               RET
      9          
     10          //-----------------------------------------------------------------------------------------------------

   \                                 In  segment CODE, align 2, keep-with-next
     11          CEvent::CEvent()
   \                     ??CEvent:
   \   00000000   93BA               ST      -Y, R27
   \   00000002   93AA               ST      -Y, R26
   \   00000004   01D8               MOVW    R27:R26, R17:R16
     12          {
   \   00000006   018D               MOVW    R17:R16, R27:R26
   \   00000008   ........           CALL    ??CDfa
   \   0000000C   ....               LDI     R16, LOW(??__vtbl)
   \   0000000E   ....               LDI     R17, (??__vtbl) >> 8
   \   00000010   01FD               MOVW    R31:R30, R27:R26
   \   00000012   8301               STD     Z+1, R16
   \   00000014   8312               STD     Z+2, R17
     13          
     14          }
   \   00000016   018D               MOVW    R17:R16, R27:R26
   \   00000018   91A9               LD      R26, Y+
   \   0000001A   91B9               LD      R27, Y+
   \   0000001C   9508               RET
     15          
     16          //-----------------------------------------------------------------------------------------------------

   \                                 In  segment CODE, align 2, keep-with-next
     17          CEvent::~CEvent()
   \                     `?~CEvent`:
     18          {
   \   00000000   ........           CALL    ?PROLOGUE4_L09
   \   00000004   01C8               MOVW    R25:R24, R17:R16
   \   00000006   01D9               MOVW    R27:R26, R19:R18
   \   00000008   2F08               MOV     R16, R24
   \   0000000A   2B09               OR      R16, R25
   \   0000000C   F051               BREQ    `?~CEvent_1`
     19          
     20          }
   \   0000000E   E020               LDI     R18, 0
   \   00000010   E030               LDI     R19, 0
   \   00000012   018C               MOVW    R17:R16, R25:R24
   \   00000014   ........           CALL    `?~CDfa`
   \   00000018   FBA0               BST     R26, 0
   \   0000001A   F41E               BRTC    `?~CEvent_1`
   \   0000001C   018C               MOVW    R17:R16, R25:R24
   \   0000001E   ........           CALL    `??operator delete`
   \                     `?~CEvent_1`:
   \   00000022   E0E4               LDI     R30, 4
   \   00000024   ........           JMP     ?EPILOGUE_B4_L09
     21          //-----------------------------------------------------------------------------------------------------
     22          
     23          
     24          
     25          
     26          //-----------------------------------------------------------------------------------------------------

   \                                 In  segment CODE, align 2, keep-with-next
     27          CEventUniteLogicAnd::CEventUniteLogicAnd()
   \                     ??CEventUniteLogicAnd:
   \   00000000   93BA               ST      -Y, R27
   \   00000002   93AA               ST      -Y, R26
   \   00000004   01D8               MOVW    R27:R26, R17:R16
     28          {
   \   00000006   018D               MOVW    R17:R16, R27:R26
   \   00000008   ....               RCALL   ??CEvent
   \   0000000A   ....               LDI     R16, LOW(??__vtbl_1)
   \   0000000C   ....               LDI     R17, (??__vtbl_1) >> 8
   \   0000000E   01FD               MOVW    R31:R30, R27:R26
   \   00000010   8301               STD     Z+1, R16
   \   00000012   8312               STD     Z+2, R17
   \   00000014   018D               MOVW    R17:R16, R27:R26
   \   00000016   5F0B               SUBI    R16, 251
   \   00000018   4F1F               SBCI    R17, 255
   \   0000001A   ........           CALL    ??CTimer
     29              SetFsmState(START);
   \   0000001E   E020               LDI     R18, 0
   \   00000020   018D               MOVW    R17:R16, R27:R26
   \   00000022   ........           CALL    ??SetFsmState
     30          }
   \   00000026   018D               MOVW    R17:R16, R27:R26
   \   00000028   91A9               LD      R26, Y+
   \   0000002A   91B9               LD      R27, Y+
   \   0000002C   9508               RET
     31          
     32          //-----------------------------------------------------------------------------------------------------

   \                                 In  segment CODE, align 2, keep-with-next
     33          CEventUniteLogicAnd::CEventUniteLogicAnd(uint16_t uiTime) :
   \                     ??CEventUniteLogicAnd_1:
   \   00000000   ........           CALL    ?PROLOGUE4_L09
   \   00000004   01D8               MOVW    R27:R26, R17:R16
   \   00000006   01C9               MOVW    R25:R24, R19:R18
     34              m_uiTime(uiTime)
     35          {
   \   00000008   018D               MOVW    R17:R16, R27:R26
   \   0000000A   ....               RCALL   ??CEvent
   \   0000000C   ....               LDI     R16, LOW(??__vtbl_1)
   \   0000000E   ....               LDI     R17, (??__vtbl_1) >> 8
   \   00000010   01FD               MOVW    R31:R30, R27:R26
   \   00000012   8301               STD     Z+1, R16
   \   00000014   8312               STD     Z+2, R17
   \   00000016   018D               MOVW    R17:R16, R27:R26
   \   00000018   5F0B               SUBI    R16, 251
   \   0000001A   4F1F               SBCI    R17, 255
   \   0000001C   ........           CALL    ??CTimer
   \   00000020   01FD               MOVW    R31:R30, R27:R26
   \   00000022   8783               STD     Z+11, R24
   \   00000024   8794               STD     Z+12, R25
     36              SetFsmState(START);
   \   00000026   E020               LDI     R18, 0
   \   00000028   018D               MOVW    R17:R16, R27:R26
   \   0000002A   ........           CALL    ??SetFsmState
     37          }
   \   0000002E   018D               MOVW    R17:R16, R27:R26
   \   00000030   E0E4               LDI     R30, 4
   \   00000032   ........           JMP     ?EPILOGUE_B4_L09
     38          
     39          //-----------------------------------------------------------------------------------------------------

   \                                 In  segment CODE, align 2, keep-with-next
     40          CEventUniteLogicAnd::~CEventUniteLogicAnd()
   \                     `?~CEventUniteLogicAnd`:
     41          {
   \   00000000   ........           CALL    ?PROLOGUE4_L09
   \   00000004   01D8               MOVW    R27:R26, R17:R16
   \   00000006   01C9               MOVW    R25:R24, R19:R18
   \   00000008   2F0A               MOV     R16, R26
   \   0000000A   2B0B               OR      R16, R27
   \   0000000C   F0A9               BREQ    `?~CEventUniteLogicAnd_1`
   \   0000000E   ....               LDI     R16, LOW(??__vtbl_1)
   \   00000010   ....               LDI     R17, (??__vtbl_1) >> 8
   \   00000012   01FD               MOVW    R31:R30, R27:R26
   \   00000014   8301               STD     Z+1, R16
   \   00000016   8312               STD     Z+2, R17
     42          
     43          }
   \   00000018   E022               LDI     R18, 2
   \   0000001A   E030               LDI     R19, 0
   \   0000001C   018D               MOVW    R17:R16, R27:R26
   \   0000001E   5F0B               SUBI    R16, 251
   \   00000020   4F1F               SBCI    R17, 255
   \   00000022   ........           CALL    `?~CTimer`
   \   00000026   E020               LDI     R18, 0
   \   00000028   E030               LDI     R19, 0
   \   0000002A   018D               MOVW    R17:R16, R27:R26
   \   0000002C   ....               RCALL   `?~CEvent`
   \   0000002E   FB80               BST     R24, 0
   \   00000030   F41E               BRTC    `?~CEventUniteLogicAnd_1`
   \   00000032   018D               MOVW    R17:R16, R27:R26
   \   00000034   ........           CALL    `??operator delete`
   \                     `?~CEventUniteLogicAnd_1`:
   \   00000038   E0E4               LDI     R30, 4
   \   0000003A   ........           JMP     ?EPILOGUE_B4_L09
     44          
     45          //-----------------------------------------------------------------------------------------------------
     46          // Объединяет события произошедшие совместно в течении UNITED_WAITING_TIME.

   \                                 In  segment CODE, align 2, keep-with-next
     47          uint8_t CEventUniteLogicAnd::IsHappened(uint8_t uiEventOne, uint8_t uiEventTwo)
   \                     ??IsHappened:
     48          {
   \   00000000   ........           CALL    ?PROLOGUE4_L09
   \   00000004   01D8               MOVW    R27:R26, R17:R16
   \   00000006   2F92               MOV     R25, R18
   \   00000008   2F83               MOV     R24, R19
     49              switch (GetFsmState())
   \   0000000A   018D               MOVW    R17:R16, R27:R26
   \   0000000C   ........           CALL    ??GetFsmState
   \   00000010   5000               SUBI    R16, 0
   \   00000012   F029               BREQ    ??IsHappened_1
   \   00000014   950A               DEC     R16
   \   00000016   F061               BREQ    ??IsHappened_2
   \   00000018   950A               DEC     R16
   \   0000001A   F121               BREQ    ??IsHappened_3
   \   0000001C   C048               RJMP    ??IsHappened_4
     50              {
     51              case START:
     52                  m_uiEventsState = 0;
   \                     ??IsHappened_1:
   \   0000001E   01FD               MOVW    R31:R30, R27:R26
   \   00000020   E000               LDI     R16, 0
   \   00000022   8705               STD     Z+13, R16
     53                  SetFsmState(EVENT_WAITING);
   \   00000024   E021               LDI     R18, 1
   \   00000026   018D               MOVW    R17:R16, R27:R26
   \   00000028   ........           CALL    ??SetFsmState
     54                  return 0;
   \   0000002C   E000               LDI     R16, 0
   \   0000002E   C040               RJMP    ??IsHappened_5
     55                  break;
     56          
     57              case EVENT_WAITING:
     58                  // Произошло первое событие?
     59                  if (uiEventOne)
   \                     ??IsHappened_2:
   \   00000030   2399               TST     R25
   \   00000032   F021               BREQ    ??IsHappened_6
     60                  {
     61                      m_uiEventsState |= 0x01;
   \   00000034   01FD               MOVW    R31:R30, R27:R26
   \   00000036   8505               LDD     R16, Z+13
   \   00000038   6001               ORI     R16, 0x01
   \   0000003A   8705               STD     Z+13, R16
     62                  }
     63                  // Произошло второе событие?
     64                  if (uiEventTwo)
   \                     ??IsHappened_6:
   \   0000003C   2388               TST     R24
   \   0000003E   F021               BREQ    ??IsHappened_7
     65                  {
     66                      m_uiEventsState |= 0x02;
   \   00000040   01FD               MOVW    R31:R30, R27:R26
   \   00000042   8505               LDD     R16, Z+13
   \   00000044   6002               ORI     R16, 0x02
   \   00000046   8705               STD     Z+13, R16
     67                  }
     68                  // Установим задержку ожидания второго события.
     69                  m_xTimer.Set(m_uiTime);
   \                     ??IsHappened_7:
   \   00000048   01FD               MOVW    R31:R30, R27:R26
   \   0000004A   8523               LDD     R18, Z+11
   \   0000004C   8534               LDD     R19, Z+12
   \   0000004E   018D               MOVW    R17:R16, R27:R26
   \   00000050   5F0B               SUBI    R16, 251
   \   00000052   4F1F               SBCI    R17, 255
   \   00000054   ........           CALL    ??Set
     70                  SetFsmState(EVENT_UNITE_WAITING);
   \   00000058   E022               LDI     R18, 2
   \   0000005A   018D               MOVW    R17:R16, R27:R26
   \   0000005C   ........           CALL    ??SetFsmState
     71                  return 0;
   \   00000060   E000               LDI     R16, 0
   \   00000062   C026               RJMP    ??IsHappened_5
     72                  break;
     73          
     74              case EVENT_UNITE_WAITING:
     75                  // Закончилось время объединения событий?
     76                  if (m_xTimer.IsOverflow())
   \                     ??IsHappened_3:
   \   00000064   018D               MOVW    R17:R16, R27:R26
   \   00000066   5F0B               SUBI    R16, 251
   \   00000068   4F1F               SBCI    R17, 255
   \   0000006A   ........           CALL    ??IsOverflow
   \   0000006E   2300               TST     R16
   \   00000070   F031               BREQ    ??IsHappened_8
     77                  {
     78                      SetFsmState(START);
   \   00000072   E020               LDI     R18, 0
   \   00000074   018D               MOVW    R17:R16, R27:R26
   \   00000076   ........           CALL    ??SetFsmState
     79                      return 0;
   \   0000007A   E000               LDI     R16, 0
   \   0000007C   C019               RJMP    ??IsHappened_5
     80                  }
     81                  else
     82                  {
     83                      // Произошло первое событие?
     84                      if (uiEventOne)
   \                     ??IsHappened_8:
   \   0000007E   2399               TST     R25
   \   00000080   F021               BREQ    ??IsHappened_9
     85                      {
     86                          m_uiEventsState |= 0x01;
   \   00000082   01FD               MOVW    R31:R30, R27:R26
   \   00000084   8505               LDD     R16, Z+13
   \   00000086   6001               ORI     R16, 0x01
   \   00000088   8705               STD     Z+13, R16
     87                      }
     88                      // Произошло второе событие?
     89                      if (uiEventTwo)
   \                     ??IsHappened_9:
   \   0000008A   2388               TST     R24
   \   0000008C   F021               BREQ    ??IsHappened_10
     90                      {
     91                          m_uiEventsState |= 0x02;
   \   0000008E   01FD               MOVW    R31:R30, R27:R26
   \   00000090   8505               LDD     R16, Z+13
   \   00000092   6002               ORI     R16, 0x02
   \   00000094   8705               STD     Z+13, R16
     92                      }
     93                      // Произошли все объединяемые события?
     94                      if (m_uiEventsState == 0x03)
   \                     ??IsHappened_10:
   \   00000096   01FD               MOVW    R31:R30, R27:R26
   \   00000098   8505               LDD     R16, Z+13
   \   0000009A   3003               CPI     R16, 3
   \   0000009C   F431               BRNE    ??IsHappened_11
     95                      {
     96                          SetFsmState(START);
   \   0000009E   E020               LDI     R18, 0
   \   000000A0   018D               MOVW    R17:R16, R27:R26
   \   000000A2   ........           CALL    ??SetFsmState
     97                          return 1;
   \   000000A6   E001               LDI     R16, 1
   \   000000A8   C003               RJMP    ??IsHappened_5
     98                      }
     99                      else
    100                      {
    101                          return 0;
   \                     ??IsHappened_11:
   \   000000AA   E000               LDI     R16, 0
   \   000000AC   C001               RJMP    ??IsHappened_5
    102                      }
    103                  }
    104                  break;
    105          
    106              default:
    107                  return 0;
   \                     ??IsHappened_4:
   \   000000AE   E000               LDI     R16, 0
   \                     ??IsHappened_5:
   \   000000B0   E0E4               LDI     R30, 4
   \   000000B2   ........           JMP     ?EPILOGUE_B4_L09
    108                  break;
    109              }
    110          }

   \                                 In  segment CODE, align 2, keep-with-next
   \   __version_3 CEvent &CEvent::new CEvent()
   \                     `??new CEvent`:
   \   00000000   E005               LDI     R16, 5
   \   00000002   E010               LDI     R17, 0
   \   00000004   ........           CALL    `??operator new`
   \   00000008   2F20               MOV     R18, R16
   \   0000000A   2B21               OR      R18, R17
   \   0000000C   F011               BREQ    `??new CEvent_1`
   \   0000000E   ....               RCALL   ??CEvent
   \   00000010   9508               RET
   \                     `??new CEvent_1`:
   \   00000012   E000               LDI     R16, 0
   \   00000014   E010               LDI     R17, 0
   \   00000016   9508               RET

   \                                 In  segment CODE, align 2, keep-with-next
   \   __version_3 CEventUniteLogicAnd &CEventUniteLogicAnd::new CEventUniteLogicAnd()
   \                     `??new CEventUniteLogicAnd`:
   \   00000000   E00E               LDI     R16, 14
   \   00000002   E010               LDI     R17, 0
   \   00000004   ........           CALL    `??operator new`
   \   00000008   2F20               MOV     R18, R16
   \   0000000A   2B21               OR      R18, R17
   \   0000000C   F011               BREQ    `??new CEventUniteLogicAnd_2`
   \   0000000E   ....               RCALL   ??CEventUniteLogicAnd
   \   00000010   9508               RET
   \                     `??new CEventUniteLogicAnd_2`:
   \   00000012   E000               LDI     R16, 0
   \   00000014   E010               LDI     R17, 0
   \   00000016   9508               RET

   \                                 In  segment CODE, align 2, keep-with-next
   \   __version_3 CEventUniteLogicAnd &CEventUniteLogicAnd::new CEventUniteLogicAnd(uint16_t)
   \                     `??new CEventUniteLogicAnd_1`:
   \   00000000   939A               ST      -Y, R25
   \   00000002   938A               ST      -Y, R24
   \   00000004   01C8               MOVW    R25:R24, R17:R16
   \   00000006   E00E               LDI     R16, 14
   \   00000008   E010               LDI     R17, 0
   \   0000000A   ........           CALL    `??operator new`
   \   0000000E   2F20               MOV     R18, R16
   \   00000010   2B21               OR      R18, R17
   \   00000012   F019               BREQ    `??new CEventUniteLogicAnd_3`
   \   00000014   019C               MOVW    R19:R18, R25:R24
   \   00000016   ....               RCALL   ??CEventUniteLogicAnd_1
   \   00000018   C002               RJMP    `??new CEventUniteLogicAnd_4`
   \                     `??new CEventUniteLogicAnd_3`:
   \   0000001A   E000               LDI     R16, 0
   \   0000001C   E010               LDI     R17, 0
   \                     `??new CEventUniteLogicAnd_4`:
   \   0000001E   9189               LD      R24, Y+
   \   00000020   9199               LD      R25, Y+
   \   00000022   9508               RET

   Maximum stack usage in bytes:

   CSTACK RSTACK Function
   ------ ------ --------
      0      2   CDfaLite::GetFsmState()
      0      2   CDfaLite::SetFsmState(uint8_t)
      2      2   CEvent::CEvent()
        2      2   -> CDfa::CDfa()
      0      2   CEvent::new CEvent()
        0      2   -> CEvent::CEvent()
        0      2   -> operator new(unsigned int)
      4      2   CEvent::~CEvent()
        4      2   -> CDfa::~CDfa()
        4      2   -> operator delete(void *)
      2      2   CEventUniteLogicAnd::CEventUniteLogicAnd()
        2      2   -> CDfaLite::SetFsmState(uint8_t)
        2      2   -> CEvent::CEvent()
        2      2   -> CTimer::CTimer()
      4      2   CEventUniteLogicAnd::CEventUniteLogicAnd(uint16_t)
        4      2   -> CDfaLite::SetFsmState(uint8_t)
        4      2   -> CEvent::CEvent()
        4      2   -> CTimer::CTimer()
      4      2   CEventUniteLogicAnd::IsHappened(uint8_t, uint8_t)
        4      2   -> CDfaLite::GetFsmState()
        4      2   -> CDfaLite::SetFsmState(uint8_t)
        4      2   -> CTimer::IsOverflow()
        4      2   -> CTimer::Set(uint16_t)
      0      2   CEventUniteLogicAnd::new CEventUniteLogicAnd()
        0      2   -> CEventUniteLogicAnd::CEventUniteLogicAnd()
        0      2   -> operator new(unsigned int)
      2      2   CEventUniteLogicAnd::new CEventUniteLogicAnd(uint16_t)
        2      2   -> CEventUniteLogicAnd::CEventUniteLogicAnd(uint16_t)
        2      2   -> operator new(unsigned int)
      4      2   CEventUniteLogicAnd::~CEventUniteLogicAnd()
        4      2   -> CEvent::~CEvent()
        4      2   -> CTimer::~CTimer()
        4      2   -> operator delete(void *)


   Segment part sizes:

   Bytes  Function/Label
   -----  --------------
       6  CDfaLite::GetFsmState()
       6  CDfaLite::SetFsmState(uint8_t)
      30  CEvent::CEvent()
      24  CEvent::new CEvent()
      40  CEvent::~CEvent()
      46  CEventUniteLogicAnd::CEventUniteLogicAnd()
      54  CEventUniteLogicAnd::CEventUniteLogicAnd(uint16_t)
     182  CEventUniteLogicAnd::IsHappened(uint8_t, uint8_t)
      24  CEventUniteLogicAnd::new CEventUniteLogicAnd()
      36  CEventUniteLogicAnd::new CEventUniteLogicAnd(uint16_t)
      62  CEventUniteLogicAnd::~CEventUniteLogicAnd()
       8  -- Other

 
 510 bytes in segment CODE
   8 bytes in segment NEAR_F
 
 498 bytes of CODE memory (+ 20 bytes shared)

Errors: none
Warnings: none
