###############################################################################
#
# IAR C/C++ Compiler V7.10.6.1378 for Atmel AVR           22/Aug/2024  07:37:10
# Copyright 1996-2018 IAR Systems AB.
#
#    Source file  =  
#        D:\Projects\CurrentProjects\CautoProjects\PSS48Color\src\LightBoard.cpp
#    Command line =  
#        -f C:\Users\Admin\AppData\Local\Temp\EW41FB.tmp
#        (--string_literals_in_flash
#        D:\Projects\CurrentProjects\CautoProjects\PSS48Color\src\LightBoard.cpp
#        --cpu=m128a -ms -o
#        D:\Projects\CurrentProjects\CautoProjects\PSS48Color\Debug\Obj -lC
#        D:\Projects\CurrentProjects\CautoProjects\PSS48Color\Debug\List -lB
#        D:\Projects\CurrentProjects\CautoProjects\PSS48Color\Debug\List -y
#        --initializers_in_flash --root_variables --no_cse --no_inline
#        --no_code_motion --no_cross_call --no_clustering --no_tbaa --debug
#        -DENABLE_BIT_DEFINITIONS -e -I
#        D:\Projects\CurrentProjects\CautoProjects\PSS48Color\Modbus\ -I
#        D:\Projects\CurrentProjects\CautoProjects\PSS48Color\include\
#        --eeprom_size 4096 --dlib --dlib_config "C:\Program Files (x86)\IAR
#        Systems\Embedded Workbench 8.0\avr\LIB\DLIB\dlAVR-3s-ec_mul-n.h" -On
#        --eec++)
#    Locale       =  Russian_RUS.1251
#    List file    =  
#        D:\Projects\CurrentProjects\CautoProjects\PSS48Color\Debug\List\LightBoard.lst
#    Object file  =  
#        D:\Projects\CurrentProjects\CautoProjects\PSS48Color\Debug\Obj\LightBoard.r90
#
###############################################################################

D:\Projects\CurrentProjects\CautoProjects\PSS48Color\src\LightBoard.cpp
      1          //-----------------------------------------------------------------------------------------------------
      2          //  Source      : FileName.cpp
      3          //  Created     : 01.06.2022
      4          //  Author      : Alexandr Volvenkin
      5          //  email       : aav-36@mail.ru
      6          //  GitHub      : https://github.com/AlexandrVolvenkin
      7          //-----------------------------------------------------------------------------------------------------
      8          #include "LightBoard.h"

   \                                 In  segment CODE, align 2, keep-with-next
   \   __version_3 uint8_t CAlarmWindow::GetActivityState()
   \                     ??GetActivityState:
   \   00000000   01F8               MOVW    R31:R30, R17:R16
   \   00000002   8100               LD      R16, Z
   \   00000004   9508               RET

   \                                 In  segment CODE, align 2, keep-with-next
   \   __version_3 uint8_t CAlarmWindow::GetAlarmColor()
   \                     ??GetAlarmColor:
   \   00000000   01F8               MOVW    R31:R30, R17:R16
   \   00000002   8104               LDD     R16, Z+4
   \   00000004   9508               RET

   \                                 In  segment ABSOLUTE, at 0x9d, root
   \   union <unnamed> volatile __io _A_UCSR1C
   \                     _A_UCSR1C:
   \   00000000                      DS8 1

   \                                 In  segment ABSOLUTE, at 0x9c, root
   \   union <unnamed> volatile __io _A_UDR1
   \                     _A_UDR1:
   \   00000000                      DS8 1

   \                                 In  segment ABSOLUTE, at 0x9b, root
   \   union <unnamed> volatile __io _A_UCSR1A
   \                     _A_UCSR1A:
   \   00000000                      DS8 1

   \                                 In  segment ABSOLUTE, at 0x9a, root
   \   union <unnamed> volatile __io _A_UCSR1B
   \                     _A_UCSR1B:
   \   00000000                      DS8 1

   \                                 In  segment ABSOLUTE, at 0x99, root
   \   union <unnamed> volatile __io _A_UBRR1L
   \                     _A_UBRR1L:
   \   00000000                      DS8 1

   \                                 In  segment ABSOLUTE, at 0x98, root
   \   union <unnamed> volatile __io _A_UBRR1H
   \                     _A_UBRR1H:
   \   00000000                      DS8 1

   \                                 In  segment ABSOLUTE, at 0x95, root
   \   union <unnamed> volatile __io _A_UCSR0C
   \                     _A_UCSR0C:
   \   00000000                      DS8 1

   \                                 In  segment ABSOLUTE, at 0x90, root
   \   union <unnamed> volatile __io _A_UBRR0H
   \                     _A_UBRR0H:
   \   00000000                      DS8 1

   \                                 In  segment ABSOLUTE, at 0x8c, root
   \   union <unnamed> volatile __io _A_TCCR3C
   \                     _A_TCCR3C:
   \   00000000                      DS8 1

   \                                 In  segment ABSOLUTE, at 0x8b, root
   \   union <unnamed> volatile __io _A_TCCR3A
   \                     _A_TCCR3A:
   \   00000000                      DS8 1

   \                                 In  segment ABSOLUTE, at 0x8a, root
   \   union <unnamed> volatile __io _A_TCCR3B
   \                     _A_TCCR3B:
   \   00000000                      DS8 1

   \                                 In  segment ABSOLUTE, at 0x88, root
   \   union <unnamed> volatile __io _A_TCNT3
   \                     _A_TCNT3:
   \   00000000                      DS8 2

   \                                 In  segment ABSOLUTE, at 0x86, root
   \   union <unnamed> volatile __io _A_OCR3A
   \                     _A_OCR3A:
   \   00000000                      DS8 2

   \                                 In  segment ABSOLUTE, at 0x84, root
   \   union <unnamed> volatile __io _A_OCR3B
   \                     _A_OCR3B:
   \   00000000                      DS8 2

   \                                 In  segment ABSOLUTE, at 0x82, root
   \   union <unnamed> volatile __io _A_OCR3C
   \                     _A_OCR3C:
   \   00000000                      DS8 2

   \                                 In  segment ABSOLUTE, at 0x80, root
   \   union <unnamed> volatile __io _A_ICR3
   \                     _A_ICR3:
   \   00000000                      DS8 2

   \                                 In  segment ABSOLUTE, at 0x7d, root
   \   union <unnamed> volatile __io _A_ETIMSK
   \                     _A_ETIMSK:
   \   00000000                      DS8 1

   \                                 In  segment ABSOLUTE, at 0x7c, root
   \   union <unnamed> volatile __io _A_ETIFR
   \                     _A_ETIFR:
   \   00000000                      DS8 1

   \                                 In  segment ABSOLUTE, at 0x7a, root
   \   union <unnamed> volatile __io _A_TCCR1C
   \                     _A_TCCR1C:
   \   00000000                      DS8 1

   \                                 In  segment ABSOLUTE, at 0x78, root
   \   union <unnamed> volatile __io _A_OCR1C
   \                     _A_OCR1C:
   \   00000000                      DS8 2

   \                                 In  segment ABSOLUTE, at 0x74, root
   \   union <unnamed> volatile __io _A_TWCR
   \                     _A_TWCR:
   \   00000000                      DS8 1

   \                                 In  segment ABSOLUTE, at 0x73, root
   \   union <unnamed> volatile __io _A_TWDR
   \                     _A_TWDR:
   \   00000000                      DS8 1

   \                                 In  segment ABSOLUTE, at 0x72, root
   \   union <unnamed> volatile __io _A_TWAR
   \                     _A_TWAR:
   \   00000000                      DS8 1

   \                                 In  segment ABSOLUTE, at 0x71, root
   \   union <unnamed> volatile __io _A_TWSR
   \                     _A_TWSR:
   \   00000000                      DS8 1

   \                                 In  segment ABSOLUTE, at 0x70, root
   \   union <unnamed> volatile __io _A_TWBR
   \                     _A_TWBR:
   \   00000000                      DS8 1

   \                                 In  segment ABSOLUTE, at 0x6f, root
   \   union <unnamed> volatile __io _A_OSCCAL
   \                     _A_OSCCAL:
   \   00000000                      DS8 1

   \                                 In  segment ABSOLUTE, at 0x6d, root
   \   union <unnamed> volatile __io _A_XMCRA
   \                     _A_XMCRA:
   \   00000000                      DS8 1

   \                                 In  segment ABSOLUTE, at 0x6c, root
   \   union <unnamed> volatile __io _A_XMCRB
   \                     _A_XMCRB:
   \   00000000                      DS8 1

   \                                 In  segment ABSOLUTE, at 0x6a, root
   \   union <unnamed> volatile __io _A_EICRA
   \                     _A_EICRA:
   \   00000000                      DS8 1

   \                                 In  segment ABSOLUTE, at 0x68, root
   \   union <unnamed> volatile __io _A_SPMCSR
   \                     _A_SPMCSR:
   \   00000000                      DS8 1

   \                                 In  segment ABSOLUTE, at 0x65, root
   \   union <unnamed> volatile __io _A_PORTG
   \                     _A_PORTG:
   \   00000000                      DS8 1

   \                                 In  segment ABSOLUTE, at 0x64, root
   \   union <unnamed> volatile __io _A_DDRG
   \                     _A_DDRG:
   \   00000000                      DS8 1

   \                                 In  segment ABSOLUTE, at 0x63, root
   \   union <unnamed> volatile __io _A_PING
   \                     _A_PING:
   \   00000000                      DS8 1

   \                                 In  segment ABSOLUTE, at 0x62, root
   \   union <unnamed> volatile __io _A_PORTF
   \                     _A_PORTF:
   \   00000000                      DS8 1

   \                                 In  segment ABSOLUTE, at 0x61, root
   \   union <unnamed> volatile __io _A_DDRF
   \                     _A_DDRF:
   \   00000000                      DS8 1

   \                                 In  segment ABSOLUTE, at 0x5f, root
   \   union <unnamed> volatile __io _A_SREG
   \                     _A_SREG:
   \   00000000                      DS8 1

   \                                 In  segment ABSOLUTE, at 0x5d, root
   \   union <unnamed> volatile __io _A_SP
   \                     _A_SP:
   \   00000000                      DS8 2

   \                                 In  segment ABSOLUTE, at 0x5c, root
   \   union <unnamed> volatile __io _A_XDIV
   \                     _A_XDIV:
   \   00000000                      DS8 1

   \                                 In  segment ABSOLUTE, at 0x5b, root
   \   union <unnamed> volatile __io _A_RAMPZ
   \                     _A_RAMPZ:
   \   00000000                      DS8 1

   \                                 In  segment ABSOLUTE, at 0x5a, root
   \   union <unnamed> volatile __io _A_EICRB
   \                     _A_EICRB:
   \   00000000                      DS8 1

   \                                 In  segment ABSOLUTE, at 0x59, root
   \   union <unnamed> volatile __io _A_EIMSK
   \                     _A_EIMSK:
   \   00000000                      DS8 1

   \                                 In  segment ABSOLUTE, at 0x58, root
   \   union <unnamed> volatile __io _A_EIFR
   \                     _A_EIFR:
   \   00000000                      DS8 1

   \                                 In  segment ABSOLUTE, at 0x57, root
   \   union <unnamed> volatile __io _A_TIMSK
   \                     _A_TIMSK:
   \   00000000                      DS8 1

   \                                 In  segment ABSOLUTE, at 0x56, root
   \   union <unnamed> volatile __io _A_TIFR
   \                     _A_TIFR:
   \   00000000                      DS8 1

   \                                 In  segment ABSOLUTE, at 0x55, root
   \   union <unnamed> volatile __io _A_MCUCR
   \                     _A_MCUCR:
   \   00000000                      DS8 1

   \                                 In  segment ABSOLUTE, at 0x54, root
   \   union <unnamed> volatile __io _A_MCUCSR
   \                     _A_MCUCSR:
   \   00000000                      DS8 1

   \                                 In  segment ABSOLUTE, at 0x53, root
   \   union <unnamed> volatile __io _A_TCCR0
   \                     _A_TCCR0:
   \   00000000                      DS8 1

   \                                 In  segment ABSOLUTE, at 0x52, root
   \   union <unnamed> volatile __io _A_TCNT0
   \                     _A_TCNT0:
   \   00000000                      DS8 1

   \                                 In  segment ABSOLUTE, at 0x51, root
   \   union <unnamed> volatile __io _A_OCR0
   \                     _A_OCR0:
   \   00000000                      DS8 1

   \                                 In  segment ABSOLUTE, at 0x50, root
   \   union <unnamed> volatile __io _A_ASSR
   \                     _A_ASSR:
   \   00000000                      DS8 1

   \                                 In  segment ABSOLUTE, at 0x4f, root
   \   union <unnamed> volatile __io _A_TCCR1A
   \                     _A_TCCR1A:
   \   00000000                      DS8 1

   \                                 In  segment ABSOLUTE, at 0x4e, root
   \   union <unnamed> volatile __io _A_TCCR1B
   \                     _A_TCCR1B:
   \   00000000                      DS8 1

   \                                 In  segment ABSOLUTE, at 0x4c, root
   \   union <unnamed> volatile __io _A_TCNT1
   \                     _A_TCNT1:
   \   00000000                      DS8 2

   \                                 In  segment ABSOLUTE, at 0x4a, root
   \   union <unnamed> volatile __io _A_OCR1A
   \                     _A_OCR1A:
   \   00000000                      DS8 2

   \                                 In  segment ABSOLUTE, at 0x48, root
   \   union <unnamed> volatile __io _A_OCR1B
   \                     _A_OCR1B:
   \   00000000                      DS8 2

   \                                 In  segment ABSOLUTE, at 0x46, root
   \   union <unnamed> volatile __io _A_ICR1
   \                     _A_ICR1:
   \   00000000                      DS8 2

   \                                 In  segment ABSOLUTE, at 0x45, root
   \   union <unnamed> volatile __io _A_TCCR2
   \                     _A_TCCR2:
   \   00000000                      DS8 1

   \                                 In  segment ABSOLUTE, at 0x44, root
   \   union <unnamed> volatile __io _A_TCNT2
   \                     _A_TCNT2:
   \   00000000                      DS8 1

   \                                 In  segment ABSOLUTE, at 0x43, root
   \   union <unnamed> volatile __io _A_OCR2
   \                     _A_OCR2:
   \   00000000                      DS8 1

   \                                 In  segment ABSOLUTE, at 0x42, root
   \   union <unnamed> volatile __io _A_OCDR
   \                     _A_OCDR:
   \   00000000                      DS8 1

   \                                 In  segment ABSOLUTE, at 0x41, root
   \   union <unnamed> volatile __io _A_WDTCR
   \                     _A_WDTCR:
   \   00000000                      DS8 1

   \                                 In  segment ABSOLUTE, at 0x40, root
   \   union <unnamed> volatile __io _A_SFIOR
   \                     _A_SFIOR:
   \   00000000                      DS8 1

   \                                 In  segment ABSOLUTE, at 0x3e, root
   \   union <unnamed> volatile __io _A_EEAR
   \                     _A_EEAR:
   \   00000000                      DS8 2

   \                                 In  segment ABSOLUTE, at 0x3d, root
   \   union <unnamed> volatile __io _A_EEDR
   \                     _A_EEDR:
   \   00000000                      DS8 1

   \                                 In  segment ABSOLUTE, at 0x3c, root
   \   union <unnamed> volatile __io _A_EECR
   \                     _A_EECR:
   \   00000000                      DS8 1

   \                                 In  segment ABSOLUTE, at 0x3b, root
   \   union <unnamed> volatile __io _A_PORTA
   \                     _A_PORTA:
   \   00000000                      DS8 1

   \                                 In  segment ABSOLUTE, at 0x3a, root
   \   union <unnamed> volatile __io _A_DDRA
   \                     _A_DDRA:
   \   00000000                      DS8 1

   \                                 In  segment ABSOLUTE, at 0x39, root
   \   union <unnamed> volatile __io _A_PINA
   \                     _A_PINA:
   \   00000000                      DS8 1

   \                                 In  segment ABSOLUTE, at 0x38, root
   \   union <unnamed> volatile __io _A_PORTB
   \                     _A_PORTB:
   \   00000000                      DS8 1

   \                                 In  segment ABSOLUTE, at 0x37, root
   \   union <unnamed> volatile __io _A_DDRB
   \                     _A_DDRB:
   \   00000000                      DS8 1

   \                                 In  segment ABSOLUTE, at 0x36, root
   \   union <unnamed> volatile __io _A_PINB
   \                     _A_PINB:
   \   00000000                      DS8 1

   \                                 In  segment ABSOLUTE, at 0x35, root
   \   union <unnamed> volatile __io _A_PORTC
   \                     _A_PORTC:
   \   00000000                      DS8 1

   \                                 In  segment ABSOLUTE, at 0x34, root
   \   union <unnamed> volatile __io _A_DDRC
   \                     _A_DDRC:
   \   00000000                      DS8 1

   \                                 In  segment ABSOLUTE, at 0x33, root
   \   union <unnamed> volatile __io _A_PINC
   \                     _A_PINC:
   \   00000000                      DS8 1

   \                                 In  segment ABSOLUTE, at 0x32, root
   \   union <unnamed> volatile __io _A_PORTD
   \                     _A_PORTD:
   \   00000000                      DS8 1

   \                                 In  segment ABSOLUTE, at 0x31, root
   \   union <unnamed> volatile __io _A_DDRD
   \                     _A_DDRD:
   \   00000000                      DS8 1

   \                                 In  segment ABSOLUTE, at 0x30, root
   \   union <unnamed> volatile __io _A_PIND
   \                     _A_PIND:
   \   00000000                      DS8 1

   \                                 In  segment ABSOLUTE, at 0x2f, root
   \   union <unnamed> volatile __io _A_SPDR
   \                     _A_SPDR:
   \   00000000                      DS8 1

   \                                 In  segment ABSOLUTE, at 0x2e, root
   \   union <unnamed> volatile __io _A_SPSR
   \                     _A_SPSR:
   \   00000000                      DS8 1

   \                                 In  segment ABSOLUTE, at 0x2d, root
   \   union <unnamed> volatile __io _A_SPCR
   \                     _A_SPCR:
   \   00000000                      DS8 1

   \                                 In  segment ABSOLUTE, at 0x2c, root
   \   union <unnamed> volatile __io _A_UDR0
   \                     _A_UDR0:
   \   00000000                      DS8 1

   \                                 In  segment ABSOLUTE, at 0x2b, root
   \   union <unnamed> volatile __io _A_UCSR0A
   \                     _A_UCSR0A:
   \   00000000                      DS8 1

   \                                 In  segment ABSOLUTE, at 0x2a, root
   \   union <unnamed> volatile __io _A_UCSR0B
   \                     _A_UCSR0B:
   \   00000000                      DS8 1

   \                                 In  segment ABSOLUTE, at 0x29, root
   \   union <unnamed> volatile __io _A_UBRR0L
   \                     _A_UBRR0L:
   \   00000000                      DS8 1

   \                                 In  segment ABSOLUTE, at 0x28, root
   \   union <unnamed> volatile __io _A_ACSR
   \                     _A_ACSR:
   \   00000000                      DS8 1

   \                                 In  segment ABSOLUTE, at 0x27, root
   \   union <unnamed> volatile __io _A_ADMUX
   \                     _A_ADMUX:
   \   00000000                      DS8 1

   \                                 In  segment ABSOLUTE, at 0x26, root
   \   union <unnamed> volatile __io _A_ADCSRA
   \                     _A_ADCSRA:
   \   00000000                      DS8 1

   \                                 In  segment ABSOLUTE, at 0x24, root
   \   union <unnamed> volatile __io _A_ADC
   \                     _A_ADC:
   \   00000000                      DS8 2

   \                                 In  segment ABSOLUTE, at 0x23, root
   \   union <unnamed> volatile __io _A_PORTE
   \                     _A_PORTE:
   \   00000000                      DS8 1

   \                                 In  segment ABSOLUTE, at 0x22, root
   \   union <unnamed> volatile __io _A_DDRE
   \                     _A_DDRE:
   \   00000000                      DS8 1

   \                                 In  segment ABSOLUTE, at 0x21, root
   \   union <unnamed> volatile __io _A_PINE
   \                     _A_PINE:
   \   00000000                      DS8 1

   \                                 In  segment ABSOLUTE, at 0x20, root
   \   union <unnamed> volatile __io _A_PINF
   \                     _A_PINF:
   \   00000000                      DS8 1

      static __flash TDataBase CFlash::xMainDataBase;
                               ^
"D:\Projects\CurrentProjects\CautoProjects\PSS48Color\include\Platform.h",368  Warning[Pe427]: 
          qualified name is not allowed in member declaration

      static __flash TDataBaseBlockPositionData CFlash::axDataBaseBlocksPositionData[];
                                                ^
"D:\Projects\CurrentProjects\CautoProjects\PSS48Color\include\Platform.h",369  Warning[Pe427]: 
          qualified name is not allowed in member declaration

   \                                 In  segment CODE, align 2, keep-with-next
   \   __version_3 void CPins::SetPinLAT_B()
   \                     ??SetPinLAT_B:
   \   00000000   91000062           LDS     R16, 98
   \   00000004   6004               ORI     R16, 0x04
   \   00000006   93000062           STS     98, R16
   \   0000000A   9508               RET
   \   0000000C                      REQUIRE _A_PORTF

   \                                 In  segment CODE, align 2, keep-with-next
   \   __version_3 void CPins::ClearPinLAT_B()
   \                     ??ClearPinLAT_B:
   \   00000000   91000062           LDS     R16, 98
   \   00000004   7F0B               ANDI    R16, 0xFB
   \   00000006   93000062           STS     98, R16
   \   0000000A   9508               RET
   \   0000000C                      REQUIRE _A_PORTF

   \                                 In  segment CODE, align 2, keep-with-next
   \   __version_3 void CPins::ClearPinEN_B()
   \                     ??ClearPinEN_B:
   \   00000000   91000062           LDS     R16, 98
   \   00000004   7D0F               ANDI    R16, 0xDF
   \   00000006   93000062           STS     98, R16
   \   0000000A   9508               RET
   \   0000000C                      REQUIRE _A_PORTF
      9          #include "Platform.h"
     10          #include "Pss21.h"

      virtual bool IsSolved(void) {};
                                   ^
"D:\Projects\CurrentProjects\CautoProjects\PSS48Color\include\Task.h",20  Warning[Pe940]: 
          missing return statement at end of non-void function
          "CTaskInterface::IsSolved"

      virtual bool IsSourceStateActive(void) {};
                                              ^
"D:\Projects\CurrentProjects\CautoProjects\PSS48Color\include\Task.h",23  Warning[Pe940]: 
          missing return statement at end of non-void function
          "CTaskInterface::IsSourceStateActive"

      bool IsSolved(void) {};
                           ^
"D:\Projects\CurrentProjects\CautoProjects\PSS48Color\include\Task.h",58  Warning[Pe940]: 
          missing return statement at end of non-void function
          "CIsRegularButtonPressedInterface::IsSolved"

      virtual bool IsSourceStateActive(void) {};
                                              ^
"D:\Projects\CurrentProjects\CautoProjects\PSS48Color\include\Task.h",61  Warning[Pe940]: 
          missing return statement at end of non-void function
          "CIsRegularButtonPressedInterface::IsSourceStateActive"

      virtual uint16_t KEY_PRESSED_TIME(void) {};
                                               ^
"D:\Projects\CurrentProjects\CautoProjects\PSS48Color\include\Task.h",63  Warning[Pe940]: 
          missing return statement at end of non-void function
          "CIsRegularButtonPressedInterface::KEY_PRESSED_TIME"
     11          #include "Dm163.h"

   \                                 In  segment CODE, align 2, keep-with-next
   \   __version_3 void CDm163::PulseDelayLAT_B()
   \                     ??PulseDelayLAT_B:
   \   00000000   0000               nop
   \   00000002   9508               RET
     12          
     13          //-------------------------------------------------------------------------------------------------
     14          // Массив управления драйверами светодиодов на панели.

   \                                 In  segment NEAR_Z, align 1, keep-with-next, root
   \   00000000                      REQUIRE `?<Segment init: NEAR_Z>`
     15          uint8_t CLightBoard::m_auiBoardLampsControl[m_uiBoardLedNumber];
   \                     ??m_auiBoardLampsControl:
   \   00000000                      DS8 64
     16          // Карта соответствия индекса окна на панели и индекса состояния светодиода в массиве управления.

   \                                 In  segment NEAR_F, align 1, keep-with-next, root
     17          __flash uint8_t CLightBoard::m_auiLedMap[] =
   \                     ??m_auiLedMap:
   \   00000000   2E26272F171F       DC8 38, 46, 47, 39, 31, 23, 15, 7, 5, 13, 21, 29, 30, 22, 14, 6, 20, 28
   \              070F0D051D15
   \              161E060E1C14
   \   00000012   2C24252D0C04       DC8 36, 44, 45, 37, 4, 12, 34, 42, 43, 35, 27, 19, 11, 3, 1, 9, 17, 25
   \              2A22232B131B
   \              030B09011911
   \   00000024   121A020A1810       DC8 26, 18, 10, 2, 16, 24, 32, 40, 41, 33, 0, 8
   \              282021290800
     18          {
     19          //    // Левая часть.    // Правая часть.
     20          //    0, 0, 0, 0,    0, 0, 0, 0,
     21          //    1, 1, 1, 1,    1, 1, 1, 1,
     22          //    1, 1, 1, 1,    1, 1, 1, 1,
     23          //    1, 1, 1, 1,    1, 1, 1, 1,
     24          //    1, 1, 1, 1,    1, 1, 1, 1,
     25          //    1, 1, 1, 1,    1, 1, 1, 1,
     26          
     27          //    // Левая часть.    // Правая часть.
     28          //    47, 33, 40, 32,    23, 9, 16, 8,
     29          //    48, 34, 39, 31,    24, 10, 15, 7,
     30          //    41, 35, 38, 39,    17, 11, 14, 6,
     31          //    42, 36, 37, 29,    18, 12, 13, 5,
     32          //    43, 46, 25, 28,    19, 22, 1, 4,
     33          //    44, 45, 26, 27,    20, 21, 2, 3,
     34          
     35          //    // Левая часть.    // Правая часть.
     36          //    0,  0,  0,  0,     0,  0,  0,  0,
     37          //    0,  0,  0,  0,     0,  0,  0,  0,
     38          //    0,  0,  0,  0,     0,  0,  0,  0,
     39          //    0,  0,  0,  0,     0,  0,  0,  0,
     40          //    0,  0,  0,  0,     0,  0,  0,  0,
     41          //    0,  0,  0,  0,     0,  0,  0,  0,
     42          
     43              // Левая часть.    // Правая часть.
     44              38,  46,  47,  39,    31,  23,  15,  7,
     45              5,   13,  21,  29,    30,  22,  14,  6,
     46              20,  28,  36,  44,    45,  37,  4,  12,
     47              34,  42,  43,  35,    27,  19,  11,  3,
     48              1,    9,  17,  25,    26,  18,  10,  2,
     49              16,  24,  32,  40,    41,  33,  0,  8,
     50          
     51          //-----------------------------------------------------------------------------------------------------
     52          //карта индекс в массиве - позиция лампы: 1 - 75 - xy x - 7, y - 5.
     53          // 1 - первый элемент в массиве, адрес - 0.
     54          //1 - 75
     55          //2 -76
     56          //3 86
     57          //4-85
     58          //5-84
     59          //6-83
     60          //7-82
     61          //8-81
     62          //
     63          //9-61
     64          //10-62
     65          //11-63
     66          //12-64
     67          //13-74
     68          //14-73
     69          //15-72
     70          //16-71
     71          //
     72          //17- 53
     73          //18-54
     74          //19-55
     75          //20- 56
     76          //21-66
     77          //22-65
     78          //23-51
     79          //24-52
     80          //
     81          //25-35
     82          //26-36
     83          //27-46
     84          //28-45
     85          //29-44
     86          //30- 43
     87          //31--42
     88          //32-41
     89          //
     90          //33-21
     91          //34-22
     92          //35-23
     93          //36-24
     94          //37-34
     95          //38-33
     96          //39-32
     97          //40-31
     98          //
     99          //41-13
    100          //42-14
    101          //43-15
    102          //44-16
    103          //45-26
    104          //46-25
    105          //47-11
    106          //48-12
    107          ////-----------------------------------------------------------------------------------------------------
    108          //
    109          //41-13
    110          //42-14
    111          //43-15
    112          //44-16
    113          //45-26
    114          //46-25
    115          //47-11
    116          //48-12
    117          //    // Левая часть.    // Правая часть.
    118          //    38,  46,  47,  39,    31,  23,  15,  7,
    119          //    5,   13,  21,  29,    30,  22,  14,  6,
    120          //    20,  28,  36,  44,    45,  37,  4,  12,
    121          //    34,  42,  43,  35,    27,  19,  11,  3,
    122          //    1,    9,  17,  25,    26,  18,  10,  2,
    123          //    16,  24,  32,  40,    41,  33,  0,  8,
    124          //
    125          //     1  | 2  | 3  | 4     5  | 6  | 7  | 8  |
    126          //---------------------------------------------
    127          //1  | 0  | 1  | 2  | 3     4  | 5  | 6  | 7  |
    128          //---------------------------------------------
    129          //2  | 8  | 9  | 10 | 11    12 | 13 | 14 | 15 |
    130          //---------------------------------------------
    131          //3  | 16 | 17 | 18 | 19    20 | 21 | 22 | 23 |
    132          //---------------------------------------------
    133          //4  | 24 | 25 | 26 | 27    28 | 29 | 30 | 31 |
    134          //---------------------------------------------
    135          //5  | 32 | 33 | 34 | 35    36 | 37 | 38 | 39 |
    136          //---------------------------------------------
    137          //6  | 40 | 41 | 42 | 43    44 | 45 | 46 | 47 |
    138          //---------------------------------------------
    139          };
    140          
    141          // разведено на плате:
    142          // b
    143          // r
    144          // g
    145          

   \                                 In  segment NEAR_F, align 1, keep-with-next, root
    146          __flash TPixelColorData CLightBoard::m_xPixelColorCorrectionData =
   \                     ??m_xPixelColorCorrectionData:
   \   00000000   3F3F3F             DC8 63, 63, 63
    147          {
    148              63,
    149              63,
    150              63,
    151          };
    152          

   \                                 In  segment NEAR_F, align 1, keep-with-next, root
    153          __flash TPixelColorData CLightBoard::m_xPixelColorBlack =
   \                     ??m_xPixelColorBlack:
   \   00000000   000000             DC8 0, 0, 0
    154          {
    155              0,
    156              0,
    157              0,
    158          };
    159          

   \                                 In  segment NEAR_F, align 1, keep-with-next, root
    160          __flash TPixelColorData CLightBoard::m_xPixelColorRed =
   \                     ??m_xPixelColorRed:
   \   00000000   FF0000             DC8 0, 255, 0
    161          {
    162              0,
    163              255,
    164              0,
    165          };
    166          

   \                                 In  segment NEAR_F, align 1, keep-with-next, root
    167          __flash TPixelColorData CLightBoard::m_xPixelColorGreen =
   \                     ??m_xPixelColorGreen:
   \   00000000   0000FF             DC8 0, 0, 255
    168          {
    169              0,
    170              0,
    171              255,
    172          };
    173          

   \                                 In  segment NEAR_F, align 1, keep-with-next, root
    174          __flash TPixelColorData CLightBoard::m_xPixelColorBlue =
   \                     ??m_xPixelColorBlue:
   \   00000000   00FF00             DC8 255, 0, 0
    175          {
    176              255,
    177              0,
    178              0,
    179          };
    180          

   \                                 In  segment NEAR_F, align 1, keep-with-next, root
    181          __flash TPixelColorData CLightBoard::m_xPixelColorYellow =
   \                     ??m_xPixelColorYellow:
   \   00000000   FF00FF             DC8 0, 255, 255
    182          {
    183              0,
    184              255,
    185              255,
    186          };
    187          

   \                                 In  segment NEAR_F, align 1, keep-with-next, root
    188          __flash TPixelColorData CLightBoard::m_xPixelColorWhite =
   \                     ??m_xPixelColorWhite:
   \   00000000   FFFFFF             DC8 255, 255, 255
    189          {
    190              255,
    191              255,
    192              255,
    193          };
    194          
    195          ////-----------------------------------------------------------------------------------------------------
    196          //CLightBoard::CLightBoard()
    197          //{
    198          ////    Init();
    199          //}
    200          //
    201          ////-----------------------------------------------------------------------------------------------------
    202          //CLightBoard::~CLightBoard()
    203          //{
    204          //
    205          //}
    206          
    207          //-----------------------------------------------------------------------------------------------------

   \                                 In  segment CODE, align 2, keep-with-next
    208          void CLightBoard::Init(CAlarmWindow* pxAlarmWindowControl)
   \                     ??Init:
    209          {
   \   00000000   939A               ST      -Y, R25
   \   00000002   938A               ST      -Y, R24
   \   00000004   01C8               MOVW    R25:R24, R17:R16
    210          //    // Включим панель.
    211          //    CPlatform::LedDriverEnable1On();
    212          //    CPlatform::LedDriverEnable2On();
    213          //    CPlatform::LedDriverEnable3On();
    214          //    CPlatform::LedDriverEnable4On();
    215          //    CPlatform::LedDriverEnable1SetPinOutput();
    216          //    CPlatform::LedDriverEnable2SetPinOutput();
    217          //    CPlatform::LedDriverEnable3SetPinOutput();
    218          //    CPlatform::LedDriverEnable4SetPinOutput();
    219          
    220          //    CDM134::Init();
    221              CDm163::Init();
   \   00000006   ........           CALL    ??Init_1
    222          }
   \   0000000A   9189               LD      R24, Y+
   \   0000000C   9199               LD      R25, Y+
   \   0000000E   9508               RET
    223          
    224          ////-----------------------------------------------------------------------------------------------------
    225          //void CLightBoard::Set(CAlarmWindow* pxAlarmWindowControl)
    226          //{
    227          //    for (uint8_t i = 0;
    228          //            i < ALARM_WINDOWS_NUMBER;
    229          //            i++)
    230          //    {
    231          //        // Окно сигнализации активно?
    232          //        if (pxAlarmWindowControl[i].GetActivityState())
    233          //        {
    234          //            m_auiBoardLampsControl[m_auiLedMap[i]] = 1;
    235          //        }
    236          //        else
    237          //        {
    238          //            m_auiBoardLampsControl[m_auiLedMap[i]] = 0;
    239          //        }
    240          //
    241          ////        CPss21::m_aucRtuHoldingRegistersArray[i] = pxAlarmWindowControl[i].GetActivityState();
    242          //    };
    243          //
    244          //    // Зажжём активные светодиоды.
    245          //    CDM134::Set(m_auiBoardLampsControl, m_uiBoardLedNumber);
    246          //}
    247          
    248          //-----------------------------------------------------------------------------------------------------

   \                                 In  segment CODE, align 2, keep-with-next
    249          void CLightBoard::Set(CAlarmWindow* pxAlarmWindowControl)
   \                     ??Set:
    250          {
   \   00000000   ........           CALL    ?PROLOGUE3_L09
   \   00000004   01C8               MOVW    R25:R24, R17:R16
    251          //    return;
    252              CDm163::Reset();
   \   00000006   ........           CALL    ??Reset
    253              // передадим данные коррекции - банк0
    254              for (uint8_t i = 0;
   \   0000000A   E0A0               LDI     R26, 0
    255                      i < BOARD_LED_NUMBER;
   \                     ??Set_1:
   \   0000000C   33A0               CPI     R26, 48
   \   0000000E   F438               BRCC    ??Set_2
    256                      i++)
    257              {
    258                  CPss48BoardPixel::SetCorrection(&m_xPixelColorCorrectionData);
   \   00000010   ....               LDI     R16, LOW(??m_xPixelColorCorrectionData)
   \   00000012   ....               LDI     R17, (??m_xPixelColorCorrectionData) >> 8
   \   00000014   E020               LDI     R18, 0
   \   00000016   ........           CALL    ??SetCorrection
    259              };
   \   0000001A   95A3               INC     R26
   \   0000001C   CFF7               RJMP    ??Set_1
    260          
    261              for (uint8_t i = 0;
   \                     ??Set_2:
   \   0000001E   E0A0               LDI     R26, 0
    262                      i < BOARD_LED_NUMBER;
   \                     ??Set_3:
   \   00000020   33A0               CPI     R26, 48
   \   00000022   F008               BRCS    $+2+2
   \   00000024   C050               RJMP    ??Set_4
    263                      i++)
    264              {
    265                  // Окно сигнализации активно?
    266                  if (pxAlarmWindowControl[m_auiLedMap[i]].GetActivityState())
   \   00000026   2FEA               MOV     R30, R26
   \   00000028   E0F0               LDI     R31, 0
   \   0000002A   ....               SUBI    R30, LOW((-(??m_auiLedMap) & 0xFFFF))
   \   0000002C   ....               SBCI    R31, (-(??m_auiLedMap) & 0xFFFF) >> 8
   \   0000002E   9104               LPM     R16, Z
   \   00000030   E010               LDI     R17, 0
   \   00000032   E048               LDI     R20, 8
   \   00000034   E050               LDI     R21, 0
   \   00000036   ........           CALL    ?S_EC_MUL_L02
   \   0000003A   0198               MOVW    R19:R18, R17:R16
   \   0000003C   018C               MOVW    R17:R16, R25:R24
   \   0000003E   0F02               ADD     R16, R18
   \   00000040   1F13               ADC     R17, R19
   \   00000042   ........           CALL    ??GetActivityState
   \   00000046   2300               TST     R16
   \   00000048   F1B9               BREQ    ??Set_5
    267          //        if (pxAlarmWindowControl[i].GetActivityState())
    268                  {
    269          //        CPss21::m_aucRtuHoldingRegistersArray[1] = i;
    270          //        CPss21::m_aucRtuHoldingRegistersArray[2] = m_auiLedMap[i];
    271          //        CPss21::m_aucRtuHoldingRegistersArray[3] = pxAlarmWindowControl[i].GetAlarmType();
    272          //            switch (pxAlarmWindowControl[i].GetAlarmType())
    273          //            switch (pxAlarmWindowControl[m_auiLedMap[i]].GetAlarmType())
    274                      switch (pxAlarmWindowControl[m_auiLedMap[i]].GetAlarmColor())
   \   0000004A   2FEA               MOV     R30, R26
   \   0000004C   E0F0               LDI     R31, 0
   \   0000004E   ....               SUBI    R30, LOW((-(??m_auiLedMap) & 0xFFFF))
   \   00000050   ....               SBCI    R31, (-(??m_auiLedMap) & 0xFFFF) >> 8
   \   00000052   9104               LPM     R16, Z
   \   00000054   E010               LDI     R17, 0
   \   00000056   E048               LDI     R20, 8
   \   00000058   E050               LDI     R21, 0
   \   0000005A   ........           CALL    ?S_EC_MUL_L02
   \   0000005E   0198               MOVW    R19:R18, R17:R16
   \   00000060   018C               MOVW    R17:R16, R25:R24
   \   00000062   0F02               ADD     R16, R18
   \   00000064   1F13               ADC     R17, R19
   \   00000066   ........           CALL    ??GetAlarmColor
   \   0000006A   5001               SUBI    R16, 1
   \   0000006C   F039               BREQ    ??Set_6
   \   0000006E   950A               DEC     R16
   \   00000070   F059               BREQ    ??Set_7
   \   00000072   950A               DEC     R16
   \   00000074   F079               BREQ    ??Set_8
   \   00000076   5003               SUBI    R16, 3
   \   00000078   F099               BREQ    ??Set_9
   \   0000007A   C018               RJMP    ??Set_10
    275                      {
    276                      case INDICATION:
    277                          CPss48BoardPixel::SetData(&m_xPixelColorGreen);
   \                     ??Set_6:
   \   0000007C   ....               LDI     R16, LOW(??m_xPixelColorGreen)
   \   0000007E   ....               LDI     R17, (??m_xPixelColorGreen) >> 8
   \   00000080   E020               LDI     R18, 0
   \   00000082   ........           CALL    ??SetData
    278          
    279                          break;
   \   00000086   C01D               RJMP    ??Set_11
    280          
    281                      case PREVENTIVE:
    282                          CPss48BoardPixel::SetData(&m_xPixelColorYellow);
   \                     ??Set_7:
   \   00000088   ....               LDI     R16, LOW(??m_xPixelColorYellow)
   \   0000008A   ....               LDI     R17, (??m_xPixelColorYellow) >> 8
   \   0000008C   E020               LDI     R18, 0
   \   0000008E   ........           CALL    ??SetData
    283                          break;
   \   00000092   C017               RJMP    ??Set_11
    284          
    285                      case EMERGENCY:
    286                          CPss48BoardPixel::SetData(&m_xPixelColorRed);
   \                     ??Set_8:
   \   00000094   ....               LDI     R16, LOW(??m_xPixelColorRed)
   \   00000096   ....               LDI     R17, (??m_xPixelColorRed) >> 8
   \   00000098   E020               LDI     R18, 0
   \   0000009A   ........           CALL    ??SetData
    287                          break;
   \   0000009E   C011               RJMP    ??Set_11
    288          
    289                      case ERROR:
    290                          CPss48BoardPixel::SetData(&m_xPixelColorWhite);
   \                     ??Set_9:
   \   000000A0   ....               LDI     R16, LOW(??m_xPixelColorWhite)
   \   000000A2   ....               LDI     R17, (??m_xPixelColorWhite) >> 8
   \   000000A4   E020               LDI     R18, 0
   \   000000A6   ........           CALL    ??SetData
    291                          break;
   \   000000AA   C00B               RJMP    ??Set_11
    292          
    293                      default:
    294                          CPss48BoardPixel::SetData(&m_xPixelColorBlack);
   \                     ??Set_10:
   \   000000AC   ....               LDI     R16, LOW(??m_xPixelColorBlack)
   \   000000AE   ....               LDI     R17, (??m_xPixelColorBlack) >> 8
   \   000000B0   E020               LDI     R18, 0
   \   000000B2   ........           CALL    ??SetData
    295                          break;
   \   000000B6   C005               RJMP    ??Set_11
    296                      }
    297          
    298                  }
    299                  else
    300                  {
    301                      CPss48BoardPixel::SetData(&m_xPixelColorBlack);
   \                     ??Set_5:
   \   000000B8   ....               LDI     R16, LOW(??m_xPixelColorBlack)
   \   000000BA   ....               LDI     R17, (??m_xPixelColorBlack) >> 8
   \   000000BC   E020               LDI     R18, 0
   \   000000BE   ........           CALL    ??SetData
    302                  }
    303              };
   \                     ??Set_11:
   \   000000C2   95A3               INC     R26
   \   000000C4   CFAD               RJMP    ??Set_3
    304          
    305              CPins::SetPinLAT_B();
   \                     ??Set_4:
   \   000000C6   ........           CALL    ??SetPinLAT_B
    306              CDm163::PulseDelayLAT_B();
   \   000000CA   ........           CALL    ??PulseDelayLAT_B
    307              CPins::ClearPinLAT_B();
   \   000000CE   ........           CALL    ??ClearPinLAT_B
    308              CPins::ClearPinEN_B();
   \   000000D2   ........           CALL    ??ClearPinEN_B
    309          }
   \   000000D6   E0E3               LDI     R30, 3
   \   000000D8   ........           JMP     ?EPILOGUE_B3_L09
    310          
    311          
    312          //        CPss21::m_aucRtuHoldingRegistersArray[0] = pxAlarmWindowControl[i].GetActivityState();

   Maximum stack usage in bytes:

   CSTACK RSTACK Function
   ------ ------ --------
      0      2   CAlarmWindow::GetActivityState()
      0      2   CAlarmWindow::GetAlarmColor()
      0      2   CDm163::PulseDelayLAT_B()
      2      2   CLightBoard::Init(CAlarmWindow *)
        2      2   -> CDm163::Init()
      3      2   CLightBoard::Set(CAlarmWindow *)
        3      2   -> CAlarmWindow::GetActivityState()
        3      2   -> CAlarmWindow::GetAlarmColor()
        3      2   -> CDm163::PulseDelayLAT_B()
        3      2   -> CDm163::Reset()
        3      2   -> CPins::ClearPinEN_B()
        3      2   -> CPins::ClearPinLAT_B()
        3      2   -> CPins::SetPinLAT_B()
        3      2   -> CPss48BoardPixel::SetCorrection(TPixelColorData __farflash *)
        3      2   -> CPss48BoardPixel::SetData(TPixelColorData __farflash *)
        3      2 ?S_EC_MUL_L02
      0      2   CPins::ClearPinEN_B()
      0      2   CPins::ClearPinLAT_B()
      0      2   CPins::SetPinLAT_B()


   Segment part sizes:

   Bytes  Function/Label
   -----  --------------
       6  CAlarmWindow::GetActivityState()
       6  CAlarmWindow::GetAlarmColor()
       4  CDm163::PulseDelayLAT_B()
      16  CLightBoard::Init(CAlarmWindow *)
     220  CLightBoard::Set(CAlarmWindow *)
      64  CLightBoard::m_auiBoardLampsControl
      48  CLightBoard::m_auiLedMap
       3  CLightBoard::m_xPixelColorBlack
       3  CLightBoard::m_xPixelColorBlue
       3  CLightBoard::m_xPixelColorCorrectionData
       3  CLightBoard::m_xPixelColorGreen
       3  CLightBoard::m_xPixelColorRed
       3  CLightBoard::m_xPixelColorWhite
       3  CLightBoard::m_xPixelColorYellow
      12  CPins::ClearPinEN_B()
      12  CPins::ClearPinLAT_B()
      12  CPins::SetPinLAT_B()
       1  _A_ACSR
       2  _A_ADC
       1  _A_ADCSRA
       1  _A_ADMUX
       1  _A_ASSR
       1  _A_DDRA
       1  _A_DDRB
       1  _A_DDRC
       1  _A_DDRD
       1  _A_DDRE
       1  _A_DDRF
       1  _A_DDRG
       2  _A_EEAR
       1  _A_EECR
       1  _A_EEDR
       1  _A_EICRA
       1  _A_EICRB
       1  _A_EIFR
       1  _A_EIMSK
       1  _A_ETIFR
       1  _A_ETIMSK
       2  _A_ICR1
       2  _A_ICR3
       1  _A_MCUCR
       1  _A_MCUCSR
       1  _A_OCDR
       1  _A_OCR0
       2  _A_OCR1A
       2  _A_OCR1B
       2  _A_OCR1C
       1  _A_OCR2
       2  _A_OCR3A
       2  _A_OCR3B
       2  _A_OCR3C
       1  _A_OSCCAL
       1  _A_PINA
       1  _A_PINB
       1  _A_PINC
       1  _A_PIND
       1  _A_PINE
       1  _A_PINF
       1  _A_PING
       1  _A_PORTA
       1  _A_PORTB
       1  _A_PORTC
       1  _A_PORTD
       1  _A_PORTE
       1  _A_PORTF
       1  _A_PORTG
       1  _A_RAMPZ
       1  _A_SFIOR
       2  _A_SP
       1  _A_SPCR
       1  _A_SPDR
       1  _A_SPMCSR
       1  _A_SPSR
       1  _A_SREG
       1  _A_TCCR0
       1  _A_TCCR1A
       1  _A_TCCR1B
       1  _A_TCCR1C
       1  _A_TCCR2
       1  _A_TCCR3A
       1  _A_TCCR3B
       1  _A_TCCR3C
       1  _A_TCNT0
       2  _A_TCNT1
       1  _A_TCNT2
       2  _A_TCNT3
       1  _A_TIFR
       1  _A_TIMSK
       1  _A_TWAR
       1  _A_TWBR
       1  _A_TWCR
       1  _A_TWDR
       1  _A_TWSR
       1  _A_UBRR0H
       1  _A_UBRR0L
       1  _A_UBRR1H
       1  _A_UBRR1L
       1  _A_UCSR0A
       1  _A_UCSR0B
       1  _A_UCSR0C
       1  _A_UCSR1A
       1  _A_UCSR1B
       1  _A_UCSR1C
       1  _A_UDR0
       1  _A_UDR1
       1  _A_WDTCR
       1  _A_XDIV
       1  _A_XMCRA
       1  _A_XMCRB
      29  -- Other

 
 105 bytes in segment ABSOLUTE
 288 bytes in segment CODE
   7 bytes in segment INITTAB
  91 bytes in segment NEAR_F
  64 bytes in segment NEAR_Z
 
 327 bytes of CODE memory (+  59 bytes shared)
  64 bytes of DATA memory (+ 105 bytes shared)

Errors: none
Warnings: 7
