###############################################################################
#
# IAR C/C++ Compiler V7.10.6.1378 for Atmel AVR           30/May/2023  07:56:23
# Copyright 1996-2018 IAR Systems AB.
#
#    Source file  =  
#        D:\Projects\CurrentProjects\CautoProjects\PSS48Color\src\LinkControl.cpp
#    Command line =  
#        -f C:\Users\Admin\AppData\Local\Temp\EW3D74.tmp
#        (--string_literals_in_flash
#        D:\Projects\CurrentProjects\CautoProjects\PSS48Color\src\LinkControl.cpp
#        --cpu=m128a -ms -o
#        D:\Projects\CurrentProjects\CautoProjects\PSS48Color\Debug\Obj -lC
#        D:\Projects\CurrentProjects\CautoProjects\PSS48Color\Debug\List -lB
#        D:\Projects\CurrentProjects\CautoProjects\PSS48Color\Debug\List -y
#        --initializers_in_flash --root_variables --debug
#        -DENABLE_BIT_DEFINITIONS -e -I
#        D:\Projects\CurrentProjects\CautoProjects\PSS48Color\Modbus\ -I
#        D:\Projects\CurrentProjects\CautoProjects\PSS48Color\include\
#        --eeprom_size 4096 --dlib --dlib_config "C:\Program Files (x86)\IAR
#        Systems\Embedded Workbench 8.0\avr\LIB\DLIB\dlAVR-3s-ec_mul-n.h" -Ohz
#        --eec++)
#    Locale       =  Russian_RUS.1251
#    List file    =  
#        D:\Projects\CurrentProjects\CautoProjects\PSS48Color\Debug\List\LinkControl.lst
#    Object file  =  
#        D:\Projects\CurrentProjects\CautoProjects\PSS48Color\Debug\Obj\LinkControl.r90
#
###############################################################################

D:\Projects\CurrentProjects\CautoProjects\PSS48Color\src\LinkControl.cpp
      1          //-----------------------------------------------------------------------------------------------------
      2          //  Source      : FileName.cpp
      3          //  Created     : 01.06.2022
      4          //  Author      : Alexandr Volvenkin
      5          //  email       : aav-36@mail.ru
      6          //  GitHub      : https://github.com/AlexandrVolvenkin
      7          //-----------------------------------------------------------------------------------------------------
      8          #include "LinkControl.h"
      9          #include "Pss21.h"

   \                                 In  segment ABSOLUTE, at 0x9d, root
   \   union <unnamed> volatile __io _A_UCSR1C
   \                     _A_UCSR1C:
   \   00000000                      DS8 1

   \                                 In  segment ABSOLUTE, at 0x9c, root
   \   union <unnamed> volatile __io _A_UDR1
   \                     _A_UDR1:
   \   00000000                      DS8 1

   \                                 In  segment ABSOLUTE, at 0x9b, root
   \   union <unnamed> volatile __io _A_UCSR1A
   \                     _A_UCSR1A:
   \   00000000                      DS8 1

   \                                 In  segment ABSOLUTE, at 0x9a, root
   \   union <unnamed> volatile __io _A_UCSR1B
   \                     _A_UCSR1B:
   \   00000000                      DS8 1

   \                                 In  segment ABSOLUTE, at 0x99, root
   \   union <unnamed> volatile __io _A_UBRR1L
   \                     _A_UBRR1L:
   \   00000000                      DS8 1

   \                                 In  segment ABSOLUTE, at 0x98, root
   \   union <unnamed> volatile __io _A_UBRR1H
   \                     _A_UBRR1H:
   \   00000000                      DS8 1

   \                                 In  segment ABSOLUTE, at 0x95, root
   \   union <unnamed> volatile __io _A_UCSR0C
   \                     _A_UCSR0C:
   \   00000000                      DS8 1

   \                                 In  segment ABSOLUTE, at 0x90, root
   \   union <unnamed> volatile __io _A_UBRR0H
   \                     _A_UBRR0H:
   \   00000000                      DS8 1

   \                                 In  segment ABSOLUTE, at 0x8c, root
   \   union <unnamed> volatile __io _A_TCCR3C
   \                     _A_TCCR3C:
   \   00000000                      DS8 1

   \                                 In  segment ABSOLUTE, at 0x8b, root
   \   union <unnamed> volatile __io _A_TCCR3A
   \                     _A_TCCR3A:
   \   00000000                      DS8 1

   \                                 In  segment ABSOLUTE, at 0x8a, root
   \   union <unnamed> volatile __io _A_TCCR3B
   \                     _A_TCCR3B:
   \   00000000                      DS8 1

   \                                 In  segment ABSOLUTE, at 0x88, root
   \   union <unnamed> volatile __io _A_TCNT3
   \                     _A_TCNT3:
   \   00000000                      DS8 2

   \                                 In  segment ABSOLUTE, at 0x86, root
   \   union <unnamed> volatile __io _A_OCR3A
   \                     _A_OCR3A:
   \   00000000                      DS8 2

   \                                 In  segment ABSOLUTE, at 0x84, root
   \   union <unnamed> volatile __io _A_OCR3B
   \                     _A_OCR3B:
   \   00000000                      DS8 2

   \                                 In  segment ABSOLUTE, at 0x82, root
   \   union <unnamed> volatile __io _A_OCR3C
   \                     _A_OCR3C:
   \   00000000                      DS8 2

   \                                 In  segment ABSOLUTE, at 0x80, root
   \   union <unnamed> volatile __io _A_ICR3
   \                     _A_ICR3:
   \   00000000                      DS8 2

   \                                 In  segment ABSOLUTE, at 0x7d, root
   \   union <unnamed> volatile __io _A_ETIMSK
   \                     _A_ETIMSK:
   \   00000000                      DS8 1

   \                                 In  segment ABSOLUTE, at 0x7c, root
   \   union <unnamed> volatile __io _A_ETIFR
   \                     _A_ETIFR:
   \   00000000                      DS8 1

   \                                 In  segment ABSOLUTE, at 0x7a, root
   \   union <unnamed> volatile __io _A_TCCR1C
   \                     _A_TCCR1C:
   \   00000000                      DS8 1

   \                                 In  segment ABSOLUTE, at 0x78, root
   \   union <unnamed> volatile __io _A_OCR1C
   \                     _A_OCR1C:
   \   00000000                      DS8 2

   \                                 In  segment ABSOLUTE, at 0x74, root
   \   union <unnamed> volatile __io _A_TWCR
   \                     _A_TWCR:
   \   00000000                      DS8 1

   \                                 In  segment ABSOLUTE, at 0x73, root
   \   union <unnamed> volatile __io _A_TWDR
   \                     _A_TWDR:
   \   00000000                      DS8 1

   \                                 In  segment ABSOLUTE, at 0x72, root
   \   union <unnamed> volatile __io _A_TWAR
   \                     _A_TWAR:
   \   00000000                      DS8 1

   \                                 In  segment ABSOLUTE, at 0x71, root
   \   union <unnamed> volatile __io _A_TWSR
   \                     _A_TWSR:
   \   00000000                      DS8 1

   \                                 In  segment ABSOLUTE, at 0x70, root
   \   union <unnamed> volatile __io _A_TWBR
   \                     _A_TWBR:
   \   00000000                      DS8 1

   \                                 In  segment ABSOLUTE, at 0x6f, root
   \   union <unnamed> volatile __io _A_OSCCAL
   \                     _A_OSCCAL:
   \   00000000                      DS8 1

   \                                 In  segment ABSOLUTE, at 0x6d, root
   \   union <unnamed> volatile __io _A_XMCRA
   \                     _A_XMCRA:
   \   00000000                      DS8 1

   \                                 In  segment ABSOLUTE, at 0x6c, root
   \   union <unnamed> volatile __io _A_XMCRB
   \                     _A_XMCRB:
   \   00000000                      DS8 1

   \                                 In  segment ABSOLUTE, at 0x6a, root
   \   union <unnamed> volatile __io _A_EICRA
   \                     _A_EICRA:
   \   00000000                      DS8 1

   \                                 In  segment ABSOLUTE, at 0x68, root
   \   union <unnamed> volatile __io _A_SPMCSR
   \                     _A_SPMCSR:
   \   00000000                      DS8 1

   \                                 In  segment ABSOLUTE, at 0x65, root
   \   union <unnamed> volatile __io _A_PORTG
   \                     _A_PORTG:
   \   00000000                      DS8 1

   \                                 In  segment ABSOLUTE, at 0x64, root
   \   union <unnamed> volatile __io _A_DDRG
   \                     _A_DDRG:
   \   00000000                      DS8 1

   \                                 In  segment ABSOLUTE, at 0x63, root
   \   union <unnamed> volatile __io _A_PING
   \                     _A_PING:
   \   00000000                      DS8 1

   \                                 In  segment ABSOLUTE, at 0x62, root
   \   union <unnamed> volatile __io _A_PORTF
   \                     _A_PORTF:
   \   00000000                      DS8 1

   \                                 In  segment ABSOLUTE, at 0x61, root
   \   union <unnamed> volatile __io _A_DDRF
   \                     _A_DDRF:
   \   00000000                      DS8 1

   \                                 In  segment ABSOLUTE, at 0x5f, root
   \   union <unnamed> volatile __io _A_SREG
   \                     _A_SREG:
   \   00000000                      DS8 1

   \                                 In  segment ABSOLUTE, at 0x5d, root
   \   union <unnamed> volatile __io _A_SP
   \                     _A_SP:
   \   00000000                      DS8 2

   \                                 In  segment ABSOLUTE, at 0x5c, root
   \   union <unnamed> volatile __io _A_XDIV
   \                     _A_XDIV:
   \   00000000                      DS8 1

   \                                 In  segment ABSOLUTE, at 0x5b, root
   \   union <unnamed> volatile __io _A_RAMPZ
   \                     _A_RAMPZ:
   \   00000000                      DS8 1

   \                                 In  segment ABSOLUTE, at 0x5a, root
   \   union <unnamed> volatile __io _A_EICRB
   \                     _A_EICRB:
   \   00000000                      DS8 1

   \                                 In  segment ABSOLUTE, at 0x59, root
   \   union <unnamed> volatile __io _A_EIMSK
   \                     _A_EIMSK:
   \   00000000                      DS8 1

   \                                 In  segment ABSOLUTE, at 0x58, root
   \   union <unnamed> volatile __io _A_EIFR
   \                     _A_EIFR:
   \   00000000                      DS8 1

   \                                 In  segment ABSOLUTE, at 0x57, root
   \   union <unnamed> volatile __io _A_TIMSK
   \                     _A_TIMSK:
   \   00000000                      DS8 1

   \                                 In  segment ABSOLUTE, at 0x56, root
   \   union <unnamed> volatile __io _A_TIFR
   \                     _A_TIFR:
   \   00000000                      DS8 1

   \                                 In  segment ABSOLUTE, at 0x55, root
   \   union <unnamed> volatile __io _A_MCUCR
   \                     _A_MCUCR:
   \   00000000                      DS8 1

   \                                 In  segment ABSOLUTE, at 0x54, root
   \   union <unnamed> volatile __io _A_MCUCSR
   \                     _A_MCUCSR:
   \   00000000                      DS8 1

   \                                 In  segment ABSOLUTE, at 0x53, root
   \   union <unnamed> volatile __io _A_TCCR0
   \                     _A_TCCR0:
   \   00000000                      DS8 1

   \                                 In  segment ABSOLUTE, at 0x52, root
   \   union <unnamed> volatile __io _A_TCNT0
   \                     _A_TCNT0:
   \   00000000                      DS8 1

   \                                 In  segment ABSOLUTE, at 0x51, root
   \   union <unnamed> volatile __io _A_OCR0
   \                     _A_OCR0:
   \   00000000                      DS8 1

   \                                 In  segment ABSOLUTE, at 0x50, root
   \   union <unnamed> volatile __io _A_ASSR
   \                     _A_ASSR:
   \   00000000                      DS8 1

   \                                 In  segment ABSOLUTE, at 0x4f, root
   \   union <unnamed> volatile __io _A_TCCR1A
   \                     _A_TCCR1A:
   \   00000000                      DS8 1

   \                                 In  segment ABSOLUTE, at 0x4e, root
   \   union <unnamed> volatile __io _A_TCCR1B
   \                     _A_TCCR1B:
   \   00000000                      DS8 1

   \                                 In  segment ABSOLUTE, at 0x4c, root
   \   union <unnamed> volatile __io _A_TCNT1
   \                     _A_TCNT1:
   \   00000000                      DS8 2

   \                                 In  segment ABSOLUTE, at 0x4a, root
   \   union <unnamed> volatile __io _A_OCR1A
   \                     _A_OCR1A:
   \   00000000                      DS8 2

   \                                 In  segment ABSOLUTE, at 0x48, root
   \   union <unnamed> volatile __io _A_OCR1B
   \                     _A_OCR1B:
   \   00000000                      DS8 2

   \                                 In  segment ABSOLUTE, at 0x46, root
   \   union <unnamed> volatile __io _A_ICR1
   \                     _A_ICR1:
   \   00000000                      DS8 2

   \                                 In  segment ABSOLUTE, at 0x45, root
   \   union <unnamed> volatile __io _A_TCCR2
   \                     _A_TCCR2:
   \   00000000                      DS8 1

   \                                 In  segment ABSOLUTE, at 0x44, root
   \   union <unnamed> volatile __io _A_TCNT2
   \                     _A_TCNT2:
   \   00000000                      DS8 1

   \                                 In  segment ABSOLUTE, at 0x43, root
   \   union <unnamed> volatile __io _A_OCR2
   \                     _A_OCR2:
   \   00000000                      DS8 1

   \                                 In  segment ABSOLUTE, at 0x42, root
   \   union <unnamed> volatile __io _A_OCDR
   \                     _A_OCDR:
   \   00000000                      DS8 1

   \                                 In  segment ABSOLUTE, at 0x41, root
   \   union <unnamed> volatile __io _A_WDTCR
   \                     _A_WDTCR:
   \   00000000                      DS8 1

   \                                 In  segment ABSOLUTE, at 0x40, root
   \   union <unnamed> volatile __io _A_SFIOR
   \                     _A_SFIOR:
   \   00000000                      DS8 1

   \                                 In  segment ABSOLUTE, at 0x3e, root
   \   union <unnamed> volatile __io _A_EEAR
   \                     _A_EEAR:
   \   00000000                      DS8 2

   \                                 In  segment ABSOLUTE, at 0x3d, root
   \   union <unnamed> volatile __io _A_EEDR
   \                     _A_EEDR:
   \   00000000                      DS8 1

   \                                 In  segment ABSOLUTE, at 0x3c, root
   \   union <unnamed> volatile __io _A_EECR
   \                     _A_EECR:
   \   00000000                      DS8 1

   \                                 In  segment ABSOLUTE, at 0x3b, root
   \   union <unnamed> volatile __io _A_PORTA
   \                     _A_PORTA:
   \   00000000                      DS8 1

   \                                 In  segment ABSOLUTE, at 0x3a, root
   \   union <unnamed> volatile __io _A_DDRA
   \                     _A_DDRA:
   \   00000000                      DS8 1

   \                                 In  segment ABSOLUTE, at 0x39, root
   \   union <unnamed> volatile __io _A_PINA
   \                     _A_PINA:
   \   00000000                      DS8 1

   \                                 In  segment ABSOLUTE, at 0x38, root
   \   union <unnamed> volatile __io _A_PORTB
   \                     _A_PORTB:
   \   00000000                      DS8 1

   \                                 In  segment ABSOLUTE, at 0x37, root
   \   union <unnamed> volatile __io _A_DDRB
   \                     _A_DDRB:
   \   00000000                      DS8 1

   \                                 In  segment ABSOLUTE, at 0x36, root
   \   union <unnamed> volatile __io _A_PINB
   \                     _A_PINB:
   \   00000000                      DS8 1

   \                                 In  segment ABSOLUTE, at 0x35, root
   \   union <unnamed> volatile __io _A_PORTC
   \                     _A_PORTC:
   \   00000000                      DS8 1

   \                                 In  segment ABSOLUTE, at 0x34, root
   \   union <unnamed> volatile __io _A_DDRC
   \                     _A_DDRC:
   \   00000000                      DS8 1

   \                                 In  segment ABSOLUTE, at 0x33, root
   \   union <unnamed> volatile __io _A_PINC
   \                     _A_PINC:
   \   00000000                      DS8 1

   \                                 In  segment ABSOLUTE, at 0x32, root
   \   union <unnamed> volatile __io _A_PORTD
   \                     _A_PORTD:
   \   00000000                      DS8 1

   \                                 In  segment ABSOLUTE, at 0x31, root
   \   union <unnamed> volatile __io _A_DDRD
   \                     _A_DDRD:
   \   00000000                      DS8 1

   \                                 In  segment ABSOLUTE, at 0x30, root
   \   union <unnamed> volatile __io _A_PIND
   \                     _A_PIND:
   \   00000000                      DS8 1

   \                                 In  segment ABSOLUTE, at 0x2f, root
   \   union <unnamed> volatile __io _A_SPDR
   \                     _A_SPDR:
   \   00000000                      DS8 1

   \                                 In  segment ABSOLUTE, at 0x2e, root
   \   union <unnamed> volatile __io _A_SPSR
   \                     _A_SPSR:
   \   00000000                      DS8 1

   \                                 In  segment ABSOLUTE, at 0x2d, root
   \   union <unnamed> volatile __io _A_SPCR
   \                     _A_SPCR:
   \   00000000                      DS8 1

   \                                 In  segment ABSOLUTE, at 0x2c, root
   \   union <unnamed> volatile __io _A_UDR0
   \                     _A_UDR0:
   \   00000000                      DS8 1

   \                                 In  segment ABSOLUTE, at 0x2b, root
   \   union <unnamed> volatile __io _A_UCSR0A
   \                     _A_UCSR0A:
   \   00000000                      DS8 1

   \                                 In  segment ABSOLUTE, at 0x2a, root
   \   union <unnamed> volatile __io _A_UCSR0B
   \                     _A_UCSR0B:
   \   00000000                      DS8 1

   \                                 In  segment ABSOLUTE, at 0x29, root
   \   union <unnamed> volatile __io _A_UBRR0L
   \                     _A_UBRR0L:
   \   00000000                      DS8 1

   \                                 In  segment ABSOLUTE, at 0x28, root
   \   union <unnamed> volatile __io _A_ACSR
   \                     _A_ACSR:
   \   00000000                      DS8 1

   \                                 In  segment ABSOLUTE, at 0x27, root
   \   union <unnamed> volatile __io _A_ADMUX
   \                     _A_ADMUX:
   \   00000000                      DS8 1

   \                                 In  segment ABSOLUTE, at 0x26, root
   \   union <unnamed> volatile __io _A_ADCSRA
   \                     _A_ADCSRA:
   \   00000000                      DS8 1

   \                                 In  segment ABSOLUTE, at 0x24, root
   \   union <unnamed> volatile __io _A_ADC
   \                     _A_ADC:
   \   00000000                      DS8 2

   \                                 In  segment ABSOLUTE, at 0x23, root
   \   union <unnamed> volatile __io _A_PORTE
   \                     _A_PORTE:
   \   00000000                      DS8 1

   \                                 In  segment ABSOLUTE, at 0x22, root
   \   union <unnamed> volatile __io _A_DDRE
   \                     _A_DDRE:
   \   00000000                      DS8 1

   \                                 In  segment ABSOLUTE, at 0x21, root
   \   union <unnamed> volatile __io _A_PINE
   \                     _A_PINE:
   \   00000000                      DS8 1

   \                                 In  segment ABSOLUTE, at 0x20, root
   \   union <unnamed> volatile __io _A_PINF
   \                     _A_PINF:
   \   00000000                      DS8 1

      static __flash TDataBase CFlash::xMainDataBase;
                               ^
"D:\Projects\CurrentProjects\CautoProjects\PSS48Color\include\Platform.h",368  Warning[Pe427]: 
          qualified name is not allowed in member declaration

      static __flash TDataBaseBlockPositionData CFlash::axDataBaseBlocksPositionData[];
                                                ^
"D:\Projects\CurrentProjects\CautoProjects\PSS48Color\include\Platform.h",369  Warning[Pe427]: 
          qualified name is not allowed in member declaration

      virtual bool IsSolved(void) {};
                                   ^
"D:\Projects\CurrentProjects\CautoProjects\PSS48Color\include\Task.h",20  Warning[Pe940]: 
          missing return statement at end of non-void function
          "CTaskInterface::IsSolved"

      virtual bool IsSourceStateActive(void) {};
                                              ^
"D:\Projects\CurrentProjects\CautoProjects\PSS48Color\include\Task.h",23  Warning[Pe940]: 
          missing return statement at end of non-void function
          "CTaskInterface::IsSourceStateActive"

      bool IsSolved(void) {};
                           ^
"D:\Projects\CurrentProjects\CautoProjects\PSS48Color\include\Task.h",58  Warning[Pe940]: 
          missing return statement at end of non-void function
          "CIsRegularButtonPressedInterface::IsSolved"

      virtual bool IsSourceStateActive(void) {};
                                              ^
"D:\Projects\CurrentProjects\CautoProjects\PSS48Color\include\Task.h",61  Warning[Pe940]: 
          missing return statement at end of non-void function
          "CIsRegularButtonPressedInterface::IsSourceStateActive"

      virtual uint16_t KEY_PRESSED_TIME(void) {};
                                               ^
"D:\Projects\CurrentProjects\CautoProjects\PSS48Color\include\Task.h",63  Warning[Pe940]: 
          missing return statement at end of non-void function
          "CIsRegularButtonPressedInterface::KEY_PRESSED_TIME"
     10          
     11          //-----------------------------------------------------------------------------------------------------
     12          

   \                                 In  segment CODE, align 2, keep-with-next
     13          CLinkControl::CLinkControl()
   \                     ??CLinkControl:
   \   00000000   ....               RCALL   ?Subroutine1
     14          {
   \                     ??CrossCallReturnLabel_2:
   \   00000002   ........           CALL    ??CDfa
   \   00000006   ....               RCALL   ?Subroutine2
   \                     ??CrossCallReturnLabel_5:
   \   00000008   ....               RCALL   ?Subroutine3
   \                     ??CrossCallReturnLabel_7:
   \   0000000A   ........           CALL    ??CTimer
     15          
     16          }
   \   0000000E                      REQUIRE ?Subroutine5
   \   0000000E                      ;               // Fall through to label ?Subroutine5

   \                                 In  segment CODE, align 2, keep-with-next
   \                     ?Subroutine5:
   \   00000000   018D               MOVW    R17:R16, R27:R26
   \   00000002                      REQUIRE ??Subroutine7_0
   \   00000002                      ;               // Fall through to label ??Subroutine7_0

   \                                 In  segment CODE, align 2, keep-with-next
   \                     ??Subroutine7_0:
   \   00000000   91A9               LD      R26, Y+
   \   00000002   91B9               LD      R27, Y+
   \   00000004   9508               RET

   \                                 In  segment CODE, align 2, keep-with-next
   \                     ?Subroutine1:
   \   00000000   93BA               ST      -Y, R27
   \   00000002   93AA               ST      -Y, R26
   \   00000004   01D8               MOVW    R27:R26, R17:R16
   \   00000006   9508               RET

   \                                 In  segment CODE, align 2, keep-with-next
   \                     ?Subroutine3:
   \   00000000   018D               MOVW    R17:R16, R27:R26
   \   00000002   5F0B               SUBI    R16, 251
   \   00000004   4F1F               SBCI    R17, 255
   \   00000006   9508               RET

   \                                 In  segment CODE, align 2, keep-with-next
   \                     ?Subroutine2:
   \   00000000   ....               LDI     R16, LOW(??__vtbl)
   \   00000002   ....               LDI     R17, (??__vtbl) >> 8
   \   00000004   01FD               MOVW    R31:R30, R27:R26
   \   00000006   8301               STD     Z+1, R16
   \   00000008   8312               STD     Z+2, R17
   \   0000000A   9508               RET
     17          

   \                                 In  segment CODE, align 2, keep-with-next
     18          CLinkControl::~CLinkControl()
   \                     `?~CLinkControl`:
     19          {
   \   00000000   ........           CALL    ?PROLOGUE4_L09
   \   00000004   01D8               MOVW    R27:R26, R17:R16
   \   00000006   2F82               MOV     R24, R18
   \   00000008   2B0B               OR      R16, R27
   \   0000000A   F081               BREQ    `?~CLinkControl_1`
   \   0000000C   ....               RCALL   ?Subroutine2
     20          
     21          }
   \                     ??CrossCallReturnLabel_6:
   \   0000000E   E022               LDI     R18, 2
   \   00000010   E030               LDI     R19, 0
   \   00000012   ....               RCALL   ?Subroutine3
   \                     ??CrossCallReturnLabel_8:
   \   00000014   ........           CALL    `?~CTimer`
   \   00000018   E020               LDI     R18, 0
   \   0000001A   E030               LDI     R19, 0
   \   0000001C   018D               MOVW    R17:R16, R27:R26
   \   0000001E   ........           CALL    `?~CDfa`
   \   00000022   FB80               BST     R24, 0
   \   00000024   F41E               BRTC    `?~CLinkControl_1`
   \   00000026   018D               MOVW    R17:R16, R27:R26
   \   00000028   ........           CALL    `??operator delete`
   \                     `?~CLinkControl_1`:
   \   0000002C   E0E4               LDI     R30, 4
   \   0000002E   ........           JMP     ?EPILOGUE_B4_L09
     22          
     23          //-----------------------------------------------------------------------------------------------------
     24          
     25          
     26          
     27          
     28          
     29          
     30          //-----------------------------------------------------------------------------------------------------
     31          

   \                                 In  segment CODE, align 2, keep-with-next
     32          CModbusRtuLinkControl::CModbusRtuLinkControl()
   \                     ??CModbusRtuLinkControl:
   \   00000000   ....               RCALL   ?Subroutine1
     33          {
   \                     ??CrossCallReturnLabel_3:
   \   00000002   ....               RCALL   ??CLinkControl
   \   00000004   ....               LDI     R16, LOW(??__vtbl_4)
   \   00000006   ....               LDI     R17, (??__vtbl_4) >> 8
   \   00000008   01FD               MOVW    R31:R30, R27:R26
   \   0000000A   8301               STD     Z+1, R16
   \   0000000C   8312               STD     Z+2, R17
     34              SetFsmEvent(NO_EVENT_FSM_EVENT);
   \   0000000E   ....               RCALL   ?Subroutine4
     35              SetFsmState(LINK_CONTROL_IS_ON_CHECK);
   \                     ??CrossCallReturnLabel_10:
   \   00000010   E001               LDI     R16, 1
   \   00000012   930C               ST      X, R16
     36          }
   \   00000014   ....               RJMP    ?Subroutine5
     37          

   \                                 In  segment CODE, align 2, keep-with-next
     38          CModbusRtuLinkControl::~CModbusRtuLinkControl()
   \                     `?~CModbusRtuLinkControl`:
     39          {
   \   00000000   ........           CALL    ?PROLOGUE3_L09
   \   00000004   01C8               MOVW    R25:R24, R17:R16
   \   00000006   2FA2               MOV     R26, R18
   \   00000008   2B01               OR      R16, R17
   \   0000000A   F049               BREQ    `?~CModbusRtuLinkControl_1`
     40          
     41          }
   \   0000000C   E020               LDI     R18, 0
   \   0000000E   E030               LDI     R19, 0
   \   00000010   2F08               MOV     R16, R24
   \   00000012   ....               RCALL   `?~CLinkControl`
   \   00000014   FBA0               BST     R26, 0
   \   00000016   F41E               BRTC    `?~CModbusRtuLinkControl_1`
   \   00000018   018C               MOVW    R17:R16, R25:R24
   \   0000001A   ........           CALL    `??operator delete`
   \                     `?~CModbusRtuLinkControl_1`:
   \   0000001E   E0E3               LDI     R30, 3
   \   00000020   ........           JMP     ?EPILOGUE_B3_L09
     42          
     43          //-----------------------------------------------------------------------------------------------------

   \                                 In  segment CODE, align 2, keep-with-next
     44          void CModbusRtuLinkControl::Fsm(void)
   \                     ??Fsm_1:
     45          {
   \   00000000   ....               RCALL   ?Subroutine1
     46              switch (GetFsmState())
   \                     ??CrossCallReturnLabel_4:
   \   00000002   910C               LD      R16, X
   \   00000004   950A               DEC     R16
   \   00000006   F039               BREQ    ??Fsm_2
   \   00000008   950A               DEC     R16
   \   0000000A   F081               BREQ    ??Fsm_3
   \   0000000C   950A               DEC     R16
   \   0000000E   F0B9               BREQ    ??Fsm_4
   \   00000010   950A               DEC     R16
   \   00000012   F171               BREQ    ??Fsm_5
   \   00000014   C048               RJMP    ??Fsm_6
     47              {
     48              case IDDLE:
     49                  break;
     50          
     51              case LINK_CONTROL_IS_ON_CHECK:
     52                  // Режим контроля связи вклюен?
     53                  if (CPss21::ModbusRtuLinkControlIsOn())
   \                     ??Fsm_2:
   \   00000016   ........           CALL    ??ModbusRtuLinkControlIsOn
   \   0000001A   2300               TST     R16
   \   0000001C   F029               BREQ    ??Fsm_7
     54                  {
     55                      // Режим контроля связи в рабочем процессе?
     56                      if (CPss21::ModbusRtuLinkControlInProgress())
   \   0000001E   ........           CALL    ??ModbusRtuLinkControlInProgress
   \   00000022   2300               TST     R16
   \   00000024   F581               BRNE    ??Fsm_8
     57                      {
     58                          // Установим время ожидания следующего сеанса связи.
     59                          GetTimerPointer() -> Set(CPss21::GetTimeoutModbusRtuLinkControl());
     60                          SetFsmState(NEXT_LINK_SESSION_WAITING);
     61                      }
     62                      else
     63                      {
     64                          SetFsmState(LINK_CONTROL_IN_PROGRESS_ON_WAITING);
   \   00000026   C03D               RJMP    ??Fsm_9
     65                      }
     66                  }
     67                  else
     68                  {
     69                      SetFsmState(IDDLE);
   \                     ??Fsm_7:
   \   00000028   E000               LDI     R16, 0
   \   0000002A   C03C               RJMP    ??Fsm_10
     70                  }
     71                  break;
     72          
     73              case LINK_CONTROL_IN_PROGRESS_ON_WAITING:
     74                  // Состоялся сеанс связи?
     75                  if (GetFsmEvent() == LINK_SESSION_HAPPENED_FSM_EVENT)
   \                     ??Fsm_3:
   \   0000002C   01FD               MOVW    R31:R30, R27:R26
   \   0000002E   8104               LDD     R16, Z+4
   \   00000030   3001               CPI     R16, 1
   \   00000032   F5C9               BRNE    ??Fsm_6
     76                  {
     77                      SetFsmEvent(NO_EVENT_FSM_EVENT);
   \   00000034   ....               RCALL   ?Subroutine4
     78                      // Запустим рабоий процесс режима контроля связи.
     79                      CPss21::SetModeModbusRtuLinkControlInProgress(true);
   \                     ??CrossCallReturnLabel_11:
   \   00000036   E001               LDI     R16, 1
   \   00000038   ........           CALL    ??SetModeModbusRtuLinkControlInProgress
     80                      // Установим время ожидания следующего сеанса связи.
     81                      GetTimerPointer() -> Set(CPss21::GetTimeoutModbusRtuLinkControl());
   \   0000003C   C024               RJMP    ??Fsm_8
     82                      SetFsmState(NEXT_LINK_SESSION_WAITING);
     83                  }
     84                  break;
     85          
     86              case NEXT_LINK_SESSION_WAITING:
     87                  // Состоялся сеанс связи?
     88                  if (GetFsmEvent() == LINK_SESSION_HAPPENED_FSM_EVENT)
   \                     ??Fsm_4:
   \   0000003E   01FD               MOVW    R31:R30, R27:R26
   \   00000040   8104               LDD     R16, Z+4
   \   00000042   3001               CPI     R16, 1
   \   00000044   F449               BRNE    ??Fsm_11
     89                  {
     90                      SetFsmEvent(NO_EVENT_FSM_EVENT);
   \   00000046   ....               RCALL   ?Subroutine4
     91                      // Установим время ожидания следующего сеанса связи.
     92                      GetTimerPointer() -> Set(CPss21::GetTimeoutModbusRtuLinkControl());
   \                     ??CrossCallReturnLabel_12:
   \   00000048   ........           CALL    ??GetTimeoutModbusRtuLinkControl
     93                  }
   \   0000004C   0198               MOVW    R19:R18, R17:R16
   \   0000004E   9615               ADIW    R27:R26, 5
   \   00000050   018D               MOVW    R17:R16, R27:R26
   \   00000052   ........           CALL    ??Set
   \   00000056   C027               RJMP    ??Fsm_6
     94                  else
     95                  {
     96                      // Время ожидания следующего сеанса связи закончилось?
     97                      if (GetTimerPointer() -> IsOverflow())
   \                     ??Fsm_11:
   \   00000058   2F0A               MOV     R16, R26
   \   0000005A   5F0B               SUBI    R16, 251
   \   0000005C   4F1F               SBCI    R17, 255
   \   0000005E   ........           CALL    ??IsOverflow
   \   00000062   2300               TST     R16
   \   00000064   F101               BREQ    ??Fsm_6
     98                      {
     99                          CPss21::SetErrorCode(MBS_ERROR);
   \   00000066   E005               LDI     R16, 5
   \   00000068   9300....           STS     ??m_uiErrorCode, R16
    100                          SetFsmState(RECEIPT_OR_NEXT_LINK_SESSION_WAITING);
   \   0000006C   E004               LDI     R16, 4
   \   0000006E   C01A               RJMP    ??Fsm_10
    101                      }
    102                  }
    103          
    104                  break;
    105          
    106              case RECEIPT_OR_NEXT_LINK_SESSION_WAITING:
    107                  switch (GetFsmEvent())
   \                     ??Fsm_5:
   \   00000070   01FD               MOVW    R31:R30, R27:R26
   \   00000072   8104               LDD     R16, Z+4
   \   00000074   950A               DEC     R16
   \   00000076   F019               BREQ    ??Fsm_12
   \   00000078   950A               DEC     R16
   \   0000007A   F069               BREQ    ??Fsm_13
   \   0000007C   C014               RJMP    ??Fsm_6
    108                  {
    109                  case LINK_SESSION_HAPPENED_FSM_EVENT:
    110                      SetFsmEvent(NO_EVENT_FSM_EVENT);
   \                     ??Fsm_12:
   \   0000007E   ....               RCALL   ?Subroutine4
    111                      CPss21::SetFsmState(CPss21::LINK_CONTROL_ERROR_OFF);
   \                     ??CrossCallReturnLabel_13:
   \   00000080   E100               LDI     R16, 16
   \   00000082   9300....           STS     ??m_uiFsmState, R16
    112                      // Установим время ожидания следующего сеанса связи.
    113                      GetTimerPointer() -> Set(CPss21::GetTimeoutModbusRtuLinkControl());
   \                     ??Fsm_8:
   \   00000086   ........           CALL    ??GetTimeoutModbusRtuLinkControl
   \   0000008A   0198               MOVW    R19:R18, R17:R16
   \   0000008C   ....               RCALL   ?Subroutine3
   \                     ??CrossCallReturnLabel_9:
   \   0000008E   ........           CALL    ??Set
    114                      SetFsmState(NEXT_LINK_SESSION_WAITING);
   \   00000092   E003               LDI     R16, 3
   \   00000094   C007               RJMP    ??Fsm_10
    115                      break;
    116          
    117                  case RECEIPT_HAPPENED_FSM_EVENT:
    118                      SetFsmEvent(NO_EVENT_FSM_EVENT);
   \                     ??Fsm_13:
   \   00000096   ....               RCALL   ?Subroutine4
    119                      // Остановим рабочий процесс режима контроля связи.
    120                      CPss21::SetModeModbusRtuLinkControlInProgress(false);
   \                     ??CrossCallReturnLabel_14:
   \   00000098   ........           CALL    ??SetModeModbusRtuLinkControlInProgress
    121                      CPss21::SetFsmState(CPss21::LINK_CONTROL_ERROR_OFF);
   \   0000009C   E100               LDI     R16, 16
   \   0000009E   9300....           STS     ??m_uiFsmState, R16
    122                      SetFsmState(LINK_CONTROL_IN_PROGRESS_ON_WAITING);
   \                     ??Fsm_9:
   \   000000A2   E002               LDI     R16, 2
   \                     ??Fsm_10:
   \   000000A4   930C               ST      X, R16
    123                      break;
    124          
    125                  default:
    126                      break;
    127                  }
    128                  break;
    129          
    130              default:
    131                  break;
    132              }
    133          }
   \                     ??Fsm_6:
   \   000000A6   ....               RJMP    ??Subroutine7_0

   \                                 In  segment CODE, align 2, keep-with-next
   \   __version_3 CLinkControl &CLinkControl::new CLinkControl()
   \                     `??new CLinkControl`:
   \   00000000   ....               RCALL   ?Subroutine0
   \                     ??CrossCallReturnLabel_0:
   \   00000002   F009               BREQ    `??new CLinkControl_1`
   \   00000004   ....               RJMP    ??CLinkControl
   \                     `??new CLinkControl_1`:
   \   00000006                      REQUIRE ?Subroutine6
   \   00000006                      ;               // Fall through to label ?Subroutine6

   \                                 In  segment CODE, align 2, keep-with-next
   \                     ?Subroutine6:
   \   00000000   E000               LDI     R16, 0
   \   00000002   E010               LDI     R17, 0
   \   00000004   9508               RET

   \                                 In  segment CODE, align 2, keep-with-next
   \   __version_3 CModbusRtuLinkControl &CModbusRtuLinkControl::new CModbusRtuLinkControl()
   \                     `??new CModbusRtuLinkControl`:
   \   00000000   ....               RCALL   ?Subroutine0
   \                     ??CrossCallReturnLabel_1:
   \   00000002   F009               BREQ    `??new CModbusRtuLinkControl_1`
   \   00000004   ....               RJMP    ??CModbusRtuLinkControl
   \                     `??new CModbusRtuLinkControl_1`:
   \   00000006   ....               RJMP    ?Subroutine6

   \                                 In  segment CODE, align 2, keep-with-next
   \                     ?Subroutine0:
   \   00000000   E00B               LDI     R16, 11
   \   00000002   E010               LDI     R17, 0
   \   00000004   ........           CALL    `??operator new`
   \   00000008   2F20               MOV     R18, R16
   \   0000000A   2B21               OR      R18, R17
   \   0000000C   9508               RET

   \                                 In  segment CODE, align 2, keep-with-next
   \                     ?Subroutine4:
   \   00000000   E000               LDI     R16, 0
   \   00000002   8304               STD     Z+4, R16
   \   00000004   9508               RET
    134          
    135          

   Maximum stack usage in bytes:

   CSTACK RSTACK Function
   ------ ------ --------
      2      2   CLinkControl::CLinkControl()
        2      2   -> CDfa::CDfa()
        2      2   -> CTimer::CTimer()
      0      2   CLinkControl::new CLinkControl()
        0      2   -> CLinkControl::CLinkControl()
        0      4   -> operator new(unsigned int)
      4      2   CLinkControl::~CLinkControl()
        4      2   -> CDfa::~CDfa()
        4      2   -> CTimer::~CTimer()
        4      2   -> operator delete(void *)
      2      2   CModbusRtuLinkControl::CModbusRtuLinkControl()
        2      2   -> CLinkControl::CLinkControl()
      2      2   CModbusRtuLinkControl::Fsm()
        2      2   -> CPss21::GetTimeoutModbusRtuLinkControl()
        2      2   -> CPss21::ModbusRtuLinkControlInProgress()
        2      2   -> CPss21::ModbusRtuLinkControlIsOn()
        2      2   -> CPss21::SetModeModbusRtuLinkControlInProgress(bool)
        2      2   -> CTimer::IsOverflow()
        2      2   -> CTimer::Set(uint16_t)
      0      2   CModbusRtuLinkControl::new CModbusRtuLinkControl()
        0      2   -> CModbusRtuLinkControl::CModbusRtuLinkControl()
        0      4   -> operator new(unsigned int)
      3      2   CModbusRtuLinkControl::~CModbusRtuLinkControl()
        3      2   -> CLinkControl::~CLinkControl()
        3      2   -> operator delete(void *)


   Segment part sizes:

   Bytes  Function/Label
   -----  --------------
       6  ??Subroutine7_0
      14  ?Subroutine0
       8  ?Subroutine1
      12  ?Subroutine2
       8  ?Subroutine3
       6  ?Subroutine4
       2  ?Subroutine5
       6  ?Subroutine6
      14  CLinkControl::CLinkControl()
       6  CLinkControl::new CLinkControl()
      50  CLinkControl::~CLinkControl()
      22  CModbusRtuLinkControl::CModbusRtuLinkControl()
     168  CModbusRtuLinkControl::Fsm()
       8  CModbusRtuLinkControl::new CModbusRtuLinkControl()
      36  CModbusRtuLinkControl::~CModbusRtuLinkControl()
       1  _A_ACSR
       2  _A_ADC
       1  _A_ADCSRA
       1  _A_ADMUX
       1  _A_ASSR
       1  _A_DDRA
       1  _A_DDRB
       1  _A_DDRC
       1  _A_DDRD
       1  _A_DDRE
       1  _A_DDRF
       1  _A_DDRG
       2  _A_EEAR
       1  _A_EECR
       1  _A_EEDR
       1  _A_EICRA
       1  _A_EICRB
       1  _A_EIFR
       1  _A_EIMSK
       1  _A_ETIFR
       1  _A_ETIMSK
       2  _A_ICR1
       2  _A_ICR3
       1  _A_MCUCR
       1  _A_MCUCSR
       1  _A_OCDR
       1  _A_OCR0
       2  _A_OCR1A
       2  _A_OCR1B
       2  _A_OCR1C
       1  _A_OCR2
       2  _A_OCR3A
       2  _A_OCR3B
       2  _A_OCR3C
       1  _A_OSCCAL
       1  _A_PINA
       1  _A_PINB
       1  _A_PINC
       1  _A_PIND
       1  _A_PINE
       1  _A_PINF
       1  _A_PING
       1  _A_PORTA
       1  _A_PORTB
       1  _A_PORTC
       1  _A_PORTD
       1  _A_PORTE
       1  _A_PORTF
       1  _A_PORTG
       1  _A_RAMPZ
       1  _A_SFIOR
       2  _A_SP
       1  _A_SPCR
       1  _A_SPDR
       1  _A_SPMCSR
       1  _A_SPSR
       1  _A_SREG
       1  _A_TCCR0
       1  _A_TCCR1A
       1  _A_TCCR1B
       1  _A_TCCR1C
       1  _A_TCCR2
       1  _A_TCCR3A
       1  _A_TCCR3B
       1  _A_TCCR3C
       1  _A_TCNT0
       2  _A_TCNT1
       1  _A_TCNT2
       2  _A_TCNT3
       1  _A_TIFR
       1  _A_TIMSK
       1  _A_TWAR
       1  _A_TWBR
       1  _A_TWCR
       1  _A_TWDR
       1  _A_TWSR
       1  _A_UBRR0H
       1  _A_UBRR0L
       1  _A_UBRR1H
       1  _A_UBRR1L
       1  _A_UCSR0A
       1  _A_UCSR0B
       1  _A_UCSR0C
       1  _A_UCSR1A
       1  _A_UCSR1B
       1  _A_UCSR1C
       1  _A_UDR0
       1  _A_UDR1
       1  _A_WDTCR
       1  _A_XDIV
       1  _A_XMCRA
       1  _A_XMCRB
      30  -- Other

 
 105 bytes in segment ABSOLUTE
 366 bytes in segment CODE
  30 bytes in segment NEAR_F
 
 388 bytes of CODE memory (+   8 bytes shared)
   0 bytes of DATA memory (+ 105 bytes shared)

Errors: none
Warnings: 7
