###############################################################################
#
# IAR C/C++ Compiler V7.10.6.1378 for Atmel AVR           16/Sep/2024  16:38:56
# Copyright 1996-2018 IAR Systems AB.
#
#    Source file  =  
#        D:\Projects\CurrentProjects\CautoProjects\PSS48Color\src\ModuleMrXX.cpp
#    Command line =  
#        -f C:\Users\Admin\AppData\Local\Temp\EW11DE.tmp
#        (--string_literals_in_flash
#        D:\Projects\CurrentProjects\CautoProjects\PSS48Color\src\ModuleMrXX.cpp
#        --cpu=m128a -ms -o
#        D:\Projects\CurrentProjects\CautoProjects\PSS48Color\Debug\Obj -lC
#        D:\Projects\CurrentProjects\CautoProjects\PSS48Color\Debug\List -lB
#        D:\Projects\CurrentProjects\CautoProjects\PSS48Color\Debug\List -y
#        --initializers_in_flash --root_variables --no_cse --no_inline
#        --no_code_motion --no_cross_call --no_clustering --no_tbaa --debug
#        -DENABLE_BIT_DEFINITIONS -e -I
#        D:\Projects\CurrentProjects\CautoProjects\PSS48Color\Modbus\ -I
#        D:\Projects\CurrentProjects\CautoProjects\PSS48Color\include\
#        --eeprom_size 4096 --dlib --dlib_config "C:\Program Files (x86)\IAR
#        Systems\Embedded Workbench 8.0\avr\LIB\DLIB\dlAVR-3s-ec_mul-n.h" -On
#        --eec++)
#    Locale       =  Russian_RUS.1251
#    List file    =  
#        D:\Projects\CurrentProjects\CautoProjects\PSS48Color\Debug\List\ModuleMrXX.lst
#    Object file  =  
#        D:\Projects\CurrentProjects\CautoProjects\PSS48Color\Debug\Obj\ModuleMrXX.r90
#
###############################################################################

D:\Projects\CurrentProjects\CautoProjects\PSS48Color\src\ModuleMrXX.cpp
      1          //-----------------------------------------------------------------------------------------------------
      2          //  Source      : FileName.cpp
      3          //  Created     : 01.06.2022
      4          //  Author      : Alexandr Volvenkin
      5          //  email       : aav-36@mail.ru
      6          //  GitHub      : https://github.com/AlexandrVolvenkin
      7          //-----------------------------------------------------------------------------------------------------
      8          #include "ModuleMrXX.h"

   \                                 In  segment CODE, align 2, keep-with-next
   \   __version_3 void CDriver::SetErrorAlarmData(uint8_t)
   \                     ??SetErrorAlarmData:
   \   00000000   01AD               MOVW    R21:R20, R27:R26
   \   00000002   01F8               MOVW    R31:R30, R17:R16
   \   00000004   81A7               LDD     R26, Z+7
   \   00000006   85B0               LDD     R27, Z+8
   \   00000008   932C               ST      X, R18
   \   0000000A   01DA               MOVW    R27:R26, R21:R20
   \   0000000C   9508               RET

   \                                 In  segment CODE, align 2, keep-with-next
   \   __version_3 void CDfaLite::SetFsmState(uint8_t)
   \                     ??SetFsmState:
   \   00000000   01F8               MOVW    R31:R30, R17:R16
   \   00000002   8320               ST      Z, R18
   \   00000004   9508               RET

   \                                 In  segment CODE, align 2, keep-with-next
   \   __version_3 uint8_t CDfaLite::GetFsmState()
   \                     ??GetFsmState:
   \   00000000   01F8               MOVW    R31:R30, R17:R16
   \   00000002   8100               LD      R16, Z
   \   00000004   9508               RET
      9          #include "Platform.h"

   \                                 In  segment ABSOLUTE, at 0x9d, root
   \   union <unnamed> volatile __io _A_UCSR1C
   \                     _A_UCSR1C:
   \   00000000                      DS8 1

   \                                 In  segment ABSOLUTE, at 0x9c, root
   \   union <unnamed> volatile __io _A_UDR1
   \                     _A_UDR1:
   \   00000000                      DS8 1

   \                                 In  segment ABSOLUTE, at 0x9b, root
   \   union <unnamed> volatile __io _A_UCSR1A
   \                     _A_UCSR1A:
   \   00000000                      DS8 1

   \                                 In  segment ABSOLUTE, at 0x9a, root
   \   union <unnamed> volatile __io _A_UCSR1B
   \                     _A_UCSR1B:
   \   00000000                      DS8 1

   \                                 In  segment ABSOLUTE, at 0x99, root
   \   union <unnamed> volatile __io _A_UBRR1L
   \                     _A_UBRR1L:
   \   00000000                      DS8 1

   \                                 In  segment ABSOLUTE, at 0x98, root
   \   union <unnamed> volatile __io _A_UBRR1H
   \                     _A_UBRR1H:
   \   00000000                      DS8 1

   \                                 In  segment ABSOLUTE, at 0x95, root
   \   union <unnamed> volatile __io _A_UCSR0C
   \                     _A_UCSR0C:
   \   00000000                      DS8 1

   \                                 In  segment ABSOLUTE, at 0x90, root
   \   union <unnamed> volatile __io _A_UBRR0H
   \                     _A_UBRR0H:
   \   00000000                      DS8 1

   \                                 In  segment ABSOLUTE, at 0x8c, root
   \   union <unnamed> volatile __io _A_TCCR3C
   \                     _A_TCCR3C:
   \   00000000                      DS8 1

   \                                 In  segment ABSOLUTE, at 0x8b, root
   \   union <unnamed> volatile __io _A_TCCR3A
   \                     _A_TCCR3A:
   \   00000000                      DS8 1

   \                                 In  segment ABSOLUTE, at 0x8a, root
   \   union <unnamed> volatile __io _A_TCCR3B
   \                     _A_TCCR3B:
   \   00000000                      DS8 1

   \                                 In  segment ABSOLUTE, at 0x88, root
   \   union <unnamed> volatile __io _A_TCNT3
   \                     _A_TCNT3:
   \   00000000                      DS8 2

   \                                 In  segment ABSOLUTE, at 0x86, root
   \   union <unnamed> volatile __io _A_OCR3A
   \                     _A_OCR3A:
   \   00000000                      DS8 2

   \                                 In  segment ABSOLUTE, at 0x84, root
   \   union <unnamed> volatile __io _A_OCR3B
   \                     _A_OCR3B:
   \   00000000                      DS8 2

   \                                 In  segment ABSOLUTE, at 0x82, root
   \   union <unnamed> volatile __io _A_OCR3C
   \                     _A_OCR3C:
   \   00000000                      DS8 2

   \                                 In  segment ABSOLUTE, at 0x80, root
   \   union <unnamed> volatile __io _A_ICR3
   \                     _A_ICR3:
   \   00000000                      DS8 2

   \                                 In  segment ABSOLUTE, at 0x7d, root
   \   union <unnamed> volatile __io _A_ETIMSK
   \                     _A_ETIMSK:
   \   00000000                      DS8 1

   \                                 In  segment ABSOLUTE, at 0x7c, root
   \   union <unnamed> volatile __io _A_ETIFR
   \                     _A_ETIFR:
   \   00000000                      DS8 1

   \                                 In  segment ABSOLUTE, at 0x7a, root
   \   union <unnamed> volatile __io _A_TCCR1C
   \                     _A_TCCR1C:
   \   00000000                      DS8 1

   \                                 In  segment ABSOLUTE, at 0x78, root
   \   union <unnamed> volatile __io _A_OCR1C
   \                     _A_OCR1C:
   \   00000000                      DS8 2

   \                                 In  segment ABSOLUTE, at 0x74, root
   \   union <unnamed> volatile __io _A_TWCR
   \                     _A_TWCR:
   \   00000000                      DS8 1

   \                                 In  segment ABSOLUTE, at 0x73, root
   \   union <unnamed> volatile __io _A_TWDR
   \                     _A_TWDR:
   \   00000000                      DS8 1

   \                                 In  segment ABSOLUTE, at 0x72, root
   \   union <unnamed> volatile __io _A_TWAR
   \                     _A_TWAR:
   \   00000000                      DS8 1

   \                                 In  segment ABSOLUTE, at 0x71, root
   \   union <unnamed> volatile __io _A_TWSR
   \                     _A_TWSR:
   \   00000000                      DS8 1

   \                                 In  segment ABSOLUTE, at 0x70, root
   \   union <unnamed> volatile __io _A_TWBR
   \                     _A_TWBR:
   \   00000000                      DS8 1

   \                                 In  segment ABSOLUTE, at 0x6f, root
   \   union <unnamed> volatile __io _A_OSCCAL
   \                     _A_OSCCAL:
   \   00000000                      DS8 1

   \                                 In  segment ABSOLUTE, at 0x6d, root
   \   union <unnamed> volatile __io _A_XMCRA
   \                     _A_XMCRA:
   \   00000000                      DS8 1

   \                                 In  segment ABSOLUTE, at 0x6c, root
   \   union <unnamed> volatile __io _A_XMCRB
   \                     _A_XMCRB:
   \   00000000                      DS8 1

   \                                 In  segment ABSOLUTE, at 0x6a, root
   \   union <unnamed> volatile __io _A_EICRA
   \                     _A_EICRA:
   \   00000000                      DS8 1

   \                                 In  segment ABSOLUTE, at 0x68, root
   \   union <unnamed> volatile __io _A_SPMCSR
   \                     _A_SPMCSR:
   \   00000000                      DS8 1

   \                                 In  segment ABSOLUTE, at 0x65, root
   \   union <unnamed> volatile __io _A_PORTG
   \                     _A_PORTG:
   \   00000000                      DS8 1

   \                                 In  segment ABSOLUTE, at 0x64, root
   \   union <unnamed> volatile __io _A_DDRG
   \                     _A_DDRG:
   \   00000000                      DS8 1

   \                                 In  segment ABSOLUTE, at 0x63, root
   \   union <unnamed> volatile __io _A_PING
   \                     _A_PING:
   \   00000000                      DS8 1

   \                                 In  segment ABSOLUTE, at 0x62, root
   \   union <unnamed> volatile __io _A_PORTF
   \                     _A_PORTF:
   \   00000000                      DS8 1

   \                                 In  segment ABSOLUTE, at 0x61, root
   \   union <unnamed> volatile __io _A_DDRF
   \                     _A_DDRF:
   \   00000000                      DS8 1

   \                                 In  segment ABSOLUTE, at 0x5f, root
   \   union <unnamed> volatile __io _A_SREG
   \                     _A_SREG:
   \   00000000                      DS8 1

   \                                 In  segment ABSOLUTE, at 0x5d, root
   \   union <unnamed> volatile __io _A_SP
   \                     _A_SP:
   \   00000000                      DS8 2

   \                                 In  segment ABSOLUTE, at 0x5c, root
   \   union <unnamed> volatile __io _A_XDIV
   \                     _A_XDIV:
   \   00000000                      DS8 1

   \                                 In  segment ABSOLUTE, at 0x5b, root
   \   union <unnamed> volatile __io _A_RAMPZ
   \                     _A_RAMPZ:
   \   00000000                      DS8 1

   \                                 In  segment ABSOLUTE, at 0x5a, root
   \   union <unnamed> volatile __io _A_EICRB
   \                     _A_EICRB:
   \   00000000                      DS8 1

   \                                 In  segment ABSOLUTE, at 0x59, root
   \   union <unnamed> volatile __io _A_EIMSK
   \                     _A_EIMSK:
   \   00000000                      DS8 1

   \                                 In  segment ABSOLUTE, at 0x58, root
   \   union <unnamed> volatile __io _A_EIFR
   \                     _A_EIFR:
   \   00000000                      DS8 1

   \                                 In  segment ABSOLUTE, at 0x57, root
   \   union <unnamed> volatile __io _A_TIMSK
   \                     _A_TIMSK:
   \   00000000                      DS8 1

   \                                 In  segment ABSOLUTE, at 0x56, root
   \   union <unnamed> volatile __io _A_TIFR
   \                     _A_TIFR:
   \   00000000                      DS8 1

   \                                 In  segment ABSOLUTE, at 0x55, root
   \   union <unnamed> volatile __io _A_MCUCR
   \                     _A_MCUCR:
   \   00000000                      DS8 1

   \                                 In  segment ABSOLUTE, at 0x54, root
   \   union <unnamed> volatile __io _A_MCUCSR
   \                     _A_MCUCSR:
   \   00000000                      DS8 1

   \                                 In  segment ABSOLUTE, at 0x53, root
   \   union <unnamed> volatile __io _A_TCCR0
   \                     _A_TCCR0:
   \   00000000                      DS8 1

   \                                 In  segment ABSOLUTE, at 0x52, root
   \   union <unnamed> volatile __io _A_TCNT0
   \                     _A_TCNT0:
   \   00000000                      DS8 1

   \                                 In  segment ABSOLUTE, at 0x51, root
   \   union <unnamed> volatile __io _A_OCR0
   \                     _A_OCR0:
   \   00000000                      DS8 1

   \                                 In  segment ABSOLUTE, at 0x50, root
   \   union <unnamed> volatile __io _A_ASSR
   \                     _A_ASSR:
   \   00000000                      DS8 1

   \                                 In  segment ABSOLUTE, at 0x4f, root
   \   union <unnamed> volatile __io _A_TCCR1A
   \                     _A_TCCR1A:
   \   00000000                      DS8 1

   \                                 In  segment ABSOLUTE, at 0x4e, root
   \   union <unnamed> volatile __io _A_TCCR1B
   \                     _A_TCCR1B:
   \   00000000                      DS8 1

   \                                 In  segment ABSOLUTE, at 0x4c, root
   \   union <unnamed> volatile __io _A_TCNT1
   \                     _A_TCNT1:
   \   00000000                      DS8 2

   \                                 In  segment ABSOLUTE, at 0x4a, root
   \   union <unnamed> volatile __io _A_OCR1A
   \                     _A_OCR1A:
   \   00000000                      DS8 2

   \                                 In  segment ABSOLUTE, at 0x48, root
   \   union <unnamed> volatile __io _A_OCR1B
   \                     _A_OCR1B:
   \   00000000                      DS8 2

   \                                 In  segment ABSOLUTE, at 0x46, root
   \   union <unnamed> volatile __io _A_ICR1
   \                     _A_ICR1:
   \   00000000                      DS8 2

   \                                 In  segment ABSOLUTE, at 0x45, root
   \   union <unnamed> volatile __io _A_TCCR2
   \                     _A_TCCR2:
   \   00000000                      DS8 1

   \                                 In  segment ABSOLUTE, at 0x44, root
   \   union <unnamed> volatile __io _A_TCNT2
   \                     _A_TCNT2:
   \   00000000                      DS8 1

   \                                 In  segment ABSOLUTE, at 0x43, root
   \   union <unnamed> volatile __io _A_OCR2
   \                     _A_OCR2:
   \   00000000                      DS8 1

   \                                 In  segment ABSOLUTE, at 0x42, root
   \   union <unnamed> volatile __io _A_OCDR
   \                     _A_OCDR:
   \   00000000                      DS8 1

   \                                 In  segment ABSOLUTE, at 0x41, root
   \   union <unnamed> volatile __io _A_WDTCR
   \                     _A_WDTCR:
   \   00000000                      DS8 1

   \                                 In  segment ABSOLUTE, at 0x40, root
   \   union <unnamed> volatile __io _A_SFIOR
   \                     _A_SFIOR:
   \   00000000                      DS8 1

   \                                 In  segment ABSOLUTE, at 0x3e, root
   \   union <unnamed> volatile __io _A_EEAR
   \                     _A_EEAR:
   \   00000000                      DS8 2

   \                                 In  segment ABSOLUTE, at 0x3d, root
   \   union <unnamed> volatile __io _A_EEDR
   \                     _A_EEDR:
   \   00000000                      DS8 1

   \                                 In  segment ABSOLUTE, at 0x3c, root
   \   union <unnamed> volatile __io _A_EECR
   \                     _A_EECR:
   \   00000000                      DS8 1

   \                                 In  segment ABSOLUTE, at 0x3b, root
   \   union <unnamed> volatile __io _A_PORTA
   \                     _A_PORTA:
   \   00000000                      DS8 1

   \                                 In  segment ABSOLUTE, at 0x3a, root
   \   union <unnamed> volatile __io _A_DDRA
   \                     _A_DDRA:
   \   00000000                      DS8 1

   \                                 In  segment ABSOLUTE, at 0x39, root
   \   union <unnamed> volatile __io _A_PINA
   \                     _A_PINA:
   \   00000000                      DS8 1

   \                                 In  segment ABSOLUTE, at 0x38, root
   \   union <unnamed> volatile __io _A_PORTB
   \                     _A_PORTB:
   \   00000000                      DS8 1

   \                                 In  segment ABSOLUTE, at 0x37, root
   \   union <unnamed> volatile __io _A_DDRB
   \                     _A_DDRB:
   \   00000000                      DS8 1

   \                                 In  segment ABSOLUTE, at 0x36, root
   \   union <unnamed> volatile __io _A_PINB
   \                     _A_PINB:
   \   00000000                      DS8 1

   \                                 In  segment ABSOLUTE, at 0x35, root
   \   union <unnamed> volatile __io _A_PORTC
   \                     _A_PORTC:
   \   00000000                      DS8 1

   \                                 In  segment ABSOLUTE, at 0x34, root
   \   union <unnamed> volatile __io _A_DDRC
   \                     _A_DDRC:
   \   00000000                      DS8 1

   \                                 In  segment ABSOLUTE, at 0x33, root
   \   union <unnamed> volatile __io _A_PINC
   \                     _A_PINC:
   \   00000000                      DS8 1

   \                                 In  segment ABSOLUTE, at 0x32, root
   \   union <unnamed> volatile __io _A_PORTD
   \                     _A_PORTD:
   \   00000000                      DS8 1

   \                                 In  segment ABSOLUTE, at 0x31, root
   \   union <unnamed> volatile __io _A_DDRD
   \                     _A_DDRD:
   \   00000000                      DS8 1

   \                                 In  segment ABSOLUTE, at 0x30, root
   \   union <unnamed> volatile __io _A_PIND
   \                     _A_PIND:
   \   00000000                      DS8 1

   \                                 In  segment ABSOLUTE, at 0x2f, root
   \   union <unnamed> volatile __io _A_SPDR
   \                     _A_SPDR:
   \   00000000                      DS8 1

   \                                 In  segment ABSOLUTE, at 0x2e, root
   \   union <unnamed> volatile __io _A_SPSR
   \                     _A_SPSR:
   \   00000000                      DS8 1

   \                                 In  segment ABSOLUTE, at 0x2d, root
   \   union <unnamed> volatile __io _A_SPCR
   \                     _A_SPCR:
   \   00000000                      DS8 1

   \                                 In  segment ABSOLUTE, at 0x2c, root
   \   union <unnamed> volatile __io _A_UDR0
   \                     _A_UDR0:
   \   00000000                      DS8 1

   \                                 In  segment ABSOLUTE, at 0x2b, root
   \   union <unnamed> volatile __io _A_UCSR0A
   \                     _A_UCSR0A:
   \   00000000                      DS8 1

   \                                 In  segment ABSOLUTE, at 0x2a, root
   \   union <unnamed> volatile __io _A_UCSR0B
   \                     _A_UCSR0B:
   \   00000000                      DS8 1

   \                                 In  segment ABSOLUTE, at 0x29, root
   \   union <unnamed> volatile __io _A_UBRR0L
   \                     _A_UBRR0L:
   \   00000000                      DS8 1

   \                                 In  segment ABSOLUTE, at 0x28, root
   \   union <unnamed> volatile __io _A_ACSR
   \                     _A_ACSR:
   \   00000000                      DS8 1

   \                                 In  segment ABSOLUTE, at 0x27, root
   \   union <unnamed> volatile __io _A_ADMUX
   \                     _A_ADMUX:
   \   00000000                      DS8 1

   \                                 In  segment ABSOLUTE, at 0x26, root
   \   union <unnamed> volatile __io _A_ADCSRA
   \                     _A_ADCSRA:
   \   00000000                      DS8 1

   \                                 In  segment ABSOLUTE, at 0x24, root
   \   union <unnamed> volatile __io _A_ADC
   \                     _A_ADC:
   \   00000000                      DS8 2

   \                                 In  segment ABSOLUTE, at 0x23, root
   \   union <unnamed> volatile __io _A_PORTE
   \                     _A_PORTE:
   \   00000000                      DS8 1

   \                                 In  segment ABSOLUTE, at 0x22, root
   \   union <unnamed> volatile __io _A_DDRE
   \                     _A_DDRE:
   \   00000000                      DS8 1

   \                                 In  segment ABSOLUTE, at 0x21, root
   \   union <unnamed> volatile __io _A_PINE
   \                     _A_PINE:
   \   00000000                      DS8 1

   \                                 In  segment ABSOLUTE, at 0x20, root
   \   union <unnamed> volatile __io _A_PINF
   \                     _A_PINF:
   \   00000000                      DS8 1

      static __flash TDataBase CFlash::xMainDataBase;
                               ^
"D:\Projects\CurrentProjects\CautoProjects\PSS48Color\include\Platform.h",368  Warning[Pe427]: 
          qualified name is not allowed in member declaration

      static __flash TDataBaseBlockPositionData CFlash::axDataBaseBlocksPositionData[];
                                                ^
"D:\Projects\CurrentProjects\CautoProjects\PSS48Color\include\Platform.h",369  Warning[Pe427]: 
          qualified name is not allowed in member declaration
     10          #include "Pss21.h"

      virtual bool IsSolved(void) {};
                                   ^
"D:\Projects\CurrentProjects\CautoProjects\PSS48Color\include\Task.h",20  Warning[Pe940]: 
          missing return statement at end of non-void function
          "CTaskInterface::IsSolved"

      virtual bool IsSourceStateActive(void) {};
                                              ^
"D:\Projects\CurrentProjects\CautoProjects\PSS48Color\include\Task.h",23  Warning[Pe940]: 
          missing return statement at end of non-void function
          "CTaskInterface::IsSourceStateActive"

      bool IsSolved(void) {};
                           ^
"D:\Projects\CurrentProjects\CautoProjects\PSS48Color\include\Task.h",58  Warning[Pe940]: 
          missing return statement at end of non-void function
          "CIsRegularButtonPressedInterface::IsSolved"

      virtual bool IsSourceStateActive(void) {};
                                              ^
"D:\Projects\CurrentProjects\CautoProjects\PSS48Color\include\Task.h",61  Warning[Pe940]: 
          missing return statement at end of non-void function
          "CIsRegularButtonPressedInterface::IsSourceStateActive"

      virtual uint16_t KEY_PRESSED_TIME(void) {};
                                               ^
"D:\Projects\CurrentProjects\CautoProjects\PSS48Color\include\Task.h",63  Warning[Pe940]: 
          missing return statement at end of non-void function
          "CIsRegularButtonPressedInterface::KEY_PRESSED_TIME"
     11          #include "Crc.h"
     12          
     13          //-----------------------------------------------------------------------------------------------------

   \                                 In  segment CODE, align 2, keep-with-next
     14          CModuleMrXXDriver::CModuleMrXXDriver()
   \                     ??CModuleMrXXDriver_1:
   \   00000000   93BA               ST      -Y, R27
   \   00000002   93AA               ST      -Y, R26
   \   00000004   01D8               MOVW    R27:R26, R17:R16
     15          {
   \   00000006   018D               MOVW    R17:R16, R27:R26
   \   00000008   5F05               SUBI    R16, 245
   \   0000000A   4F1F               SBCI    R17, 255
   \   0000000C   ........           CALL    ??CDfa
   \   00000010   ....               LDI     R16, LOW(??__vtbl_3)
   \   00000012   ....               LDI     R17, (??__vtbl_3) >> 8
   \   00000014   01FD               MOVW    R31:R30, R27:R26
   \   00000016   8701               STD     Z+9, R16
   \   00000018   8712               STD     Z+10, R17
   \   0000001A   ....               LDI     R16, LOW(??__vtbl_CDfa)
   \   0000001C   ....               LDI     R17, (??__vtbl_CDfa) >> 8
   \   0000001E   01FD               MOVW    R31:R30, R27:R26
   \   00000020   8704               STD     Z+12, R16
   \   00000022   8715               STD     Z+13, R17
     16          
     17          }
   \   00000024   018D               MOVW    R17:R16, R27:R26
   \   00000026   91A9               LD      R26, Y+
   \   00000028   91B9               LD      R27, Y+
   \   0000002A   9508               RET
     18          
     19          //-----------------------------------------------------------------------------------------------------

   \                                 In  segment CODE, align 2, keep-with-next
     20          CModuleMrXXDriver::CModuleMrXXDriver(uint8_t uiType)
   \                     ??CModuleMrXXDriver:
   \   00000000   ........           CALL    ?PROLOGUE4_L09
   \   00000004   01D8               MOVW    R27:R26, R17:R16
   \   00000006   2F82               MOV     R24, R18
     21          {
   \   00000008   018D               MOVW    R17:R16, R27:R26
   \   0000000A   5F05               SUBI    R16, 245
   \   0000000C   4F1F               SBCI    R17, 255
   \   0000000E   ........           CALL    ??CDfa
   \   00000012   ....               LDI     R16, LOW(??__vtbl_3)
   \   00000014   ....               LDI     R17, (??__vtbl_3) >> 8
   \   00000016   01FD               MOVW    R31:R30, R27:R26
   \   00000018   8701               STD     Z+9, R16
   \   0000001A   8712               STD     Z+10, R17
   \   0000001C   ....               LDI     R16, LOW(??__vtbl_CDfa)
   \   0000001E   ....               LDI     R17, (??__vtbl_CDfa) >> 8
   \   00000020   01FD               MOVW    R31:R30, R27:R26
   \   00000022   8704               STD     Z+12, R16
   \   00000024   8715               STD     Z+13, R17
     22              m_uiType = uiType;
   \   00000026   938C               ST      X, R24
     23              SetFsmState(MRXX_FSM_STATE_WRITE_DATABASE);
   \   00000028   E020               LDI     R18, 0
   \   0000002A   018D               MOVW    R17:R16, R27:R26
   \   0000002C   5F05               SUBI    R16, 245
   \   0000002E   4F1F               SBCI    R17, 255
   \   00000030   ........           CALL    ??SetFsmState
     24          }
   \   00000034   018D               MOVW    R17:R16, R27:R26
   \   00000036   E0E4               LDI     R30, 4
   \   00000038   ........           JMP     ?EPILOGUE_B4_L09
     25          
     26          //-----------------------------------------------------------------------------------------------------

   \                                 In  segment CODE, align 2, keep-with-next
     27          CModuleMrXXDriver::~CModuleMrXXDriver()
   \                     `?~CModuleMrXXDriver`:
     28          {
   \   00000000   ........           CALL    ?PROLOGUE4_L09
   \   00000004   01C8               MOVW    R25:R24, R17:R16
   \   00000006   01D9               MOVW    R27:R26, R19:R18
   \   00000008   2F08               MOV     R16, R24
   \   0000000A   2B09               OR      R16, R25
   \   0000000C   F061               BREQ    `?~CModuleMrXXDriver_1`
     29          
     30          }
   \   0000000E   E020               LDI     R18, 0
   \   00000010   E030               LDI     R19, 0
   \   00000012   018C               MOVW    R17:R16, R25:R24
   \   00000014   5F05               SUBI    R16, 245
   \   00000016   4F1F               SBCI    R17, 255
   \   00000018   ........           CALL    `?~CDfa`
   \   0000001C   FBA0               BST     R26, 0
   \   0000001E   F41E               BRTC    `?~CModuleMrXXDriver_1`
   \   00000020   018C               MOVW    R17:R16, R25:R24
   \   00000022   ........           CALL    `??operator delete`
   \                     `?~CModuleMrXXDriver_1`:
   \   00000026   E0E4               LDI     R30, 4
   \   00000028   ........           JMP     ?EPILOGUE_B4_L09
     31          
     32          //-----------------------------------------------------------------------------------------------------

   \                                 In  segment CODE, align 2, keep-with-next
     33          void CModuleMrXXDriver::Allocate(TMemoryAllocationContext &xMemoryAllocationContext)
   \                     ??Allocate:
     34          {
   \   00000000   011D               MOVW    R3:R2, R27:R26
   \   00000002   01D8               MOVW    R27:R26, R17:R16
     35              m_uiAddress = xMemoryAllocationContext.uiAddress;
   \   00000004   01F9               MOVW    R31:R30, R19:R18
   \   00000006   8100               LD      R16, Z
   \   00000008   01FD               MOVW    R31:R30, R27:R26
   \   0000000A   8B00               STD     Z+16, R16
     36              m_puiRxBuffer = xMemoryAllocationContext.puiRxBuffer;
   \   0000000C   01F9               MOVW    R31:R30, R19:R18
   \   0000000E   8101               LDD     R16, Z+1
   \   00000010   8112               LDD     R17, Z+2
   \   00000012   01FD               MOVW    R31:R30, R27:R26
   \   00000014   8B01               STD     Z+17, R16
   \   00000016   8B12               STD     Z+18, R17
     37              m_puiTxBuffer = xMemoryAllocationContext.puiTxBuffer;
   \   00000018   01F9               MOVW    R31:R30, R19:R18
   \   0000001A   8103               LDD     R16, Z+3
   \   0000001C   8114               LDD     R17, Z+4
   \   0000001E   01FD               MOVW    R31:R30, R27:R26
   \   00000020   8B03               STD     Z+19, R16
   \   00000022   8B14               STD     Z+20, R17
     38              m_puiErrorCode = xMemoryAllocationContext.puiErrorCode;
   \   00000024   01F9               MOVW    R31:R30, R19:R18
   \   00000026   8105               LDD     R16, Z+5
   \   00000028   8116               LDD     R17, Z+6
   \   0000002A   01FD               MOVW    R31:R30, R27:R26
   \   0000002C   8305               STD     Z+5, R16
   \   0000002E   8316               STD     Z+6, R17
     39              // Получим указатель на массив дискретных входов.
     40              m_puiDiscreteInputs = xMemoryAllocationContext.puiDiscreteInputs;
   \   00000030   01F9               MOVW    R31:R30, R19:R18
   \   00000032   8107               LDD     R16, Z+7
   \   00000034   8510               LDD     R17, Z+8
   \   00000036   01FD               MOVW    R31:R30, R27:R26
   \   00000038   8B05               STD     Z+21, R16
   \   0000003A   8B16               STD     Z+22, R17
     41          
     42              // Получим указатель на массив базы данных.
     43              m_pxDiscreteOutputDataBase = xMemoryAllocationContext.pxDiscreteOutputDataBase;//debag//
   \   0000003C   01F9               MOVW    R31:R30, R19:R18
   \   0000003E   8903               LDD     R16, Z+19
   \   00000040   8914               LDD     R17, Z+20
   \   00000042   01FD               MOVW    R31:R30, R27:R26
   \   00000044   8F03               STD     Z+27, R16
   \   00000046   8F14               STD     Z+28, R17
     44          
     45              m_puiDiscreteOutputState = xMemoryAllocationContext.puiDiscreteOutputState;
   \   00000048   01F9               MOVW    R31:R30, R19:R18
   \   0000004A   8505               LDD     R16, Z+13
   \   0000004C   8516               LDD     R17, Z+14
   \   0000004E   01FD               MOVW    R31:R30, R27:R26
   \   00000050   8B07               STD     Z+23, R16
   \   00000052   8F10               STD     Z+24, R17
     46          
     47              // Получим указатель на место в массиве дискретных выходов для текущего модуля.
     48              m_pxDiscreteOutputControl =
     49                  &xMemoryAllocationContext.
     50                  pxDiscreteOutputControl[xMemoryAllocationContext.uiUsedDiscreteOutputs];
   \   00000054   01F9               MOVW    R31:R30, R19:R18
   \   00000056   8940               LDD     R20, Z+16
   \   00000058   8951               LDD     R21, Z+17
   \   0000005A   01F9               MOVW    R31:R30, R19:R18
   \   0000005C   8902               LDD     R16, Z+18
   \   0000005E   E010               LDI     R17, 0
   \   00000060   0F00               LSL     R16
   \   00000062   1F11               ROL     R17
   \   00000064   0F40               ADD     R20, R16
   \   00000066   1F51               ADC     R21, R17
   \   00000068   01FD               MOVW    R31:R30, R27:R26
   \   0000006A   8F41               STD     Z+25, R20
   \   0000006C   8F52               STD     Z+26, R21
     51              // Увеличим общий объём выделенной памяти.
     52              xMemoryAllocationContext.
     53              uiUsedDiscreteOutputs +=
     54                  MR_DISCRETE_OUTPUT_NUMBER;
   \   0000006E   01F9               MOVW    R31:R30, R19:R18
   \   00000070   8902               LDD     R16, Z+18
   \   00000072   5F08               SUBI    R16, 248
   \   00000074   8B02               STD     Z+18, R16
     55          
     56              m_pxDiscreteOutputDataBase =
     57                  &xMemoryAllocationContext.
     58                  pxDiscreteOutputDataBase[xMemoryAllocationContext.uiUsedDiscreteOutputDataBase];
   \   00000076   01F9               MOVW    R31:R30, R19:R18
   \   00000078   8963               LDD     R22, Z+19
   \   0000007A   8974               LDD     R23, Z+20
   \   0000007C   01F9               MOVW    R31:R30, R19:R18
   \   0000007E   8905               LDD     R16, Z+21
   \   00000080   E010               LDI     R17, 0
   \   00000082   E148               LDI     R20, 24
   \   00000084   E050               LDI     R21, 0
   \   00000086   ........           CALL    ?S_EC_MUL_L02
   \   0000008A   0F60               ADD     R22, R16
   \   0000008C   1F71               ADC     R23, R17
   \   0000008E   01FD               MOVW    R31:R30, R27:R26
   \   00000090   8F63               STD     Z+27, R22
   \   00000092   8F74               STD     Z+28, R23
     59              // Увеличим общий объём выделенной памяти.
     60              xMemoryAllocationContext.
     61              uiUsedDiscreteOutputDataBase +=
     62                  MR_DISCRETE_OUTPUT_NUMBER;
   \   00000094   01F9               MOVW    R31:R30, R19:R18
   \   00000096   8905               LDD     R16, Z+21
   \   00000098   5F08               SUBI    R16, 248
   \   0000009A   8B05               STD     Z+21, R16
     63          
     64              m_puiErrorAlarmDataArray =
     65                  &xMemoryAllocationContext.
     66                  puiErrorAlarmDataArray[DISCRETE_OUTPUT_MODULE_FAILURE];
   \   0000009C   01F9               MOVW    R31:R30, R19:R18
   \   0000009E   8906               LDD     R16, Z+22
   \   000000A0   8917               LDD     R17, Z+23
   \   000000A2   5F0F               SUBI    R16, 255
   \   000000A4   4F1F               SBCI    R17, 255
   \   000000A6   01FD               MOVW    R31:R30, R27:R26
   \   000000A8   8307               STD     Z+7, R16
   \   000000AA   8710               STD     Z+8, R17
     67          
     68              m_uiBadAnswerCounter = 0;
   \   000000AC   01FD               MOVW    R31:R30, R27:R26
   \   000000AE   E000               LDI     R16, 0
   \   000000B0   8F05               STD     Z+29, R16
     69          }
   \   000000B2   01D1               MOVW    R27:R26, R3:R2
   \   000000B4   9508               RET
     70          
     71          //-----------------------------------------------------------------------------------------------------

   \                                 In  segment CODE, align 2, keep-with-next
     72          uint8_t CModuleMrXXDriver::WriteDataBase(void)
   \                     ??WriteDataBase:
     73          {
   \   00000000   ........           CALL    ?PROLOGUE6_L09
   \   00000004                      REQUIRE ?Register_R4_is_cg_reg
   \   00000004                      REQUIRE ?Register_R5_is_cg_reg
   \   00000004   01D8               MOVW    R27:R26, R17:R16
     74              uint16_t usData;
     75              uint8_t *puiDestination;
     76          
     77              puiDestination = &m_puiTxBuffer[DATA_BYTE_OFFSET];
   \   00000006   01FD               MOVW    R31:R30, R27:R26
   \   00000008   8903               LDD     R16, Z+19
   \   0000000A   8914               LDD     R17, Z+20
   \   0000000C   5F0E               SUBI    R16, 254
   \   0000000E   4F1F               SBCI    R17, 255
   \   00000010   01C8               MOVW    R25:R24, R17:R16
     78          
     79              // При загрузке БД в МР передается только байт 0 описателя каждого выхода.
     80              for (uint8_t i = 0; i < MR_DISCRETE_OUTPUT_NUMBER; i++)
   \   00000012   E000               LDI     R16, 0
   \                     ??WriteDataBase_1:
   \   00000014   3008               CPI     R16, 8
   \   00000016   F478               BRCC    ??WriteDataBase_2
     81              {
     82                  puiDestination[i] =
     83                      m_pxDiscreteOutputDataBase -> DiscreteOutputModuleDataBase[i];
   \   00000018   01FD               MOVW    R31:R30, R27:R26
   \   0000001A   8D23               LDD     R18, Z+27
   \   0000001C   8D34               LDD     R19, Z+28
   \   0000001E   E010               LDI     R17, 0
   \   00000020   0F20               ADD     R18, R16
   \   00000022   1F31               ADC     R19, R17
   \   00000024   01F9               MOVW    R31:R30, R19:R18
   \   00000026   8120               LD      R18, Z
   \   00000028   E010               LDI     R17, 0
   \   0000002A   01FC               MOVW    R31:R30, R25:R24
   \   0000002C   0FE0               ADD     R30, R16
   \   0000002E   1FF1               ADC     R31, R17
   \   00000030   8320               ST      Z, R18
     84              }
   \   00000032   9503               INC     R16
   \   00000034   CFEF               RJMP    ??WriteDataBase_1
     85          
     86              usData = usCrcSummTwoByteCalculation(puiDestination,
     87                                                   MRXX_SET_DATA_BASE_COMMAND_ANSWER_LENGTH);
   \                     ??WriteDataBase_2:
   \   00000036   E028               LDI     R18, 8
   \   00000038   E030               LDI     R19, 0
   \   0000003A   018C               MOVW    R17:R16, R25:R24
   \   0000003C   ........           CALL    ??usCrcSummTwoByteCalculation
   \   00000040   0128               MOVW    R5:R4, R17:R16
     88              puiDestination = &m_puiTxBuffer[DATA_BYTE_OFFSET +
     89                                              MRXX_SET_DATA_BASE_COMMAND_ANSWER_LENGTH];
   \   00000042   01FD               MOVW    R31:R30, R27:R26
   \   00000044   8903               LDD     R16, Z+19
   \   00000046   8914               LDD     R17, Z+20
   \   00000048   5F06               SUBI    R16, 246
   \   0000004A   4F1F               SBCI    R17, 255
   \   0000004C   01C8               MOVW    R25:R24, R17:R16
     90              *puiDestination++ = (uint8_t)usData;
   \   0000004E   2D04               MOV     R16, R4
   \   00000050   01FC               MOVW    R31:R30, R25:R24
   \   00000052   8300               ST      Z, R16
   \   00000054   9601               ADIW    R25:R24, 1
     91              *puiDestination = (uint8_t)(usData >> 8);
   \   00000056   0182               MOVW    R17:R16, R5:R4
   \   00000058   2F01               MOV     R16, R17
   \   0000005A   E010               LDI     R17, 0
   \   0000005C   01FC               MOVW    R31:R30, R25:R24
   \   0000005E   8300               ST      Z, R16
     92          
     93              m_puiTxBuffer[0] = MRXX_SET_DATA_BASE_COMMAND;
   \   00000060   01FD               MOVW    R31:R30, R27:R26
   \   00000062   8903               LDD     R16, Z+19
   \   00000064   8914               LDD     R17, Z+20
   \   00000066   01F8               MOVW    R31:R30, R17:R16
   \   00000068   E801               LDI     R16, 129
   \   0000006A   8300               ST      Z, R16
     94          
     95              CPss21::ConnectDevice(m_uiAddress);
   \   0000006C   01FD               MOVW    R31:R30, R27:R26
   \   0000006E   8900               LDD     R16, Z+16
   \   00000070   ........           CALL    ??ConnectDevice
     96              delay_us(500);
   \   00000074   E60A               LDI     R16, 106
   \   00000076   E013               LDI     R17, 3
   \   00000078   5001               SUBI    R16, 1
   \   0000007A   4010               SBCI    R17, 0
   \   0000007C   F7E9               BRNE    $-4
   \   0000007E   C000               RJMP    $+2
   \   00000080   0000               NOP
     97              CSpi::Exchange(m_puiRxBuffer,
     98                             m_puiTxBuffer,
     99                             (PRIAMBLE_LENGTH +
    100                              MRXX_SET_DATA_BASE_COMMAND_ANSWER_LENGTH +
    101                              TWO_BYTE_CRC_LENGTH +
    102                              DATA_EXCHANGE_OK_LENGTH));
   \   00000082   E04D               LDI     R20, 13
   \   00000084   E050               LDI     R21, 0
   \   00000086   01FD               MOVW    R31:R30, R27:R26
   \   00000088   8923               LDD     R18, Z+19
   \   0000008A   8934               LDD     R19, Z+20
   \   0000008C   01FD               MOVW    R31:R30, R27:R26
   \   0000008E   8901               LDD     R16, Z+17
   \   00000090   8912               LDD     R17, Z+18
   \   00000092   ........           CALL    ??Exchange_1
    103              CPss21::DisconnectDevice();
   \   00000096   ........           CALL    ??DisconnectDevice
    104          
    105              // модуль исправен?
    106              if (m_puiRxBuffer[COMMAND_BYTE_OFFSET] == MRXX_SET_DATA_BASE_COMMAND)
   \   0000009A   01FD               MOVW    R31:R30, R27:R26
   \   0000009C   8901               LDD     R16, Z+17
   \   0000009E   8912               LDD     R17, Z+18
   \   000000A0   01F8               MOVW    R31:R30, R17:R16
   \   000000A2   8101               LDD     R16, Z+1
   \   000000A4   3801               CPI     R16, 129
   \   000000A6   F449               BRNE    ??WriteDataBase_3
    107              {
    108                  // есть подтверждение записи базы данных в EEPROM модуля?
    109                  if (m_puiRxBuffer[DATA_BYTE_OFFSET +
    110                                    MRXX_SET_DATA_BASE_COMMAND_ANSWER_LENGTH +
    111                                    TWO_BYTE_CRC_LENGTH] == DATA_EXCHANGE_OK)
   \   000000A8   01FD               MOVW    R31:R30, R27:R26
   \   000000AA   8901               LDD     R16, Z+17
   \   000000AC   8912               LDD     R17, Z+18
   \   000000AE   01F8               MOVW    R31:R30, R17:R16
   \   000000B0   8504               LDD     R16, Z+12
   \   000000B2   370E               CPI     R16, 126
   \   000000B4   F411               BRNE    ??WriteDataBase_3
    112                  {
    113                      // есть подтверждение записи базы данных в EEPROM модуля.
    114                      return 1;
   \   000000B6   E001               LDI     R16, 1
   \   000000B8   C001               RJMP    ??WriteDataBase_4
    115                  }
    116              }
    117          
    118              return 0;
   \                     ??WriteDataBase_3:
   \   000000BA   E000               LDI     R16, 0
   \                     ??WriteDataBase_4:
   \   000000BC   E0E6               LDI     R30, 6
   \   000000BE   ........           JMP     ?EPILOGUE_B6_L09
    119          }
    120          
    121          //-----------------------------------------------------------------------------------------------------

   \                                 In  segment CODE, align 2, keep-with-next
    122          uint8_t CModuleMrXXDriver::Exchange(void)
   \                     ??Exchange:
    123          {
   \   00000000   ........           CALL    ?PROLOGUE10_L09
   \   00000004                      REQUIRE ?Register_R4_is_cg_reg
   \   00000004                      REQUIRE ?Register_R5_is_cg_reg
   \   00000004                      REQUIRE ?Register_R6_is_cg_reg
   \   00000004                      REQUIRE ?Register_R7_is_cg_reg
   \   00000004                      REQUIRE ?Register_R8_is_cg_reg
   \   00000004                      REQUIRE ?Register_R9_is_cg_reg
   \   00000004   01D8               MOVW    R27:R26, R17:R16
    124              uint8_t uiExternalReceipt = 0;
   \   00000006   2499               CLR     R9
    125              // цикл проверяет наличие внешнего квитирования.
    126              for (uint8_t i = 0; i < MR_DISCRETE_OUTPUT_NUMBER; i++)
   \   00000008   E020               LDI     R18, 0
   \                     ??Exchange_2:
   \   0000000A   3028               CPI     R18, 8
   \   0000000C   F520               BRCC    ??Exchange_3
    127              {
    128                  // для текущего входа внешнее квитирование запрограммировано?
    129                  if (m_pxDiscreteOutputDataBase -> ExternalReceiptAddress[i] != 0xFF)
   \   0000000E   01FD               MOVW    R31:R30, R27:R26
   \   00000010   8D03               LDD     R16, Z+27
   \   00000012   8D14               LDD     R17, Z+28
   \   00000014   E030               LDI     R19, 0
   \   00000016   0F02               ADD     R16, R18
   \   00000018   1F13               ADC     R17, R19
   \   0000001A   01F8               MOVW    R31:R30, R17:R16
   \   0000001C   8500               LDD     R16, Z+8
   \   0000001E   3F0F               CPI     R16, 255
   \   00000020   F0C1               BREQ    ??Exchange_4
    130                  {
    131                      // для текущего входа есть внешнее квитирование?
    132                      if (m_puiDiscreteInputs[m_pxDiscreteOutputDataBase -> ExternalReceiptAddress[i]])
   \   00000022   01FD               MOVW    R31:R30, R27:R26
   \   00000024   8905               LDD     R16, Z+21
   \   00000026   8916               LDD     R17, Z+22
   \   00000028   01FD               MOVW    R31:R30, R27:R26
   \   0000002A   8D43               LDD     R20, Z+27
   \   0000002C   8D54               LDD     R21, Z+28
   \   0000002E   E030               LDI     R19, 0
   \   00000030   0F42               ADD     R20, R18
   \   00000032   1F53               ADC     R21, R19
   \   00000034   01FA               MOVW    R31:R30, R21:R20
   \   00000036   8540               LDD     R20, Z+8
   \   00000038   E050               LDI     R21, 0
   \   0000003A   0F04               ADD     R16, R20
   \   0000003C   1F15               ADC     R17, R21
   \   0000003E   01F8               MOVW    R31:R30, R17:R16
   \   00000040   8100               LD      R16, Z
   \   00000042   2300               TST     R16
   \   00000044   F031               BREQ    ??Exchange_4
    133                      {
    134                          // установим квитирование для текущего входа.
    135                          uiExternalReceipt |= (1 << i);
   \   00000046   E001               LDI     R16, 1
   \   00000048   E010               LDI     R17, 0
   \   0000004A   2F42               MOV     R20, R18
   \   0000004C   ........           CALL    ?S_SHL_L02
   \   00000050   2A90               OR      R9, R16
    136                      }
    137                  }
    138              }
   \                     ??Exchange_4:
   \   00000052   9523               INC     R18
   \   00000054   CFDA               RJMP    ??Exchange_2
    139          
    140              uint8_t uiExternalReset = 0;
   \                     ??Exchange_3:
   \   00000056   2488               CLR     R8
    141              // цикл проверяет наличие внешнего сброса.
    142              for (uint8_t i = 0; i < MR_DISCRETE_OUTPUT_NUMBER; i++)
   \   00000058   E020               LDI     R18, 0
   \                     ??Exchange_5:
   \   0000005A   3028               CPI     R18, 8
   \   0000005C   F520               BRCC    ??Exchange_6
    143              {
    144                  // для текущего входа внешний сброс запрограммирован?
    145                  if (m_pxDiscreteOutputDataBase -> ExternalResetAddress[i] != 0xFF)
   \   0000005E   01FD               MOVW    R31:R30, R27:R26
   \   00000060   8D03               LDD     R16, Z+27
   \   00000062   8D14               LDD     R17, Z+28
   \   00000064   E030               LDI     R19, 0
   \   00000066   0F02               ADD     R16, R18
   \   00000068   1F13               ADC     R17, R19
   \   0000006A   01F8               MOVW    R31:R30, R17:R16
   \   0000006C   8900               LDD     R16, Z+16
   \   0000006E   3F0F               CPI     R16, 255
   \   00000070   F0C1               BREQ    ??Exchange_7
    146                  {
    147                      // для текущего входа есть внешний сброс?
    148                      if (m_puiDiscreteInputs[m_pxDiscreteOutputDataBase -> ExternalResetAddress[i]])
   \   00000072   01FD               MOVW    R31:R30, R27:R26
   \   00000074   8905               LDD     R16, Z+21
   \   00000076   8916               LDD     R17, Z+22
   \   00000078   01FD               MOVW    R31:R30, R27:R26
   \   0000007A   8D43               LDD     R20, Z+27
   \   0000007C   8D54               LDD     R21, Z+28
   \   0000007E   E030               LDI     R19, 0
   \   00000080   0F42               ADD     R20, R18
   \   00000082   1F53               ADC     R21, R19
   \   00000084   01FA               MOVW    R31:R30, R21:R20
   \   00000086   8940               LDD     R20, Z+16
   \   00000088   E050               LDI     R21, 0
   \   0000008A   0F04               ADD     R16, R20
   \   0000008C   1F15               ADC     R17, R21
   \   0000008E   01F8               MOVW    R31:R30, R17:R16
   \   00000090   8100               LD      R16, Z
   \   00000092   2300               TST     R16
   \   00000094   F031               BREQ    ??Exchange_7
    149                      {
    150                          // установим сброс для текущего входа.
    151                          uiExternalReset |= (1 << i);
   \   00000096   E001               LDI     R16, 1
   \   00000098   E010               LDI     R17, 0
   \   0000009A   2F42               MOV     R20, R18
   \   0000009C   ........           CALL    ?S_SHL_L02
   \   000000A0   2A80               OR      R8, R16
    152                      }
    153                  }
    154              }
   \                     ??Exchange_7:
   \   000000A2   9523               INC     R18
   \   000000A4   CFDA               RJMP    ??Exchange_5
    155          
    156              uint8_t uiLocalBou = 0;
   \                     ??Exchange_6:
   \   000000A6   2455               CLR     R5
    157              // есть квитирование Modbus?
    158              if (m_uiModbusReceipt)
   \   000000A8   01FD               MOVW    R31:R30, R27:R26
   \   000000AA   8103               LDD     R16, Z+3
   \   000000AC   2300               TST     R16
   \   000000AE   F029               BREQ    ??Exchange_8
    159              {
    160                  // сбросим флаг поступившей команды.
    161                  m_uiModbusReceipt = 0;
   \   000000B0   01FD               MOVW    R31:R30, R27:R26
   \   000000B2   E000               LDI     R16, 0
   \   000000B4   8303               STD     Z+3, R16
    162                  // установим флаг управления - квитирование Modbus.
    163                  uiLocalBou |= (1 << GLOBAL_KVIT_PC_BIT);
   \   000000B6   9468               SET
   \   000000B8   F850               BLD     R5, 0
    164              }
    165              // есть сброс Modbus?
    166              if (m_uiModbusReset)
   \                     ??Exchange_8:
   \   000000BA   01FD               MOVW    R31:R30, R27:R26
   \   000000BC   8104               LDD     R16, Z+4
   \   000000BE   2300               TST     R16
   \   000000C0   F029               BREQ    ??Exchange_9
    167              {
    168                  // сбросим флаг поступившей команды.
    169                  m_uiModbusReset = 0;
   \   000000C2   01FD               MOVW    R31:R30, R27:R26
   \   000000C4   E000               LDI     R16, 0
   \   000000C6   8304               STD     Z+4, R16
    170                  // установим флаг управления - сброс Modbus.
    171                  uiLocalBou |= (1 << GLOBAL_RESET_PC_BIT);
   \   000000C8   9468               SET
   \   000000CA   F851               BLD     R5, 1
    172              }
    173              // есть квитирование с кнопки центральной панели?
    174              if (m_uiReceipt)
   \                     ??Exchange_9:
   \   000000CC   01FD               MOVW    R31:R30, R27:R26
   \   000000CE   8101               LDD     R16, Z+1
   \   000000D0   2300               TST     R16
   \   000000D2   F029               BREQ    ??Exchange_10
    175              {
    176                  // сбросим флаг поступившей команды.
    177                  m_uiReceipt = 0;
   \   000000D4   01FD               MOVW    R31:R30, R27:R26
   \   000000D6   E000               LDI     R16, 0
   \   000000D8   8301               STD     Z+1, R16
    178                  // установим флаг управления - квитирование с центральной кнопки.
    179                  uiLocalBou |= (1 << GLOBAL_KVIT_BUTTON_BIT);
   \   000000DA   9468               SET
   \   000000DC   F852               BLD     R5, 2
    180              }
    181              // есть сброс с кнопки центральной панели?
    182              if (m_uiReset)
   \                     ??Exchange_10:
   \   000000DE   01FD               MOVW    R31:R30, R27:R26
   \   000000E0   8102               LDD     R16, Z+2
   \   000000E2   2300               TST     R16
   \   000000E4   F029               BREQ    ??Exchange_11
    183              {
    184                  // сбросим флаг поступившей команды.
    185                  m_uiReset = 0;
   \   000000E6   01FD               MOVW    R31:R30, R27:R26
   \   000000E8   E000               LDI     R16, 0
   \   000000EA   8302               STD     Z+2, R16
    186                  // установим флаг управления - сброс с центральной кнопки.
    187                  uiLocalBou |= (1 << GLOBAL_RESET_BUTTON_BIT);
   \   000000EC   9468               SET
   \   000000EE   F853               BLD     R5, 3
    188              }
    189          
    190              m_puiTxBuffer[0] = DATA_EXCHANGE_COMMAND;
   \                     ??Exchange_11:
   \   000000F0   01FD               MOVW    R31:R30, R27:R26
   \   000000F2   8903               LDD     R16, Z+19
   \   000000F4   8914               LDD     R17, Z+20
   \   000000F6   01F8               MOVW    R31:R30, R17:R16
   \   000000F8   E402               LDI     R16, 66
   \   000000FA   8300               ST      Z, R16
    191              uint8_t *puiDestination;
    192              puiDestination = &m_puiTxBuffer[DATA_BYTE_OFFSET];
   \   000000FC   01FD               MOVW    R31:R30, R27:R26
   \   000000FE   8903               LDD     R16, Z+19
   \   00000100   8914               LDD     R17, Z+20
   \   00000102   5F0E               SUBI    R16, 254
   \   00000104   4F1F               SBCI    R17, 255
   \   00000106   01C8               MOVW    R25:R24, R17:R16
    193              uint8_t uiData = 0;
   \   00000108   2444               CLR     R4
    194              // заполним требования включения для каждого реле.
    195              for (uint8_t i = 0; i < MR_DISCRETE_OUTPUT_NUMBER; i++)
   \   0000010A   E020               LDI     R18, 0
   \                     ??Exchange_12:
   \   0000010C   3028               CPI     R18, 8
   \   0000010E   F4A8               BRCC    ??Exchange_13
    196              {
    197                  if (m_pxDiscreteOutputControl[i].uiRelayActivationRequest)
   \   00000110   01FD               MOVW    R31:R30, R27:R26
   \   00000112   8D01               LDD     R16, Z+25
   \   00000114   8D12               LDD     R17, Z+26
   \   00000116   2F42               MOV     R20, R18
   \   00000118   E050               LDI     R21, 0
   \   0000011A   0F44               LSL     R20
   \   0000011C   1F55               ROL     R21
   \   0000011E   0F04               ADD     R16, R20
   \   00000120   1F15               ADC     R17, R21
   \   00000122   01F8               MOVW    R31:R30, R17:R16
   \   00000124   8101               LDD     R16, Z+1
   \   00000126   2300               TST     R16
   \   00000128   F031               BREQ    ??Exchange_14
    198                  {
    199                      uiData |= (1 << i);
   \   0000012A   E001               LDI     R16, 1
   \   0000012C   E010               LDI     R17, 0
   \   0000012E   2F42               MOV     R20, R18
   \   00000130   ........           CALL    ?S_SHL_L02
   \   00000134   2A40               OR      R4, R16
    200                  }
    201              }
   \                     ??Exchange_14:
   \   00000136   9523               INC     R18
   \   00000138   CFE9               RJMP    ??Exchange_12
    202              *puiDestination++ = uiData;
   \                     ??Exchange_13:
   \   0000013A   01FC               MOVW    R31:R30, R25:R24
   \   0000013C   8240               ST      Z, R4
   \   0000013E   9601               ADIW    R25:R24, 1
    203          
    204              uiData = 0;
   \   00000140   2444               CLR     R4
    205              // заполним новые нарушения для каждого реле.
    206              for (uint8_t i = 0; i < MR_DISCRETE_OUTPUT_NUMBER; i++)
   \   00000142   E020               LDI     R18, 0
   \                     ??Exchange_15:
   \   00000144   3028               CPI     R18, 8
   \   00000146   F4A8               BRCC    ??Exchange_16
    207              {
    208                  if (m_pxDiscreteOutputControl[i].uiNewActivation)
   \   00000148   01FD               MOVW    R31:R30, R27:R26
   \   0000014A   8D01               LDD     R16, Z+25
   \   0000014C   8D12               LDD     R17, Z+26
   \   0000014E   2F42               MOV     R20, R18
   \   00000150   E050               LDI     R21, 0
   \   00000152   0F44               LSL     R20
   \   00000154   1F55               ROL     R21
   \   00000156   0F04               ADD     R16, R20
   \   00000158   1F15               ADC     R17, R21
   \   0000015A   01F8               MOVW    R31:R30, R17:R16
   \   0000015C   8100               LD      R16, Z
   \   0000015E   2300               TST     R16
   \   00000160   F031               BREQ    ??Exchange_17
    209                  {
    210                      uiData |= (1 << i);
   \   00000162   E001               LDI     R16, 1
   \   00000164   E010               LDI     R17, 0
   \   00000166   2F42               MOV     R20, R18
   \   00000168   ........           CALL    ?S_SHL_L02
   \   0000016C   2A40               OR      R4, R16
    211                  }
    212              }
   \                     ??Exchange_17:
   \   0000016E   9523               INC     R18
   \   00000170   CFE9               RJMP    ??Exchange_15
    213              *puiDestination++ = uiData;
   \                     ??Exchange_16:
   \   00000172   01FC               MOVW    R31:R30, R25:R24
   \   00000174   8240               ST      Z, R4
   \   00000176   9601               ADIW    R25:R24, 1
    214          
    215              *puiDestination++ = uiExternalReceipt;
   \   00000178   01FC               MOVW    R31:R30, R25:R24
   \   0000017A   8290               ST      Z, R9
   \   0000017C   9601               ADIW    R25:R24, 1
    216              *puiDestination++ = uiExternalReset;
   \   0000017E   01FC               MOVW    R31:R30, R25:R24
   \   00000180   8280               ST      Z, R8
   \   00000182   9601               ADIW    R25:R24, 1
    217              *puiDestination++ = uiLocalBou;
   \   00000184   01FC               MOVW    R31:R30, R25:R24
   \   00000186   8250               ST      Z, R5
   \   00000188   9601               ADIW    R25:R24, 1
    218              uint16_t usData = usCrcSummTwoByteCalculation(&m_puiTxBuffer[DATA_BYTE_OFFSET],
    219                                DATA_EXCHANGE_COMMAND_ANSWER_LENGTH);
   \   0000018A   E025               LDI     R18, 5
   \   0000018C   E030               LDI     R19, 0
   \   0000018E   01FD               MOVW    R31:R30, R27:R26
   \   00000190   8903               LDD     R16, Z+19
   \   00000192   8914               LDD     R17, Z+20
   \   00000194   5F0E               SUBI    R16, 254
   \   00000196   4F1F               SBCI    R17, 255
   \   00000198   ........           CALL    ??usCrcSummTwoByteCalculation
   \   0000019C   0138               MOVW    R7:R6, R17:R16
    220              *puiDestination++ = (uint8_t)usData;
   \   0000019E   2D06               MOV     R16, R6
   \   000001A0   01FC               MOVW    R31:R30, R25:R24
   \   000001A2   8300               ST      Z, R16
   \   000001A4   9601               ADIW    R25:R24, 1
    221              *puiDestination++ = (uint8_t)(usData >> 8);
   \   000001A6   0183               MOVW    R17:R16, R7:R6
   \   000001A8   2F01               MOV     R16, R17
   \   000001AA   E010               LDI     R17, 0
   \   000001AC   01FC               MOVW    R31:R30, R25:R24
   \   000001AE   8300               ST      Z, R16
   \   000001B0   9601               ADIW    R25:R24, 1
    222              *puiDestination++ = DATA_EXCHANGE_OK;
   \   000001B2   01FC               MOVW    R31:R30, R25:R24
   \   000001B4   E70E               LDI     R16, 126
   \   000001B6   8300               ST      Z, R16
   \   000001B8   9601               ADIW    R25:R24, 1
    223          
    224              CPss21::ConnectDevice(m_uiAddress);
   \   000001BA   01FD               MOVW    R31:R30, R27:R26
   \   000001BC   8900               LDD     R16, Z+16
   \   000001BE   ........           CALL    ??ConnectDevice
    225              delay_us(500);
   \   000001C2   E60A               LDI     R16, 106
   \   000001C4   E013               LDI     R17, 3
   \   000001C6   5001               SUBI    R16, 1
   \   000001C8   4010               SBCI    R17, 0
   \   000001CA   F7E9               BRNE    $-4
   \   000001CC   C000               RJMP    $+2
   \   000001CE   0000               NOP
    226              CSpi::Exchange(m_puiRxBuffer,
    227                             m_puiTxBuffer,
    228                             (PRIAMBLE_LENGTH +
    229                              DATA_EXCHANGE_COMMAND_ANSWER_LENGTH +
    230                              TWO_BYTE_CRC_LENGTH +
    231                              DATA_EXCHANGE_OK_LENGTH));
   \   000001D0   E04A               LDI     R20, 10
   \   000001D2   E050               LDI     R21, 0
   \   000001D4   01FD               MOVW    R31:R30, R27:R26
   \   000001D6   8923               LDD     R18, Z+19
   \   000001D8   8934               LDD     R19, Z+20
   \   000001DA   01FD               MOVW    R31:R30, R27:R26
   \   000001DC   8901               LDD     R16, Z+17
   \   000001DE   8912               LDD     R17, Z+18
   \   000001E0   ........           CALL    ??Exchange_1
    232              CPss21::DisconnectDevice();
   \   000001E4   ........           CALL    ??DisconnectDevice
    233          
    234              // что ответил модуль?
    235              switch(m_puiRxBuffer[COMMAND_BYTE_OFFSET])
   \   000001E8   01FD               MOVW    R31:R30, R27:R26
   \   000001EA   8901               LDD     R16, Z+17
   \   000001EC   8912               LDD     R17, Z+18
   \   000001EE   01F8               MOVW    R31:R30, R17:R16
   \   000001F0   8101               LDD     R16, Z+1
   \   000001F2   5204               SUBI    R16, 36
   \   000001F4   F409               BRNE    $+2+2
   \   000001F6   C047               RJMP    ??Exchange_18
   \   000001F8   510E               SUBI    R16, 30
   \   000001FA   F009               BREQ    $+2+2
   \   000001FC   C04E               RJMP    ??Exchange_19
    236              {
    237              case DATA_READY:
    238                  // данные не повреждены?
    239                  if (iCrcSummTwoByteCompare(&m_puiRxBuffer[DATA_BYTE_OFFSET],
    240                                             DATA_EXCHANGE_COMMAND_ANSWER_LENGTH) > 0)
   \   000001FE   E025               LDI     R18, 5
   \   00000200   E030               LDI     R19, 0
   \   00000202   01FD               MOVW    R31:R30, R27:R26
   \   00000204   8901               LDD     R16, Z+17
   \   00000206   8912               LDD     R17, Z+18
   \   00000208   5F0E               SUBI    R16, 254
   \   0000020A   4F1F               SBCI    R17, 255
   \   0000020C   ........           CALL    ??iCrcSummTwoByteCompare
   \   00000210   3001               CPI     R16, 1
   \   00000212   4010               SBCI    R17, 0
   \   00000214   F1BC               BRLT    ??Exchange_20
    241                  {
    242                      // есть подтверждение?
    243                      if (m_puiRxBuffer[DATA_BYTE_OFFSET +
    244                                        DATA_EXCHANGE_COMMAND_ANSWER_LENGTH +
    245                                        TWO_BYTE_CRC_LENGTH] == DATA_EXCHANGE_OK)
   \   00000216   01FD               MOVW    R31:R30, R27:R26
   \   00000218   8901               LDD     R16, Z+17
   \   0000021A   8912               LDD     R17, Z+18
   \   0000021C   01F8               MOVW    R31:R30, R17:R16
   \   0000021E   8501               LDD     R16, Z+9
   \   00000220   370E               CPI     R16, 126
   \   00000222   F5D9               BRNE    ??Exchange_19
    246                      {
    247                          // есть подтверждение.
    248                          m_uiBadAnswerCounter = 0;
   \   00000224   01FD               MOVW    R31:R30, R27:R26
   \   00000226   E000               LDI     R16, 0
   \   00000228   8F05               STD     Z+29, R16
    249                          SetErrorAlarmData(0);
   \   0000022A   E020               LDI     R18, 0
   \   0000022C   018D               MOVW    R17:R16, R27:R26
   \   0000022E   ........           CALL    ??SetErrorAlarmData
    250          
    251                          uiData = (m_puiRxBuffer[DATA_BYTE_OFFSET]);
   \   00000232   01FD               MOVW    R31:R30, R27:R26
   \   00000234   8901               LDD     R16, Z+17
   \   00000236   8912               LDD     R17, Z+18
   \   00000238   01F8               MOVW    R31:R30, R17:R16
   \   0000023A   8102               LDD     R16, Z+2
   \   0000023C   2E40               MOV     R4, R16
    252                          // отправим данные - состояние выходов модулей реле МР №1 – MP №8.
    253                          for (uint8_t i = 0; i < MR_DISCRETE_OUTPUT_NUMBER; i++)
   \   0000023E   E020               LDI     R18, 0
   \                     ??Exchange_21:
   \   00000240   3028               CPI     R18, 8
   \   00000242   F4F0               BRCC    ??Exchange_22
    254                          {
    255                              if (uiData & (1 << i))
   \   00000244   E001               LDI     R16, 1
   \   00000246   E010               LDI     R17, 0
   \   00000248   2F42               MOV     R20, R18
   \   0000024A   ........           CALL    ?S_SHL_L02
   \   0000024E   2D14               MOV     R17, R4
   \   00000250   2310               AND     R17, R16
   \   00000252   2311               TST     R17
   \   00000254   F051               BREQ    ??Exchange_23
    256                              {
    257                                  m_puiDiscreteOutputState[i] = 1;
   \   00000256   01FD               MOVW    R31:R30, R27:R26
   \   00000258   8907               LDD     R16, Z+23
   \   0000025A   8D10               LDD     R17, Z+24
   \   0000025C   E030               LDI     R19, 0
   \   0000025E   0F02               ADD     R16, R18
   \   00000260   1F13               ADC     R17, R19
   \   00000262   01F8               MOVW    R31:R30, R17:R16
   \   00000264   E001               LDI     R16, 1
   \   00000266   8300               ST      Z, R16
   \   00000268   C009               RJMP    ??Exchange_24
    258                              }
    259                              else
    260                              {
    261                                  m_puiDiscreteOutputState[i] = 0;
   \                     ??Exchange_23:
   \   0000026A   01FD               MOVW    R31:R30, R27:R26
   \   0000026C   8907               LDD     R16, Z+23
   \   0000026E   8D10               LDD     R17, Z+24
   \   00000270   E030               LDI     R19, 0
   \   00000272   0F02               ADD     R16, R18
   \   00000274   1F13               ADC     R17, R19
   \   00000276   01F8               MOVW    R31:R30, R17:R16
   \   00000278   E000               LDI     R16, 0
   \   0000027A   8300               ST      Z, R16
    262                              }
    263                          }
   \                     ??Exchange_24:
   \   0000027C   9523               INC     R18
   \   0000027E   CFE0               RJMP    ??Exchange_21
    264          
    265                          return 1;
   \                     ??Exchange_22:
   \   00000280   E001               LDI     R16, 1
   \   00000282   C020               RJMP    ??Exchange_25
    266                      }
    267                  }
    268                  break;
   \                     ??Exchange_20:
   \   00000284   C00A               RJMP    ??Exchange_19
    269          
    270              case DBASE_ERR:
    271                  // модуль не признан неисправным?
    272                  if (m_uiBadAnswerCounter < BAD_MODULE_CYCLE_COUNT_DEFAULT)
   \                     ??Exchange_18:
   \   00000286   01FD               MOVW    R31:R30, R27:R26
   \   00000288   8D05               LDD     R16, Z+29
   \   0000028A   3104               CPI     R16, 20
   \   0000028C   F430               BRCC    ??Exchange_19
    273                  {
    274                      // База данных повреждена. Попытаемся записать её повторно.
    275                      SetFsmState(MRXX_FSM_STATE_WRITE_DATABASE);
   \   0000028E   E020               LDI     R18, 0
   \   00000290   018D               MOVW    R17:R16, R27:R26
   \   00000292   5F05               SUBI    R16, 245
   \   00000294   4F1F               SBCI    R17, 255
   \   00000296   ........           CALL    ??SetFsmState
    276                  }
    277                  break;
    278          
    279              default:
    280                  break;
    281              };
    282          
    283              // модуль не признан неисправным?
    284              if (m_uiBadAnswerCounter < BAD_MODULE_CYCLE_COUNT_DEFAULT)
   \                     ??Exchange_19:
   \   0000029A   01FD               MOVW    R31:R30, R27:R26
   \   0000029C   8D05               LDD     R16, Z+29
   \   0000029E   3104               CPI     R16, 20
   \   000002A0   F430               BRCC    ??Exchange_26
    285              {
    286                  // увеличим значение счётчика - "количество сеансов связи с модулем без ответа".
    287                  m_uiBadAnswerCounter++;
   \   000002A2   01FD               MOVW    R31:R30, R27:R26
   \   000002A4   8D05               LDD     R16, Z+29
   \   000002A6   9503               INC     R16
   \   000002A8   8F05               STD     Z+29, R16
    288                  return 0;
   \   000002AA   E000               LDI     R16, 0
   \   000002AC   C00B               RJMP    ??Exchange_25
    289              }
    290              else
    291              {
    292                  // модуль признан неисправным.
    293                  *m_puiErrorCode = OMD_ERROR;
   \                     ??Exchange_26:
   \   000002AE   01FD               MOVW    R31:R30, R27:R26
   \   000002B0   8105               LDD     R16, Z+5
   \   000002B2   8116               LDD     R17, Z+6
   \   000002B4   01F8               MOVW    R31:R30, R17:R16
   \   000002B6   E002               LDI     R16, 2
   \   000002B8   8300               ST      Z, R16
    294                  SetErrorAlarmData(1);
   \   000002BA   E021               LDI     R18, 1
   \   000002BC   018D               MOVW    R17:R16, R27:R26
   \   000002BE   ........           CALL    ??SetErrorAlarmData
    295                  return 0;
   \   000002C2   E000               LDI     R16, 0
   \                     ??Exchange_25:
   \   000002C4   E0EA               LDI     R30, 10
   \   000002C6   ........           JMP     ?EPILOGUE_B10_L09
    296              }
    297          }
    298          
    299          //-----------------------------------------------------------------------------------------------------

   \                                 In  segment CODE, align 2, keep-with-next
    300          uint8_t CModuleMrXXDriver::DataExchange(void)
   \                     ??DataExchange:
    301          {
   \   00000000   ........           CALL    ?PROLOGUE3_L09
   \   00000004   01C8               MOVW    R25:R24, R17:R16
    302              uint8_t uiResult;
    303              switch (GetFsmState())
   \   00000006   018C               MOVW    R17:R16, R25:R24
   \   00000008   5F05               SUBI    R16, 245
   \   0000000A   4F1F               SBCI    R17, 255
   \   0000000C   ........           CALL    ??GetFsmState
   \   00000010   5000               SUBI    R16, 0
   \   00000012   F019               BREQ    ??DataExchange_1
   \   00000014   950A               DEC     R16
   \   00000016   F059               BREQ    ??DataExchange_2
   \   00000018   C00D               RJMP    ??DataExchange_3
    304              {
    305                  // при старте база данных записывается из прибора в модуль реле.
    306              case MRXX_FSM_STATE_WRITE_DATABASE:
    307                  uiResult = WriteDataBase();
   \                     ??DataExchange_1:
   \   0000001A   018C               MOVW    R17:R16, R25:R24
   \   0000001C   ....               RCALL   ??WriteDataBase
   \   0000001E   2FA0               MOV     R26, R16
    308                  // после, автомат переходит в режим - обмен данными с модулем(MRXX_FSM_STATE_TRANSFER).
    309                  SetFsmState(MRXX_FSM_STATE_TRANSFER);
   \   00000020   E021               LDI     R18, 1
   \   00000022   018C               MOVW    R17:R16, R25:R24
   \   00000024   5F05               SUBI    R16, 245
   \   00000026   4F1F               SBCI    R17, 255
   \   00000028   ........           CALL    ??SetFsmState
    310                  break;
   \   0000002C   C003               RJMP    ??DataExchange_3
    311          
    312              case MRXX_FSM_STATE_TRANSFER:
    313                  uiResult = Exchange();
   \                     ??DataExchange_2:
   \   0000002E   018C               MOVW    R17:R16, R25:R24
   \   00000030   ....               RCALL   ??Exchange
   \   00000032   2FA0               MOV     R26, R16
    314                  break;
    315          
    316              default:
    317                  break;
    318              };
    319          
    320              return uiResult;
   \                     ??DataExchange_3:
   \   00000034   2F0A               MOV     R16, R26
   \   00000036   E0E3               LDI     R30, 3
   \   00000038   ........           JMP     ?EPILOGUE_B3_L09
    321          }

   \                                 In  segment CODE, align 2, keep-with-next
   \   __version_3 CModuleMrXXDriver &CModuleMrXXDriver::new CModuleMrXXDriver(uint8_t)
   \                     `??new CModuleMrXXDriver`:
   \   00000000   938A               ST      -Y, R24
   \   00000002   2F80               MOV     R24, R16
   \   00000004   E10E               LDI     R16, 30
   \   00000006   E010               LDI     R17, 0
   \   00000008   ........           CALL    `??operator new`
   \   0000000C   2F20               MOV     R18, R16
   \   0000000E   2B21               OR      R18, R17
   \   00000010   F019               BREQ    `??new CModuleMrXXDriver_2`
   \   00000012   2F28               MOV     R18, R24
   \   00000014   ....               RCALL   ??CModuleMrXXDriver
   \   00000016   C002               RJMP    `??new CModuleMrXXDriver_3`
   \                     `??new CModuleMrXXDriver_2`:
   \   00000018   E000               LDI     R16, 0
   \   0000001A   E010               LDI     R17, 0
   \                     `??new CModuleMrXXDriver_3`:
   \   0000001C   9189               LD      R24, Y+
   \   0000001E   9508               RET

   \                                 In  segment CODE, align 2, keep-with-next
   \   __version_3 CModuleMrXXDriver &CModuleMrXXDriver::new CModuleMrXXDriver()
   \                     `??new CModuleMrXXDriver_1`:
   \   00000000   E10E               LDI     R16, 30
   \   00000002   E010               LDI     R17, 0
   \   00000004   ........           CALL    `??operator new`
   \   00000008   2F20               MOV     R18, R16
   \   0000000A   2B21               OR      R18, R17
   \   0000000C   F011               BREQ    `??new CModuleMrXXDriver_4`
   \   0000000E   ....               RCALL   ??CModuleMrXXDriver_1
   \   00000010   9508               RET
   \                     `??new CModuleMrXXDriver_4`:
   \   00000012   E000               LDI     R16, 0
   \   00000014   E010               LDI     R17, 0
   \   00000016   9508               RET

   \                                 In  segment CODE, align 2, keep-with-next
   \   __version_3 void CModuleMrXXDriver::~CModuleMrXXDriver for CDfaLite/-11/()
   \                     `?~CModuleMrXXDriver for CDfaLite/-11/`:
   \   00000000   500B               SUBI    R16, 11
   \   00000002   4010               SBCI    R17, 0
   \   00000004   ....               RJMP    `?~CModuleMrXXDriver`

   Maximum stack usage in bytes:

   CSTACK RSTACK Function
   ------ ------ --------
      0      2   CDfaLite::GetFsmState()
      0      2   CDfaLite::SetFsmState(uint8_t)
      0      2   CDriver::SetErrorAlarmData(uint8_t)
      0      2   CModuleMrXXDriver::Allocate(TMemoryAllocationContext &)
        0      2 ?S_EC_MUL_L02
      2      2   CModuleMrXXDriver::CModuleMrXXDriver()
        2      2   -> CDfa::CDfa()
      4      2   CModuleMrXXDriver::CModuleMrXXDriver(uint8_t)
        4      2   -> CDfa::CDfa()
        4      2   -> CDfaLite::SetFsmState(uint8_t)
      3      2   CModuleMrXXDriver::DataExchange()
        3      2   -> CDfaLite::GetFsmState()
        3      2   -> CDfaLite::SetFsmState(uint8_t)
        3      2   -> CModuleMrXXDriver::Exchange()
        3      2   -> CModuleMrXXDriver::WriteDataBase()
     10      2   CModuleMrXXDriver::Exchange()
       10      2   -> CDfaLite::SetFsmState(uint8_t)
       10      2   -> CDriver::SetErrorAlarmData(uint8_t)
       10      2   -> CPss21::ConnectDevice(uint8_t)
       10      2   -> CPss21::DisconnectDevice()
       10      2   -> CSpi::Exchange(uint8_t *, uint8_t *, uint16_t)
       10      2   -> iCrcSummTwoByteCompare(unsigned char *, unsigned int)
       10      2   -> usCrcSummTwoByteCalculation(unsigned char *, unsigned int)
       10      2 ?S_SHL_L02
      6      2   CModuleMrXXDriver::WriteDataBase()
        6      2   -> CPss21::ConnectDevice(uint8_t)
        6      2   -> CPss21::DisconnectDevice()
        6      2   -> CSpi::Exchange(uint8_t *, uint8_t *, uint16_t)
        6      2   -> usCrcSummTwoByteCalculation(unsigned char *, unsigned int)
      0      2   CModuleMrXXDriver::new CModuleMrXXDriver()
        0      2   -> CModuleMrXXDriver::CModuleMrXXDriver()
        0      2   -> operator new(unsigned int)
      1      2   CModuleMrXXDriver::new CModuleMrXXDriver(uint8_t)
        1      2   -> CModuleMrXXDriver::CModuleMrXXDriver(uint8_t)
        1      2   -> operator new(unsigned int)
      0      2   CModuleMrXXDriver::~CModuleMrXXDriver for CDfaLite/-11/()
        0      2   -> CModuleMrXXDriver::~CModuleMrXXDriver()
      4      2   CModuleMrXXDriver::~CModuleMrXXDriver()
        4      2   -> CDfa::~CDfa()
        4      2   -> operator delete(void *)


   Segment part sizes:

   Bytes  Function/Label
   -----  --------------
       6  CDfaLite::GetFsmState()
       6  CDfaLite::SetFsmState(uint8_t)
      14  CDriver::SetErrorAlarmData(uint8_t)
     182  CModuleMrXXDriver::Allocate(TMemoryAllocationContext &)
      44  CModuleMrXXDriver::CModuleMrXXDriver()
      60  CModuleMrXXDriver::CModuleMrXXDriver(uint8_t)
      60  CModuleMrXXDriver::DataExchange()
     714  CModuleMrXXDriver::Exchange()
     194  CModuleMrXXDriver::WriteDataBase()
      24  CModuleMrXXDriver::new CModuleMrXXDriver()
      32  CModuleMrXXDriver::new CModuleMrXXDriver(uint8_t)
       6  CModuleMrXXDriver::~CModuleMrXXDriver for CDfaLite/-11/()
      44  CModuleMrXXDriver::~CModuleMrXXDriver()
       1  _A_ACSR
       2  _A_ADC
       1  _A_ADCSRA
       1  _A_ADMUX
       1  _A_ASSR
       1  _A_DDRA
       1  _A_DDRB
       1  _A_DDRC
       1  _A_DDRD
       1  _A_DDRE
       1  _A_DDRF
       1  _A_DDRG
       2  _A_EEAR
       1  _A_EECR
       1  _A_EEDR
       1  _A_EICRA
       1  _A_EICRB
       1  _A_EIFR
       1  _A_EIMSK
       1  _A_ETIFR
       1  _A_ETIMSK
       2  _A_ICR1
       2  _A_ICR3
       1  _A_MCUCR
       1  _A_MCUCSR
       1  _A_OCDR
       1  _A_OCR0
       2  _A_OCR1A
       2  _A_OCR1B
       2  _A_OCR1C
       1  _A_OCR2
       2  _A_OCR3A
       2  _A_OCR3B
       2  _A_OCR3C
       1  _A_OSCCAL
       1  _A_PINA
       1  _A_PINB
       1  _A_PINC
       1  _A_PIND
       1  _A_PINE
       1  _A_PINF
       1  _A_PING
       1  _A_PORTA
       1  _A_PORTB
       1  _A_PORTC
       1  _A_PORTD
       1  _A_PORTE
       1  _A_PORTF
       1  _A_PORTG
       1  _A_RAMPZ
       1  _A_SFIOR
       2  _A_SP
       1  _A_SPCR
       1  _A_SPDR
       1  _A_SPMCSR
       1  _A_SPSR
       1  _A_SREG
       1  _A_TCCR0
       1  _A_TCCR1A
       1  _A_TCCR1B
       1  _A_TCCR1C
       1  _A_TCCR2
       1  _A_TCCR3A
       1  _A_TCCR3B
       1  _A_TCCR3C
       1  _A_TCNT0
       2  _A_TCNT1
       1  _A_TCNT2
       2  _A_TCNT3
       1  _A_TIFR
       1  _A_TIMSK
       1  _A_TWAR
       1  _A_TWBR
       1  _A_TWCR
       1  _A_TWDR
       1  _A_TWSR
       1  _A_UBRR0H
       1  _A_UBRR0L
       1  _A_UBRR1H
       1  _A_UBRR1L
       1  _A_UCSR0A
       1  _A_UCSR0B
       1  _A_UCSR0C
       1  _A_UCSR1A
       1  _A_UCSR1B
       1  _A_UCSR1C
       1  _A_UDR0
       1  _A_UDR1
       1  _A_WDTCR
       1  _A_XDIV
       1  _A_XMCRA
       1  _A_XMCRB
      32  -- Other

 
   105 bytes in segment ABSOLUTE
 1 386 bytes in segment CODE
    32 bytes in segment NEAR_F
 
 1 386 bytes of CODE memory (+  32 bytes shared)
     0 bytes of DATA memory (+ 105 bytes shared)

Errors: none
Warnings: 7
