###############################################################################
#
# IAR C/C++ Compiler V7.10.6.1378 for Atmel AVR           13/Sep/2024  07:48:24
# Copyright 1996-2018 IAR Systems AB.
#
#    Source file  =  
#        D:\Projects\CurrentProjects\CautoProjects\PSS48Color\src\NotifyerControl.cpp
#    Command line =  
#        -f C:\Users\Admin\AppData\Local\Temp\EW6FC6.tmp
#        (--string_literals_in_flash
#        D:\Projects\CurrentProjects\CautoProjects\PSS48Color\src\NotifyerControl.cpp
#        --cpu=m128a -ms -o
#        D:\Projects\CurrentProjects\CautoProjects\PSS48Color\Debug\Obj -lC
#        D:\Projects\CurrentProjects\CautoProjects\PSS48Color\Debug\List -lB
#        D:\Projects\CurrentProjects\CautoProjects\PSS48Color\Debug\List -y
#        --initializers_in_flash --root_variables --no_cse --no_inline
#        --no_code_motion --no_cross_call --no_clustering --no_tbaa --debug
#        -DENABLE_BIT_DEFINITIONS -e -I
#        D:\Projects\CurrentProjects\CautoProjects\PSS48Color\Modbus\ -I
#        D:\Projects\CurrentProjects\CautoProjects\PSS48Color\include\
#        --eeprom_size 4096 --dlib --dlib_config "C:\Program Files (x86)\IAR
#        Systems\Embedded Workbench 8.0\avr\LIB\DLIB\dlAVR-3s-ec_mul-n.h" -On
#        --eec++)
#    Locale       =  Russian_RUS.1251
#    List file    =  
#        D:\Projects\CurrentProjects\CautoProjects\PSS48Color\Debug\List\NotifyerControl.lst
#    Object file  =  
#        D:\Projects\CurrentProjects\CautoProjects\PSS48Color\Debug\Obj\NotifyerControl.r90
#
###############################################################################

D:\Projects\CurrentProjects\CautoProjects\PSS48Color\src\NotifyerControl.cpp
      1          //-----------------------------------------------------------------------------------------------------
      2          //  Source      : FileName.cpp
      3          //  Created     : 01.06.2022
      4          //  Author      : Alexandr Volvenkin
      5          //  email       : aav-36@mail.ru
      6          //  GitHub      : https://github.com/AlexandrVolvenkin
      7          //-----------------------------------------------------------------------------------------------------
      8          #include "NotifyerControl.h"

   \                                 In  segment CODE, align 2, keep-with-next
   \   __version_3 void CDfaLite::SetFsmState(uint8_t)
   \                     ??SetFsmState:
   \   00000000   01F8               MOVW    R31:R30, R17:R16
   \   00000002   8320               ST      Z, R18
   \   00000004   9508               RET

   \                                 In  segment CODE, align 2, keep-with-next
   \   __version_3 uint8_t CDfaLite::GetFsmState()
   \                     ??GetFsmState:
   \   00000000   01F8               MOVW    R31:R30, R17:R16
   \   00000002   8100               LD      R16, Z
   \   00000004   9508               RET

   \                                 In  segment CODE, align 2, keep-with-next
   \   __version_3 void CDfa::SetSavedFsmState(uint8_t)
   \                     ??SetSavedFsmState:
   \   00000000   01F8               MOVW    R31:R30, R17:R16
   \   00000002   8323               STD     Z+3, R18
   \   00000004   9508               RET

   \                                 In  segment CODE, align 2, keep-with-next
   \   __version_3 uint8_t CDfa::GetSavedFsmState()
   \                     ??GetSavedFsmState:
   \   00000000   01F8               MOVW    R31:R30, R17:R16
   \   00000002   8103               LDD     R16, Z+3
   \   00000004   9508               RET

   \                                 In  segment CODE, align 2, keep-with-next
   \   __version_3 uint16_t CNotifyerControl::NORMAL_SIGNAL_ON_TIME()
   \                     ??NORMAL_SIGNAL_ON_TIME:
   \   00000000   0198               MOVW    R19:R18, R17:R16
   \   00000002   ED00               LDI     R16, 208
   \   00000004   E017               LDI     R17, 7
   \   00000006   9508               RET

   \                                 In  segment CODE, align 2, keep-with-next
   \   __version_3 uint16_t CNotifyerControl::NORMAL_SIGNAL_OFF_TIME()
   \                     ??NORMAL_SIGNAL_OFF_TIME:
   \   00000000   0198               MOVW    R19:R18, R17:R16
   \   00000002   ED00               LDI     R16, 208
   \   00000004   E017               LDI     R17, 7
   \   00000006   9508               RET

   \                                 In  segment CODE, align 2, keep-with-next
   \   __version_3 uint16_t CNotifyerControl::WARNING_SIGNAL_ON_TIME()
   \                     ??WARNING_SIGNAL_ON_TIME:
   \   00000000   0198               MOVW    R19:R18, R17:R16
   \   00000002   E200               LDI     R16, 32
   \   00000004   E013               LDI     R17, 3
   \   00000006   9508               RET

   \                                 In  segment CODE, align 2, keep-with-next
   \   __version_3 uint16_t CNotifyerControl::WARNING_SIGNAL_OFF_TIME()
   \                     ??WARNING_SIGNAL_OFF_TIME:
   \   00000000   0198               MOVW    R19:R18, R17:R16
   \   00000002   E20C               LDI     R16, 44
   \   00000004   E011               LDI     R17, 1
   \   00000006   9508               RET

   \                                 In  segment CODE, align 2, keep-with-next
   \   __version_3 uint16_t CNotifyerControl::ALARM_SIGNAL_ON_TIME()
   \                     ??ALARM_SIGNAL_ON_TIME:
   \   00000000   0198               MOVW    R19:R18, R17:R16
   \   00000002   E20C               LDI     R16, 44
   \   00000004   E011               LDI     R17, 1
   \   00000006   9508               RET

   \                                 In  segment CODE, align 2, keep-with-next
   \   __version_3 uint16_t CNotifyerControl::ALARM_SIGNAL_OFF_TIME()
   \                     ??ALARM_SIGNAL_OFF_TIME:
   \   00000000   0198               MOVW    R19:R18, R17:R16
   \   00000002   E20C               LDI     R16, 44
   \   00000004   E011               LDI     R17, 1
   \   00000006   9508               RET

   \                                 In  segment CODE, align 2, keep-with-next
   \   __version_3 uint16_t CNotifyerControl::ERROR_SIGNAL_ON_TIME()
   \                     ??ERROR_SIGNAL_ON_TIME:
   \   00000000   0198               MOVW    R19:R18, R17:R16
   \   00000002   E906               LDI     R16, 150
   \   00000004   E010               LDI     R17, 0
   \   00000006   9508               RET

   \                                 In  segment CODE, align 2, keep-with-next
   \   __version_3 uint16_t CNotifyerControl::ERROR_SIGNAL_OFF_TIME()
   \                     ??ERROR_SIGNAL_OFF_TIME:
   \   00000000   0198               MOVW    R19:R18, R17:R16
   \   00000002   E906               LDI     R16, 150
   \   00000004   E010               LDI     R17, 0
   \   00000006   9508               RET

   \                                 In  segment CODE, align 2, keep-with-next
   \   __version_3 uint16_t CNotifyerControl::ERROR_SIGNAL_PAUSE_TIME()
   \                     ??ERROR_SIGNAL_PAUSE_TIME:
   \   00000000   0198               MOVW    R19:R18, R17:R16
   \   00000002   EC02               LDI     R16, 194
   \   00000004   E011               LDI     R17, 1
   \   00000006   9508               RET

   \                                 In  segment CODE, align 2, keep-with-next
   \   __version_3 uint16_t CNotifyerControl::BEEP_SIGNAL_ON_TIME()
   \                     ??BEEP_SIGNAL_ON_TIME:
   \   00000000   0198               MOVW    R19:R18, R17:R16
   \   00000002   E302               LDI     R16, 50
   \   00000004   E010               LDI     R17, 0
   \   00000006   9508               RET

   \                                 In  segment CODE, align 2, keep-with-next
   \   __version_3 uint16_t CPreventiveAlarmWindowNotifyerControl::NORMAL_SIGNAL_ON_TIME()
   \                     ??NORMAL_SIGNAL_ON_TIME_1:
   \   00000000   0198               MOVW    R19:R18, R17:R16
   \   00000002   ED00               LDI     R16, 208
   \   00000004   E017               LDI     R17, 7
   \   00000006   9508               RET

   \                                 In  segment CODE, align 2, keep-with-next
   \   __version_3 uint16_t CPreventiveAlarmWindowNotifyerControl::NORMAL_SIGNAL_OFF_TIME()
   \                     ??NORMAL_SIGNAL_OFF_TIME_1:
   \   00000000   0198               MOVW    R19:R18, R17:R16
   \   00000002   ED00               LDI     R16, 208
   \   00000004   E017               LDI     R17, 7
   \   00000006   9508               RET

   \                                 In  segment CODE, align 2, keep-with-next
   \   __version_3 uint16_t CPreventiveAlarmWindowNotifyerControl::WARNING_SIGNAL_ON_TIME()
   \                     ??WARNING_SIGNAL_ON_TIME_1:
   \   00000000   0198               MOVW    R19:R18, R17:R16
   \   00000002   E200               LDI     R16, 32
   \   00000004   E013               LDI     R17, 3
   \   00000006   9508               RET

   \                                 In  segment CODE, align 2, keep-with-next
   \   __version_3 uint16_t CPreventiveAlarmWindowNotifyerControl::WARNING_SIGNAL_OFF_TIME()
   \                     ??WARNING_SIGNAL_OFF_TIME_1:
   \   00000000   0198               MOVW    R19:R18, R17:R16
   \   00000002   E20C               LDI     R16, 44
   \   00000004   E011               LDI     R17, 1
   \   00000006   9508               RET

   \                                 In  segment CODE, align 2, keep-with-next
   \   __version_3 uint16_t CPreventiveAlarmWindowNotifyerControl::ALARM_SIGNAL_ON_TIME()
   \                     ??ALARM_SIGNAL_ON_TIME_1:
   \   00000000   0198               MOVW    R19:R18, R17:R16
   \   00000002   E20C               LDI     R16, 44
   \   00000004   E011               LDI     R17, 1
   \   00000006   9508               RET

   \                                 In  segment CODE, align 2, keep-with-next
   \   __version_3 uint16_t CPreventiveAlarmWindowNotifyerControl::ALARM_SIGNAL_OFF_TIME()
   \                     ??ALARM_SIGNAL_OFF_TIME_1:
   \   00000000   0198               MOVW    R19:R18, R17:R16
   \   00000002   E20C               LDI     R16, 44
   \   00000004   E011               LDI     R17, 1
   \   00000006   9508               RET

   \                                 In  segment CODE, align 2, keep-with-next
   \   __version_3 uint16_t CEmergencyAlarmWindowNotifyerControl::NORMAL_SIGNAL_ON_TIME()
   \                     ??NORMAL_SIGNAL_ON_TIME_2:
   \   00000000   0198               MOVW    R19:R18, R17:R16
   \   00000002   ED00               LDI     R16, 208
   \   00000004   E017               LDI     R17, 7
   \   00000006   9508               RET

   \                                 In  segment CODE, align 2, keep-with-next
   \   __version_3 uint16_t CEmergencyAlarmWindowNotifyerControl::NORMAL_SIGNAL_OFF_TIME()
   \                     ??NORMAL_SIGNAL_OFF_TIME_2:
   \   00000000   0198               MOVW    R19:R18, R17:R16
   \   00000002   ED00               LDI     R16, 208
   \   00000004   E017               LDI     R17, 7
   \   00000006   9508               RET

   \                                 In  segment CODE, align 2, keep-with-next
   \   __version_3 uint16_t CEmergencyAlarmWindowNotifyerControl::WARNING_SIGNAL_ON_TIME()
   \                     ??WARNING_SIGNAL_ON_TIME_2:
   \   00000000   0198               MOVW    R19:R18, R17:R16
   \   00000002   E200               LDI     R16, 32
   \   00000004   E013               LDI     R17, 3
   \   00000006   9508               RET

   \                                 In  segment CODE, align 2, keep-with-next
   \   __version_3 uint16_t CEmergencyAlarmWindowNotifyerControl::WARNING_SIGNAL_OFF_TIME()
   \                     ??WARNING_SIGNAL_OFF_TIME_2:
   \   00000000   0198               MOVW    R19:R18, R17:R16
   \   00000002   E20C               LDI     R16, 44
   \   00000004   E011               LDI     R17, 1
   \   00000006   9508               RET

   \                                 In  segment CODE, align 2, keep-with-next
   \   __version_3 uint16_t CEmergencyAlarmWindowNotifyerControl::ALARM_SIGNAL_ON_TIME()
   \                     ??ALARM_SIGNAL_ON_TIME_2:
   \   00000000   0198               MOVW    R19:R18, R17:R16
   \   00000002   E20C               LDI     R16, 44
   \   00000004   E011               LDI     R17, 1
   \   00000006   9508               RET

   \                                 In  segment CODE, align 2, keep-with-next
   \   __version_3 uint16_t CEmergencyAlarmWindowNotifyerControl::ALARM_SIGNAL_OFF_TIME()
   \                     ??ALARM_SIGNAL_OFF_TIME_2:
   \   00000000   0198               MOVW    R19:R18, R17:R16
   \   00000002   E20C               LDI     R16, 44
   \   00000004   E011               LDI     R17, 1
   \   00000006   9508               RET

   \                                 In  segment CODE, align 2, keep-with-next
   \   __version_3 uint16_t CTestModeNotifyerControl::NORMAL_SIGNAL_ON_TIME()
   \                     ??NORMAL_SIGNAL_ON_TIME_3:
   \   00000000   0198               MOVW    R19:R18, R17:R16
   \   00000002   EE08               LDI     R16, 232
   \   00000004   E013               LDI     R17, 3
   \   00000006   9508               RET

   \                                 In  segment CODE, align 2, keep-with-next
   \   __version_3 uint16_t CTestModeNotifyerControl::NORMAL_SIGNAL_OFF_TIME()
   \                     ??NORMAL_SIGNAL_OFF_TIME_3:
   \   00000000   0198               MOVW    R19:R18, R17:R16
   \   00000002   EE08               LDI     R16, 232
   \   00000004   E013               LDI     R17, 3
   \   00000006   9508               RET

   \                                 In  segment CODE, align 2, keep-with-next
   \   __version_3 uint16_t CTestModeNotifyerControl::WARNING_SIGNAL_ON_TIME()
   \                     ??WARNING_SIGNAL_ON_TIME_3:
   \   00000000   0198               MOVW    R19:R18, R17:R16
   \   00000002   EE08               LDI     R16, 232
   \   00000004   E013               LDI     R17, 3
   \   00000006   9508               RET

   \                                 In  segment CODE, align 2, keep-with-next
   \   __version_3 uint16_t CTestModeNotifyerControl::WARNING_SIGNAL_OFF_TIME()
   \                     ??WARNING_SIGNAL_OFF_TIME_3:
   \   00000000   0198               MOVW    R19:R18, R17:R16
   \   00000002   EE08               LDI     R16, 232
   \   00000004   E013               LDI     R17, 3
   \   00000006   9508               RET

   \                                 In  segment CODE, align 2, keep-with-next
   \   __version_3 uint16_t CTestModeNotifyerControl::ALARM_SIGNAL_ON_TIME()
   \                     ??ALARM_SIGNAL_ON_TIME_3:
   \   00000000   0198               MOVW    R19:R18, R17:R16
   \   00000002   EE08               LDI     R16, 232
   \   00000004   E013               LDI     R17, 3
   \   00000006   9508               RET

   \                                 In  segment CODE, align 2, keep-with-next
   \   __version_3 uint16_t CTestModeNotifyerControl::ALARM_SIGNAL_OFF_TIME()
   \                     ??ALARM_SIGNAL_OFF_TIME_3:
   \   00000000   0198               MOVW    R19:R18, R17:R16
   \   00000002   EE08               LDI     R16, 232
   \   00000004   E013               LDI     R17, 3
   \   00000006   9508               RET
      9          #include "Platform.h"

   \                                 In  segment ABSOLUTE, at 0x9d, root
   \   union <unnamed> volatile __io _A_UCSR1C
   \                     _A_UCSR1C:
   \   00000000                      DS8 1

   \                                 In  segment ABSOLUTE, at 0x9c, root
   \   union <unnamed> volatile __io _A_UDR1
   \                     _A_UDR1:
   \   00000000                      DS8 1

   \                                 In  segment ABSOLUTE, at 0x9b, root
   \   union <unnamed> volatile __io _A_UCSR1A
   \                     _A_UCSR1A:
   \   00000000                      DS8 1

   \                                 In  segment ABSOLUTE, at 0x9a, root
   \   union <unnamed> volatile __io _A_UCSR1B
   \                     _A_UCSR1B:
   \   00000000                      DS8 1

   \                                 In  segment ABSOLUTE, at 0x99, root
   \   union <unnamed> volatile __io _A_UBRR1L
   \                     _A_UBRR1L:
   \   00000000                      DS8 1

   \                                 In  segment ABSOLUTE, at 0x98, root
   \   union <unnamed> volatile __io _A_UBRR1H
   \                     _A_UBRR1H:
   \   00000000                      DS8 1

   \                                 In  segment ABSOLUTE, at 0x95, root
   \   union <unnamed> volatile __io _A_UCSR0C
   \                     _A_UCSR0C:
   \   00000000                      DS8 1

   \                                 In  segment ABSOLUTE, at 0x90, root
   \   union <unnamed> volatile __io _A_UBRR0H
   \                     _A_UBRR0H:
   \   00000000                      DS8 1

   \                                 In  segment ABSOLUTE, at 0x8c, root
   \   union <unnamed> volatile __io _A_TCCR3C
   \                     _A_TCCR3C:
   \   00000000                      DS8 1

   \                                 In  segment ABSOLUTE, at 0x8b, root
   \   union <unnamed> volatile __io _A_TCCR3A
   \                     _A_TCCR3A:
   \   00000000                      DS8 1

   \                                 In  segment ABSOLUTE, at 0x8a, root
   \   union <unnamed> volatile __io _A_TCCR3B
   \                     _A_TCCR3B:
   \   00000000                      DS8 1

   \                                 In  segment ABSOLUTE, at 0x88, root
   \   union <unnamed> volatile __io _A_TCNT3
   \                     _A_TCNT3:
   \   00000000                      DS8 2

   \                                 In  segment ABSOLUTE, at 0x86, root
   \   union <unnamed> volatile __io _A_OCR3A
   \                     _A_OCR3A:
   \   00000000                      DS8 2

   \                                 In  segment ABSOLUTE, at 0x84, root
   \   union <unnamed> volatile __io _A_OCR3B
   \                     _A_OCR3B:
   \   00000000                      DS8 2

   \                                 In  segment ABSOLUTE, at 0x82, root
   \   union <unnamed> volatile __io _A_OCR3C
   \                     _A_OCR3C:
   \   00000000                      DS8 2

   \                                 In  segment ABSOLUTE, at 0x80, root
   \   union <unnamed> volatile __io _A_ICR3
   \                     _A_ICR3:
   \   00000000                      DS8 2

   \                                 In  segment ABSOLUTE, at 0x7d, root
   \   union <unnamed> volatile __io _A_ETIMSK
   \                     _A_ETIMSK:
   \   00000000                      DS8 1

   \                                 In  segment ABSOLUTE, at 0x7c, root
   \   union <unnamed> volatile __io _A_ETIFR
   \                     _A_ETIFR:
   \   00000000                      DS8 1

   \                                 In  segment ABSOLUTE, at 0x7a, root
   \   union <unnamed> volatile __io _A_TCCR1C
   \                     _A_TCCR1C:
   \   00000000                      DS8 1

   \                                 In  segment ABSOLUTE, at 0x78, root
   \   union <unnamed> volatile __io _A_OCR1C
   \                     _A_OCR1C:
   \   00000000                      DS8 2

   \                                 In  segment ABSOLUTE, at 0x74, root
   \   union <unnamed> volatile __io _A_TWCR
   \                     _A_TWCR:
   \   00000000                      DS8 1

   \                                 In  segment ABSOLUTE, at 0x73, root
   \   union <unnamed> volatile __io _A_TWDR
   \                     _A_TWDR:
   \   00000000                      DS8 1

   \                                 In  segment ABSOLUTE, at 0x72, root
   \   union <unnamed> volatile __io _A_TWAR
   \                     _A_TWAR:
   \   00000000                      DS8 1

   \                                 In  segment ABSOLUTE, at 0x71, root
   \   union <unnamed> volatile __io _A_TWSR
   \                     _A_TWSR:
   \   00000000                      DS8 1

   \                                 In  segment ABSOLUTE, at 0x70, root
   \   union <unnamed> volatile __io _A_TWBR
   \                     _A_TWBR:
   \   00000000                      DS8 1

   \                                 In  segment ABSOLUTE, at 0x6f, root
   \   union <unnamed> volatile __io _A_OSCCAL
   \                     _A_OSCCAL:
   \   00000000                      DS8 1

   \                                 In  segment ABSOLUTE, at 0x6d, root
   \   union <unnamed> volatile __io _A_XMCRA
   \                     _A_XMCRA:
   \   00000000                      DS8 1

   \                                 In  segment ABSOLUTE, at 0x6c, root
   \   union <unnamed> volatile __io _A_XMCRB
   \                     _A_XMCRB:
   \   00000000                      DS8 1

   \                                 In  segment ABSOLUTE, at 0x6a, root
   \   union <unnamed> volatile __io _A_EICRA
   \                     _A_EICRA:
   \   00000000                      DS8 1

   \                                 In  segment ABSOLUTE, at 0x68, root
   \   union <unnamed> volatile __io _A_SPMCSR
   \                     _A_SPMCSR:
   \   00000000                      DS8 1

   \                                 In  segment ABSOLUTE, at 0x65, root
   \   union <unnamed> volatile __io _A_PORTG
   \                     _A_PORTG:
   \   00000000                      DS8 1

   \                                 In  segment ABSOLUTE, at 0x64, root
   \   union <unnamed> volatile __io _A_DDRG
   \                     _A_DDRG:
   \   00000000                      DS8 1

   \                                 In  segment ABSOLUTE, at 0x63, root
   \   union <unnamed> volatile __io _A_PING
   \                     _A_PING:
   \   00000000                      DS8 1

   \                                 In  segment ABSOLUTE, at 0x62, root
   \   union <unnamed> volatile __io _A_PORTF
   \                     _A_PORTF:
   \   00000000                      DS8 1

   \                                 In  segment ABSOLUTE, at 0x61, root
   \   union <unnamed> volatile __io _A_DDRF
   \                     _A_DDRF:
   \   00000000                      DS8 1

   \                                 In  segment ABSOLUTE, at 0x5f, root
   \   union <unnamed> volatile __io _A_SREG
   \                     _A_SREG:
   \   00000000                      DS8 1

   \                                 In  segment ABSOLUTE, at 0x5d, root
   \   union <unnamed> volatile __io _A_SP
   \                     _A_SP:
   \   00000000                      DS8 2

   \                                 In  segment ABSOLUTE, at 0x5c, root
   \   union <unnamed> volatile __io _A_XDIV
   \                     _A_XDIV:
   \   00000000                      DS8 1

   \                                 In  segment ABSOLUTE, at 0x5b, root
   \   union <unnamed> volatile __io _A_RAMPZ
   \                     _A_RAMPZ:
   \   00000000                      DS8 1

   \                                 In  segment ABSOLUTE, at 0x5a, root
   \   union <unnamed> volatile __io _A_EICRB
   \                     _A_EICRB:
   \   00000000                      DS8 1

   \                                 In  segment ABSOLUTE, at 0x59, root
   \   union <unnamed> volatile __io _A_EIMSK
   \                     _A_EIMSK:
   \   00000000                      DS8 1

   \                                 In  segment ABSOLUTE, at 0x58, root
   \   union <unnamed> volatile __io _A_EIFR
   \                     _A_EIFR:
   \   00000000                      DS8 1

   \                                 In  segment ABSOLUTE, at 0x57, root
   \   union <unnamed> volatile __io _A_TIMSK
   \                     _A_TIMSK:
   \   00000000                      DS8 1

   \                                 In  segment ABSOLUTE, at 0x56, root
   \   union <unnamed> volatile __io _A_TIFR
   \                     _A_TIFR:
   \   00000000                      DS8 1

   \                                 In  segment ABSOLUTE, at 0x55, root
   \   union <unnamed> volatile __io _A_MCUCR
   \                     _A_MCUCR:
   \   00000000                      DS8 1

   \                                 In  segment ABSOLUTE, at 0x54, root
   \   union <unnamed> volatile __io _A_MCUCSR
   \                     _A_MCUCSR:
   \   00000000                      DS8 1

   \                                 In  segment ABSOLUTE, at 0x53, root
   \   union <unnamed> volatile __io _A_TCCR0
   \                     _A_TCCR0:
   \   00000000                      DS8 1

   \                                 In  segment ABSOLUTE, at 0x52, root
   \   union <unnamed> volatile __io _A_TCNT0
   \                     _A_TCNT0:
   \   00000000                      DS8 1

   \                                 In  segment ABSOLUTE, at 0x51, root
   \   union <unnamed> volatile __io _A_OCR0
   \                     _A_OCR0:
   \   00000000                      DS8 1

   \                                 In  segment ABSOLUTE, at 0x50, root
   \   union <unnamed> volatile __io _A_ASSR
   \                     _A_ASSR:
   \   00000000                      DS8 1

   \                                 In  segment ABSOLUTE, at 0x4f, root
   \   union <unnamed> volatile __io _A_TCCR1A
   \                     _A_TCCR1A:
   \   00000000                      DS8 1

   \                                 In  segment ABSOLUTE, at 0x4e, root
   \   union <unnamed> volatile __io _A_TCCR1B
   \                     _A_TCCR1B:
   \   00000000                      DS8 1

   \                                 In  segment ABSOLUTE, at 0x4c, root
   \   union <unnamed> volatile __io _A_TCNT1
   \                     _A_TCNT1:
   \   00000000                      DS8 2

   \                                 In  segment ABSOLUTE, at 0x4a, root
   \   union <unnamed> volatile __io _A_OCR1A
   \                     _A_OCR1A:
   \   00000000                      DS8 2

   \                                 In  segment ABSOLUTE, at 0x48, root
   \   union <unnamed> volatile __io _A_OCR1B
   \                     _A_OCR1B:
   \   00000000                      DS8 2

   \                                 In  segment ABSOLUTE, at 0x46, root
   \   union <unnamed> volatile __io _A_ICR1
   \                     _A_ICR1:
   \   00000000                      DS8 2

   \                                 In  segment ABSOLUTE, at 0x45, root
   \   union <unnamed> volatile __io _A_TCCR2
   \                     _A_TCCR2:
   \   00000000                      DS8 1

   \                                 In  segment ABSOLUTE, at 0x44, root
   \   union <unnamed> volatile __io _A_TCNT2
   \                     _A_TCNT2:
   \   00000000                      DS8 1

   \                                 In  segment ABSOLUTE, at 0x43, root
   \   union <unnamed> volatile __io _A_OCR2
   \                     _A_OCR2:
   \   00000000                      DS8 1

   \                                 In  segment ABSOLUTE, at 0x42, root
   \   union <unnamed> volatile __io _A_OCDR
   \                     _A_OCDR:
   \   00000000                      DS8 1

   \                                 In  segment ABSOLUTE, at 0x41, root
   \   union <unnamed> volatile __io _A_WDTCR
   \                     _A_WDTCR:
   \   00000000                      DS8 1

   \                                 In  segment ABSOLUTE, at 0x40, root
   \   union <unnamed> volatile __io _A_SFIOR
   \                     _A_SFIOR:
   \   00000000                      DS8 1

   \                                 In  segment ABSOLUTE, at 0x3e, root
   \   union <unnamed> volatile __io _A_EEAR
   \                     _A_EEAR:
   \   00000000                      DS8 2

   \                                 In  segment ABSOLUTE, at 0x3d, root
   \   union <unnamed> volatile __io _A_EEDR
   \                     _A_EEDR:
   \   00000000                      DS8 1

   \                                 In  segment ABSOLUTE, at 0x3c, root
   \   union <unnamed> volatile __io _A_EECR
   \                     _A_EECR:
   \   00000000                      DS8 1

   \                                 In  segment ABSOLUTE, at 0x3b, root
   \   union <unnamed> volatile __io _A_PORTA
   \                     _A_PORTA:
   \   00000000                      DS8 1

   \                                 In  segment ABSOLUTE, at 0x3a, root
   \   union <unnamed> volatile __io _A_DDRA
   \                     _A_DDRA:
   \   00000000                      DS8 1

   \                                 In  segment ABSOLUTE, at 0x39, root
   \   union <unnamed> volatile __io _A_PINA
   \                     _A_PINA:
   \   00000000                      DS8 1

   \                                 In  segment ABSOLUTE, at 0x38, root
   \   union <unnamed> volatile __io _A_PORTB
   \                     _A_PORTB:
   \   00000000                      DS8 1

   \                                 In  segment ABSOLUTE, at 0x37, root
   \   union <unnamed> volatile __io _A_DDRB
   \                     _A_DDRB:
   \   00000000                      DS8 1

   \                                 In  segment ABSOLUTE, at 0x36, root
   \   union <unnamed> volatile __io _A_PINB
   \                     _A_PINB:
   \   00000000                      DS8 1

   \                                 In  segment ABSOLUTE, at 0x35, root
   \   union <unnamed> volatile __io _A_PORTC
   \                     _A_PORTC:
   \   00000000                      DS8 1

   \                                 In  segment ABSOLUTE, at 0x34, root
   \   union <unnamed> volatile __io _A_DDRC
   \                     _A_DDRC:
   \   00000000                      DS8 1

   \                                 In  segment ABSOLUTE, at 0x33, root
   \   union <unnamed> volatile __io _A_PINC
   \                     _A_PINC:
   \   00000000                      DS8 1

   \                                 In  segment ABSOLUTE, at 0x32, root
   \   union <unnamed> volatile __io _A_PORTD
   \                     _A_PORTD:
   \   00000000                      DS8 1

   \                                 In  segment ABSOLUTE, at 0x31, root
   \   union <unnamed> volatile __io _A_DDRD
   \                     _A_DDRD:
   \   00000000                      DS8 1

   \                                 In  segment ABSOLUTE, at 0x30, root
   \   union <unnamed> volatile __io _A_PIND
   \                     _A_PIND:
   \   00000000                      DS8 1

   \                                 In  segment ABSOLUTE, at 0x2f, root
   \   union <unnamed> volatile __io _A_SPDR
   \                     _A_SPDR:
   \   00000000                      DS8 1

   \                                 In  segment ABSOLUTE, at 0x2e, root
   \   union <unnamed> volatile __io _A_SPSR
   \                     _A_SPSR:
   \   00000000                      DS8 1

   \                                 In  segment ABSOLUTE, at 0x2d, root
   \   union <unnamed> volatile __io _A_SPCR
   \                     _A_SPCR:
   \   00000000                      DS8 1

   \                                 In  segment ABSOLUTE, at 0x2c, root
   \   union <unnamed> volatile __io _A_UDR0
   \                     _A_UDR0:
   \   00000000                      DS8 1

   \                                 In  segment ABSOLUTE, at 0x2b, root
   \   union <unnamed> volatile __io _A_UCSR0A
   \                     _A_UCSR0A:
   \   00000000                      DS8 1

   \                                 In  segment ABSOLUTE, at 0x2a, root
   \   union <unnamed> volatile __io _A_UCSR0B
   \                     _A_UCSR0B:
   \   00000000                      DS8 1

   \                                 In  segment ABSOLUTE, at 0x29, root
   \   union <unnamed> volatile __io _A_UBRR0L
   \                     _A_UBRR0L:
   \   00000000                      DS8 1

   \                                 In  segment ABSOLUTE, at 0x28, root
   \   union <unnamed> volatile __io _A_ACSR
   \                     _A_ACSR:
   \   00000000                      DS8 1

   \                                 In  segment ABSOLUTE, at 0x27, root
   \   union <unnamed> volatile __io _A_ADMUX
   \                     _A_ADMUX:
   \   00000000                      DS8 1

   \                                 In  segment ABSOLUTE, at 0x26, root
   \   union <unnamed> volatile __io _A_ADCSRA
   \                     _A_ADCSRA:
   \   00000000                      DS8 1

   \                                 In  segment ABSOLUTE, at 0x24, root
   \   union <unnamed> volatile __io _A_ADC
   \                     _A_ADC:
   \   00000000                      DS8 2

   \                                 In  segment ABSOLUTE, at 0x23, root
   \   union <unnamed> volatile __io _A_PORTE
   \                     _A_PORTE:
   \   00000000                      DS8 1

   \                                 In  segment ABSOLUTE, at 0x22, root
   \   union <unnamed> volatile __io _A_DDRE
   \                     _A_DDRE:
   \   00000000                      DS8 1

   \                                 In  segment ABSOLUTE, at 0x21, root
   \   union <unnamed> volatile __io _A_PINE
   \                     _A_PINE:
   \   00000000                      DS8 1

   \                                 In  segment ABSOLUTE, at 0x20, root
   \   union <unnamed> volatile __io _A_PINF
   \                     _A_PINF:
   \   00000000                      DS8 1

      static __flash TDataBase CFlash::xMainDataBase;
                               ^
"D:\Projects\CurrentProjects\CautoProjects\PSS48Color\include\Platform.h",368  Warning[Pe427]: 
          qualified name is not allowed in member declaration

      static __flash TDataBaseBlockPositionData CFlash::axDataBaseBlocksPositionData[];
                                                ^
"D:\Projects\CurrentProjects\CautoProjects\PSS48Color\include\Platform.h",369  Warning[Pe427]: 
          qualified name is not allowed in member declaration

   \                                 In  segment CODE, align 2, keep-with-next
   \   __version_3 void CPlatform::StatusLedOn()
   \                     ??StatusLedOn:
   \   00000000   98DC               CBI     0x1B, 0x04
   \   00000002   9508               RET
   \   00000004                      REQUIRE _A_PORTA

   \                                 In  segment CODE, align 2, keep-with-next
   \   __version_3 void CPlatform::StatusLedOff()
   \                     ??StatusLedOff:
   \   00000000   9ADC               SBI     0x1B, 0x04
   \   00000002   9508               RET
   \   00000004                      REQUIRE _A_PORTA
     10          #include "Pss21.h"

      virtual bool IsSolved(void) {};
                                   ^
"D:\Projects\CurrentProjects\CautoProjects\PSS48Color\include\Task.h",20  Warning[Pe940]: 
          missing return statement at end of non-void function
          "CTaskInterface::IsSolved"

      virtual bool IsSourceStateActive(void) {};
                                              ^
"D:\Projects\CurrentProjects\CautoProjects\PSS48Color\include\Task.h",23  Warning[Pe940]: 
          missing return statement at end of non-void function
          "CTaskInterface::IsSourceStateActive"

      bool IsSolved(void) {};
                           ^
"D:\Projects\CurrentProjects\CautoProjects\PSS48Color\include\Task.h",58  Warning[Pe940]: 
          missing return statement at end of non-void function
          "CIsRegularButtonPressedInterface::IsSolved"

      virtual bool IsSourceStateActive(void) {};
                                              ^
"D:\Projects\CurrentProjects\CautoProjects\PSS48Color\include\Task.h",61  Warning[Pe940]: 
          missing return statement at end of non-void function
          "CIsRegularButtonPressedInterface::IsSourceStateActive"

      virtual uint16_t KEY_PRESSED_TIME(void) {};
                                               ^
"D:\Projects\CurrentProjects\CautoProjects\PSS48Color\include\Task.h",63  Warning[Pe940]: 
          missing return statement at end of non-void function
          "CIsRegularButtonPressedInterface::KEY_PRESSED_TIME"
     11          #include "Buzzer.h"
     12          
     13          //-----------------------------------------------------------------------------------------------------

   \                                 In  segment CODE, align 2, keep-with-next
     14          CNotifyerControl::CNotifyerControl()
   \                     ??CNotifyerControl:
   \   00000000   93BA               ST      -Y, R27
   \   00000002   93AA               ST      -Y, R26
   \   00000004   01D8               MOVW    R27:R26, R17:R16
     15          {
   \   00000006   018D               MOVW    R17:R16, R27:R26
   \   00000008   ........           CALL    ??CDfa
   \   0000000C   ....               LDI     R16, LOW(??__vtbl)
   \   0000000E   ....               LDI     R17, (??__vtbl) >> 8
   \   00000010   01FD               MOVW    R31:R30, R27:R26
   \   00000012   8301               STD     Z+1, R16
   \   00000014   8312               STD     Z+2, R17
   \   00000016   018D               MOVW    R17:R16, R27:R26
   \   00000018   5F0A               SUBI    R16, 250
   \   0000001A   4F1F               SBCI    R17, 255
   \   0000001C   ........           CALL    ??CTimer
     16              SetFsmState(STOP);
   \   00000020   E225               LDI     R18, 37
   \   00000022   018D               MOVW    R17:R16, R27:R26
   \   00000024   ........           CALL    ??SetFsmState
     17              SetSavedFsmState(STOP);
   \   00000028   E225               LDI     R18, 37
   \   0000002A   018D               MOVW    R17:R16, R27:R26
   \   0000002C   ........           CALL    ??SetSavedFsmState
     18          }
   \   00000030   018D               MOVW    R17:R16, R27:R26
   \   00000032   91A9               LD      R26, Y+
   \   00000034   91B9               LD      R27, Y+
   \   00000036   9508               RET
     19          

   \                                 In  segment CODE, align 2, keep-with-next
     20          CNotifyerControl::~CNotifyerControl()
   \                     `?~CNotifyerControl`:
     21          {
   \   00000000   ........           CALL    ?PROLOGUE4_L09
   \   00000004   01D8               MOVW    R27:R26, R17:R16
   \   00000006   01C9               MOVW    R25:R24, R19:R18
   \   00000008   2F0A               MOV     R16, R26
   \   0000000A   2B0B               OR      R16, R27
   \   0000000C   F0B1               BREQ    `?~CNotifyerControl_1`
   \   0000000E   ....               LDI     R16, LOW(??__vtbl)
   \   00000010   ....               LDI     R17, (??__vtbl) >> 8
   \   00000012   01FD               MOVW    R31:R30, R27:R26
   \   00000014   8301               STD     Z+1, R16
   \   00000016   8312               STD     Z+2, R17
     22          
     23          }
   \   00000018   E022               LDI     R18, 2
   \   0000001A   E030               LDI     R19, 0
   \   0000001C   018D               MOVW    R17:R16, R27:R26
   \   0000001E   5F0A               SUBI    R16, 250
   \   00000020   4F1F               SBCI    R17, 255
   \   00000022   ........           CALL    `?~CTimer`
   \   00000026   E020               LDI     R18, 0
   \   00000028   E030               LDI     R19, 0
   \   0000002A   018D               MOVW    R17:R16, R27:R26
   \   0000002C   ........           CALL    `?~CDfa`
   \   00000030   FB80               BST     R24, 0
   \   00000032   F41E               BRTC    `?~CNotifyerControl_1`
   \   00000034   018D               MOVW    R17:R16, R27:R26
   \   00000036   ........           CALL    `??operator delete`
   \                     `?~CNotifyerControl_1`:
   \   0000003A   E0E4               LDI     R30, 4
   \   0000003C   ........           JMP     ?EPILOGUE_B4_L09
     24          
     25          ////-----------------------------------------------------------------------------------------------------
     26          //void CNotifyerControl::Init(CAlarmWindow* pxAlarmWindowControl)
     27          //{
     28          ////    m_pxAlarmWindowControl = pxAlarmWindowControl;
     29          //    SetFsmState(CNotifyerControl::STOP);
     30          //}
     31          
     32          ////-----------------------------------------------------------------------------------------------------
     33          //void CNotifyerControl::AlarmSet(uint8_t uiAlarmType)
     34          //{
     35          ////    SetSavedFsmState(GetFsmState());
     36          ////    m_uiAlarmType = uiAlarmType;
     37          ////    switch (m_uiAlarmType)
     38          //    switch (uiAlarmType)
     39          //    {
     40          //    case NORMAL:
     41          //        SetFsmState(STOP);
     42          //        break;
     43          //
     44          //    case NORMAL:
     45          //        SetFsmState(NORMAL_SIGNAL_START);
     46          //        break;
     47          //
     48          //    case INDICATION:
     49          //        SetFsmState(INDICATION_SIGNAL_START);
     50          //        break;
     51          //
     52          //    case PREVENTIVE:
     53          //        SetFsmState(WARNING_SIGNAL_START);
     54          //        break;
     55          //
     56          //    case EMERGENCY:
     57          //        SetFsmState(ALARM_SIGNAL_START);
     58          //        break;
     59          //
     60          //    case IND_PREVENTIVE:
     61          //        break;
     62          //
     63          //    case IND_EMERGENCY:
     64          //        break;
     65          //
     66          //    default:
     67          //        break;
     68          //    }
     69          //}
     70          
     71          //class Base
     72          //{
     73          //    const int k;
     74          //public:
     75          //    Base(const int i) :
     76          //        k(i)
     77          //    {
     78          //    }
     79          //    virtual void print() const
     80          //    {
     81          //        std::cout << k << std::endl;
     82          //    }
     83          //};
     84          //class D1 : public Base
     85          //{
     86          //public:
     87          //    D1(const int j) :
     88          //        Base(j)
     89          //    {
     90          //    }
     91          //};
     92          
     93          //-----------------------------------------------------------------------------------------------------

   \                                 In  segment CODE, align 2, keep-with-next
     94          void CNotifyerControl::Fsm(void)
   \                     ??Fsm:
     95          {
   \   00000000   93BA               ST      -Y, R27
   \   00000002   93AA               ST      -Y, R26
   \   00000004   01D8               MOVW    R27:R26, R17:R16
     96              switch (GetFsmState())
   \   00000006   018D               MOVW    R17:R16, R27:R26
   \   00000008   ........           CALL    ??GetFsmState
   \   0000000C   ....               LDI     R30, LOW(`?<Jumptable for Fsm>_0`)
   \   0000000E   ....               LDI     R31, (`?<Jumptable for Fsm>_0`) >> 16
   \   00000010   BFFB               OUT     0x3B, R31
   \   00000012   ....               LDI     R31, HIGH(`?<Jumptable for Fsm>_0`)
   \   00000014   ........           JMP     ?CV_SWITCH_L06
     97              {
     98              case IDDLE:
     99                  break;
    100          
    101              case NORMAL_SIGNAL_START:
    102                  m_xTimer.Set(NORMAL_SIGNAL_ON_TIME());
   \                     ??Fsm_2:
   \   00000018   018D               MOVW    R17:R16, R27:R26
   \   0000001A   9611               ADIW    R27:R26, 1
   \   0000001C   91ED               LD      R30, X+
   \   0000001E   91FC               LD      R31, X
   \   00000020   9712               SBIW    R27:R26, 2
   \   00000022   9670               ADIW    R31:R30, 16
   \   00000024   9125               LPM     R18, Z+
   \   00000026   9134               LPM     R19, Z
   \   00000028   9771               SBIW    R31:R30, 17
   \   0000002A   01F9               MOVW    R31:R30, R19:R18
   \   0000002C   9509               ICALL
   \   0000002E   0198               MOVW    R19:R18, R17:R16
   \   00000030   018D               MOVW    R17:R16, R27:R26
   \   00000032   5F0A               SUBI    R16, 250
   \   00000034   4F1F               SBCI    R17, 255
   \   00000036   ........           CALL    ??Set
    103                  NotifyerNormalOn();
   \   0000003A   018D               MOVW    R17:R16, R27:R26
   \   0000003C   9611               ADIW    R27:R26, 1
   \   0000003E   91ED               LD      R30, X+
   \   00000040   91FC               LD      R31, X
   \   00000042   9712               SBIW    R27:R26, 2
   \   00000044   9634               ADIW    R31:R30, 4
   \   00000046   9125               LPM     R18, Z+
   \   00000048   9134               LPM     R19, Z
   \   0000004A   9735               SBIW    R31:R30, 5
   \   0000004C   01F9               MOVW    R31:R30, R19:R18
   \   0000004E   9509               ICALL
    104                  SetFsmState(NORMAL_SIGNAL_ON);
   \   00000050   E129               LDI     R18, 25
   \   00000052   018D               MOVW    R17:R16, R27:R26
   \   00000054   ........           CALL    ??SetFsmState
    105                  break;
   \   00000058   C26A               RJMP    ??Fsm_3
    106          
    107              case NORMAL_SIGNAL_ON:
    108                  if (m_xTimer.IsOverflow())
   \                     ??Fsm_4:
   \   0000005A   018D               MOVW    R17:R16, R27:R26
   \   0000005C   5F0A               SUBI    R16, 250
   \   0000005E   4F1F               SBCI    R17, 255
   \   00000060   ........           CALL    ??IsOverflow
   \   00000064   2300               TST     R16
   \   00000066   F101               BREQ    ??Fsm_5
    109                  {
    110                      m_xTimer.Set(NORMAL_SIGNAL_OFF_TIME());
   \   00000068   018D               MOVW    R17:R16, R27:R26
   \   0000006A   9611               ADIW    R27:R26, 1
   \   0000006C   91ED               LD      R30, X+
   \   0000006E   91FC               LD      R31, X
   \   00000070   9712               SBIW    R27:R26, 2
   \   00000072   9672               ADIW    R31:R30, 18
   \   00000074   9125               LPM     R18, Z+
   \   00000076   9134               LPM     R19, Z
   \   00000078   9773               SBIW    R31:R30, 19
   \   0000007A   01F9               MOVW    R31:R30, R19:R18
   \   0000007C   9509               ICALL
   \   0000007E   0198               MOVW    R19:R18, R17:R16
   \   00000080   018D               MOVW    R17:R16, R27:R26
   \   00000082   5F0A               SUBI    R16, 250
   \   00000084   4F1F               SBCI    R17, 255
   \   00000086   ........           CALL    ??Set
    111                      NotifyerOff();
   \   0000008A   018D               MOVW    R17:R16, R27:R26
   \   0000008C   9611               ADIW    R27:R26, 1
   \   0000008E   91ED               LD      R30, X+
   \   00000090   91FC               LD      R31, X
   \   00000092   9712               SBIW    R27:R26, 2
   \   00000094   963C               ADIW    R31:R30, 12
   \   00000096   9125               LPM     R18, Z+
   \   00000098   9134               LPM     R19, Z
   \   0000009A   973D               SBIW    R31:R30, 13
   \   0000009C   01F9               MOVW    R31:R30, R19:R18
   \   0000009E   9509               ICALL
    112                      SetFsmState(NORMAL_SIGNAL_OFF);
   \   000000A0   E12A               LDI     R18, 26
   \   000000A2   018D               MOVW    R17:R16, R27:R26
   \   000000A4   ........           CALL    ??SetFsmState
    113                  }
    114                  break;
   \                     ??Fsm_5:
   \   000000A8   C242               RJMP    ??Fsm_3
    115          
    116              case NORMAL_SIGNAL_OFF:
    117                  if (m_xTimer.IsOverflow())
   \                     ??Fsm_6:
   \   000000AA   018D               MOVW    R17:R16, R27:R26
   \   000000AC   5F0A               SUBI    R16, 250
   \   000000AE   4F1F               SBCI    R17, 255
   \   000000B0   ........           CALL    ??IsOverflow
   \   000000B4   2300               TST     R16
   \   000000B6   F101               BREQ    ??Fsm_7
    118                  {
    119                      m_xTimer.Set(NORMAL_SIGNAL_ON_TIME());
   \   000000B8   018D               MOVW    R17:R16, R27:R26
   \   000000BA   9611               ADIW    R27:R26, 1
   \   000000BC   91ED               LD      R30, X+
   \   000000BE   91FC               LD      R31, X
   \   000000C0   9712               SBIW    R27:R26, 2
   \   000000C2   9670               ADIW    R31:R30, 16
   \   000000C4   9125               LPM     R18, Z+
   \   000000C6   9134               LPM     R19, Z
   \   000000C8   9771               SBIW    R31:R30, 17
   \   000000CA   01F9               MOVW    R31:R30, R19:R18
   \   000000CC   9509               ICALL
   \   000000CE   0198               MOVW    R19:R18, R17:R16
   \   000000D0   018D               MOVW    R17:R16, R27:R26
   \   000000D2   5F0A               SUBI    R16, 250
   \   000000D4   4F1F               SBCI    R17, 255
   \   000000D6   ........           CALL    ??Set
    120                      NotifyerNormalOn();
   \   000000DA   018D               MOVW    R17:R16, R27:R26
   \   000000DC   9611               ADIW    R27:R26, 1
   \   000000DE   91ED               LD      R30, X+
   \   000000E0   91FC               LD      R31, X
   \   000000E2   9712               SBIW    R27:R26, 2
   \   000000E4   9634               ADIW    R31:R30, 4
   \   000000E6   9125               LPM     R18, Z+
   \   000000E8   9134               LPM     R19, Z
   \   000000EA   9735               SBIW    R31:R30, 5
   \   000000EC   01F9               MOVW    R31:R30, R19:R18
   \   000000EE   9509               ICALL
    121                      SetFsmState(NORMAL_SIGNAL_ON);
   \   000000F0   E129               LDI     R18, 25
   \   000000F2   018D               MOVW    R17:R16, R27:R26
   \   000000F4   ........           CALL    ??SetFsmState
    122                  }
    123                  break;
   \                     ??Fsm_7:
   \   000000F8   C21A               RJMP    ??Fsm_3
    124          
    125              case INDICATION_SIGNAL_START:
    126                  m_xTimer.Set(NORMAL_SIGNAL_ON_TIME());
   \                     ??Fsm_8:
   \   000000FA   018D               MOVW    R17:R16, R27:R26
   \   000000FC   9611               ADIW    R27:R26, 1
   \   000000FE   91ED               LD      R30, X+
   \   00000100   91FC               LD      R31, X
   \   00000102   9712               SBIW    R27:R26, 2
   \   00000104   9670               ADIW    R31:R30, 16
   \   00000106   9125               LPM     R18, Z+
   \   00000108   9134               LPM     R19, Z
   \   0000010A   9771               SBIW    R31:R30, 17
   \   0000010C   01F9               MOVW    R31:R30, R19:R18
   \   0000010E   9509               ICALL
   \   00000110   0198               MOVW    R19:R18, R17:R16
   \   00000112   018D               MOVW    R17:R16, R27:R26
   \   00000114   5F0A               SUBI    R16, 250
   \   00000116   4F1F               SBCI    R17, 255
   \   00000118   ........           CALL    ??Set
    127                  NotifyerIndicationOn();
   \   0000011C   018D               MOVW    R17:R16, R27:R26
   \   0000011E   9611               ADIW    R27:R26, 1
   \   00000120   91ED               LD      R30, X+
   \   00000122   91FC               LD      R31, X
   \   00000124   9712               SBIW    R27:R26, 2
   \   00000126   9636               ADIW    R31:R30, 6
   \   00000128   9125               LPM     R18, Z+
   \   0000012A   9134               LPM     R19, Z
   \   0000012C   9737               SBIW    R31:R30, 7
   \   0000012E   01F9               MOVW    R31:R30, R19:R18
   \   00000130   9509               ICALL
    128                  SetFsmState(INDICATION_SIGNAL_ON);
   \   00000132   E022               LDI     R18, 2
   \   00000134   018D               MOVW    R17:R16, R27:R26
   \   00000136   ........           CALL    ??SetFsmState
    129                  break;
   \   0000013A   C1F9               RJMP    ??Fsm_3
    130          
    131              case INDICATION_SIGNAL_ON:
    132                  if (m_xTimer.IsOverflow())
   \                     ??Fsm_9:
   \   0000013C   018D               MOVW    R17:R16, R27:R26
   \   0000013E   5F0A               SUBI    R16, 250
   \   00000140   4F1F               SBCI    R17, 255
   \   00000142   ........           CALL    ??IsOverflow
   \   00000146   2300               TST     R16
   \   00000148   F021               BREQ    ??Fsm_10
    133                  {
    134          //            m_xTimer.Set(NORMAL_SIGNAL_OFF_TIME());
    135          //            NotifyerOff();
    136                      SetFsmState(INDICATION_SIGNAL_START);
   \   0000014A   E021               LDI     R18, 1
   \   0000014C   018D               MOVW    R17:R16, R27:R26
   \   0000014E   ........           CALL    ??SetFsmState
    137                  }
    138                  break;
   \                     ??Fsm_10:
   \   00000152   C1ED               RJMP    ??Fsm_3
    139          
    140          //    case INDICATION_SIGNAL_OFF:
    141          ////        if (m_xTimer.IsOverflow())
    142          ////        {
    143          ////            m_xTimer.Set(NORMAL_SIGNAL_ON_TIME());
    144          ////            NotifyerIndicationOn();
    145          ////            SetFsmState(INDICATION_SIGNAL_ON);
    146          ////        }
    147          //        break;
    148          
    149              case WARNING_SIGNAL_START:
    150                  m_xTimer.Set(WARNING_SIGNAL_ON_TIME());
   \                     ??Fsm_11:
   \   00000154   018D               MOVW    R17:R16, R27:R26
   \   00000156   9611               ADIW    R27:R26, 1
   \   00000158   91ED               LD      R30, X+
   \   0000015A   91FC               LD      R31, X
   \   0000015C   9712               SBIW    R27:R26, 2
   \   0000015E   9674               ADIW    R31:R30, 20
   \   00000160   9125               LPM     R18, Z+
   \   00000162   9134               LPM     R19, Z
   \   00000164   9775               SBIW    R31:R30, 21
   \   00000166   01F9               MOVW    R31:R30, R19:R18
   \   00000168   9509               ICALL
   \   0000016A   0198               MOVW    R19:R18, R17:R16
   \   0000016C   018D               MOVW    R17:R16, R27:R26
   \   0000016E   5F0A               SUBI    R16, 250
   \   00000170   4F1F               SBCI    R17, 255
   \   00000172   ........           CALL    ??Set
    151                  NotifyerPreventiveOn();
   \   00000176   018D               MOVW    R17:R16, R27:R26
   \   00000178   9611               ADIW    R27:R26, 1
   \   0000017A   91ED               LD      R30, X+
   \   0000017C   91FC               LD      R31, X
   \   0000017E   9712               SBIW    R27:R26, 2
   \   00000180   9638               ADIW    R31:R30, 8
   \   00000182   9125               LPM     R18, Z+
   \   00000184   9134               LPM     R19, Z
   \   00000186   9739               SBIW    R31:R30, 9
   \   00000188   01F9               MOVW    R31:R30, R19:R18
   \   0000018A   9509               ICALL
    152                  SetFsmState(WARNING_SIGNAL_ON);
   \   0000018C   E028               LDI     R18, 8
   \   0000018E   018D               MOVW    R17:R16, R27:R26
   \   00000190   ........           CALL    ??SetFsmState
    153                  break;
   \   00000194   C1CC               RJMP    ??Fsm_3
    154          
    155              case WARNING_SIGNAL_ON:
    156                  if (m_xTimer.IsOverflow())
   \                     ??Fsm_12:
   \   00000196   018D               MOVW    R17:R16, R27:R26
   \   00000198   5F0A               SUBI    R16, 250
   \   0000019A   4F1F               SBCI    R17, 255
   \   0000019C   ........           CALL    ??IsOverflow
   \   000001A0   2300               TST     R16
   \   000001A2   F101               BREQ    ??Fsm_13
    157                  {
    158                      m_xTimer.Set(WARNING_SIGNAL_OFF_TIME());
   \   000001A4   018D               MOVW    R17:R16, R27:R26
   \   000001A6   9611               ADIW    R27:R26, 1
   \   000001A8   91ED               LD      R30, X+
   \   000001AA   91FC               LD      R31, X
   \   000001AC   9712               SBIW    R27:R26, 2
   \   000001AE   9676               ADIW    R31:R30, 22
   \   000001B0   9125               LPM     R18, Z+
   \   000001B2   9134               LPM     R19, Z
   \   000001B4   9777               SBIW    R31:R30, 23
   \   000001B6   01F9               MOVW    R31:R30, R19:R18
   \   000001B8   9509               ICALL
   \   000001BA   0198               MOVW    R19:R18, R17:R16
   \   000001BC   018D               MOVW    R17:R16, R27:R26
   \   000001BE   5F0A               SUBI    R16, 250
   \   000001C0   4F1F               SBCI    R17, 255
   \   000001C2   ........           CALL    ??Set
    159                      NotifyerOff();
   \   000001C6   018D               MOVW    R17:R16, R27:R26
   \   000001C8   9611               ADIW    R27:R26, 1
   \   000001CA   91ED               LD      R30, X+
   \   000001CC   91FC               LD      R31, X
   \   000001CE   9712               SBIW    R27:R26, 2
   \   000001D0   963C               ADIW    R31:R30, 12
   \   000001D2   9125               LPM     R18, Z+
   \   000001D4   9134               LPM     R19, Z
   \   000001D6   973D               SBIW    R31:R30, 13
   \   000001D8   01F9               MOVW    R31:R30, R19:R18
   \   000001DA   9509               ICALL
    160                      SetFsmState(WARNING_SIGNAL_OFF);
   \   000001DC   E029               LDI     R18, 9
   \   000001DE   018D               MOVW    R17:R16, R27:R26
   \   000001E0   ........           CALL    ??SetFsmState
    161                  }
    162                  break;
   \                     ??Fsm_13:
   \   000001E4   C1A4               RJMP    ??Fsm_3
    163          
    164              case WARNING_SIGNAL_OFF:
    165                  if (m_xTimer.IsOverflow())
   \                     ??Fsm_14:
   \   000001E6   018D               MOVW    R17:R16, R27:R26
   \   000001E8   5F0A               SUBI    R16, 250
   \   000001EA   4F1F               SBCI    R17, 255
   \   000001EC   ........           CALL    ??IsOverflow
   \   000001F0   2300               TST     R16
   \   000001F2   F101               BREQ    ??Fsm_15
    166                  {
    167                      m_xTimer.Set(WARNING_SIGNAL_ON_TIME());
   \   000001F4   018D               MOVW    R17:R16, R27:R26
   \   000001F6   9611               ADIW    R27:R26, 1
   \   000001F8   91ED               LD      R30, X+
   \   000001FA   91FC               LD      R31, X
   \   000001FC   9712               SBIW    R27:R26, 2
   \   000001FE   9674               ADIW    R31:R30, 20
   \   00000200   9125               LPM     R18, Z+
   \   00000202   9134               LPM     R19, Z
   \   00000204   9775               SBIW    R31:R30, 21
   \   00000206   01F9               MOVW    R31:R30, R19:R18
   \   00000208   9509               ICALL
   \   0000020A   0198               MOVW    R19:R18, R17:R16
   \   0000020C   018D               MOVW    R17:R16, R27:R26
   \   0000020E   5F0A               SUBI    R16, 250
   \   00000210   4F1F               SBCI    R17, 255
   \   00000212   ........           CALL    ??Set
    168                      NotifyerPreventiveOn();
   \   00000216   018D               MOVW    R17:R16, R27:R26
   \   00000218   9611               ADIW    R27:R26, 1
   \   0000021A   91ED               LD      R30, X+
   \   0000021C   91FC               LD      R31, X
   \   0000021E   9712               SBIW    R27:R26, 2
   \   00000220   9638               ADIW    R31:R30, 8
   \   00000222   9125               LPM     R18, Z+
   \   00000224   9134               LPM     R19, Z
   \   00000226   9739               SBIW    R31:R30, 9
   \   00000228   01F9               MOVW    R31:R30, R19:R18
   \   0000022A   9509               ICALL
    169                      SetFsmState(WARNING_SIGNAL_ON);
   \   0000022C   E028               LDI     R18, 8
   \   0000022E   018D               MOVW    R17:R16, R27:R26
   \   00000230   ........           CALL    ??SetFsmState
    170                  }
    171                  break;
   \                     ??Fsm_15:
   \   00000234   C17C               RJMP    ??Fsm_3
    172          
    173              case ALARM_SIGNAL_START:
    174                  m_xTimer.Set(ALARM_SIGNAL_ON_TIME());
   \                     ??Fsm_16:
   \   00000236   018D               MOVW    R17:R16, R27:R26
   \   00000238   9611               ADIW    R27:R26, 1
   \   0000023A   91ED               LD      R30, X+
   \   0000023C   91FC               LD      R31, X
   \   0000023E   9712               SBIW    R27:R26, 2
   \   00000240   9678               ADIW    R31:R30, 24
   \   00000242   9125               LPM     R18, Z+
   \   00000244   9134               LPM     R19, Z
   \   00000246   9779               SBIW    R31:R30, 25
   \   00000248   01F9               MOVW    R31:R30, R19:R18
   \   0000024A   9509               ICALL
   \   0000024C   0198               MOVW    R19:R18, R17:R16
   \   0000024E   018D               MOVW    R17:R16, R27:R26
   \   00000250   5F0A               SUBI    R16, 250
   \   00000252   4F1F               SBCI    R17, 255
   \   00000254   ........           CALL    ??Set
    175                  NotifyerEmergencyOn();
   \   00000258   018D               MOVW    R17:R16, R27:R26
   \   0000025A   9611               ADIW    R27:R26, 1
   \   0000025C   91ED               LD      R30, X+
   \   0000025E   91FC               LD      R31, X
   \   00000260   9712               SBIW    R27:R26, 2
   \   00000262   963A               ADIW    R31:R30, 10
   \   00000264   9125               LPM     R18, Z+
   \   00000266   9134               LPM     R19, Z
   \   00000268   973B               SBIW    R31:R30, 11
   \   0000026A   01F9               MOVW    R31:R30, R19:R18
   \   0000026C   9509               ICALL
    176                  SetFsmState(ALARM_SIGNAL_ON);
   \   0000026E   E02E               LDI     R18, 14
   \   00000270   018D               MOVW    R17:R16, R27:R26
   \   00000272   ........           CALL    ??SetFsmState
    177                  break;
   \   00000276   C15B               RJMP    ??Fsm_3
    178          
    179              case ALARM_SIGNAL_ON:
    180                  if (m_xTimer.IsOverflow())
   \                     ??Fsm_17:
   \   00000278   018D               MOVW    R17:R16, R27:R26
   \   0000027A   5F0A               SUBI    R16, 250
   \   0000027C   4F1F               SBCI    R17, 255
   \   0000027E   ........           CALL    ??IsOverflow
   \   00000282   2300               TST     R16
   \   00000284   F101               BREQ    ??Fsm_18
    181                  {
    182                      m_xTimer.Set(ALARM_SIGNAL_OFF_TIME());
   \   00000286   018D               MOVW    R17:R16, R27:R26
   \   00000288   9611               ADIW    R27:R26, 1
   \   0000028A   91ED               LD      R30, X+
   \   0000028C   91FC               LD      R31, X
   \   0000028E   9712               SBIW    R27:R26, 2
   \   00000290   967A               ADIW    R31:R30, 26
   \   00000292   9125               LPM     R18, Z+
   \   00000294   9134               LPM     R19, Z
   \   00000296   977B               SBIW    R31:R30, 27
   \   00000298   01F9               MOVW    R31:R30, R19:R18
   \   0000029A   9509               ICALL
   \   0000029C   0198               MOVW    R19:R18, R17:R16
   \   0000029E   018D               MOVW    R17:R16, R27:R26
   \   000002A0   5F0A               SUBI    R16, 250
   \   000002A2   4F1F               SBCI    R17, 255
   \   000002A4   ........           CALL    ??Set
    183                      NotifyerOff();
   \   000002A8   018D               MOVW    R17:R16, R27:R26
   \   000002AA   9611               ADIW    R27:R26, 1
   \   000002AC   91ED               LD      R30, X+
   \   000002AE   91FC               LD      R31, X
   \   000002B0   9712               SBIW    R27:R26, 2
   \   000002B2   963C               ADIW    R31:R30, 12
   \   000002B4   9125               LPM     R18, Z+
   \   000002B6   9134               LPM     R19, Z
   \   000002B8   973D               SBIW    R31:R30, 13
   \   000002BA   01F9               MOVW    R31:R30, R19:R18
   \   000002BC   9509               ICALL
    184                      SetFsmState(ALARM_SIGNAL_OFF);
   \   000002BE   E02F               LDI     R18, 15
   \   000002C0   018D               MOVW    R17:R16, R27:R26
   \   000002C2   ........           CALL    ??SetFsmState
    185                  }
    186                  break;
   \                     ??Fsm_18:
   \   000002C6   C133               RJMP    ??Fsm_3
    187          
    188              case ALARM_SIGNAL_OFF:
    189                  if (m_xTimer.IsOverflow())
   \                     ??Fsm_19:
   \   000002C8   018D               MOVW    R17:R16, R27:R26
   \   000002CA   5F0A               SUBI    R16, 250
   \   000002CC   4F1F               SBCI    R17, 255
   \   000002CE   ........           CALL    ??IsOverflow
   \   000002D2   2300               TST     R16
   \   000002D4   F101               BREQ    ??Fsm_20
    190                  {
    191                      m_xTimer.Set(ALARM_SIGNAL_ON_TIME());
   \   000002D6   018D               MOVW    R17:R16, R27:R26
   \   000002D8   9611               ADIW    R27:R26, 1
   \   000002DA   91ED               LD      R30, X+
   \   000002DC   91FC               LD      R31, X
   \   000002DE   9712               SBIW    R27:R26, 2
   \   000002E0   9678               ADIW    R31:R30, 24
   \   000002E2   9125               LPM     R18, Z+
   \   000002E4   9134               LPM     R19, Z
   \   000002E6   9779               SBIW    R31:R30, 25
   \   000002E8   01F9               MOVW    R31:R30, R19:R18
   \   000002EA   9509               ICALL
   \   000002EC   0198               MOVW    R19:R18, R17:R16
   \   000002EE   018D               MOVW    R17:R16, R27:R26
   \   000002F0   5F0A               SUBI    R16, 250
   \   000002F2   4F1F               SBCI    R17, 255
   \   000002F4   ........           CALL    ??Set
    192                      NotifyerEmergencyOn();
   \   000002F8   018D               MOVW    R17:R16, R27:R26
   \   000002FA   9611               ADIW    R27:R26, 1
   \   000002FC   91ED               LD      R30, X+
   \   000002FE   91FC               LD      R31, X
   \   00000300   9712               SBIW    R27:R26, 2
   \   00000302   963A               ADIW    R31:R30, 10
   \   00000304   9125               LPM     R18, Z+
   \   00000306   9134               LPM     R19, Z
   \   00000308   973B               SBIW    R31:R30, 11
   \   0000030A   01F9               MOVW    R31:R30, R19:R18
   \   0000030C   9509               ICALL
    193                      SetFsmState(ALARM_SIGNAL_ON);
   \   0000030E   E02E               LDI     R18, 14
   \   00000310   018D               MOVW    R17:R16, R27:R26
   \   00000312   ........           CALL    ??SetFsmState
    194                  }
    195                  break;
   \                     ??Fsm_20:
   \   00000316   C10B               RJMP    ??Fsm_3
    196          
    197              case ERROR_SIGNAL_START:
    198                  m_xTimer.Set(ERROR_SIGNAL_ON_TIME());
   \                     ??Fsm_21:
   \   00000318   018D               MOVW    R17:R16, R27:R26
   \   0000031A   9611               ADIW    R27:R26, 1
   \   0000031C   91ED               LD      R30, X+
   \   0000031E   91FC               LD      R31, X
   \   00000320   9712               SBIW    R27:R26, 2
   \   00000322   967C               ADIW    R31:R30, 28
   \   00000324   9125               LPM     R18, Z+
   \   00000326   9134               LPM     R19, Z
   \   00000328   977D               SBIW    R31:R30, 29
   \   0000032A   01F9               MOVW    R31:R30, R19:R18
   \   0000032C   9509               ICALL
   \   0000032E   0198               MOVW    R19:R18, R17:R16
   \   00000330   018D               MOVW    R17:R16, R27:R26
   \   00000332   5F0A               SUBI    R16, 250
   \   00000334   4F1F               SBCI    R17, 255
   \   00000336   ........           CALL    ??Set
    199                  NotifyerEmergencyOn();
   \   0000033A   018D               MOVW    R17:R16, R27:R26
   \   0000033C   9611               ADIW    R27:R26, 1
   \   0000033E   91ED               LD      R30, X+
   \   00000340   91FC               LD      R31, X
   \   00000342   9712               SBIW    R27:R26, 2
   \   00000344   963A               ADIW    R31:R30, 10
   \   00000346   9125               LPM     R18, Z+
   \   00000348   9134               LPM     R19, Z
   \   0000034A   973B               SBIW    R31:R30, 11
   \   0000034C   01F9               MOVW    R31:R30, R19:R18
   \   0000034E   9509               ICALL
    200                  SetFsmState(ERROR_SIGNAL_ON);
   \   00000350   E124               LDI     R18, 20
   \   00000352   018D               MOVW    R17:R16, R27:R26
   \   00000354   ........           CALL    ??SetFsmState
    201                  break;
   \   00000358   C0EA               RJMP    ??Fsm_3
    202          
    203              case ERROR_SIGNAL_ON:
    204                  if (m_xTimer.IsOverflow())
   \                     ??Fsm_22:
   \   0000035A   018D               MOVW    R17:R16, R27:R26
   \   0000035C   5F0A               SUBI    R16, 250
   \   0000035E   4F1F               SBCI    R17, 255
   \   00000360   ........           CALL    ??IsOverflow
   \   00000364   2300               TST     R16
   \   00000366   F101               BREQ    ??Fsm_23
    205                  {
    206                      m_xTimer.Set(ERROR_SIGNAL_OFF_TIME());
   \   00000368   018D               MOVW    R17:R16, R27:R26
   \   0000036A   9611               ADIW    R27:R26, 1
   \   0000036C   91ED               LD      R30, X+
   \   0000036E   91FC               LD      R31, X
   \   00000370   9712               SBIW    R27:R26, 2
   \   00000372   967E               ADIW    R31:R30, 30
   \   00000374   9125               LPM     R18, Z+
   \   00000376   9134               LPM     R19, Z
   \   00000378   977F               SBIW    R31:R30, 31
   \   0000037A   01F9               MOVW    R31:R30, R19:R18
   \   0000037C   9509               ICALL
   \   0000037E   0198               MOVW    R19:R18, R17:R16
   \   00000380   018D               MOVW    R17:R16, R27:R26
   \   00000382   5F0A               SUBI    R16, 250
   \   00000384   4F1F               SBCI    R17, 255
   \   00000386   ........           CALL    ??Set
    207                      NotifyerOff();
   \   0000038A   018D               MOVW    R17:R16, R27:R26
   \   0000038C   9611               ADIW    R27:R26, 1
   \   0000038E   91ED               LD      R30, X+
   \   00000390   91FC               LD      R31, X
   \   00000392   9712               SBIW    R27:R26, 2
   \   00000394   963C               ADIW    R31:R30, 12
   \   00000396   9125               LPM     R18, Z+
   \   00000398   9134               LPM     R19, Z
   \   0000039A   973D               SBIW    R31:R30, 13
   \   0000039C   01F9               MOVW    R31:R30, R19:R18
   \   0000039E   9509               ICALL
    208                      SetFsmState(ERROR_SIGNAL_OFF);
   \   000003A0   E125               LDI     R18, 21
   \   000003A2   018D               MOVW    R17:R16, R27:R26
   \   000003A4   ........           CALL    ??SetFsmState
    209                  }
    210                  break;
   \                     ??Fsm_23:
   \   000003A8   C0C2               RJMP    ??Fsm_3
    211          
    212              case ERROR_SIGNAL_OFF:
    213                  if (m_xTimer.IsOverflow())
   \                     ??Fsm_24:
   \   000003AA   018D               MOVW    R17:R16, R27:R26
   \   000003AC   5F0A               SUBI    R16, 250
   \   000003AE   4F1F               SBCI    R17, 255
   \   000003B0   ........           CALL    ??IsOverflow
   \   000003B4   2300               TST     R16
   \   000003B6   F101               BREQ    ??Fsm_25
    214                  {
    215                      m_xTimer.Set(ERROR_SIGNAL_ON_TIME());
   \   000003B8   018D               MOVW    R17:R16, R27:R26
   \   000003BA   9611               ADIW    R27:R26, 1
   \   000003BC   91ED               LD      R30, X+
   \   000003BE   91FC               LD      R31, X
   \   000003C0   9712               SBIW    R27:R26, 2
   \   000003C2   967C               ADIW    R31:R30, 28
   \   000003C4   9125               LPM     R18, Z+
   \   000003C6   9134               LPM     R19, Z
   \   000003C8   977D               SBIW    R31:R30, 29
   \   000003CA   01F9               MOVW    R31:R30, R19:R18
   \   000003CC   9509               ICALL
   \   000003CE   0198               MOVW    R19:R18, R17:R16
   \   000003D0   018D               MOVW    R17:R16, R27:R26
   \   000003D2   5F0A               SUBI    R16, 250
   \   000003D4   4F1F               SBCI    R17, 255
   \   000003D6   ........           CALL    ??Set
    216                      NotifyerEmergencyOn();
   \   000003DA   018D               MOVW    R17:R16, R27:R26
   \   000003DC   9611               ADIW    R27:R26, 1
   \   000003DE   91ED               LD      R30, X+
   \   000003E0   91FC               LD      R31, X
   \   000003E2   9712               SBIW    R27:R26, 2
   \   000003E4   963A               ADIW    R31:R30, 10
   \   000003E6   9125               LPM     R18, Z+
   \   000003E8   9134               LPM     R19, Z
   \   000003EA   973B               SBIW    R31:R30, 11
   \   000003EC   01F9               MOVW    R31:R30, R19:R18
   \   000003EE   9509               ICALL
    217                      SetFsmState(ERROR_SIGNAL_ON_2);
   \   000003F0   E126               LDI     R18, 22
   \   000003F2   018D               MOVW    R17:R16, R27:R26
   \   000003F4   ........           CALL    ??SetFsmState
    218                  }
    219                  break;
   \                     ??Fsm_25:
   \   000003F8   C09A               RJMP    ??Fsm_3
    220          
    221              case ERROR_SIGNAL_ON_2:
    222                  if (m_xTimer.IsOverflow())
   \                     ??Fsm_26:
   \   000003FA   018D               MOVW    R17:R16, R27:R26
   \   000003FC   5F0A               SUBI    R16, 250
   \   000003FE   4F1F               SBCI    R17, 255
   \   00000400   ........           CALL    ??IsOverflow
   \   00000404   2300               TST     R16
   \   00000406   F101               BREQ    ??Fsm_27
    223                  {
    224                      m_xTimer.Set(ERROR_SIGNAL_PAUSE_TIME());
   \   00000408   018D               MOVW    R17:R16, R27:R26
   \   0000040A   9611               ADIW    R27:R26, 1
   \   0000040C   91ED               LD      R30, X+
   \   0000040E   91FC               LD      R31, X
   \   00000410   9712               SBIW    R27:R26, 2
   \   00000412   96B0               ADIW    R31:R30, 32
   \   00000414   9125               LPM     R18, Z+
   \   00000416   9134               LPM     R19, Z
   \   00000418   97B1               SBIW    R31:R30, 33
   \   0000041A   01F9               MOVW    R31:R30, R19:R18
   \   0000041C   9509               ICALL
   \   0000041E   0198               MOVW    R19:R18, R17:R16
   \   00000420   018D               MOVW    R17:R16, R27:R26
   \   00000422   5F0A               SUBI    R16, 250
   \   00000424   4F1F               SBCI    R17, 255
   \   00000426   ........           CALL    ??Set
    225                      NotifyerOff();
   \   0000042A   018D               MOVW    R17:R16, R27:R26
   \   0000042C   9611               ADIW    R27:R26, 1
   \   0000042E   91ED               LD      R30, X+
   \   00000430   91FC               LD      R31, X
   \   00000432   9712               SBIW    R27:R26, 2
   \   00000434   963C               ADIW    R31:R30, 12
   \   00000436   9125               LPM     R18, Z+
   \   00000438   9134               LPM     R19, Z
   \   0000043A   973D               SBIW    R31:R30, 13
   \   0000043C   01F9               MOVW    R31:R30, R19:R18
   \   0000043E   9509               ICALL
    226                      SetFsmState(ERROR_SIGNAL_OFF_2);
   \   00000440   E127               LDI     R18, 23
   \   00000442   018D               MOVW    R17:R16, R27:R26
   \   00000444   ........           CALL    ??SetFsmState
    227                  }
    228                  break;
   \                     ??Fsm_27:
   \   00000448   C072               RJMP    ??Fsm_3
    229          
    230              case ERROR_SIGNAL_OFF_2:
    231                  if (m_xTimer.IsOverflow())
   \                     ??Fsm_28:
   \   0000044A   018D               MOVW    R17:R16, R27:R26
   \   0000044C   5F0A               SUBI    R16, 250
   \   0000044E   4F1F               SBCI    R17, 255
   \   00000450   ........           CALL    ??IsOverflow
   \   00000454   2300               TST     R16
   \   00000456   F101               BREQ    ??Fsm_29
    232                  {
    233                      m_xTimer.Set(ERROR_SIGNAL_ON_TIME());
   \   00000458   018D               MOVW    R17:R16, R27:R26
   \   0000045A   9611               ADIW    R27:R26, 1
   \   0000045C   91ED               LD      R30, X+
   \   0000045E   91FC               LD      R31, X
   \   00000460   9712               SBIW    R27:R26, 2
   \   00000462   967C               ADIW    R31:R30, 28
   \   00000464   9125               LPM     R18, Z+
   \   00000466   9134               LPM     R19, Z
   \   00000468   977D               SBIW    R31:R30, 29
   \   0000046A   01F9               MOVW    R31:R30, R19:R18
   \   0000046C   9509               ICALL
   \   0000046E   0198               MOVW    R19:R18, R17:R16
   \   00000470   018D               MOVW    R17:R16, R27:R26
   \   00000472   5F0A               SUBI    R16, 250
   \   00000474   4F1F               SBCI    R17, 255
   \   00000476   ........           CALL    ??Set
    234                      NotifyerEmergencyOn();
   \   0000047A   018D               MOVW    R17:R16, R27:R26
   \   0000047C   9611               ADIW    R27:R26, 1
   \   0000047E   91ED               LD      R30, X+
   \   00000480   91FC               LD      R31, X
   \   00000482   9712               SBIW    R27:R26, 2
   \   00000484   963A               ADIW    R31:R30, 10
   \   00000486   9125               LPM     R18, Z+
   \   00000488   9134               LPM     R19, Z
   \   0000048A   973B               SBIW    R31:R30, 11
   \   0000048C   01F9               MOVW    R31:R30, R19:R18
   \   0000048E   9509               ICALL
    235                      SetFsmState(ERROR_SIGNAL_ON);
   \   00000490   E124               LDI     R18, 20
   \   00000492   018D               MOVW    R17:R16, R27:R26
   \   00000494   ........           CALL    ??SetFsmState
    236                  }
    237                  break;
   \                     ??Fsm_29:
   \   00000498   C04A               RJMP    ??Fsm_3
    238          
    239              case BEEP_SIGNAL_START:
    240                  m_xTimer.Set(BEEP_SIGNAL_ON_TIME());
   \                     ??Fsm_30:
   \   0000049A   018D               MOVW    R17:R16, R27:R26
   \   0000049C   9611               ADIW    R27:R26, 1
   \   0000049E   91ED               LD      R30, X+
   \   000004A0   91FC               LD      R31, X
   \   000004A2   9712               SBIW    R27:R26, 2
   \   000004A4   96B2               ADIW    R31:R30, 34
   \   000004A6   9125               LPM     R18, Z+
   \   000004A8   9134               LPM     R19, Z
   \   000004AA   97B3               SBIW    R31:R30, 35
   \   000004AC   01F9               MOVW    R31:R30, R19:R18
   \   000004AE   9509               ICALL
   \   000004B0   0198               MOVW    R19:R18, R17:R16
   \   000004B2   018D               MOVW    R17:R16, R27:R26
   \   000004B4   5F0A               SUBI    R16, 250
   \   000004B6   4F1F               SBCI    R17, 255
   \   000004B8   ........           CALL    ??Set
    241                  //        NotifyerEmergencyOn();
    242                  NotifyerPreventiveOn();
   \   000004BC   018D               MOVW    R17:R16, R27:R26
   \   000004BE   9611               ADIW    R27:R26, 1
   \   000004C0   91ED               LD      R30, X+
   \   000004C2   91FC               LD      R31, X
   \   000004C4   9712               SBIW    R27:R26, 2
   \   000004C6   9638               ADIW    R31:R30, 8
   \   000004C8   9125               LPM     R18, Z+
   \   000004CA   9134               LPM     R19, Z
   \   000004CC   9739               SBIW    R31:R30, 9
   \   000004CE   01F9               MOVW    R31:R30, R19:R18
   \   000004D0   9509               ICALL
    243                  SetFsmState(BEEP_SIGNAL_ON);
   \   000004D2   E12F               LDI     R18, 31
   \   000004D4   018D               MOVW    R17:R16, R27:R26
   \   000004D6   ........           CALL    ??SetFsmState
    244                  break;
   \   000004DA   C029               RJMP    ??Fsm_3
    245          
    246              case BEEP_SIGNAL_ON:
    247                  if (m_xTimer.IsOverflow())
   \                     ??Fsm_31:
   \   000004DC   018D               MOVW    R17:R16, R27:R26
   \   000004DE   5F0A               SUBI    R16, 250
   \   000004E0   4F1F               SBCI    R17, 255
   \   000004E2   ........           CALL    ??IsOverflow
   \   000004E6   2300               TST     R16
   \   000004E8   F111               BREQ    ??Fsm_3
    248                  {
    249                      NotifyerOff();
   \   000004EA   018D               MOVW    R17:R16, R27:R26
   \   000004EC   9611               ADIW    R27:R26, 1
   \   000004EE   91ED               LD      R30, X+
   \   000004F0   91FC               LD      R31, X
   \   000004F2   9712               SBIW    R27:R26, 2
   \   000004F4   963C               ADIW    R31:R30, 12
   \   000004F6   9125               LPM     R18, Z+
   \   000004F8   9134               LPM     R19, Z
   \   000004FA   973D               SBIW    R31:R30, 13
   \   000004FC   01F9               MOVW    R31:R30, R19:R18
   \   000004FE   9509               ICALL
    250                      //    .
    251                      SetFsmState(GetSavedFsmState());
   \   00000500   018D               MOVW    R17:R16, R27:R26
   \   00000502   ........           CALL    ??GetSavedFsmState
   \   00000506   2F20               MOV     R18, R16
   \   00000508   018D               MOVW    R17:R16, R27:R26
   \   0000050A   ........           CALL    ??SetFsmState
    252          //            SetFsmState(STOP);
    253                  }
    254                  break;
   \   0000050E   C00F               RJMP    ??Fsm_3
    255          
    256              case STOP:
    257                  NotifyerOff();
   \                     ??Fsm_32:
   \   00000510   018D               MOVW    R17:R16, R27:R26
   \   00000512   9611               ADIW    R27:R26, 1
   \   00000514   91ED               LD      R30, X+
   \   00000516   91FC               LD      R31, X
   \   00000518   9712               SBIW    R27:R26, 2
   \   0000051A   963C               ADIW    R31:R30, 12
   \   0000051C   9125               LPM     R18, Z+
   \   0000051E   9134               LPM     R19, Z
   \   00000520   973D               SBIW    R31:R30, 13
   \   00000522   01F9               MOVW    R31:R30, R19:R18
   \   00000524   9509               ICALL
    258                  SetFsmState(IDDLE);
   \   00000526   E020               LDI     R18, 0
   \   00000528   018D               MOVW    R17:R16, R27:R26
   \   0000052A   ........           CALL    ??SetFsmState
    259                  break;
    260          
    261              default:
    262                  break;
    263              };
    264          }
   \                     ??Fsm_3:
   \   0000052E   91A9               LD      R26, Y+
   \   00000530   91B9               LD      R27, Y+
   \   00000532   9508               RET
    265          //-----------------------------------------------------------------------------------------------------
    266          
    267          
    268          
    269          
    270          
    271          
    272          //-----------------------------------------------------------------------------------------------------

   \                                 In  segment CODE, align 2, keep-with-next
    273          CPreventiveAlarmWindowNotifyerControl::CPreventiveAlarmWindowNotifyerControl()
   \                     ??CPreventiveAlarmWindowNotifyerControl:
   \   00000000   93BA               ST      -Y, R27
   \   00000002   93AA               ST      -Y, R26
   \   00000004   01D8               MOVW    R27:R26, R17:R16
    274          {
   \   00000006   018D               MOVW    R17:R16, R27:R26
   \   00000008   ....               RCALL   ??CNotifyerControl
   \   0000000A   ....               LDI     R16, LOW(??__vtbl_1)
   \   0000000C   ....               LDI     R17, (??__vtbl_1) >> 8
   \   0000000E   01FD               MOVW    R31:R30, R27:R26
   \   00000010   8301               STD     Z+1, R16
   \   00000012   8312               STD     Z+2, R17
    275              SetFsmState(STOP);
   \   00000014   E225               LDI     R18, 37
   \   00000016   018D               MOVW    R17:R16, R27:R26
   \   00000018   ........           CALL    ??SetFsmState
    276              SetSavedFsmState(STOP);
   \   0000001C   E225               LDI     R18, 37
   \   0000001E   018D               MOVW    R17:R16, R27:R26
   \   00000020   ........           CALL    ??SetSavedFsmState
    277          }
   \   00000024   018D               MOVW    R17:R16, R27:R26
   \   00000026   91A9               LD      R26, Y+
   \   00000028   91B9               LD      R27, Y+
   \   0000002A   9508               RET
    278          

   \                                 In  segment CODE, align 2, keep-with-next
    279          CPreventiveAlarmWindowNotifyerControl::~CPreventiveAlarmWindowNotifyerControl()
   \                     `?~CPreventiveAlarmWindowNotifyerControl`:
    280          {
   \   00000000   ........           CALL    ?PROLOGUE4_L09
   \   00000004   01C8               MOVW    R25:R24, R17:R16
   \   00000006   01D9               MOVW    R27:R26, R19:R18
   \   00000008   2F08               MOV     R16, R24
   \   0000000A   2B09               OR      R16, R25
   \   0000000C   F069               BREQ    `?~CPreventiveAlarmWindowNotifyerControl_1`
    281              SetFsmState(STOP);
   \   0000000E   E225               LDI     R18, 37
   \   00000010   018C               MOVW    R17:R16, R25:R24
   \   00000012   ........           CALL    ??SetFsmState
    282          }
   \   00000016   E020               LDI     R18, 0
   \   00000018   E030               LDI     R19, 0
   \   0000001A   018C               MOVW    R17:R16, R25:R24
   \   0000001C   ....               RCALL   `?~CNotifyerControl`
   \   0000001E   FBA0               BST     R26, 0
   \   00000020   F41E               BRTC    `?~CPreventiveAlarmWindowNotifyerControl_1`
   \   00000022   018C               MOVW    R17:R16, R25:R24
   \   00000024   ........           CALL    `??operator delete`
   \                     `?~CPreventiveAlarmWindowNotifyerControl_1`:
   \   00000028   E0E4               LDI     R30, 4
   \   0000002A   ........           JMP     ?EPILOGUE_B4_L09
    283          
    284          //-----------------------------------------------------------------------------------------------------

   \                                 In  segment CODE, align 2, keep-with-next
    285          void CPreventiveAlarmWindowNotifyerControl::AlarmSet(uint8_t uiAlarmType)
   \                     ??AlarmSet:
    286          {
   \   00000000   ........           CALL    ?PROLOGUE3_L09
   \   00000004   01C8               MOVW    R25:R24, R17:R16
   \   00000006   2FA2               MOV     R26, R18
    287              //    .
    288              SetSavedFsmState(GetFsmState());
   \   00000008   018C               MOVW    R17:R16, R25:R24
   \   0000000A   ........           CALL    ??GetFsmState
   \   0000000E   2F20               MOV     R18, R16
   \   00000010   018C               MOVW    R17:R16, R25:R24
   \   00000012   ........           CALL    ??SetSavedFsmState
    289              switch (uiAlarmType)
   \   00000016   2F0A               MOV     R16, R26
   \   00000018   5000               SUBI    R16, 0
   \   0000001A   F079               BREQ    ??AlarmSet_5
   \   0000001C   950A               DEC     R16
   \   0000001E   F091               BREQ    ??AlarmSet_6
   \   00000020   950A               DEC     R16
   \   00000022   F0A9               BREQ    ??AlarmSet_7
   \   00000024   950A               DEC     R16
   \   00000026   F0C1               BREQ    ??AlarmSet_8
   \   00000028   950A               DEC     R16
   \   0000002A   F0D1               BREQ    ??AlarmSet_9
   \   0000002C   950A               DEC     R16
   \   0000002E   F0C1               BREQ    ??AlarmSet_9
   \   00000030   5002               SUBI    R16, 2
   \   00000032   F0B1               BREQ    ??AlarmSet_9
   \   00000034   950A               DEC     R16
   \   00000036   F0A1               BREQ    ??AlarmSet_9
   \   00000038   C013               RJMP    ??AlarmSet_9
    290              {
    291              case NORMAL:
    292                  SetFsmState(STOP);
   \                     ??AlarmSet_5:
   \   0000003A   E225               LDI     R18, 37
   \   0000003C   018C               MOVW    R17:R16, R25:R24
   \   0000003E   ........           CALL    ??SetFsmState
    293                  break;
   \   00000042   C00E               RJMP    ??AlarmSet_9
    294          
    295              case INDICATION:
    296                  SetFsmState(INDICATION_SIGNAL_START);
   \                     ??AlarmSet_6:
   \   00000044   E021               LDI     R18, 1
   \   00000046   018C               MOVW    R17:R16, R25:R24
   \   00000048   ........           CALL    ??SetFsmState
    297                  break;
   \   0000004C   C009               RJMP    ??AlarmSet_9
    298          
    299              case PREVENTIVE:
    300                  SetFsmState(WARNING_SIGNAL_START);
   \                     ??AlarmSet_7:
   \   0000004E   E027               LDI     R18, 7
   \   00000050   018C               MOVW    R17:R16, R25:R24
   \   00000052   ........           CALL    ??SetFsmState
    301                  break;
   \   00000056   C004               RJMP    ??AlarmSet_9
    302          
    303              case EMERGENCY:
    304                  SetFsmState(WARNING_SIGNAL_START);
   \                     ??AlarmSet_8:
   \   00000058   E027               LDI     R18, 7
   \   0000005A   018C               MOVW    R17:R16, R25:R24
   \   0000005C   ........           CALL    ??SetFsmState
    305                  break;
    306          
    307              case IND_PREVENTIVE:
    308                  break;
    309          
    310              case IND_EMERGENCY:
    311                  break;
    312          
    313              case ERROR:
    314                  break;
    315          
    316              case BEEP_SIGNAL:
    317                  break;
    318          
    319              default:
    320                  break;
    321              }
    322          }
   \                     ??AlarmSet_9:
   \   00000060   E0E3               LDI     R30, 3
   \   00000062   ........           JMP     ?EPILOGUE_B3_L09
    323          
    324          //-----------------------------------------------------------------------------------------------------

   \                                 In  segment CODE, align 2, keep-with-next
    325          void CPreventiveAlarmWindowNotifyerControl::NotifyerNormalOn(void)
   \                     ??NotifyerNormalOn:
    326          {
    327          
    328          }
   \   00000000   9508               RET
    329          
    330          //-----------------------------------------------------------------------------------------------------

   \                                 In  segment CODE, align 2, keep-with-next
    331          void CPreventiveAlarmWindowNotifyerControl::NotifyerIndicationOn(void)
   \                     ??NotifyerIndicationOn:
    332          {
   \   00000000   939A               ST      -Y, R25
   \   00000002   938A               ST      -Y, R24
   \   00000004   01C8               MOVW    R25:R24, R17:R16
    333              CPss21::ActiveAlarmWindowOn(INDICATION);
   \   00000006   E001               LDI     R16, 1
   \   00000008   ........           CALL    ??ActiveAlarmWindowOn
    334          }
   \   0000000C   9189               LD      R24, Y+
   \   0000000E   9199               LD      R25, Y+
   \   00000010   9508               RET
    335          
    336          //-----------------------------------------------------------------------------------------------------

   \                                 In  segment CODE, align 2, keep-with-next
    337          void CPreventiveAlarmWindowNotifyerControl::NotifyerPreventiveOn(void)
   \                     ??NotifyerPreventiveOn:
    338          {
   \   00000000   939A               ST      -Y, R25
   \   00000002   938A               ST      -Y, R24
   \   00000004   01C8               MOVW    R25:R24, R17:R16
    339              CPss21::ActiveAlarmWindowOn(PREVENTIVE);
   \   00000006   E002               LDI     R16, 2
   \   00000008   ........           CALL    ??ActiveAlarmWindowOn
    340          }
   \   0000000C   9189               LD      R24, Y+
   \   0000000E   9199               LD      R25, Y+
   \   00000010   9508               RET
    341          
    342          //-----------------------------------------------------------------------------------------------------

   \                                 In  segment CODE, align 2, keep-with-next
    343          void CPreventiveAlarmWindowNotifyerControl::NotifyerEmergencyOn(void)
   \                     ??NotifyerEmergencyOn:
    344          {
    345          
    346          }
   \   00000000   9508               RET
    347          
    348          //-----------------------------------------------------------------------------------------------------

   \                                 In  segment CODE, align 2, keep-with-next
    349          void CPreventiveAlarmWindowNotifyerControl::NotifyerOff(void)
   \                     ??NotifyerOff:
    350          {
   \   00000000   939A               ST      -Y, R25
   \   00000002   938A               ST      -Y, R24
   \   00000004   01C8               MOVW    R25:R24, R17:R16
    351              CPss21::ActiveAlarmWindowOff(PREVENTIVE);
   \   00000006   E002               LDI     R16, 2
   \   00000008   ........           CALL    ??ActiveAlarmWindowOff
    352              CPss21::BoardWindowsUpdate();
   \   0000000C   ........           CALL    ??BoardWindowsUpdate
    353          }
   \   00000010   9189               LD      R24, Y+
   \   00000012   9199               LD      R25, Y+
   \   00000014   9508               RET
    354          //-----------------------------------------------------------------------------------------------------
    355          
    356          
    357          
    358          
    359          
    360          
    361          //-----------------------------------------------------------------------------------------------------

   \                                 In  segment CODE, align 2, keep-with-next
    362          CEmergencyAlarmWindowNotifyerControl::CEmergencyAlarmWindowNotifyerControl()
   \                     ??CEmergencyAlarmWindowNotifyerControl:
   \   00000000   93BA               ST      -Y, R27
   \   00000002   93AA               ST      -Y, R26
   \   00000004   01D8               MOVW    R27:R26, R17:R16
    363          {
   \   00000006   018D               MOVW    R17:R16, R27:R26
   \   00000008   ....               RCALL   ??CNotifyerControl
   \   0000000A   ....               LDI     R16, LOW(??__vtbl_2)
   \   0000000C   ....               LDI     R17, (??__vtbl_2) >> 8
   \   0000000E   01FD               MOVW    R31:R30, R27:R26
   \   00000010   8301               STD     Z+1, R16
   \   00000012   8312               STD     Z+2, R17
    364              SetFsmState(STOP);
   \   00000014   E225               LDI     R18, 37
   \   00000016   018D               MOVW    R17:R16, R27:R26
   \   00000018   ........           CALL    ??SetFsmState
    365              SetSavedFsmState(STOP);
   \   0000001C   E225               LDI     R18, 37
   \   0000001E   018D               MOVW    R17:R16, R27:R26
   \   00000020   ........           CALL    ??SetSavedFsmState
    366          }
   \   00000024   018D               MOVW    R17:R16, R27:R26
   \   00000026   91A9               LD      R26, Y+
   \   00000028   91B9               LD      R27, Y+
   \   0000002A   9508               RET
    367          

   \                                 In  segment CODE, align 2, keep-with-next
    368          CEmergencyAlarmWindowNotifyerControl::~CEmergencyAlarmWindowNotifyerControl()
   \                     `?~CEmergencyAlarmWindowNotifyerControl`:
    369          {
   \   00000000   ........           CALL    ?PROLOGUE4_L09
   \   00000004   01C8               MOVW    R25:R24, R17:R16
   \   00000006   01D9               MOVW    R27:R26, R19:R18
   \   00000008   2F08               MOV     R16, R24
   \   0000000A   2B09               OR      R16, R25
   \   0000000C   F069               BREQ    `?~CEmergencyAlarmWindowNotifyerControl_1`
    370              SetFsmState(STOP);
   \   0000000E   E225               LDI     R18, 37
   \   00000010   018C               MOVW    R17:R16, R25:R24
   \   00000012   ........           CALL    ??SetFsmState
    371          }
   \   00000016   E020               LDI     R18, 0
   \   00000018   E030               LDI     R19, 0
   \   0000001A   018C               MOVW    R17:R16, R25:R24
   \   0000001C   ....               RCALL   `?~CNotifyerControl`
   \   0000001E   FBA0               BST     R26, 0
   \   00000020   F41E               BRTC    `?~CEmergencyAlarmWindowNotifyerControl_1`
   \   00000022   018C               MOVW    R17:R16, R25:R24
   \   00000024   ........           CALL    `??operator delete`
   \                     `?~CEmergencyAlarmWindowNotifyerControl_1`:
   \   00000028   E0E4               LDI     R30, 4
   \   0000002A   ........           JMP     ?EPILOGUE_B4_L09
    372          
    373          //-----------------------------------------------------------------------------------------------------

   \                                 In  segment CODE, align 2, keep-with-next
    374          void CEmergencyAlarmWindowNotifyerControl::AlarmSet(uint8_t uiAlarmType)
   \                     ??AlarmSet_1:
    375          {
   \   00000000   ........           CALL    ?PROLOGUE3_L09
   \   00000004   01C8               MOVW    R25:R24, R17:R16
   \   00000006   2FA2               MOV     R26, R18
    376              //    .
    377              SetSavedFsmState(GetFsmState());
   \   00000008   018C               MOVW    R17:R16, R25:R24
   \   0000000A   ........           CALL    ??GetFsmState
   \   0000000E   2F20               MOV     R18, R16
   \   00000010   018C               MOVW    R17:R16, R25:R24
   \   00000012   ........           CALL    ??SetSavedFsmState
    378              switch (uiAlarmType)
   \   00000016   2F0A               MOV     R16, R26
   \   00000018   5000               SUBI    R16, 0
   \   0000001A   F079               BREQ    ??AlarmSet_10
   \   0000001C   950A               DEC     R16
   \   0000001E   F091               BREQ    ??AlarmSet_11
   \   00000020   950A               DEC     R16
   \   00000022   F0A9               BREQ    ??AlarmSet_12
   \   00000024   950A               DEC     R16
   \   00000026   F0C1               BREQ    ??AlarmSet_13
   \   00000028   950A               DEC     R16
   \   0000002A   F0D1               BREQ    ??AlarmSet_14
   \   0000002C   950A               DEC     R16
   \   0000002E   F0C1               BREQ    ??AlarmSet_14
   \   00000030   5002               SUBI    R16, 2
   \   00000032   F0B1               BREQ    ??AlarmSet_14
   \   00000034   950A               DEC     R16
   \   00000036   F0A1               BREQ    ??AlarmSet_14
   \   00000038   C013               RJMP    ??AlarmSet_14
    379              {
    380              case NORMAL:
    381                  SetFsmState(STOP);
   \                     ??AlarmSet_10:
   \   0000003A   E225               LDI     R18, 37
   \   0000003C   018C               MOVW    R17:R16, R25:R24
   \   0000003E   ........           CALL    ??SetFsmState
    382                  break;
   \   00000042   C00E               RJMP    ??AlarmSet_14
    383          
    384              case INDICATION:
    385                  SetFsmState(INDICATION_SIGNAL_START);
   \                     ??AlarmSet_11:
   \   00000044   E021               LDI     R18, 1
   \   00000046   018C               MOVW    R17:R16, R25:R24
   \   00000048   ........           CALL    ??SetFsmState
    386                  break;
   \   0000004C   C009               RJMP    ??AlarmSet_14
    387          
    388              case PREVENTIVE:
    389                  SetFsmState(STOP);
   \                     ??AlarmSet_12:
   \   0000004E   E225               LDI     R18, 37
   \   00000050   018C               MOVW    R17:R16, R25:R24
   \   00000052   ........           CALL    ??SetFsmState
    390                  break;
   \   00000056   C004               RJMP    ??AlarmSet_14
    391          
    392              case EMERGENCY:
    393                  SetFsmState(ALARM_SIGNAL_START);
   \                     ??AlarmSet_13:
   \   00000058   E02D               LDI     R18, 13
   \   0000005A   018C               MOVW    R17:R16, R25:R24
   \   0000005C   ........           CALL    ??SetFsmState
    394                  break;
    395          
    396              case IND_PREVENTIVE:
    397                  break;
    398          
    399              case IND_EMERGENCY:
    400                  break;
    401          
    402              case ERROR:
    403                  break;
    404          
    405              case BEEP_SIGNAL:
    406                  break;
    407          
    408              default:
    409                  break;
    410              }
    411          }
   \                     ??AlarmSet_14:
   \   00000060   E0E3               LDI     R30, 3
   \   00000062   ........           JMP     ?EPILOGUE_B3_L09
    412          
    413          
    414          //-----------------------------------------------------------------------------------------------------

   \                                 In  segment CODE, align 2, keep-with-next
    415          void CEmergencyAlarmWindowNotifyerControl::NotifyerNormalOn(void)
   \                     ??NotifyerNormalOn_1:
    416          {
    417          
    418          }
   \   00000000   9508               RET
    419          
    420          //-----------------------------------------------------------------------------------------------------

   \                                 In  segment CODE, align 2, keep-with-next
    421          void CEmergencyAlarmWindowNotifyerControl::NotifyerIndicationOn(void)
   \                     ??NotifyerIndicationOn_1:
    422          {
   \   00000000   939A               ST      -Y, R25
   \   00000002   938A               ST      -Y, R24
   \   00000004   01C8               MOVW    R25:R24, R17:R16
    423              CPss21::ActiveAlarmWindowOn(INDICATION);
   \   00000006   E001               LDI     R16, 1
   \   00000008   ........           CALL    ??ActiveAlarmWindowOn
    424          }
   \   0000000C   9189               LD      R24, Y+
   \   0000000E   9199               LD      R25, Y+
   \   00000010   9508               RET
    425          
    426          //-----------------------------------------------------------------------------------------------------

   \                                 In  segment CODE, align 2, keep-with-next
    427          void CEmergencyAlarmWindowNotifyerControl::NotifyerPreventiveOn(void)
   \                     ??NotifyerPreventiveOn_1:
    428          {
    429          
    430          }
   \   00000000   9508               RET
    431          
    432          //-----------------------------------------------------------------------------------------------------

   \                                 In  segment CODE, align 2, keep-with-next
    433          void CEmergencyAlarmWindowNotifyerControl::NotifyerEmergencyOn(void)
   \                     ??NotifyerEmergencyOn_1:
    434          {
   \   00000000   939A               ST      -Y, R25
   \   00000002   938A               ST      -Y, R24
   \   00000004   01C8               MOVW    R25:R24, R17:R16
    435              CPss21::ActiveAlarmWindowOn(EMERGENCY);
   \   00000006   E003               LDI     R16, 3
   \   00000008   ........           CALL    ??ActiveAlarmWindowOn
    436          }
   \   0000000C   9189               LD      R24, Y+
   \   0000000E   9199               LD      R25, Y+
   \   00000010   9508               RET
    437          
    438          //-----------------------------------------------------------------------------------------------------

   \                                 In  segment CODE, align 2, keep-with-next
    439          void CEmergencyAlarmWindowNotifyerControl::NotifyerOff(void)
   \                     ??NotifyerOff_1:
    440          {
   \   00000000   939A               ST      -Y, R25
   \   00000002   938A               ST      -Y, R24
   \   00000004   01C8               MOVW    R25:R24, R17:R16
    441              CPss21::ActiveAlarmWindowOff(EMERGENCY);
   \   00000006   E003               LDI     R16, 3
   \   00000008   ........           CALL    ??ActiveAlarmWindowOff
    442              CPss21::BoardWindowsUpdate();
   \   0000000C   ........           CALL    ??BoardWindowsUpdate
    443          }
   \   00000010   9189               LD      R24, Y+
   \   00000012   9199               LD      R25, Y+
   \   00000014   9508               RET
    444          //-----------------------------------------------------------------------------------------------------
    445          
    446          
    447          
    448          
    449          
    450          
    451          
    452          
    453          
    454          //-----------------------------------------------------------------------------------------------------
    455          

   \                                 In  segment CODE, align 2, keep-with-next
    456          CStatusLedNotifyerControl::CStatusLedNotifyerControl()
   \                     ??CStatusLedNotifyerControl:
   \   00000000   93BA               ST      -Y, R27
   \   00000002   93AA               ST      -Y, R26
   \   00000004   01D8               MOVW    R27:R26, R17:R16
    457          {
   \   00000006   018D               MOVW    R17:R16, R27:R26
   \   00000008   ....               RCALL   ??CNotifyerControl
   \   0000000A   ....               LDI     R16, LOW(??__vtbl_7)
   \   0000000C   ....               LDI     R17, (??__vtbl_7) >> 8
   \   0000000E   01FD               MOVW    R31:R30, R27:R26
   \   00000010   8301               STD     Z+1, R16
   \   00000012   8312               STD     Z+2, R17
    458              SetFsmState(NORMAL_SIGNAL_START);
   \   00000014   E128               LDI     R18, 24
   \   00000016   018D               MOVW    R17:R16, R27:R26
   \   00000018   ........           CALL    ??SetFsmState
    459              SetSavedFsmState(NORMAL_SIGNAL_START);
   \   0000001C   E128               LDI     R18, 24
   \   0000001E   018D               MOVW    R17:R16, R27:R26
   \   00000020   ........           CALL    ??SetSavedFsmState
    460          }
   \   00000024   018D               MOVW    R17:R16, R27:R26
   \   00000026   91A9               LD      R26, Y+
   \   00000028   91B9               LD      R27, Y+
   \   0000002A   9508               RET
    461          

   \                                 In  segment CODE, align 2, keep-with-next
    462          CStatusLedNotifyerControl::~CStatusLedNotifyerControl()
   \                     `?~CStatusLedNotifyerControl`:
    463          {
   \   00000000   ........           CALL    ?PROLOGUE4_L09
   \   00000004   01C8               MOVW    R25:R24, R17:R16
   \   00000006   01D9               MOVW    R27:R26, R19:R18
   \   00000008   2F08               MOV     R16, R24
   \   0000000A   2B09               OR      R16, R25
   \   0000000C   F069               BREQ    `?~CStatusLedNotifyerControl_1`
    464              SetFsmState(STOP);
   \   0000000E   E225               LDI     R18, 37
   \   00000010   018C               MOVW    R17:R16, R25:R24
   \   00000012   ........           CALL    ??SetFsmState
    465          }
   \   00000016   E020               LDI     R18, 0
   \   00000018   E030               LDI     R19, 0
   \   0000001A   018C               MOVW    R17:R16, R25:R24
   \   0000001C   ....               RCALL   `?~CNotifyerControl`
   \   0000001E   FBA0               BST     R26, 0
   \   00000020   F41E               BRTC    `?~CStatusLedNotifyerControl_1`
   \   00000022   018C               MOVW    R17:R16, R25:R24
   \   00000024   ........           CALL    `??operator delete`
   \                     `?~CStatusLedNotifyerControl_1`:
   \   00000028   E0E4               LDI     R30, 4
   \   0000002A   ........           JMP     ?EPILOGUE_B4_L09
    466          
    467          //-----------------------------------------------------------------------------------------------------

   \                                 In  segment CODE, align 2, keep-with-next
    468          void CStatusLedNotifyerControl::AlarmSet(uint8_t uiAlarmType)
   \                     ??AlarmSet_3:
    469          {
   \   00000000   ........           CALL    ?PROLOGUE3_L09
   \   00000004   01C8               MOVW    R25:R24, R17:R16
   \   00000006   2FA2               MOV     R26, R18
    470              //    .
    471              SetSavedFsmState(GetFsmState());
   \   00000008   018C               MOVW    R17:R16, R25:R24
   \   0000000A   ........           CALL    ??GetFsmState
   \   0000000E   2F20               MOV     R18, R16
   \   00000010   018C               MOVW    R17:R16, R25:R24
   \   00000012   ........           CALL    ??SetSavedFsmState
    472              switch (uiAlarmType)
   \   00000016   2F0A               MOV     R16, R26
   \   00000018   5000               SUBI    R16, 0
   \   0000001A   F079               BREQ    ??AlarmSet_15
   \   0000001C   950A               DEC     R16
   \   0000001E   F091               BREQ    ??AlarmSet_16
   \   00000020   950A               DEC     R16
   \   00000022   F0A9               BREQ    ??AlarmSet_17
   \   00000024   950A               DEC     R16
   \   00000026   F0C1               BREQ    ??AlarmSet_18
   \   00000028   950A               DEC     R16
   \   0000002A   F0F9               BREQ    ??AlarmSet_19
   \   0000002C   950A               DEC     R16
   \   0000002E   F0E9               BREQ    ??AlarmSet_19
   \   00000030   5002               SUBI    R16, 2
   \   00000032   F0B9               BREQ    ??AlarmSet_20
   \   00000034   950A               DEC     R16
   \   00000036   F0C9               BREQ    ??AlarmSet_19
   \   00000038   C018               RJMP    ??AlarmSet_19
    473              {
    474              case NORMAL:
    475                  SetFsmState(NORMAL_SIGNAL_START);
   \                     ??AlarmSet_15:
   \   0000003A   E128               LDI     R18, 24
   \   0000003C   018C               MOVW    R17:R16, R25:R24
   \   0000003E   ........           CALL    ??SetFsmState
    476                  break;
   \   00000042   C013               RJMP    ??AlarmSet_19
    477          
    478              case INDICATION:
    479                  SetFsmState(NORMAL_SIGNAL_START);
   \                     ??AlarmSet_16:
   \   00000044   E128               LDI     R18, 24
   \   00000046   018C               MOVW    R17:R16, R25:R24
   \   00000048   ........           CALL    ??SetFsmState
    480                  break;
   \   0000004C   C00E               RJMP    ??AlarmSet_19
    481          
    482              case PREVENTIVE:
    483                  SetFsmState(WARNING_SIGNAL_START);
   \                     ??AlarmSet_17:
   \   0000004E   E027               LDI     R18, 7
   \   00000050   018C               MOVW    R17:R16, R25:R24
   \   00000052   ........           CALL    ??SetFsmState
    484                  break;
   \   00000056   C009               RJMP    ??AlarmSet_19
    485          
    486              case EMERGENCY:
    487                  SetFsmState(ALARM_SIGNAL_START);
   \                     ??AlarmSet_18:
   \   00000058   E02D               LDI     R18, 13
   \   0000005A   018C               MOVW    R17:R16, R25:R24
   \   0000005C   ........           CALL    ??SetFsmState
    488                  break;
   \   00000060   C004               RJMP    ??AlarmSet_19
    489          
    490              case IND_PREVENTIVE:
    491                  break;
    492          
    493              case IND_EMERGENCY:
    494                  break;
    495          
    496              case ERROR:
    497                  SetFsmState(ERROR_SIGNAL_START);
   \                     ??AlarmSet_20:
   \   00000062   E123               LDI     R18, 19
   \   00000064   018C               MOVW    R17:R16, R25:R24
   \   00000066   ........           CALL    ??SetFsmState
    498                  break;
    499          
    500              case BEEP_SIGNAL:
    501                  break;
    502          
    503              default:
    504                  break;
    505              }
    506          }
   \                     ??AlarmSet_19:
   \   0000006A   E0E3               LDI     R30, 3
   \   0000006C   ........           JMP     ?EPILOGUE_B3_L09
    507          
    508          //-----------------------------------------------------------------------------------------------------

   \                                 In  segment CODE, align 2, keep-with-next
    509          void CStatusLedNotifyerControl::NotifyerNormalOn(void)
   \                     ??NotifyerNormalOn_3:
    510          {
   \   00000000   939A               ST      -Y, R25
   \   00000002   938A               ST      -Y, R24
   \   00000004   01C8               MOVW    R25:R24, R17:R16
    511              CPlatform::StatusLedOn();
   \   00000006   ........           CALL    ??StatusLedOn
    512          }
   \   0000000A   9189               LD      R24, Y+
   \   0000000C   9199               LD      R25, Y+
   \   0000000E   9508               RET
    513          
    514          //-----------------------------------------------------------------------------------------------------

   \                                 In  segment CODE, align 2, keep-with-next
    515          void CStatusLedNotifyerControl::NotifyerIndicationOn(void)
   \                     ??NotifyerIndicationOn_3:
    516          {
    517          
    518          }
   \   00000000   9508               RET
    519          
    520          //-----------------------------------------------------------------------------------------------------

   \                                 In  segment CODE, align 2, keep-with-next
    521          void CStatusLedNotifyerControl::NotifyerPreventiveOn(void)
   \                     ??NotifyerPreventiveOn_3:
    522          {
   \   00000000   939A               ST      -Y, R25
   \   00000002   938A               ST      -Y, R24
   \   00000004   01C8               MOVW    R25:R24, R17:R16
    523              CPlatform::StatusLedOn();
   \   00000006   ........           CALL    ??StatusLedOn
    524          }
   \   0000000A   9189               LD      R24, Y+
   \   0000000C   9199               LD      R25, Y+
   \   0000000E   9508               RET
    525          
    526          //-----------------------------------------------------------------------------------------------------

   \                                 In  segment CODE, align 2, keep-with-next
    527          void CStatusLedNotifyerControl::NotifyerEmergencyOn(void)
   \                     ??NotifyerEmergencyOn_3:
    528          {
   \   00000000   939A               ST      -Y, R25
   \   00000002   938A               ST      -Y, R24
   \   00000004   01C8               MOVW    R25:R24, R17:R16
    529              CPlatform::StatusLedOn();
   \   00000006   ........           CALL    ??StatusLedOn
    530          }
   \   0000000A   9189               LD      R24, Y+
   \   0000000C   9199               LD      R25, Y+
   \   0000000E   9508               RET
    531          
    532          //-----------------------------------------------------------------------------------------------------

   \                                 In  segment CODE, align 2, keep-with-next
    533          void CStatusLedNotifyerControl::NotifyerOff(void)
   \                     ??NotifyerOff_3:
    534          {
   \   00000000   939A               ST      -Y, R25
   \   00000002   938A               ST      -Y, R24
   \   00000004   01C8               MOVW    R25:R24, R17:R16
    535              CPlatform::StatusLedOff();
   \   00000006   ........           CALL    ??StatusLedOff
    536              CPss21::BoardWindowsUpdate();
   \   0000000A   ........           CALL    ??BoardWindowsUpdate
    537          }
   \   0000000E   9189               LD      R24, Y+
   \   00000010   9199               LD      R25, Y+
   \   00000012   9508               RET
    538          //-----------------------------------------------------------------------------------------------------
    539          
    540          
    541          
    542          
    543          
    544          
    545          //-----------------------------------------------------------------------------------------------------
    546          

   \                                 In  segment CODE, align 2, keep-with-next
    547          CBuzzerNotifyerControl::CBuzzerNotifyerControl()
   \                     ??CBuzzerNotifyerControl:
   \   00000000   93BA               ST      -Y, R27
   \   00000002   93AA               ST      -Y, R26
   \   00000004   01D8               MOVW    R27:R26, R17:R16
    548          {
   \   00000006   018D               MOVW    R17:R16, R27:R26
   \   00000008   ....               RCALL   ??CNotifyerControl
   \   0000000A   ....               LDI     R16, LOW(??__vtbl_8)
   \   0000000C   ....               LDI     R17, (??__vtbl_8) >> 8
   \   0000000E   01FD               MOVW    R31:R30, R27:R26
   \   00000010   8301               STD     Z+1, R16
   \   00000012   8312               STD     Z+2, R17
    549              SetFsmState(STOP);
   \   00000014   E225               LDI     R18, 37
   \   00000016   018D               MOVW    R17:R16, R27:R26
   \   00000018   ........           CALL    ??SetFsmState
    550              SetSavedFsmState(STOP);
   \   0000001C   E225               LDI     R18, 37
   \   0000001E   018D               MOVW    R17:R16, R27:R26
   \   00000020   ........           CALL    ??SetSavedFsmState
    551          }
   \   00000024   018D               MOVW    R17:R16, R27:R26
   \   00000026   91A9               LD      R26, Y+
   \   00000028   91B9               LD      R27, Y+
   \   0000002A   9508               RET
    552          

   \                                 In  segment CODE, align 2, keep-with-next
    553          CBuzzerNotifyerControl::~CBuzzerNotifyerControl()
   \                     `?~CBuzzerNotifyerControl`:
    554          {
   \   00000000   ........           CALL    ?PROLOGUE4_L09
   \   00000004   01C8               MOVW    R25:R24, R17:R16
   \   00000006   01D9               MOVW    R27:R26, R19:R18
   \   00000008   2F08               MOV     R16, R24
   \   0000000A   2B09               OR      R16, R25
   \   0000000C   F069               BREQ    `?~CBuzzerNotifyerControl_1`
    555              SetFsmState(STOP);
   \   0000000E   E225               LDI     R18, 37
   \   00000010   018C               MOVW    R17:R16, R25:R24
   \   00000012   ........           CALL    ??SetFsmState
    556          }
   \   00000016   E020               LDI     R18, 0
   \   00000018   E030               LDI     R19, 0
   \   0000001A   018C               MOVW    R17:R16, R25:R24
   \   0000001C   ....               RCALL   `?~CNotifyerControl`
   \   0000001E   FBA0               BST     R26, 0
   \   00000020   F41E               BRTC    `?~CBuzzerNotifyerControl_1`
   \   00000022   018C               MOVW    R17:R16, R25:R24
   \   00000024   ........           CALL    `??operator delete`
   \                     `?~CBuzzerNotifyerControl_1`:
   \   00000028   E0E4               LDI     R30, 4
   \   0000002A   ........           JMP     ?EPILOGUE_B4_L09
    557          
    558          //-----------------------------------------------------------------------------------------------------

   \                                 In  segment CODE, align 2, keep-with-next
    559          void CBuzzerNotifyerControl::AlarmSet(uint8_t uiAlarmType)
   \                     ??AlarmSet_4:
    560          {
   \   00000000   ........           CALL    ?PROLOGUE3_L09
   \   00000004   01C8               MOVW    R25:R24, R17:R16
   \   00000006   2FA2               MOV     R26, R18
    561              //    .
    562              SetSavedFsmState(GetFsmState());
   \   00000008   018C               MOVW    R17:R16, R25:R24
   \   0000000A   ........           CALL    ??GetFsmState
   \   0000000E   2F20               MOV     R18, R16
   \   00000010   018C               MOVW    R17:R16, R25:R24
   \   00000012   ........           CALL    ??SetSavedFsmState
    563              switch (uiAlarmType)
   \   00000016   2F0A               MOV     R16, R26
   \   00000018   5000               SUBI    R16, 0
   \   0000001A   F079               BREQ    ??AlarmSet_21
   \   0000001C   950A               DEC     R16
   \   0000001E   F091               BREQ    ??AlarmSet_22
   \   00000020   950A               DEC     R16
   \   00000022   F0A9               BREQ    ??AlarmSet_23
   \   00000024   950A               DEC     R16
   \   00000026   F0C1               BREQ    ??AlarmSet_24
   \   00000028   950A               DEC     R16
   \   0000002A   F121               BREQ    ??AlarmSet_25
   \   0000002C   950A               DEC     R16
   \   0000002E   F111               BREQ    ??AlarmSet_25
   \   00000030   5002               SUBI    R16, 2
   \   00000032   F0B9               BREQ    ??AlarmSet_26
   \   00000034   950A               DEC     R16
   \   00000036   F0D1               BREQ    ??AlarmSet_27
   \   00000038   C01D               RJMP    ??AlarmSet_25
    564              {
    565              case NORMAL:
    566                  SetFsmState(STOP);
   \                     ??AlarmSet_21:
   \   0000003A   E225               LDI     R18, 37
   \   0000003C   018C               MOVW    R17:R16, R25:R24
   \   0000003E   ........           CALL    ??SetFsmState
    567                  break;
   \   00000042   C018               RJMP    ??AlarmSet_25
    568          
    569              case INDICATION:
    570                  SetFsmState(STOP);
   \                     ??AlarmSet_22:
   \   00000044   E225               LDI     R18, 37
   \   00000046   018C               MOVW    R17:R16, R25:R24
   \   00000048   ........           CALL    ??SetFsmState
    571                  break;
   \   0000004C   C013               RJMP    ??AlarmSet_25
    572          
    573              case PREVENTIVE:
    574                  SetFsmState(WARNING_SIGNAL_START);
   \                     ??AlarmSet_23:
   \   0000004E   E027               LDI     R18, 7
   \   00000050   018C               MOVW    R17:R16, R25:R24
   \   00000052   ........           CALL    ??SetFsmState
    575                  break;
   \   00000056   C00E               RJMP    ??AlarmSet_25
    576          
    577              case EMERGENCY:
    578                  SetFsmState(ALARM_SIGNAL_START);
   \                     ??AlarmSet_24:
   \   00000058   E02D               LDI     R18, 13
   \   0000005A   018C               MOVW    R17:R16, R25:R24
   \   0000005C   ........           CALL    ??SetFsmState
    579                  break;
   \   00000060   C009               RJMP    ??AlarmSet_25
    580          
    581              case IND_PREVENTIVE:
    582                  break;
    583          
    584              case IND_EMERGENCY:
    585                  break;
    586          
    587              case ERROR:
    588                  SetFsmState(ERROR_SIGNAL_START);
   \                     ??AlarmSet_26:
   \   00000062   E123               LDI     R18, 19
   \   00000064   018C               MOVW    R17:R16, R25:R24
   \   00000066   ........           CALL    ??SetFsmState
    589                  break;
   \   0000006A   C004               RJMP    ??AlarmSet_25
    590          
    591              case BEEP_SIGNAL:
    592                  SetFsmState(BEEP_SIGNAL_START);
   \                     ??AlarmSet_27:
   \   0000006C   E12E               LDI     R18, 30
   \   0000006E   018C               MOVW    R17:R16, R25:R24
   \   00000070   ........           CALL    ??SetFsmState
    593                  break;
    594          
    595              default:
    596                  break;
    597              }
    598          }
   \                     ??AlarmSet_25:
   \   00000074   E0E3               LDI     R30, 3
   \   00000076   ........           JMP     ?EPILOGUE_B3_L09
    599          
    600          //-----------------------------------------------------------------------------------------------------

   \                                 In  segment CODE, align 2, keep-with-next
    601          void CBuzzerNotifyerControl::NotifyerNormalOn(void)
   \                     ??NotifyerNormalOn_4:
    602          {
   \   00000000   939A               ST      -Y, R25
   \   00000002   938A               ST      -Y, R24
   \   00000004   01C8               MOVW    R25:R24, R17:R16
    603              CBuzzer::Off();
   \   00000006   ........           CALL    ??Off
    604          }
   \   0000000A   9189               LD      R24, Y+
   \   0000000C   9199               LD      R25, Y+
   \   0000000E   9508               RET
    605          
    606          //-----------------------------------------------------------------------------------------------------

   \                                 In  segment CODE, align 2, keep-with-next
    607          void CBuzzerNotifyerControl::NotifyerIndicationOn(void)
   \                     ??NotifyerIndicationOn_4:
    608          {
   \   00000000   939A               ST      -Y, R25
   \   00000002   938A               ST      -Y, R24
   \   00000004   01C8               MOVW    R25:R24, R17:R16
    609              CBuzzer::Off();
   \   00000006   ........           CALL    ??Off
    610          }
   \   0000000A   9189               LD      R24, Y+
   \   0000000C   9199               LD      R25, Y+
   \   0000000E   9508               RET
    611          
    612          //-----------------------------------------------------------------------------------------------------

   \                                 In  segment CODE, align 2, keep-with-next
    613          void CBuzzerNotifyerControl::NotifyerPreventiveOn(void)
   \                     ??NotifyerPreventiveOn_4:
    614          {
   \   00000000   939A               ST      -Y, R25
   \   00000002   938A               ST      -Y, R24
   \   00000004   01C8               MOVW    R25:R24, R17:R16
    615              CBuzzer::LowOn();
   \   00000006   ........           CALL    ??LowOn
    616          }
   \   0000000A   9189               LD      R24, Y+
   \   0000000C   9199               LD      R25, Y+
   \   0000000E   9508               RET
    617          
    618          //-----------------------------------------------------------------------------------------------------

   \                                 In  segment CODE, align 2, keep-with-next
    619          void CBuzzerNotifyerControl::NotifyerEmergencyOn(void)
   \                     ??NotifyerEmergencyOn_4:
    620          {
   \   00000000   939A               ST      -Y, R25
   \   00000002   938A               ST      -Y, R24
   \   00000004   01C8               MOVW    R25:R24, R17:R16
    621              CBuzzer::HighOn();
   \   00000006   ........           CALL    ??HighOn
    622          }
   \   0000000A   9189               LD      R24, Y+
   \   0000000C   9199               LD      R25, Y+
   \   0000000E   9508               RET
    623          
    624          //-----------------------------------------------------------------------------------------------------

   \                                 In  segment CODE, align 2, keep-with-next
    625          void CBuzzerNotifyerControl::NotifyerOff(void)
   \                     ??NotifyerOff_4:
    626          {
   \   00000000   939A               ST      -Y, R25
   \   00000002   938A               ST      -Y, R24
   \   00000004   01C8               MOVW    R25:R24, R17:R16
    627              CBuzzer::Off();
   \   00000006   ........           CALL    ??Off
    628              CPss21::BoardWindowsUpdate();
   \   0000000A   ........           CALL    ??BoardWindowsUpdate
    629          }
   \   0000000E   9189               LD      R24, Y+
   \   00000010   9199               LD      R25, Y+
   \   00000012   9508               RET
    630          //-----------------------------------------------------------------------------------------------------
    631          
    632          
    633          
    634          
    635          
    636          
    637          
    638          //-----------------------------------------------------------------------------------------------------

   \                                 In  segment CODE, align 2, keep-with-next
    639          CTestModeNotifyerControl::CTestModeNotifyerControl()
   \                     ??CTestModeNotifyerControl:
   \   00000000   93BA               ST      -Y, R27
   \   00000002   93AA               ST      -Y, R26
   \   00000004   01D8               MOVW    R27:R26, R17:R16
    640          {
   \   00000006   018D               MOVW    R17:R16, R27:R26
   \   00000008   ....               RCALL   ??CNotifyerControl
   \   0000000A   ....               LDI     R16, LOW(??__vtbl_3)
   \   0000000C   ....               LDI     R17, (??__vtbl_3) >> 8
   \   0000000E   01FD               MOVW    R31:R30, R27:R26
   \   00000010   8301               STD     Z+1, R16
   \   00000012   8312               STD     Z+2, R17
    641              SetFsmState(STOP);
   \   00000014   E225               LDI     R18, 37
   \   00000016   018D               MOVW    R17:R16, R27:R26
   \   00000018   ........           CALL    ??SetFsmState
    642              SetSavedFsmState(STOP);
   \   0000001C   E225               LDI     R18, 37
   \   0000001E   018D               MOVW    R17:R16, R27:R26
   \   00000020   ........           CALL    ??SetSavedFsmState
    643          }
   \   00000024   018D               MOVW    R17:R16, R27:R26
   \   00000026   91A9               LD      R26, Y+
   \   00000028   91B9               LD      R27, Y+
   \   0000002A   9508               RET
    644          

   \                                 In  segment CODE, align 2, keep-with-next
    645          CTestModeNotifyerControl::~CTestModeNotifyerControl()
   \                     `?~CTestModeNotifyerControl`:
    646          {
   \   00000000   ........           CALL    ?PROLOGUE4_L09
   \   00000004   01C8               MOVW    R25:R24, R17:R16
   \   00000006   01D9               MOVW    R27:R26, R19:R18
   \   00000008   2F08               MOV     R16, R24
   \   0000000A   2B09               OR      R16, R25
   \   0000000C   F069               BREQ    `?~CTestModeNotifyerControl_1`
    647              SetFsmState(STOP);
   \   0000000E   E225               LDI     R18, 37
   \   00000010   018C               MOVW    R17:R16, R25:R24
   \   00000012   ........           CALL    ??SetFsmState
    648          }
   \   00000016   E020               LDI     R18, 0
   \   00000018   E030               LDI     R19, 0
   \   0000001A   018C               MOVW    R17:R16, R25:R24
   \   0000001C   ....               RCALL   `?~CNotifyerControl`
   \   0000001E   FBA0               BST     R26, 0
   \   00000020   F41E               BRTC    `?~CTestModeNotifyerControl_1`
   \   00000022   018C               MOVW    R17:R16, R25:R24
   \   00000024   ........           CALL    `??operator delete`
   \                     `?~CTestModeNotifyerControl_1`:
   \   00000028   E0E4               LDI     R30, 4
   \   0000002A   ........           JMP     ?EPILOGUE_B4_L09
    649          
    650          //-----------------------------------------------------------------------------------------------------

   \                                 In  segment CODE, align 2, keep-with-next
    651          void CTestModeNotifyerControl::AlarmSet(uint8_t uiAlarmType)
   \                     ??AlarmSet_2:
    652          {
    653          //    //    .
    654          //    SetSavedFsmState(GetFsmState());
    655          //    switch (uiAlarmType)
    656          //    {
    657          //    case NORMAL:
    658          //        SetFsmState(STOP);
    659          //        break;
    660          //
    661          //    case INDICATION:
    662          //        SetFsmState(INDICATION_SIGNAL_START);
    663          //        break;
    664          //
    665          //    case PREVENTIVE:
    666          //        SetFsmState(WARNING_SIGNAL_START);
    667          //        break;
    668          //
    669          //    case EMERGENCY:
    670          //        SetFsmState(WARNING_SIGNAL_START);
    671          //        break;
    672          //
    673          //    case IND_PREVENTIVE:
    674          //        break;
    675          //
    676          //    case IND_EMERGENCY:
    677          //        break;
    678          //
    679          //    case ERROR:
    680          //        break;
    681          //
    682          //    case BEEP_SIGNAL:
    683          //        break;
    684          //
    685          //    default:
    686          //        break;
    687          //    }
    688          }
   \   00000000   9508               RET
    689          
    690          //-----------------------------------------------------------------------------------------------------

   \                                 In  segment CODE, align 2, keep-with-next
    691          void CTestModeNotifyerControl::NotifyerNormalOn(void)
   \                     ??NotifyerNormalOn_2:
    692          {
   \   00000000   939A               ST      -Y, R25
   \   00000002   938A               ST      -Y, R24
   \   00000004   01C8               MOVW    R25:R24, R17:R16
    693              CPss21::AllAlarmWindowOn(INDICATION);
   \   00000006   E001               LDI     R16, 1
   \   00000008   ........           CALL    ??AllAlarmWindowOn
    694              CBuzzer::LowOn();
   \   0000000C   ........           CALL    ??LowOn
    695          }
   \   00000010   9189               LD      R24, Y+
   \   00000012   9199               LD      R25, Y+
   \   00000014   9508               RET
    696          
    697          //-----------------------------------------------------------------------------------------------------

   \                                 In  segment CODE, align 2, keep-with-next
    698          void CTestModeNotifyerControl::NotifyerIndicationOn(void)
   \                     ??NotifyerIndicationOn_2:
    699          {
   \   00000000   939A               ST      -Y, R25
   \   00000002   938A               ST      -Y, R24
   \   00000004   01C8               MOVW    R25:R24, R17:R16
    700              CPss21::AllAlarmWindowOn(INDICATION);
   \   00000006   E001               LDI     R16, 1
   \   00000008   ........           CALL    ??AllAlarmWindowOn
    701              CBuzzer::LowOn();
   \   0000000C   ........           CALL    ??LowOn
    702          }
   \   00000010   9189               LD      R24, Y+
   \   00000012   9199               LD      R25, Y+
   \   00000014   9508               RET
    703          
    704          //-----------------------------------------------------------------------------------------------------

   \                                 In  segment CODE, align 2, keep-with-next
    705          void CTestModeNotifyerControl::NotifyerPreventiveOn(void)
   \                     ??NotifyerPreventiveOn_2:
    706          {
   \   00000000   939A               ST      -Y, R25
   \   00000002   938A               ST      -Y, R24
   \   00000004   01C8               MOVW    R25:R24, R17:R16
    707              CPss21::AllAlarmWindowOn(PREVENTIVE);
   \   00000006   E002               LDI     R16, 2
   \   00000008   ........           CALL    ??AllAlarmWindowOn
    708              CBuzzer::LowOn();
   \   0000000C   ........           CALL    ??LowOn
    709          }
   \   00000010   9189               LD      R24, Y+
   \   00000012   9199               LD      R25, Y+
   \   00000014   9508               RET
    710          
    711          //-----------------------------------------------------------------------------------------------------

   \                                 In  segment CODE, align 2, keep-with-next
    712          void CTestModeNotifyerControl::NotifyerEmergencyOn(void)
   \                     ??NotifyerEmergencyOn_2:
    713          {
   \   00000000   939A               ST      -Y, R25
   \   00000002   938A               ST      -Y, R24
   \   00000004   01C8               MOVW    R25:R24, R17:R16
    714              CPss21::AllAlarmWindowOn(EMERGENCY);
   \   00000006   E003               LDI     R16, 3
   \   00000008   ........           CALL    ??AllAlarmWindowOn
    715              CBuzzer::LowOn();
   \   0000000C   ........           CALL    ??LowOn
    716          }
   \   00000010   9189               LD      R24, Y+
   \   00000012   9199               LD      R25, Y+
   \   00000014   9508               RET
    717          
    718          //-----------------------------------------------------------------------------------------------------

   \                                 In  segment CODE, align 2, keep-with-next
    719          void CTestModeNotifyerControl::NotifyerOff(void)
   \                     ??NotifyerOff_2:
    720          {
   \   00000000   939A               ST      -Y, R25
   \   00000002   938A               ST      -Y, R24
   \   00000004   01C8               MOVW    R25:R24, R17:R16
    721              CBuzzer::Off();
   \   00000006   ........           CALL    ??Off
    722              CPss21::AllAlarmWindowOff();
   \   0000000A   ........           CALL    ??AllAlarmWindowOff
    723              CPss21::BoardWindowsUpdate();
   \   0000000E   ........           CALL    ??BoardWindowsUpdate
    724          }
   \   00000012   9189               LD      R24, Y+
   \   00000014   9199               LD      R25, Y+
   \   00000016   9508               RET
    725          
    726          //-----------------------------------------------------------------------------------------------------

   \                                 In  segment CODE, align 2, keep-with-next
    727          void CTestModeNotifyerControl::Fsm(void)
   \                     ??Fsm_1:
    728          {
   \   00000000   93BA               ST      -Y, R27
   \   00000002   93AA               ST      -Y, R26
   \   00000004   01D8               MOVW    R27:R26, R17:R16
    729              switch (GetFsmState())
   \   00000006   018D               MOVW    R17:R16, R27:R26
   \   00000008   ........           CALL    ??GetFsmState
   \   0000000C   5000               SUBI    R16, 0
   \   0000000E   F0E9               BREQ    ??Fsm_33
   \   00000010   950A               DEC     R16
   \   00000012   F0E1               BREQ    ??Fsm_34
   \   00000014   950A               DEC     R16
   \   00000016   F1D9               BREQ    ??Fsm_35
   \   00000018   950A               DEC     R16
   \   0000001A   F409               BRNE    $+2+2
   \   0000001C   C060               RJMP    ??Fsm_36
   \   0000001E   5004               SUBI    R16, 4
   \   00000020   F409               BRNE    $+2+2
   \   00000022   C069               RJMP    ??Fsm_37
   \   00000024   950A               DEC     R16
   \   00000026   F409               BRNE    $+2+2
   \   00000028   C087               RJMP    ??Fsm_38
   \   0000002A   950A               DEC     R16
   \   0000002C   F409               BRNE    $+2+2
   \   0000002E   C0AC               RJMP    ??Fsm_39
   \   00000030   5004               SUBI    R16, 4
   \   00000032   F409               BRNE    $+2+2
   \   00000034   C0B5               RJMP    ??Fsm_40
   \   00000036   950A               DEC     R16
   \   00000038   F409               BRNE    $+2+2
   \   0000003A   C0D3               RJMP    ??Fsm_41
   \   0000003C   950A               DEC     R16
   \   0000003E   F409               BRNE    $+2+2
   \   00000040   C0F8               RJMP    ??Fsm_42
   \   00000042   5106               SUBI    R16, 22
   \   00000044   F409               BRNE    $+2+2
   \   00000046   C101               RJMP    ??Fsm_43
   \   00000048   C10F               RJMP    ??Fsm_44
    730              {
    731              case IDDLE:
    732                  break;
   \                     ??Fsm_33:
   \   0000004A   C10E               RJMP    ??Fsm_44
    733          
    734              case INDICATION_SIGNAL_START:
    735                  m_xTimer.Set(NORMAL_SIGNAL_ON_TIME());
   \                     ??Fsm_34:
   \   0000004C   018D               MOVW    R17:R16, R27:R26
   \   0000004E   9611               ADIW    R27:R26, 1
   \   00000050   91ED               LD      R30, X+
   \   00000052   91FC               LD      R31, X
   \   00000054   9712               SBIW    R27:R26, 2
   \   00000056   9670               ADIW    R31:R30, 16
   \   00000058   9125               LPM     R18, Z+
   \   0000005A   9134               LPM     R19, Z
   \   0000005C   9771               SBIW    R31:R30, 17
   \   0000005E   01F9               MOVW    R31:R30, R19:R18
   \   00000060   9509               ICALL
   \   00000062   0198               MOVW    R19:R18, R17:R16
   \   00000064   018D               MOVW    R17:R16, R27:R26
   \   00000066   5F0A               SUBI    R16, 250
   \   00000068   4F1F               SBCI    R17, 255
   \   0000006A   ........           CALL    ??Set
    736                  NotifyerIndicationOn();
   \   0000006E   018D               MOVW    R17:R16, R27:R26
   \   00000070   9611               ADIW    R27:R26, 1
   \   00000072   91ED               LD      R30, X+
   \   00000074   91FC               LD      R31, X
   \   00000076   9712               SBIW    R27:R26, 2
   \   00000078   9636               ADIW    R31:R30, 6
   \   0000007A   9125               LPM     R18, Z+
   \   0000007C   9134               LPM     R19, Z
   \   0000007E   9737               SBIW    R31:R30, 7
   \   00000080   01F9               MOVW    R31:R30, R19:R18
   \   00000082   9509               ICALL
    737                  SetFsmState(INDICATION_SIGNAL_ON);
   \   00000084   E022               LDI     R18, 2
   \   00000086   018D               MOVW    R17:R16, R27:R26
   \   00000088   ........           CALL    ??SetFsmState
    738                  break;
   \   0000008C   C0ED               RJMP    ??Fsm_44
    739          
    740              case INDICATION_SIGNAL_ON:
    741                  if (m_xTimer.IsOverflow())
   \                     ??Fsm_35:
   \   0000008E   018D               MOVW    R17:R16, R27:R26
   \   00000090   5F0A               SUBI    R16, 250
   \   00000092   4F1F               SBCI    R17, 255
   \   00000094   ........           CALL    ??IsOverflow
   \   00000098   2300               TST     R16
   \   0000009A   F101               BREQ    ??Fsm_45
    742                  {
    743                      m_xTimer.Set(NORMAL_SIGNAL_OFF_TIME());
   \   0000009C   018D               MOVW    R17:R16, R27:R26
   \   0000009E   9611               ADIW    R27:R26, 1
   \   000000A0   91ED               LD      R30, X+
   \   000000A2   91FC               LD      R31, X
   \   000000A4   9712               SBIW    R27:R26, 2
   \   000000A6   9672               ADIW    R31:R30, 18
   \   000000A8   9125               LPM     R18, Z+
   \   000000AA   9134               LPM     R19, Z
   \   000000AC   9773               SBIW    R31:R30, 19
   \   000000AE   01F9               MOVW    R31:R30, R19:R18
   \   000000B0   9509               ICALL
   \   000000B2   0198               MOVW    R19:R18, R17:R16
   \   000000B4   018D               MOVW    R17:R16, R27:R26
   \   000000B6   5F0A               SUBI    R16, 250
   \   000000B8   4F1F               SBCI    R17, 255
   \   000000BA   ........           CALL    ??Set
    744                      NotifyerOff();
   \   000000BE   018D               MOVW    R17:R16, R27:R26
   \   000000C0   9611               ADIW    R27:R26, 1
   \   000000C2   91ED               LD      R30, X+
   \   000000C4   91FC               LD      R31, X
   \   000000C6   9712               SBIW    R27:R26, 2
   \   000000C8   963C               ADIW    R31:R30, 12
   \   000000CA   9125               LPM     R18, Z+
   \   000000CC   9134               LPM     R19, Z
   \   000000CE   973D               SBIW    R31:R30, 13
   \   000000D0   01F9               MOVW    R31:R30, R19:R18
   \   000000D2   9509               ICALL
    745                      SetFsmState(INDICATION_SIGNAL_OFF);
   \   000000D4   E023               LDI     R18, 3
   \   000000D6   018D               MOVW    R17:R16, R27:R26
   \   000000D8   ........           CALL    ??SetFsmState
    746                  }
    747                  break;
   \                     ??Fsm_45:
   \   000000DC   C0C5               RJMP    ??Fsm_44
    748          
    749              case INDICATION_SIGNAL_OFF:
    750                  if (m_xTimer.IsOverflow())
   \                     ??Fsm_36:
   \   000000DE   018D               MOVW    R17:R16, R27:R26
   \   000000E0   5F0A               SUBI    R16, 250
   \   000000E2   4F1F               SBCI    R17, 255
   \   000000E4   ........           CALL    ??IsOverflow
   \   000000E8   2300               TST     R16
   \   000000EA   F021               BREQ    ??Fsm_46
    751                  {
    752                      SetFsmState(WARNING_SIGNAL_START);
   \   000000EC   E027               LDI     R18, 7
   \   000000EE   018D               MOVW    R17:R16, R27:R26
   \   000000F0   ........           CALL    ??SetFsmState
    753                  }
    754                  break;
   \                     ??Fsm_46:
   \   000000F4   C0B9               RJMP    ??Fsm_44
    755          
    756              case WARNING_SIGNAL_START:
    757                  m_xTimer.Set(WARNING_SIGNAL_ON_TIME());
   \                     ??Fsm_37:
   \   000000F6   018D               MOVW    R17:R16, R27:R26
   \   000000F8   9611               ADIW    R27:R26, 1
   \   000000FA   91ED               LD      R30, X+
   \   000000FC   91FC               LD      R31, X
   \   000000FE   9712               SBIW    R27:R26, 2
   \   00000100   9674               ADIW    R31:R30, 20
   \   00000102   9125               LPM     R18, Z+
   \   00000104   9134               LPM     R19, Z
   \   00000106   9775               SBIW    R31:R30, 21
   \   00000108   01F9               MOVW    R31:R30, R19:R18
   \   0000010A   9509               ICALL
   \   0000010C   0198               MOVW    R19:R18, R17:R16
   \   0000010E   018D               MOVW    R17:R16, R27:R26
   \   00000110   5F0A               SUBI    R16, 250
   \   00000112   4F1F               SBCI    R17, 255
   \   00000114   ........           CALL    ??Set
    758                  NotifyerPreventiveOn();
   \   00000118   018D               MOVW    R17:R16, R27:R26
   \   0000011A   9611               ADIW    R27:R26, 1
   \   0000011C   91ED               LD      R30, X+
   \   0000011E   91FC               LD      R31, X
   \   00000120   9712               SBIW    R27:R26, 2
   \   00000122   9638               ADIW    R31:R30, 8
   \   00000124   9125               LPM     R18, Z+
   \   00000126   9134               LPM     R19, Z
   \   00000128   9739               SBIW    R31:R30, 9
   \   0000012A   01F9               MOVW    R31:R30, R19:R18
   \   0000012C   9509               ICALL
    759                  SetFsmState(WARNING_SIGNAL_ON);
   \   0000012E   E028               LDI     R18, 8
   \   00000130   018D               MOVW    R17:R16, R27:R26
   \   00000132   ........           CALL    ??SetFsmState
    760                  break;
   \   00000136   C098               RJMP    ??Fsm_44
    761          
    762              case WARNING_SIGNAL_ON:
    763                  if (m_xTimer.IsOverflow())
   \                     ??Fsm_38:
   \   00000138   018D               MOVW    R17:R16, R27:R26
   \   0000013A   5F0A               SUBI    R16, 250
   \   0000013C   4F1F               SBCI    R17, 255
   \   0000013E   ........           CALL    ??IsOverflow
   \   00000142   2300               TST     R16
   \   00000144   F101               BREQ    ??Fsm_47
    764                  {
    765                      m_xTimer.Set(WARNING_SIGNAL_OFF_TIME());
   \   00000146   018D               MOVW    R17:R16, R27:R26
   \   00000148   9611               ADIW    R27:R26, 1
   \   0000014A   91ED               LD      R30, X+
   \   0000014C   91FC               LD      R31, X
   \   0000014E   9712               SBIW    R27:R26, 2
   \   00000150   9676               ADIW    R31:R30, 22
   \   00000152   9125               LPM     R18, Z+
   \   00000154   9134               LPM     R19, Z
   \   00000156   9777               SBIW    R31:R30, 23
   \   00000158   01F9               MOVW    R31:R30, R19:R18
   \   0000015A   9509               ICALL
   \   0000015C   0198               MOVW    R19:R18, R17:R16
   \   0000015E   018D               MOVW    R17:R16, R27:R26
   \   00000160   5F0A               SUBI    R16, 250
   \   00000162   4F1F               SBCI    R17, 255
   \   00000164   ........           CALL    ??Set
    766                      NotifyerOff();
   \   00000168   018D               MOVW    R17:R16, R27:R26
   \   0000016A   9611               ADIW    R27:R26, 1
   \   0000016C   91ED               LD      R30, X+
   \   0000016E   91FC               LD      R31, X
   \   00000170   9712               SBIW    R27:R26, 2
   \   00000172   963C               ADIW    R31:R30, 12
   \   00000174   9125               LPM     R18, Z+
   \   00000176   9134               LPM     R19, Z
   \   00000178   973D               SBIW    R31:R30, 13
   \   0000017A   01F9               MOVW    R31:R30, R19:R18
   \   0000017C   9509               ICALL
    767                      SetFsmState(WARNING_SIGNAL_OFF);
   \   0000017E   E029               LDI     R18, 9
   \   00000180   018D               MOVW    R17:R16, R27:R26
   \   00000182   ........           CALL    ??SetFsmState
    768                  }
    769                  break;
   \                     ??Fsm_47:
   \   00000186   C070               RJMP    ??Fsm_44
    770          
    771              case WARNING_SIGNAL_OFF:
    772                  if (m_xTimer.IsOverflow())
   \                     ??Fsm_39:
   \   00000188   018D               MOVW    R17:R16, R27:R26
   \   0000018A   5F0A               SUBI    R16, 250
   \   0000018C   4F1F               SBCI    R17, 255
   \   0000018E   ........           CALL    ??IsOverflow
   \   00000192   2300               TST     R16
   \   00000194   F021               BREQ    ??Fsm_48
    773                  {
    774                      SetFsmState(ALARM_SIGNAL_START);
   \   00000196   E02D               LDI     R18, 13
   \   00000198   018D               MOVW    R17:R16, R27:R26
   \   0000019A   ........           CALL    ??SetFsmState
    775                  }
    776                  break;
   \                     ??Fsm_48:
   \   0000019E   C064               RJMP    ??Fsm_44
    777          
    778              case ALARM_SIGNAL_START:
    779                  m_xTimer.Set(ALARM_SIGNAL_ON_TIME());
   \                     ??Fsm_40:
   \   000001A0   018D               MOVW    R17:R16, R27:R26
   \   000001A2   9611               ADIW    R27:R26, 1
   \   000001A4   91ED               LD      R30, X+
   \   000001A6   91FC               LD      R31, X
   \   000001A8   9712               SBIW    R27:R26, 2
   \   000001AA   9678               ADIW    R31:R30, 24
   \   000001AC   9125               LPM     R18, Z+
   \   000001AE   9134               LPM     R19, Z
   \   000001B0   9779               SBIW    R31:R30, 25
   \   000001B2   01F9               MOVW    R31:R30, R19:R18
   \   000001B4   9509               ICALL
   \   000001B6   0198               MOVW    R19:R18, R17:R16
   \   000001B8   018D               MOVW    R17:R16, R27:R26
   \   000001BA   5F0A               SUBI    R16, 250
   \   000001BC   4F1F               SBCI    R17, 255
   \   000001BE   ........           CALL    ??Set
    780                  NotifyerEmergencyOn();
   \   000001C2   018D               MOVW    R17:R16, R27:R26
   \   000001C4   9611               ADIW    R27:R26, 1
   \   000001C6   91ED               LD      R30, X+
   \   000001C8   91FC               LD      R31, X
   \   000001CA   9712               SBIW    R27:R26, 2
   \   000001CC   963A               ADIW    R31:R30, 10
   \   000001CE   9125               LPM     R18, Z+
   \   000001D0   9134               LPM     R19, Z
   \   000001D2   973B               SBIW    R31:R30, 11
   \   000001D4   01F9               MOVW    R31:R30, R19:R18
   \   000001D6   9509               ICALL
    781                  SetFsmState(ALARM_SIGNAL_ON);
   \   000001D8   E02E               LDI     R18, 14
   \   000001DA   018D               MOVW    R17:R16, R27:R26
   \   000001DC   ........           CALL    ??SetFsmState
    782                  break;
   \   000001E0   C043               RJMP    ??Fsm_44
    783          
    784              case ALARM_SIGNAL_ON:
    785                  if (m_xTimer.IsOverflow())
   \                     ??Fsm_41:
   \   000001E2   018D               MOVW    R17:R16, R27:R26
   \   000001E4   5F0A               SUBI    R16, 250
   \   000001E6   4F1F               SBCI    R17, 255
   \   000001E8   ........           CALL    ??IsOverflow
   \   000001EC   2300               TST     R16
   \   000001EE   F1E1               BREQ    ??Fsm_44
    786                  {
    787                      m_xTimer.Set(ALARM_SIGNAL_OFF_TIME());
   \   000001F0   018D               MOVW    R17:R16, R27:R26
   \   000001F2   9611               ADIW    R27:R26, 1
   \   000001F4   91ED               LD      R30, X+
   \   000001F6   91FC               LD      R31, X
   \   000001F8   9712               SBIW    R27:R26, 2
   \   000001FA   967A               ADIW    R31:R30, 26
   \   000001FC   9125               LPM     R18, Z+
   \   000001FE   9134               LPM     R19, Z
   \   00000200   977B               SBIW    R31:R30, 27
   \   00000202   01F9               MOVW    R31:R30, R19:R18
   \   00000204   9509               ICALL
   \   00000206   0198               MOVW    R19:R18, R17:R16
   \   00000208   018D               MOVW    R17:R16, R27:R26
   \   0000020A   5F0A               SUBI    R16, 250
   \   0000020C   4F1F               SBCI    R17, 255
   \   0000020E   ........           CALL    ??Set
    788                      NotifyerOff();
   \   00000212   018D               MOVW    R17:R16, R27:R26
   \   00000214   9611               ADIW    R27:R26, 1
   \   00000216   91ED               LD      R30, X+
   \   00000218   91FC               LD      R31, X
   \   0000021A   9712               SBIW    R27:R26, 2
   \   0000021C   963C               ADIW    R31:R30, 12
   \   0000021E   9125               LPM     R18, Z+
   \   00000220   9134               LPM     R19, Z
   \   00000222   973D               SBIW    R31:R30, 13
   \   00000224   01F9               MOVW    R31:R30, R19:R18
   \   00000226   9509               ICALL
    789                      SetFsmState(ALARM_SIGNAL_OFF);
   \   00000228   E02F               LDI     R18, 15
   \   0000022A   018D               MOVW    R17:R16, R27:R26
   \   0000022C   ........           CALL    ??SetFsmState
    790                  }
    791                  break;
   \   00000230   C01B               RJMP    ??Fsm_44
    792          
    793              case ALARM_SIGNAL_OFF:
    794                  if (m_xTimer.IsOverflow())
   \                     ??Fsm_42:
   \   00000232   018D               MOVW    R17:R16, R27:R26
   \   00000234   5F0A               SUBI    R16, 250
   \   00000236   4F1F               SBCI    R17, 255
   \   00000238   ........           CALL    ??IsOverflow
   \   0000023C   2300               TST     R16
   \   0000023E   F0A1               BREQ    ??Fsm_44
    795                  {
    796                      SetFsmState(STOP);
   \   00000240   E225               LDI     R18, 37
   \   00000242   018D               MOVW    R17:R16, R27:R26
   \   00000244   ........           CALL    ??SetFsmState
    797                  }
    798                  break;
   \   00000248   C00F               RJMP    ??Fsm_44
    799          
    800              case STOP:
    801                  NotifyerOff();
   \                     ??Fsm_43:
   \   0000024A   018D               MOVW    R17:R16, R27:R26
   \   0000024C   9611               ADIW    R27:R26, 1
   \   0000024E   91ED               LD      R30, X+
   \   00000250   91FC               LD      R31, X
   \   00000252   9712               SBIW    R27:R26, 2
   \   00000254   963C               ADIW    R31:R30, 12
   \   00000256   9125               LPM     R18, Z+
   \   00000258   9134               LPM     R19, Z
   \   0000025A   973D               SBIW    R31:R30, 13
   \   0000025C   01F9               MOVW    R31:R30, R19:R18
   \   0000025E   9509               ICALL
    802                  SetFsmState(IDDLE);
   \   00000260   E020               LDI     R18, 0
   \   00000262   018D               MOVW    R17:R16, R27:R26
   \   00000264   ........           CALL    ??SetFsmState
    803                  break;
    804          
    805              default:
    806                  break;
    807              };
    808          }
   \                     ??Fsm_44:
   \   00000268   91A9               LD      R26, Y+
   \   0000026A   91B9               LD      R27, Y+
   \   0000026C   9508               RET

   \                                 In  segment SWITCH, align 2, keep-with-next
   \                     `?<Jumptable for Fsm>_0`:
   \   00000000   00                 DB      0
   \   00000001   01                 DB      1
   \   00000002   ....               DW      (??Fsm_3) /2
   \   00000004   ....               DW      (??Fsm_3) /2
   \   00000006   01                 DB      0x1
   \   00000007   ....               DW      (??Fsm_8) /2
   \   00000009   01                 DB      0x1
   \   0000000A   ....               DW      (??Fsm_9) /2
   \   0000000C   05                 DB      0x5
   \   0000000D   ....               DW      (??Fsm_11) /2
   \   0000000F   01                 DB      0x1
   \   00000010   ....               DW      (??Fsm_12) /2
   \   00000012   01                 DB      0x1
   \   00000013   ....               DW      (??Fsm_14) /2
   \   00000015   04                 DB      0x4
   \   00000016   ....               DW      (??Fsm_16) /2
   \   00000018   01                 DB      0x1
   \   00000019   ....               DW      (??Fsm_17) /2
   \   0000001B   01                 DB      0x1
   \   0000001C   ....               DW      (??Fsm_19) /2
   \   0000001E   04                 DB      0x4
   \   0000001F   ....               DW      (??Fsm_21) /2
   \   00000021   01                 DB      0x1
   \   00000022   ....               DW      (??Fsm_22) /2
   \   00000024   01                 DB      0x1
   \   00000025   ....               DW      (??Fsm_24) /2
   \   00000027   01                 DB      0x1
   \   00000028   ....               DW      (??Fsm_26) /2
   \   0000002A   01                 DB      0x1
   \   0000002B   ....               DW      (??Fsm_28) /2
   \   0000002D   01                 DB      0x1
   \   0000002E   ....               DW      (??Fsm_2) /2
   \   00000030   01                 DB      0x1
   \   00000031   ....               DW      (??Fsm_4) /2
   \   00000033   01                 DB      0x1
   \   00000034   ....               DW      (??Fsm_6) /2
   \   00000036   04                 DB      0x4
   \   00000037   ....               DW      (??Fsm_30) /2
   \   00000039   01                 DB      0x1
   \   0000003A   ....               DW      (??Fsm_31) /2
   \   0000003C   06                 DB      0x6
   \   0000003D   ....               DW      (??Fsm_32) /2
   \   0000003F   FB                 DB      251

   \                                 In  segment CODE, align 2, keep-with-next
   \   __version_3 CNotifyerControl &CNotifyerControl::new CNotifyerControl()
   \                     `??new CNotifyerControl`:
   \   00000000   E00C               LDI     R16, 12
   \   00000002   E010               LDI     R17, 0
   \   00000004   ........           CALL    `??operator new`
   \   00000008   2F20               MOV     R18, R16
   \   0000000A   2B21               OR      R18, R17
   \   0000000C   F011               BREQ    `??new CNotifyerControl_1`
   \   0000000E   ....               RCALL   ??CNotifyerControl
   \   00000010   9508               RET
   \                     `??new CNotifyerControl_1`:
   \   00000012   E000               LDI     R16, 0
   \   00000014   E010               LDI     R17, 0
   \   00000016   9508               RET

   \                                 In  segment CODE, align 2, keep-with-next
   \   __version_3 CPreventiveAlarmWindowNotifyerControl &CPreventiveAlarmWindowNotifyerControl::new CPreventiveAlarmWindowNotifyerControl()
   \                     `??new CPreventiveAlarmWindowNotifyerControl`:
   \   00000000   E00C               LDI     R16, 12
   \   00000002   E010               LDI     R17, 0
   \   00000004   ........           CALL    `??operator new`
   \   00000008   2F20               MOV     R18, R16
   \   0000000A   2B21               OR      R18, R17
   \   0000000C   F011               BREQ    `??new CPreventiveAlarmWindowNotifyerControl_1`
   \   0000000E   ....               RCALL   ??CPreventiveAlarmWindowNotifyerControl
   \   00000010   9508               RET
   \                     `??new CPreventiveAlarmWindowNotifyerControl_1`:
   \   00000012   E000               LDI     R16, 0
   \   00000014   E010               LDI     R17, 0
   \   00000016   9508               RET

   \                                 In  segment CODE, align 2, keep-with-next
   \   __version_3 CEmergencyAlarmWindowNotifyerControl &CEmergencyAlarmWindowNotifyerControl::new CEmergencyAlarmWindowNotifyerControl()
   \                     `??new CEmergencyAlarmWindowNotifyerControl`:
   \   00000000   E00C               LDI     R16, 12
   \   00000002   E010               LDI     R17, 0
   \   00000004   ........           CALL    `??operator new`
   \   00000008   2F20               MOV     R18, R16
   \   0000000A   2B21               OR      R18, R17
   \   0000000C   F011               BREQ    `??new CEmergencyAlarmWindowNotifyerControl_1`
   \   0000000E   ....               RCALL   ??CEmergencyAlarmWindowNotifyerControl
   \   00000010   9508               RET
   \                     `??new CEmergencyAlarmWindowNotifyerControl_1`:
   \   00000012   E000               LDI     R16, 0
   \   00000014   E010               LDI     R17, 0
   \   00000016   9508               RET

   \                                 In  segment CODE, align 2, keep-with-next
   \   __version_3 CStatusLedNotifyerControl &CStatusLedNotifyerControl::new CStatusLedNotifyerControl()
   \                     `??new CStatusLedNotifyerControl`:
   \   00000000   E00C               LDI     R16, 12
   \   00000002   E010               LDI     R17, 0
   \   00000004   ........           CALL    `??operator new`
   \   00000008   2F20               MOV     R18, R16
   \   0000000A   2B21               OR      R18, R17
   \   0000000C   F011               BREQ    `??new CStatusLedNotifyerControl_1`
   \   0000000E   ....               RCALL   ??CStatusLedNotifyerControl
   \   00000010   9508               RET
   \                     `??new CStatusLedNotifyerControl_1`:
   \   00000012   E000               LDI     R16, 0
   \   00000014   E010               LDI     R17, 0
   \   00000016   9508               RET

   \                                 In  segment CODE, align 2, keep-with-next
   \   __version_3 CBuzzerNotifyerControl &CBuzzerNotifyerControl::new CBuzzerNotifyerControl()
   \                     `??new CBuzzerNotifyerControl`:
   \   00000000   E00C               LDI     R16, 12
   \   00000002   E010               LDI     R17, 0
   \   00000004   ........           CALL    `??operator new`
   \   00000008   2F20               MOV     R18, R16
   \   0000000A   2B21               OR      R18, R17
   \   0000000C   F011               BREQ    `??new CBuzzerNotifyerControl_1`
   \   0000000E   ....               RCALL   ??CBuzzerNotifyerControl
   \   00000010   9508               RET
   \                     `??new CBuzzerNotifyerControl_1`:
   \   00000012   E000               LDI     R16, 0
   \   00000014   E010               LDI     R17, 0
   \   00000016   9508               RET

   \                                 In  segment CODE, align 2, keep-with-next
   \   __version_3 CTestModeNotifyerControl &CTestModeNotifyerControl::new CTestModeNotifyerControl()
   \                     `??new CTestModeNotifyerControl`:
   \   00000000   E00C               LDI     R16, 12
   \   00000002   E010               LDI     R17, 0
   \   00000004   ........           CALL    `??operator new`
   \   00000008   2F20               MOV     R18, R16
   \   0000000A   2B21               OR      R18, R17
   \   0000000C   F011               BREQ    `??new CTestModeNotifyerControl_1`
   \   0000000E   ....               RCALL   ??CTestModeNotifyerControl
   \   00000010   9508               RET
   \                     `??new CTestModeNotifyerControl_1`:
   \   00000012   E000               LDI     R16, 0
   \   00000014   E010               LDI     R17, 0
   \   00000016   9508               RET
    809          //-----------------------------------------------------------------------------------------------------
    810          
    811          

   Maximum stack usage in bytes:

   CSTACK RSTACK Function
   ------ ------ --------
      3      2   CBuzzerNotifyerControl::AlarmSet(uint8_t)
        3      2   -> CDfa::SetSavedFsmState(uint8_t)
        3      2   -> CDfaLite::GetFsmState()
        3      2   -> CDfaLite::SetFsmState(uint8_t)
      2      2   CBuzzerNotifyerControl::CBuzzerNotifyerControl()
        2      2   -> CDfa::SetSavedFsmState(uint8_t)
        2      2   -> CDfaLite::SetFsmState(uint8_t)
        2      2   -> CNotifyerControl::CNotifyerControl()
      2      2   CBuzzerNotifyerControl::NotifyerEmergencyOn()
        2      2   -> CBuzzer::HighOn()
      2      2   CBuzzerNotifyerControl::NotifyerIndicationOn()
        2      2   -> CBuzzer::Off()
      2      2   CBuzzerNotifyerControl::NotifyerNormalOn()
        2      2   -> CBuzzer::Off()
      2      2   CBuzzerNotifyerControl::NotifyerOff()
        2      2   -> CBuzzer::Off()
        2      2   -> CPss21::BoardWindowsUpdate()
      2      2   CBuzzerNotifyerControl::NotifyerPreventiveOn()
        2      2   -> CBuzzer::LowOn()
      0      2   CBuzzerNotifyerControl::new CBuzzerNotifyerControl()
        0      2   -> CBuzzerNotifyerControl::CBuzzerNotifyerControl()
        0      2   -> operator new(unsigned int)
      4      2   CBuzzerNotifyerControl::~CBuzzerNotifyerControl()
        4      2   -> CDfaLite::SetFsmState(uint8_t)
        4      2   -> CNotifyerControl::~CNotifyerControl()
        4      2   -> operator delete(void *)
      0      2   CDfa::GetSavedFsmState()
      0      2   CDfa::SetSavedFsmState(uint8_t)
      0      2   CDfaLite::GetFsmState()
      0      2   CDfaLite::SetFsmState(uint8_t)
      0      2   CEmergencyAlarmWindowNotifyerControl::ALARM_SIGNAL_OFF_TIME()
      0      2   CEmergencyAlarmWindowNotifyerControl::ALARM_SIGNAL_ON_TIME()
      3      2   CEmergencyAlarmWindowNotifyerControl::AlarmSet(uint8_t)
        3      2   -> CDfa::SetSavedFsmState(uint8_t)
        3      2   -> CDfaLite::GetFsmState()
        3      2   -> CDfaLite::SetFsmState(uint8_t)
      2      2   CEmergencyAlarmWindowNotifyerControl::CEmergencyAlarmWindowNotifyerControl()
        2      2   -> CDfa::SetSavedFsmState(uint8_t)
        2      2   -> CDfaLite::SetFsmState(uint8_t)
        2      2   -> CNotifyerControl::CNotifyerControl()
      0      2   CEmergencyAlarmWindowNotifyerControl::NORMAL_SIGNAL_OFF_TIME()
      0      2   CEmergencyAlarmWindowNotifyerControl::NORMAL_SIGNAL_ON_TIME()
      2      2   CEmergencyAlarmWindowNotifyerControl::NotifyerEmergencyOn()
        2      2   -> CPss21::ActiveAlarmWindowOn(uint8_t)
      2      2   CEmergencyAlarmWindowNotifyerControl::NotifyerIndicationOn()
        2      2   -> CPss21::ActiveAlarmWindowOn(uint8_t)
      0      2   CEmergencyAlarmWindowNotifyerControl::NotifyerNormalOn()
      2      2   CEmergencyAlarmWindowNotifyerControl::NotifyerOff()
        2      2   -> CPss21::ActiveAlarmWindowOff(uint8_t)
        2      2   -> CPss21::BoardWindowsUpdate()
      0      2   CEmergencyAlarmWindowNotifyerControl::NotifyerPreventiveOn()
      0      2   CEmergencyAlarmWindowNotifyerControl::WARNING_SIGNAL_OFF_TIME()
      0      2   CEmergencyAlarmWindowNotifyerControl::WARNING_SIGNAL_ON_TIME()
      0      2   CEmergencyAlarmWindowNotifyerControl::new CEmergencyAlarmWindowNotifyerControl()
        0      2   -> CEmergencyAlarmWindowNotifyerControl::CEmergencyAlarmWindowNotifyerControl()
        0      2   -> operator new(unsigned int)
      4      2   CEmergencyAlarmWindowNotifyerControl::~CEmergencyAlarmWindowNotifyerControl()
        4      2   -> CDfaLite::SetFsmState(uint8_t)
        4      2   -> CNotifyerControl::~CNotifyerControl()
        4      2   -> operator delete(void *)
      0      2   CNotifyerControl::ALARM_SIGNAL_OFF_TIME()
      0      2   CNotifyerControl::ALARM_SIGNAL_ON_TIME()
      0      2   CNotifyerControl::BEEP_SIGNAL_ON_TIME()
      2      2   CNotifyerControl::CNotifyerControl()
        2      2   -> CDfa::CDfa()
        2      2   -> CDfa::SetSavedFsmState(uint8_t)
        2      2   -> CDfaLite::SetFsmState(uint8_t)
        2      2   -> CTimer::CTimer()
      0      2   CNotifyerControl::ERROR_SIGNAL_OFF_TIME()
      0      2   CNotifyerControl::ERROR_SIGNAL_ON_TIME()
      0      2   CNotifyerControl::ERROR_SIGNAL_PAUSE_TIME()
      2      2   CNotifyerControl::Fsm()
        2      2   -- Indirect call
        2      2   -> CDfa::GetSavedFsmState()
        2      2   -> CDfaLite::GetFsmState()
        2      2   -> CDfaLite::SetFsmState(uint8_t)
        2      2   -> CTimer::IsOverflow()
        2      2   -> CTimer::Set(uint16_t)
        2      2 ?CV_SWITCH_L06
      0      2   CNotifyerControl::NORMAL_SIGNAL_OFF_TIME()
      0      2   CNotifyerControl::NORMAL_SIGNAL_ON_TIME()
      0      2   CNotifyerControl::WARNING_SIGNAL_OFF_TIME()
      0      2   CNotifyerControl::WARNING_SIGNAL_ON_TIME()
      0      2   CNotifyerControl::new CNotifyerControl()
        0      2   -> CNotifyerControl::CNotifyerControl()
        0      2   -> operator new(unsigned int)
      4      2   CNotifyerControl::~CNotifyerControl()
        4      2   -> CDfa::~CDfa()
        4      2   -> CTimer::~CTimer()
        4      2   -> operator delete(void *)
      0      2   CPlatform::StatusLedOff()
      0      2   CPlatform::StatusLedOn()
      0      2   CPreventiveAlarmWindowNotifyerControl::ALARM_SIGNAL_OFF_TIME()
      0      2   CPreventiveAlarmWindowNotifyerControl::ALARM_SIGNAL_ON_TIME()
      3      2   CPreventiveAlarmWindowNotifyerControl::AlarmSet(uint8_t)
        3      2   -> CDfa::SetSavedFsmState(uint8_t)
        3      2   -> CDfaLite::GetFsmState()
        3      2   -> CDfaLite::SetFsmState(uint8_t)
      2      2   CPreventiveAlarmWindowNotifyerControl::CPreventiveAlarmWindowNotifyerControl()
        2      2   -> CDfa::SetSavedFsmState(uint8_t)
        2      2   -> CDfaLite::SetFsmState(uint8_t)
        2      2   -> CNotifyerControl::CNotifyerControl()
      0      2   CPreventiveAlarmWindowNotifyerControl::NORMAL_SIGNAL_OFF_TIME()
      0      2   CPreventiveAlarmWindowNotifyerControl::NORMAL_SIGNAL_ON_TIME()
      0      2   CPreventiveAlarmWindowNotifyerControl::NotifyerEmergencyOn()
      2      2   CPreventiveAlarmWindowNotifyerControl::NotifyerIndicationOn()
        2      2   -> CPss21::ActiveAlarmWindowOn(uint8_t)
      0      2   CPreventiveAlarmWindowNotifyerControl::NotifyerNormalOn()
      2      2   CPreventiveAlarmWindowNotifyerControl::NotifyerOff()
        2      2   -> CPss21::ActiveAlarmWindowOff(uint8_t)
        2      2   -> CPss21::BoardWindowsUpdate()
      2      2   CPreventiveAlarmWindowNotifyerControl::NotifyerPreventiveOn()
        2      2   -> CPss21::ActiveAlarmWindowOn(uint8_t)
      0      2   CPreventiveAlarmWindowNotifyerControl::WARNING_SIGNAL_OFF_TIME()
      0      2   CPreventiveAlarmWindowNotifyerControl::WARNING_SIGNAL_ON_TIME()
      0      2   CPreventiveAlarmWindowNotifyerControl::new CPreventiveAlarmWindowNotifyerControl()
        0      2   -> CPreventiveAlarmWindowNotifyerControl::CPreventiveAlarmWindowNotifyerControl()
        0      2   -> operator new(unsigned int)
      4      2   CPreventiveAlarmWindowNotifyerControl::~CPreventiveAlarmWindowNotifyerControl()
        4      2   -> CDfaLite::SetFsmState(uint8_t)
        4      2   -> CNotifyerControl::~CNotifyerControl()
        4      2   -> operator delete(void *)
      3      2   CStatusLedNotifyerControl::AlarmSet(uint8_t)
        3      2   -> CDfa::SetSavedFsmState(uint8_t)
        3      2   -> CDfaLite::GetFsmState()
        3      2   -> CDfaLite::SetFsmState(uint8_t)
      2      2   CStatusLedNotifyerControl::CStatusLedNotifyerControl()
        2      2   -> CDfa::SetSavedFsmState(uint8_t)
        2      2   -> CDfaLite::SetFsmState(uint8_t)
        2      2   -> CNotifyerControl::CNotifyerControl()
      2      2   CStatusLedNotifyerControl::NotifyerEmergencyOn()
        2      2   -> CPlatform::StatusLedOn()
      0      2   CStatusLedNotifyerControl::NotifyerIndicationOn()
      2      2   CStatusLedNotifyerControl::NotifyerNormalOn()
        2      2   -> CPlatform::StatusLedOn()
      2      2   CStatusLedNotifyerControl::NotifyerOff()
        2      2   -> CPlatform::StatusLedOff()
        2      2   -> CPss21::BoardWindowsUpdate()
      2      2   CStatusLedNotifyerControl::NotifyerPreventiveOn()
        2      2   -> CPlatform::StatusLedOn()
      0      2   CStatusLedNotifyerControl::new CStatusLedNotifyerControl()
        0      2   -> CStatusLedNotifyerControl::CStatusLedNotifyerControl()
        0      2   -> operator new(unsigned int)
      4      2   CStatusLedNotifyerControl::~CStatusLedNotifyerControl()
        4      2   -> CDfaLite::SetFsmState(uint8_t)
        4      2   -> CNotifyerControl::~CNotifyerControl()
        4      2   -> operator delete(void *)
      0      2   CTestModeNotifyerControl::ALARM_SIGNAL_OFF_TIME()
      0      2   CTestModeNotifyerControl::ALARM_SIGNAL_ON_TIME()
      0      2   CTestModeNotifyerControl::AlarmSet(uint8_t)
      2      2   CTestModeNotifyerControl::CTestModeNotifyerControl()
        2      2   -> CDfa::SetSavedFsmState(uint8_t)
        2      2   -> CDfaLite::SetFsmState(uint8_t)
        2      2   -> CNotifyerControl::CNotifyerControl()
      2      2   CTestModeNotifyerControl::Fsm()
        2      2   -- Indirect call
        2      2   -> CDfaLite::GetFsmState()
        2      2   -> CDfaLite::SetFsmState(uint8_t)
        2      2   -> CTimer::IsOverflow()
        2      2   -> CTimer::Set(uint16_t)
      0      2   CTestModeNotifyerControl::NORMAL_SIGNAL_OFF_TIME()
      0      2   CTestModeNotifyerControl::NORMAL_SIGNAL_ON_TIME()
      2      2   CTestModeNotifyerControl::NotifyerEmergencyOn()
        2      2   -> CBuzzer::LowOn()
        2      2   -> CPss21::AllAlarmWindowOn(uint8_t)
      2      2   CTestModeNotifyerControl::NotifyerIndicationOn()
        2      2   -> CBuzzer::LowOn()
        2      2   -> CPss21::AllAlarmWindowOn(uint8_t)
      2      2   CTestModeNotifyerControl::NotifyerNormalOn()
        2      2   -> CBuzzer::LowOn()
        2      2   -> CPss21::AllAlarmWindowOn(uint8_t)
      2      2   CTestModeNotifyerControl::NotifyerOff()
        2      2   -> CBuzzer::Off()
        2      2   -> CPss21::AllAlarmWindowOff()
        2      2   -> CPss21::BoardWindowsUpdate()
      2      2   CTestModeNotifyerControl::NotifyerPreventiveOn()
        2      2   -> CBuzzer::LowOn()
        2      2   -> CPss21::AllAlarmWindowOn(uint8_t)
      0      2   CTestModeNotifyerControl::WARNING_SIGNAL_OFF_TIME()
      0      2   CTestModeNotifyerControl::WARNING_SIGNAL_ON_TIME()
      0      2   CTestModeNotifyerControl::new CTestModeNotifyerControl()
        0      2   -> CTestModeNotifyerControl::CTestModeNotifyerControl()
        0      2   -> operator new(unsigned int)
      4      2   CTestModeNotifyerControl::~CTestModeNotifyerControl()
        4      2   -> CDfaLite::SetFsmState(uint8_t)
        4      2   -> CNotifyerControl::~CNotifyerControl()
        4      2   -> operator delete(void *)


   Segment part sizes:

   Bytes  Function/Label
   -----  --------------
      64  ?<Jumptable for Fsm>_0
     122  CBuzzerNotifyerControl::AlarmSet(uint8_t)
      44  CBuzzerNotifyerControl::CBuzzerNotifyerControl()
      16  CBuzzerNotifyerControl::NotifyerEmergencyOn()
      16  CBuzzerNotifyerControl::NotifyerIndicationOn()
      16  CBuzzerNotifyerControl::NotifyerNormalOn()
      20  CBuzzerNotifyerControl::NotifyerOff()
      16  CBuzzerNotifyerControl::NotifyerPreventiveOn()
      24  CBuzzerNotifyerControl::new CBuzzerNotifyerControl()
      46  CBuzzerNotifyerControl::~CBuzzerNotifyerControl()
       6  CDfa::GetSavedFsmState()
       6  CDfa::SetSavedFsmState(uint8_t)
       6  CDfaLite::GetFsmState()
       6  CDfaLite::SetFsmState(uint8_t)
       8  CEmergencyAlarmWindowNotifyerControl::ALARM_SIGNAL_OFF_TIME()
       8  CEmergencyAlarmWindowNotifyerControl::ALARM_SIGNAL_ON_TIME()
     102  CEmergencyAlarmWindowNotifyerControl::AlarmSet(uint8_t)
      44  CEmergencyAlarmWindowNotifyerControl::CEmergencyAlarmWindowNotifyerControl()
       8  CEmergencyAlarmWindowNotifyerControl::NORMAL_SIGNAL_OFF_TIME()
       8  CEmergencyAlarmWindowNotifyerControl::NORMAL_SIGNAL_ON_TIME()
      18  CEmergencyAlarmWindowNotifyerControl::NotifyerEmergencyOn()
      18  CEmergencyAlarmWindowNotifyerControl::NotifyerIndicationOn()
       2  CEmergencyAlarmWindowNotifyerControl::NotifyerNormalOn()
      22  CEmergencyAlarmWindowNotifyerControl::NotifyerOff()
       2  CEmergencyAlarmWindowNotifyerControl::NotifyerPreventiveOn()
       8  CEmergencyAlarmWindowNotifyerControl::WARNING_SIGNAL_OFF_TIME()
       8  CEmergencyAlarmWindowNotifyerControl::WARNING_SIGNAL_ON_TIME()
      24  CEmergencyAlarmWindowNotifyerControl::new CEmergencyAlarmWindowNotifyerControl()
      46  CEmergencyAlarmWindowNotifyerControl::~CEmergencyAlarmWindowNotifyerControl()
       8  CNotifyerControl::ALARM_SIGNAL_OFF_TIME()
       8  CNotifyerControl::ALARM_SIGNAL_ON_TIME()
       8  CNotifyerControl::BEEP_SIGNAL_ON_TIME()
      56  CNotifyerControl::CNotifyerControl()
       8  CNotifyerControl::ERROR_SIGNAL_OFF_TIME()
       8  CNotifyerControl::ERROR_SIGNAL_ON_TIME()
       8  CNotifyerControl::ERROR_SIGNAL_PAUSE_TIME()
    1332  CNotifyerControl::Fsm()
       8  CNotifyerControl::NORMAL_SIGNAL_OFF_TIME()
       8  CNotifyerControl::NORMAL_SIGNAL_ON_TIME()
       8  CNotifyerControl::WARNING_SIGNAL_OFF_TIME()
       8  CNotifyerControl::WARNING_SIGNAL_ON_TIME()
      24  CNotifyerControl::new CNotifyerControl()
      64  CNotifyerControl::~CNotifyerControl()
       4  CPlatform::StatusLedOff()
       4  CPlatform::StatusLedOn()
       8  CPreventiveAlarmWindowNotifyerControl::ALARM_SIGNAL_OFF_TIME()
       8  CPreventiveAlarmWindowNotifyerControl::ALARM_SIGNAL_ON_TIME()
     102  CPreventiveAlarmWindowNotifyerControl::AlarmSet(uint8_t)
      44  CPreventiveAlarmWindowNotifyerControl::CPreventiveAlarmWindowNotifyerControl()
       8  CPreventiveAlarmWindowNotifyerControl::NORMAL_SIGNAL_OFF_TIME()
       8  CPreventiveAlarmWindowNotifyerControl::NORMAL_SIGNAL_ON_TIME()
       2  CPreventiveAlarmWindowNotifyerControl::NotifyerEmergencyOn()
      18  CPreventiveAlarmWindowNotifyerControl::NotifyerIndicationOn()
       2  CPreventiveAlarmWindowNotifyerControl::NotifyerNormalOn()
      22  CPreventiveAlarmWindowNotifyerControl::NotifyerOff()
      18  CPreventiveAlarmWindowNotifyerControl::NotifyerPreventiveOn()
       8  CPreventiveAlarmWindowNotifyerControl::WARNING_SIGNAL_OFF_TIME()
       8  CPreventiveAlarmWindowNotifyerControl::WARNING_SIGNAL_ON_TIME()
      24  CPreventiveAlarmWindowNotifyerControl::new CPreventiveAlarmWindowNotifyerControl()
      46  CPreventiveAlarmWindowNotifyerControl::~CPreventiveAlarmWindowNotifyerControl()
     112  CStatusLedNotifyerControl::AlarmSet(uint8_t)
      44  CStatusLedNotifyerControl::CStatusLedNotifyerControl()
      16  CStatusLedNotifyerControl::NotifyerEmergencyOn()
       2  CStatusLedNotifyerControl::NotifyerIndicationOn()
      16  CStatusLedNotifyerControl::NotifyerNormalOn()
      20  CStatusLedNotifyerControl::NotifyerOff()
      16  CStatusLedNotifyerControl::NotifyerPreventiveOn()
      24  CStatusLedNotifyerControl::new CStatusLedNotifyerControl()
      46  CStatusLedNotifyerControl::~CStatusLedNotifyerControl()
       8  CTestModeNotifyerControl::ALARM_SIGNAL_OFF_TIME()
       8  CTestModeNotifyerControl::ALARM_SIGNAL_ON_TIME()
       2  CTestModeNotifyerControl::AlarmSet(uint8_t)
      44  CTestModeNotifyerControl::CTestModeNotifyerControl()
     622  CTestModeNotifyerControl::Fsm()
       8  CTestModeNotifyerControl::NORMAL_SIGNAL_OFF_TIME()
       8  CTestModeNotifyerControl::NORMAL_SIGNAL_ON_TIME()
      22  CTestModeNotifyerControl::NotifyerEmergencyOn()
      22  CTestModeNotifyerControl::NotifyerIndicationOn()
      22  CTestModeNotifyerControl::NotifyerNormalOn()
      24  CTestModeNotifyerControl::NotifyerOff()
      22  CTestModeNotifyerControl::NotifyerPreventiveOn()
       8  CTestModeNotifyerControl::WARNING_SIGNAL_OFF_TIME()
       8  CTestModeNotifyerControl::WARNING_SIGNAL_ON_TIME()
      24  CTestModeNotifyerControl::new CTestModeNotifyerControl()
      46  CTestModeNotifyerControl::~CTestModeNotifyerControl()
       1  _A_ACSR
       2  _A_ADC
       1  _A_ADCSRA
       1  _A_ADMUX
       1  _A_ASSR
       1  _A_DDRA
       1  _A_DDRB
       1  _A_DDRC
       1  _A_DDRD
       1  _A_DDRE
       1  _A_DDRF
       1  _A_DDRG
       2  _A_EEAR
       1  _A_EECR
       1  _A_EEDR
       1  _A_EICRA
       1  _A_EICRB
       1  _A_EIFR
       1  _A_EIMSK
       1  _A_ETIFR
       1  _A_ETIMSK
       2  _A_ICR1
       2  _A_ICR3
       1  _A_MCUCR
       1  _A_MCUCSR
       1  _A_OCDR
       1  _A_OCR0
       2  _A_OCR1A
       2  _A_OCR1B
       2  _A_OCR1C
       1  _A_OCR2
       2  _A_OCR3A
       2  _A_OCR3B
       2  _A_OCR3C
       1  _A_OSCCAL
       1  _A_PINA
       1  _A_PINB
       1  _A_PINC
       1  _A_PIND
       1  _A_PINE
       1  _A_PINF
       1  _A_PING
       1  _A_PORTA
       1  _A_PORTB
       1  _A_PORTC
       1  _A_PORTD
       1  _A_PORTE
       1  _A_PORTF
       1  _A_PORTG
       1  _A_RAMPZ
       1  _A_SFIOR
       2  _A_SP
       1  _A_SPCR
       1  _A_SPDR
       1  _A_SPMCSR
       1  _A_SPSR
       1  _A_SREG
       1  _A_TCCR0
       1  _A_TCCR1A
       1  _A_TCCR1B
       1  _A_TCCR1C
       1  _A_TCCR2
       1  _A_TCCR3A
       1  _A_TCCR3B
       1  _A_TCCR3C
       1  _A_TCNT0
       2  _A_TCNT1
       1  _A_TCNT2
       2  _A_TCNT3
       1  _A_TIFR
       1  _A_TIMSK
       1  _A_TWAR
       1  _A_TWBR
       1  _A_TWCR
       1  _A_TWDR
       1  _A_TWSR
       1  _A_UBRR0H
       1  _A_UBRR0L
       1  _A_UBRR1H
       1  _A_UBRR1L
       1  _A_UCSR0A
       1  _A_UCSR0B
       1  _A_UCSR0C
       1  _A_UCSR1A
       1  _A_UCSR1B
       1  _A_UCSR1C
       1  _A_UDR0
       1  _A_UDR1
       1  _A_WDTCR
       1  _A_XDIV
       1  _A_XMCRA
       1  _A_XMCRB
     238  -- Other

 
   105 bytes in segment ABSOLUTE
 3 754 bytes in segment CODE
   238 bytes in segment NEAR_F
    64 bytes in segment SWITCH
 
 3 584 bytes of CODE memory (+ 472 bytes shared)
     0 bytes of DATA memory (+ 105 bytes shared)

Errors: none
Warnings: 7
