///////////////////////////////////////////////////////////////////////////////
//
// IAR C/C++ Compiler V7.10.6.1378 for Atmel AVR          13/Sep/2024  07:48:24
// Copyright 1996-2018 IAR Systems AB.
//
//    Source file  =  
//        D:\Projects\CurrentProjects\CautoProjects\PSS48Color\src\NotifyerControl.cpp
//    Command line =  
//        -f C:\Users\Admin\AppData\Local\Temp\EW6FC6.tmp
//        (--string_literals_in_flash
//        D:\Projects\CurrentProjects\CautoProjects\PSS48Color\src\NotifyerControl.cpp
//        --cpu=m128a -ms -o
//        D:\Projects\CurrentProjects\CautoProjects\PSS48Color\Debug\Obj -lC
//        D:\Projects\CurrentProjects\CautoProjects\PSS48Color\Debug\List -lB
//        D:\Projects\CurrentProjects\CautoProjects\PSS48Color\Debug\List -y
//        --initializers_in_flash --root_variables --no_cse --no_inline
//        --no_code_motion --no_cross_call --no_clustering --no_tbaa --debug
//        -DENABLE_BIT_DEFINITIONS -e -I
//        D:\Projects\CurrentProjects\CautoProjects\PSS48Color\Modbus\ -I
//        D:\Projects\CurrentProjects\CautoProjects\PSS48Color\include\
//        --eeprom_size 4096 --dlib --dlib_config "C:\Program Files (x86)\IAR
//        Systems\Embedded Workbench 8.0\avr\LIB\DLIB\dlAVR-3s-ec_mul-n.h" -On
//        --eec++)
//    Locale       =  Russian_RUS.1251
//    List file    =  
//        D:\Projects\CurrentProjects\CautoProjects\PSS48Color\Debug\List\NotifyerControl.s90
//
///////////////////////////////////////////////////////////////////////////////

        NAME NotifyerControl

        RSEG CSTACK:DATA:NOROOT(0)
        RSEG RSTACK:DATA:NOROOT(0)

        ERROR
//NOTE: This module defines or uses C++ features that are not
//      accessible from assembler code. Assembling this file will
//      not produce an equivalent object file to the one produced
//      by the C++ compiler.

        EXTERN ?CV_SWITCH_L06
        EXTERN ?EPILOGUE_B3_L09
        EXTERN ?EPILOGUE_B4_L09
        EXTERN ?PROLOGUE3_L09
        EXTERN ?PROLOGUE4_L09

        PUBWEAK ??ALARM_SIGNAL_OFF_TIME
        PUBWEAK ??ALARM_SIGNAL_OFF_TIME_1
        PUBWEAK ??ALARM_SIGNAL_OFF_TIME_2
        PUBWEAK ??ALARM_SIGNAL_OFF_TIME_3
        PUBWEAK ??ALARM_SIGNAL_ON_TIME
        PUBWEAK ??ALARM_SIGNAL_ON_TIME_1
        PUBWEAK ??ALARM_SIGNAL_ON_TIME_2
        PUBWEAK ??ALARM_SIGNAL_ON_TIME_3
        PUBLIC ??AlarmSet
        PUBLIC ??AlarmSet_1
        PUBLIC ??AlarmSet_2
        PUBLIC ??AlarmSet_3
        PUBLIC ??AlarmSet_4
        PUBWEAK ??BEEP_SIGNAL_ON_TIME
        PUBLIC ??CBuzzerNotifyerControl
        PUBLIC ??CEmergencyAlarmWindowNotifyerControl
        PUBLIC ??CNotifyerControl
        PUBLIC ??CPreventiveAlarmWindowNotifyerControl
        PUBLIC ??CStatusLedNotifyerControl
        PUBLIC ??CTestModeNotifyerControl
        PUBWEAK ??ERROR_SIGNAL_OFF_TIME
        PUBWEAK ??ERROR_SIGNAL_ON_TIME
        PUBWEAK ??ERROR_SIGNAL_PAUSE_TIME
        PUBLIC ??Fsm
        PUBLIC ??Fsm_1
        PUBWEAK ??GetFsmState
        PUBWEAK ??GetSavedFsmState
        PUBWEAK ??NORMAL_SIGNAL_OFF_TIME
        PUBWEAK ??NORMAL_SIGNAL_OFF_TIME_1
        PUBWEAK ??NORMAL_SIGNAL_OFF_TIME_2
        PUBWEAK ??NORMAL_SIGNAL_OFF_TIME_3
        PUBWEAK ??NORMAL_SIGNAL_ON_TIME
        PUBWEAK ??NORMAL_SIGNAL_ON_TIME_1
        PUBWEAK ??NORMAL_SIGNAL_ON_TIME_2
        PUBWEAK ??NORMAL_SIGNAL_ON_TIME_3
        PUBLIC ??NotifyerEmergencyOn
        PUBLIC ??NotifyerEmergencyOn_1
        PUBLIC ??NotifyerEmergencyOn_2
        PUBLIC ??NotifyerEmergencyOn_3
        PUBLIC ??NotifyerEmergencyOn_4
        PUBLIC ??NotifyerIndicationOn
        PUBLIC ??NotifyerIndicationOn_1
        PUBLIC ??NotifyerIndicationOn_2
        PUBLIC ??NotifyerIndicationOn_3
        PUBLIC ??NotifyerIndicationOn_4
        PUBLIC ??NotifyerNormalOn
        PUBLIC ??NotifyerNormalOn_1
        PUBLIC ??NotifyerNormalOn_2
        PUBLIC ??NotifyerNormalOn_3
        PUBLIC ??NotifyerNormalOn_4
        PUBLIC ??NotifyerOff
        PUBLIC ??NotifyerOff_1
        PUBLIC ??NotifyerOff_2
        PUBLIC ??NotifyerOff_3
        PUBLIC ??NotifyerOff_4
        PUBLIC ??NotifyerPreventiveOn
        PUBLIC ??NotifyerPreventiveOn_1
        PUBLIC ??NotifyerPreventiveOn_2
        PUBLIC ??NotifyerPreventiveOn_3
        PUBLIC ??NotifyerPreventiveOn_4
        PUBWEAK ??SetFsmState
        PUBWEAK ??SetSavedFsmState
        PUBWEAK ??StatusLedOff
        PUBWEAK ??StatusLedOn
        PUBWEAK ??WARNING_SIGNAL_OFF_TIME
        PUBWEAK ??WARNING_SIGNAL_OFF_TIME_1
        PUBWEAK ??WARNING_SIGNAL_OFF_TIME_2
        PUBWEAK ??WARNING_SIGNAL_OFF_TIME_3
        PUBWEAK ??WARNING_SIGNAL_ON_TIME
        PUBWEAK ??WARNING_SIGNAL_ON_TIME_1
        PUBWEAK ??WARNING_SIGNAL_ON_TIME_2
        PUBWEAK ??WARNING_SIGNAL_ON_TIME_3
        PUBWEAK ??__vtbl
        PUBWEAK ??__vtbl_1
        PUBWEAK ??__vtbl_2
        PUBWEAK ??__vtbl_3
        PUBWEAK ??__vtbl_7
        PUBWEAK ??__vtbl_8
        PUBLIC `??new CBuzzerNotifyerControl`
        PUBLIC `??new CEmergencyAlarmWindowNotifyerControl`
        PUBLIC `??new CNotifyerControl`
        PUBLIC `??new CPreventiveAlarmWindowNotifyerControl`
        PUBLIC `??new CStatusLedNotifyerControl`
        PUBLIC `??new CTestModeNotifyerControl`
        PUBLIC `?~CBuzzerNotifyerControl`
        PUBLIC `?~CEmergencyAlarmWindowNotifyerControl`
        PUBLIC `?~CNotifyerControl`
        PUBLIC `?~CPreventiveAlarmWindowNotifyerControl`
        PUBLIC `?~CStatusLedNotifyerControl`
        PUBLIC `?~CTestModeNotifyerControl`
        PUBWEAK _A_ACSR
        PUBWEAK _A_ADC
        PUBWEAK _A_ADCSRA
        PUBWEAK _A_ADMUX
        PUBWEAK _A_ASSR
        PUBWEAK _A_DDRA
        PUBWEAK _A_DDRB
        PUBWEAK _A_DDRC
        PUBWEAK _A_DDRD
        PUBWEAK _A_DDRE
        PUBWEAK _A_DDRF
        PUBWEAK _A_DDRG
        PUBWEAK _A_EEAR
        PUBWEAK _A_EECR
        PUBWEAK _A_EEDR
        PUBWEAK _A_EICRA
        PUBWEAK _A_EICRB
        PUBWEAK _A_EIFR
        PUBWEAK _A_EIMSK
        PUBWEAK _A_ETIFR
        PUBWEAK _A_ETIMSK
        PUBWEAK _A_ICR1
        PUBWEAK _A_ICR3
        PUBWEAK _A_MCUCR
        PUBWEAK _A_MCUCSR
        PUBWEAK _A_OCDR
        PUBWEAK _A_OCR0
        PUBWEAK _A_OCR1A
        PUBWEAK _A_OCR1B
        PUBWEAK _A_OCR1C
        PUBWEAK _A_OCR2
        PUBWEAK _A_OCR3A
        PUBWEAK _A_OCR3B
        PUBWEAK _A_OCR3C
        PUBWEAK _A_OSCCAL
        PUBWEAK _A_PINA
        PUBWEAK _A_PINB
        PUBWEAK _A_PINC
        PUBWEAK _A_PIND
        PUBWEAK _A_PINE
        PUBWEAK _A_PINF
        PUBWEAK _A_PING
        PUBWEAK _A_PORTA
        PUBWEAK _A_PORTB
        PUBWEAK _A_PORTC
        PUBWEAK _A_PORTD
        PUBWEAK _A_PORTE
        PUBWEAK _A_PORTF
        PUBWEAK _A_PORTG
        PUBWEAK _A_RAMPZ
        PUBWEAK _A_SFIOR
        PUBWEAK _A_SP
        PUBWEAK _A_SPCR
        PUBWEAK _A_SPDR
        PUBWEAK _A_SPMCSR
        PUBWEAK _A_SPSR
        PUBWEAK _A_SREG
        PUBWEAK _A_TCCR0
        PUBWEAK _A_TCCR1A
        PUBWEAK _A_TCCR1B
        PUBWEAK _A_TCCR1C
        PUBWEAK _A_TCCR2
        PUBWEAK _A_TCCR3A
        PUBWEAK _A_TCCR3B
        PUBWEAK _A_TCCR3C
        PUBWEAK _A_TCNT0
        PUBWEAK _A_TCNT1
        PUBWEAK _A_TCNT2
        PUBWEAK _A_TCNT3
        PUBWEAK _A_TIFR
        PUBWEAK _A_TIMSK
        PUBWEAK _A_TWAR
        PUBWEAK _A_TWBR
        PUBWEAK _A_TWCR
        PUBWEAK _A_TWDR
        PUBWEAK _A_TWSR
        PUBWEAK _A_UBRR0H
        PUBWEAK _A_UBRR0L
        PUBWEAK _A_UBRR1H
        PUBWEAK _A_UBRR1L
        PUBWEAK _A_UCSR0A
        PUBWEAK _A_UCSR0B
        PUBWEAK _A_UCSR0C
        PUBWEAK _A_UCSR1A
        PUBWEAK _A_UCSR1B
        PUBWEAK _A_UCSR1C
        PUBWEAK _A_UDR0
        PUBWEAK _A_UDR1
        PUBWEAK _A_WDTCR
        PUBWEAK _A_XDIV
        PUBWEAK _A_XMCRA
        PUBWEAK _A_XMCRB
        PUBWEAK __?EEARH
        PUBWEAK __?EEARL
        PUBWEAK __?EECR
        PUBWEAK __?EEDR

`?<Name CNotifyerControl 48>` SYMBOL "CNotifyerControl"
`?<Name CPreventiveAlarmWind 53>` SYMBOL "CPreventiveAlarmWindowNotifyerControl"
`?<Name CEmergencyAlarmWindo 56>` SYMBOL "CEmergencyAlarmWindowNotifyerControl"
`?<Name CTestModeNotifyerCon 59>` SYMBOL "CTestModeNotifyerControl"
`?<Name CStatusLedNotifyerCo 76>` SYMBOL "CStatusLedNotifyerControl"
`?<Name CBuzzerNotifyerContr 79>` SYMBOL "CBuzzerNotifyerControl"
??__vtbl            SYMBOL "__vtbl", `?<Name CNotifyerControl 48>`
??__vtbl_1          SYMBOL "__vtbl", `?<Name CPreventiveAlarmWind 53>`
??__vtbl_2          SYMBOL "__vtbl", `?<Name CEmergencyAlarmWindo 56>`
??__vtbl_3          SYMBOL "__vtbl", `?<Name CTestModeNotifyerCon 59>`
??__vtbl_7          SYMBOL "__vtbl", `?<Name CStatusLedNotifyerCo 76>`
??__vtbl_8          SYMBOL "__vtbl", `?<Name CBuzzerNotifyerContr 79>`

        EXTERN ??ActiveAlarmWindowOff
        EXTERN ??ActiveAlarmWindowOn
        EXTERN ??AllAlarmWindowOff
        EXTERN ??AllAlarmWindowOn
        EXTERN ??BoardWindowsUpdate
        EXTERN ??CDfa
        EXTERN ??CTimer
        EXTERN ??HighOn
        EXTERN ??IsOverflow
        EXTERN ??LowOn
        EXTERN ??Off
        EXTERN ??Set
        EXTERN `??operator delete`
        EXTERN `??operator new`
        EXTERN `?~CDfa`
        EXTERN `?~CTimer`
        EXTERN __pure_virtual_called

// D:\Projects\CurrentProjects\CautoProjects\PSS48Color\src\NotifyerControl.cpp
//    1 //-----------------------------------------------------------------------------------------------------
//    2 //  Source      : FileName.cpp
//    3 //  Created     : 01.06.2022
//    4 //  Author      : Alexandr Volvenkin
//    5 //  email       : aav-36@mail.ru
//    6 //  GitHub      : https://github.com/AlexandrVolvenkin
//    7 //-----------------------------------------------------------------------------------------------------
//    8 #include "NotifyerControl.h"

        RSEG CODE:CODE:NOROOT(1)
// __version_3 void CDfa::SetSavedFsmState(uint8_t)
??SetSavedFsmState:
        MOVW    R31:R30, R17:R16
        STD     Z+3, R18
        RET

        RSEG CODE:CODE:NOROOT(1)
// __version_3 void CDfaLite::SetFsmState(uint8_t)
??SetFsmState:
        MOVW    R31:R30, R17:R16
        ST      Z, R18
        RET
//    9 #include "Platform.h"

        ASEGN ABSOLUTE:DATA:ROOT,09dH
// union <unnamed> volatile __io _A_UCSR1C
_A_UCSR1C:
        DS8 1

        ASEGN ABSOLUTE:DATA:ROOT,09cH
// union <unnamed> volatile __io _A_UDR1
_A_UDR1:
        DS8 1

        ASEGN ABSOLUTE:DATA:ROOT,09bH
// union <unnamed> volatile __io _A_UCSR1A
_A_UCSR1A:
        DS8 1

        ASEGN ABSOLUTE:DATA:ROOT,09aH
// union <unnamed> volatile __io _A_UCSR1B
_A_UCSR1B:
        DS8 1

        ASEGN ABSOLUTE:DATA:ROOT,099H
// union <unnamed> volatile __io _A_UBRR1L
_A_UBRR1L:
        DS8 1

        ASEGN ABSOLUTE:DATA:ROOT,098H
// union <unnamed> volatile __io _A_UBRR1H
_A_UBRR1H:
        DS8 1

        ASEGN ABSOLUTE:DATA:ROOT,095H
// union <unnamed> volatile __io _A_UCSR0C
_A_UCSR0C:
        DS8 1

        ASEGN ABSOLUTE:DATA:ROOT,090H
// union <unnamed> volatile __io _A_UBRR0H
_A_UBRR0H:
        DS8 1

        ASEGN ABSOLUTE:DATA:ROOT,08cH
// union <unnamed> volatile __io _A_TCCR3C
_A_TCCR3C:
        DS8 1

        ASEGN ABSOLUTE:DATA:ROOT,08bH
// union <unnamed> volatile __io _A_TCCR3A
_A_TCCR3A:
        DS8 1

        ASEGN ABSOLUTE:DATA:ROOT,08aH
// union <unnamed> volatile __io _A_TCCR3B
_A_TCCR3B:
        DS8 1

        ASEGN ABSOLUTE:DATA:ROOT,088H
// union <unnamed> volatile __io _A_TCNT3
_A_TCNT3:
        DS8 2

        ASEGN ABSOLUTE:DATA:ROOT,086H
// union <unnamed> volatile __io _A_OCR3A
_A_OCR3A:
        DS8 2

        ASEGN ABSOLUTE:DATA:ROOT,084H
// union <unnamed> volatile __io _A_OCR3B
_A_OCR3B:
        DS8 2

        ASEGN ABSOLUTE:DATA:ROOT,082H
// union <unnamed> volatile __io _A_OCR3C
_A_OCR3C:
        DS8 2

        ASEGN ABSOLUTE:DATA:ROOT,080H
// union <unnamed> volatile __io _A_ICR3
_A_ICR3:
        DS8 2

        ASEGN ABSOLUTE:DATA:ROOT,07dH
// union <unnamed> volatile __io _A_ETIMSK
_A_ETIMSK:
        DS8 1

        ASEGN ABSOLUTE:DATA:ROOT,07cH
// union <unnamed> volatile __io _A_ETIFR
_A_ETIFR:
        DS8 1

        ASEGN ABSOLUTE:DATA:ROOT,07aH
// union <unnamed> volatile __io _A_TCCR1C
_A_TCCR1C:
        DS8 1

        ASEGN ABSOLUTE:DATA:ROOT,078H
// union <unnamed> volatile __io _A_OCR1C
_A_OCR1C:
        DS8 2

        ASEGN ABSOLUTE:DATA:ROOT,074H
// union <unnamed> volatile __io _A_TWCR
_A_TWCR:
        DS8 1

        ASEGN ABSOLUTE:DATA:ROOT,073H
// union <unnamed> volatile __io _A_TWDR
_A_TWDR:
        DS8 1

        ASEGN ABSOLUTE:DATA:ROOT,072H
// union <unnamed> volatile __io _A_TWAR
_A_TWAR:
        DS8 1

        ASEGN ABSOLUTE:DATA:ROOT,071H
// union <unnamed> volatile __io _A_TWSR
_A_TWSR:
        DS8 1

        ASEGN ABSOLUTE:DATA:ROOT,070H
// union <unnamed> volatile __io _A_TWBR
_A_TWBR:
        DS8 1

        ASEGN ABSOLUTE:DATA:ROOT,06fH
// union <unnamed> volatile __io _A_OSCCAL
_A_OSCCAL:
        DS8 1

        ASEGN ABSOLUTE:DATA:ROOT,06dH
// union <unnamed> volatile __io _A_XMCRA
_A_XMCRA:
        DS8 1

        ASEGN ABSOLUTE:DATA:ROOT,06cH
// union <unnamed> volatile __io _A_XMCRB
_A_XMCRB:
        DS8 1

        ASEGN ABSOLUTE:DATA:ROOT,06aH
// union <unnamed> volatile __io _A_EICRA
_A_EICRA:
        DS8 1

        ASEGN ABSOLUTE:DATA:ROOT,068H
// union <unnamed> volatile __io _A_SPMCSR
_A_SPMCSR:
        DS8 1

        ASEGN ABSOLUTE:DATA:ROOT,065H
// union <unnamed> volatile __io _A_PORTG
_A_PORTG:
        DS8 1

        ASEGN ABSOLUTE:DATA:ROOT,064H
// union <unnamed> volatile __io _A_DDRG
_A_DDRG:
        DS8 1

        ASEGN ABSOLUTE:DATA:ROOT,063H
// union <unnamed> volatile __io _A_PING
_A_PING:
        DS8 1

        ASEGN ABSOLUTE:DATA:ROOT,062H
// union <unnamed> volatile __io _A_PORTF
_A_PORTF:
        DS8 1

        ASEGN ABSOLUTE:DATA:ROOT,061H
// union <unnamed> volatile __io _A_DDRF
_A_DDRF:
        DS8 1

        ASEGN ABSOLUTE:DATA:ROOT,05fH
// union <unnamed> volatile __io _A_SREG
_A_SREG:
        DS8 1

        ASEGN ABSOLUTE:DATA:ROOT,05dH
// union <unnamed> volatile __io _A_SP
_A_SP:
        DS8 2

        ASEGN ABSOLUTE:DATA:ROOT,05cH
// union <unnamed> volatile __io _A_XDIV
_A_XDIV:
        DS8 1

        ASEGN ABSOLUTE:DATA:ROOT,05bH
// union <unnamed> volatile __io _A_RAMPZ
_A_RAMPZ:
        DS8 1

        ASEGN ABSOLUTE:DATA:ROOT,05aH
// union <unnamed> volatile __io _A_EICRB
_A_EICRB:
        DS8 1

        ASEGN ABSOLUTE:DATA:ROOT,059H
// union <unnamed> volatile __io _A_EIMSK
_A_EIMSK:
        DS8 1

        ASEGN ABSOLUTE:DATA:ROOT,058H
// union <unnamed> volatile __io _A_EIFR
_A_EIFR:
        DS8 1

        ASEGN ABSOLUTE:DATA:ROOT,057H
// union <unnamed> volatile __io _A_TIMSK
_A_TIMSK:
        DS8 1

        ASEGN ABSOLUTE:DATA:ROOT,056H
// union <unnamed> volatile __io _A_TIFR
_A_TIFR:
        DS8 1

        ASEGN ABSOLUTE:DATA:ROOT,055H
// union <unnamed> volatile __io _A_MCUCR
_A_MCUCR:
        DS8 1

        ASEGN ABSOLUTE:DATA:ROOT,054H
// union <unnamed> volatile __io _A_MCUCSR
_A_MCUCSR:
        DS8 1

        ASEGN ABSOLUTE:DATA:ROOT,053H
// union <unnamed> volatile __io _A_TCCR0
_A_TCCR0:
        DS8 1

        ASEGN ABSOLUTE:DATA:ROOT,052H
// union <unnamed> volatile __io _A_TCNT0
_A_TCNT0:
        DS8 1

        ASEGN ABSOLUTE:DATA:ROOT,051H
// union <unnamed> volatile __io _A_OCR0
_A_OCR0:
        DS8 1

        ASEGN ABSOLUTE:DATA:ROOT,050H
// union <unnamed> volatile __io _A_ASSR
_A_ASSR:
        DS8 1

        ASEGN ABSOLUTE:DATA:ROOT,04fH
// union <unnamed> volatile __io _A_TCCR1A
_A_TCCR1A:
        DS8 1

        ASEGN ABSOLUTE:DATA:ROOT,04eH
// union <unnamed> volatile __io _A_TCCR1B
_A_TCCR1B:
        DS8 1

        ASEGN ABSOLUTE:DATA:ROOT,04cH
// union <unnamed> volatile __io _A_TCNT1
_A_TCNT1:
        DS8 2

        ASEGN ABSOLUTE:DATA:ROOT,04aH
// union <unnamed> volatile __io _A_OCR1A
_A_OCR1A:
        DS8 2

        ASEGN ABSOLUTE:DATA:ROOT,048H
// union <unnamed> volatile __io _A_OCR1B
_A_OCR1B:
        DS8 2

        ASEGN ABSOLUTE:DATA:ROOT,046H
// union <unnamed> volatile __io _A_ICR1
_A_ICR1:
        DS8 2

        ASEGN ABSOLUTE:DATA:ROOT,045H
// union <unnamed> volatile __io _A_TCCR2
_A_TCCR2:
        DS8 1

        ASEGN ABSOLUTE:DATA:ROOT,044H
// union <unnamed> volatile __io _A_TCNT2
_A_TCNT2:
        DS8 1

        ASEGN ABSOLUTE:DATA:ROOT,043H
// union <unnamed> volatile __io _A_OCR2
_A_OCR2:
        DS8 1

        ASEGN ABSOLUTE:DATA:ROOT,042H
// union <unnamed> volatile __io _A_OCDR
_A_OCDR:
        DS8 1

        ASEGN ABSOLUTE:DATA:ROOT,041H
// union <unnamed> volatile __io _A_WDTCR
_A_WDTCR:
        DS8 1

        ASEGN ABSOLUTE:DATA:ROOT,040H
// union <unnamed> volatile __io _A_SFIOR
_A_SFIOR:
        DS8 1

        ASEGN ABSOLUTE:DATA:ROOT,03eH
// union <unnamed> volatile __io _A_EEAR
_A_EEAR:
        DS8 2

        ASEGN ABSOLUTE:DATA:ROOT,03dH
// union <unnamed> volatile __io _A_EEDR
_A_EEDR:
        DS8 1

        ASEGN ABSOLUTE:DATA:ROOT,03cH
// union <unnamed> volatile __io _A_EECR
_A_EECR:
        DS8 1

        ASEGN ABSOLUTE:DATA:ROOT,03bH
// union <unnamed> volatile __io _A_PORTA
_A_PORTA:
        DS8 1

        ASEGN ABSOLUTE:DATA:ROOT,03aH
// union <unnamed> volatile __io _A_DDRA
_A_DDRA:
        DS8 1

        ASEGN ABSOLUTE:DATA:ROOT,039H
// union <unnamed> volatile __io _A_PINA
_A_PINA:
        DS8 1

        ASEGN ABSOLUTE:DATA:ROOT,038H
// union <unnamed> volatile __io _A_PORTB
_A_PORTB:
        DS8 1

        ASEGN ABSOLUTE:DATA:ROOT,037H
// union <unnamed> volatile __io _A_DDRB
_A_DDRB:
        DS8 1

        ASEGN ABSOLUTE:DATA:ROOT,036H
// union <unnamed> volatile __io _A_PINB
_A_PINB:
        DS8 1

        ASEGN ABSOLUTE:DATA:ROOT,035H
// union <unnamed> volatile __io _A_PORTC
_A_PORTC:
        DS8 1

        ASEGN ABSOLUTE:DATA:ROOT,034H
// union <unnamed> volatile __io _A_DDRC
_A_DDRC:
        DS8 1

        ASEGN ABSOLUTE:DATA:ROOT,033H
// union <unnamed> volatile __io _A_PINC
_A_PINC:
        DS8 1

        ASEGN ABSOLUTE:DATA:ROOT,032H
// union <unnamed> volatile __io _A_PORTD
_A_PORTD:
        DS8 1

        ASEGN ABSOLUTE:DATA:ROOT,031H
// union <unnamed> volatile __io _A_DDRD
_A_DDRD:
        DS8 1

        ASEGN ABSOLUTE:DATA:ROOT,030H
// union <unnamed> volatile __io _A_PIND
_A_PIND:
        DS8 1

        ASEGN ABSOLUTE:DATA:ROOT,02fH
// union <unnamed> volatile __io _A_SPDR
_A_SPDR:
        DS8 1

        ASEGN ABSOLUTE:DATA:ROOT,02eH
// union <unnamed> volatile __io _A_SPSR
_A_SPSR:
        DS8 1

        ASEGN ABSOLUTE:DATA:ROOT,02dH
// union <unnamed> volatile __io _A_SPCR
_A_SPCR:
        DS8 1

        ASEGN ABSOLUTE:DATA:ROOT,02cH
// union <unnamed> volatile __io _A_UDR0
_A_UDR0:
        DS8 1

        ASEGN ABSOLUTE:DATA:ROOT,02bH
// union <unnamed> volatile __io _A_UCSR0A
_A_UCSR0A:
        DS8 1

        ASEGN ABSOLUTE:DATA:ROOT,02aH
// union <unnamed> volatile __io _A_UCSR0B
_A_UCSR0B:
        DS8 1

        ASEGN ABSOLUTE:DATA:ROOT,029H
// union <unnamed> volatile __io _A_UBRR0L
_A_UBRR0L:
        DS8 1

        ASEGN ABSOLUTE:DATA:ROOT,028H
// union <unnamed> volatile __io _A_ACSR
_A_ACSR:
        DS8 1

        ASEGN ABSOLUTE:DATA:ROOT,027H
// union <unnamed> volatile __io _A_ADMUX
_A_ADMUX:
        DS8 1

        ASEGN ABSOLUTE:DATA:ROOT,026H
// union <unnamed> volatile __io _A_ADCSRA
_A_ADCSRA:
        DS8 1

        ASEGN ABSOLUTE:DATA:ROOT,024H
// union <unnamed> volatile __io _A_ADC
_A_ADC:
        DS8 2

        ASEGN ABSOLUTE:DATA:ROOT,023H
// union <unnamed> volatile __io _A_PORTE
_A_PORTE:
        DS8 1

        ASEGN ABSOLUTE:DATA:ROOT,022H
// union <unnamed> volatile __io _A_DDRE
_A_DDRE:
        DS8 1

        ASEGN ABSOLUTE:DATA:ROOT,021H
// union <unnamed> volatile __io _A_PINE
_A_PINE:
        DS8 1

        ASEGN ABSOLUTE:DATA:ROOT,020H
// union <unnamed> volatile __io _A_PINF
_A_PINF:
        DS8 1
//   10 #include "Pss21.h"
//   11 #include "Buzzer.h"
//   12 
//   13 //-----------------------------------------------------------------------------------------------------

        RSEG CODE:CODE:NOROOT(1)
//   14 CNotifyerControl::CNotifyerControl()
??CNotifyerControl:
        ST      -Y, R27
        ST      -Y, R26
        MOVW    R27:R26, R17:R16
//   15 {
        MOVW    R17:R16, R27:R26
        CALL    ??CDfa
        LDI     R16, LOW(??__vtbl)
        LDI     R17, (??__vtbl) >> 8
        MOVW    R31:R30, R27:R26
        STD     Z+1, R16
        STD     Z+2, R17
        MOVW    R17:R16, R27:R26
        SUBI    R16, 250
        SBCI    R17, 255
        CALL    ??CTimer
//   16     SetFsmState(STOP);
        LDI     R18, 37
        MOVW    R17:R16, R27:R26
        CALL    ??SetFsmState
//   17     SetSavedFsmState(STOP);
        LDI     R18, 37
        MOVW    R17:R16, R27:R26
        CALL    ??SetSavedFsmState
//   18 }
        MOVW    R17:R16, R27:R26
        LD      R26, Y+
        LD      R27, Y+
        RET

        RSEG CODE:CODE:NOROOT(1)
// __version_3 CNotifyerControl &CNotifyerControl::new CNotifyerControl()
`??new CNotifyerControl`:
        LDI     R16, 12
        LDI     R17, 0
        CALL    `??operator new`
        MOV     R18, R16
        OR      R18, R17
        BREQ    `??new CNotifyerControl_1`
        RCALL   ??CNotifyerControl
        RET
`??new CNotifyerControl_1`:
        LDI     R16, 0
        LDI     R17, 0
        RET
//   19 
//   20 CNotifyerControl::~CNotifyerControl()
//   21 {
//   22 
//   23 }
//   24 
//   25 ////-----------------------------------------------------------------------------------------------------
//   26 //void CNotifyerControl::Init(CAlarmWindow* pxAlarmWindowControl)
//   27 //{
//   28 ////    m_pxAlarmWindowControl = pxAlarmWindowControl;
//   29 //    SetFsmState(CNotifyerControl::STOP);
//   30 //}
//   31 
//   32 ////-----------------------------------------------------------------------------------------------------
//   33 //void CNotifyerControl::AlarmSet(uint8_t uiAlarmType)
//   34 //{
//   35 ////    SetSavedFsmState(GetFsmState());
//   36 ////    m_uiAlarmType = uiAlarmType;
//   37 ////    switch (m_uiAlarmType)
//   38 //    switch (uiAlarmType)
//   39 //    {
//   40 //    case NORMAL:
//   41 //        SetFsmState(STOP);
//   42 //        break;
//   43 //
//   44 //    case NORMAL:
//   45 //        SetFsmState(NORMAL_SIGNAL_START);
//   46 //        break;
//   47 //
//   48 //    case INDICATION:
//   49 //        SetFsmState(INDICATION_SIGNAL_START);
//   50 //        break;
//   51 //
//   52 //    case PREVENTIVE:
//   53 //        SetFsmState(WARNING_SIGNAL_START);
//   54 //        break;
//   55 //
//   56 //    case EMERGENCY:
//   57 //        SetFsmState(ALARM_SIGNAL_START);
//   58 //        break;
//   59 //
//   60 //    case IND_PREVENTIVE:
//   61 //        break;
//   62 //
//   63 //    case IND_EMERGENCY:
//   64 //        break;
//   65 //
//   66 //    default:
//   67 //        break;
//   68 //    }
//   69 //}
//   70 
//   71 //class Base
//   72 //{
//   73 //    const int k;
//   74 //public:
//   75 //    Base(const int i) :
//   76 //        k(i)
//   77 //    {
//   78 //    }
//   79 //    virtual void print() const
//   80 //    {
//   81 //        std::cout << k << std::endl;
//   82 //    }
//   83 //};
//   84 //class D1 : public Base
//   85 //{
//   86 //public:
//   87 //    D1(const int j) :
//   88 //        Base(j)
//   89 //    {
//   90 //    }
//   91 //};
//   92 
//   93 //-----------------------------------------------------------------------------------------------------
//   94 void CNotifyerControl::Fsm(void)
//   95 {
//   96     switch (GetFsmState())
//   97     {
//   98     case IDDLE:
//   99         break;
//  100 
//  101     case NORMAL_SIGNAL_START:
//  102         m_xTimer.Set(NORMAL_SIGNAL_ON_TIME());
//  103         NotifyerNormalOn();
//  104         SetFsmState(NORMAL_SIGNAL_ON);
//  105         break;
//  106 
//  107     case NORMAL_SIGNAL_ON:
//  108         if (m_xTimer.IsOverflow())
//  109         {
//  110             m_xTimer.Set(NORMAL_SIGNAL_OFF_TIME());
//  111             NotifyerOff();
//  112             SetFsmState(NORMAL_SIGNAL_OFF);
//  113         }
//  114         break;
//  115 
//  116     case NORMAL_SIGNAL_OFF:
//  117         if (m_xTimer.IsOverflow())
//  118         {
//  119             m_xTimer.Set(NORMAL_SIGNAL_ON_TIME());
//  120             NotifyerNormalOn();
//  121             SetFsmState(NORMAL_SIGNAL_ON);
//  122         }
//  123         break;
//  124 
//  125     case INDICATION_SIGNAL_START:
//  126         m_xTimer.Set(NORMAL_SIGNAL_ON_TIME());
//  127         NotifyerIndicationOn();
//  128         SetFsmState(INDICATION_SIGNAL_ON);
//  129         break;
//  130 
//  131     case INDICATION_SIGNAL_ON:
//  132         if (m_xTimer.IsOverflow())
//  133         {
//  134 //            m_xTimer.Set(NORMAL_SIGNAL_OFF_TIME());
//  135 //            NotifyerOff();
//  136             SetFsmState(INDICATION_SIGNAL_START);
//  137         }
//  138         break;
//  139 
//  140 //    case INDICATION_SIGNAL_OFF:
//  141 ////        if (m_xTimer.IsOverflow())
//  142 ////        {
//  143 ////            m_xTimer.Set(NORMAL_SIGNAL_ON_TIME());
//  144 ////            NotifyerIndicationOn();
//  145 ////            SetFsmState(INDICATION_SIGNAL_ON);
//  146 ////        }
//  147 //        break;
//  148 
//  149     case WARNING_SIGNAL_START:
//  150         m_xTimer.Set(WARNING_SIGNAL_ON_TIME());
//  151         NotifyerPreventiveOn();
//  152         SetFsmState(WARNING_SIGNAL_ON);
//  153         break;
//  154 
//  155     case WARNING_SIGNAL_ON:
//  156         if (m_xTimer.IsOverflow())
//  157         {
//  158             m_xTimer.Set(WARNING_SIGNAL_OFF_TIME());
//  159             NotifyerOff();
//  160             SetFsmState(WARNING_SIGNAL_OFF);
//  161         }
//  162         break;
//  163 
//  164     case WARNING_SIGNAL_OFF:
//  165         if (m_xTimer.IsOverflow())
//  166         {
//  167             m_xTimer.Set(WARNING_SIGNAL_ON_TIME());
//  168             NotifyerPreventiveOn();
//  169             SetFsmState(WARNING_SIGNAL_ON);
//  170         }
//  171         break;
//  172 
//  173     case ALARM_SIGNAL_START:
//  174         m_xTimer.Set(ALARM_SIGNAL_ON_TIME());
//  175         NotifyerEmergencyOn();
//  176         SetFsmState(ALARM_SIGNAL_ON);
//  177         break;
//  178 
//  179     case ALARM_SIGNAL_ON:
//  180         if (m_xTimer.IsOverflow())
//  181         {
//  182             m_xTimer.Set(ALARM_SIGNAL_OFF_TIME());
//  183             NotifyerOff();
//  184             SetFsmState(ALARM_SIGNAL_OFF);
//  185         }
//  186         break;
//  187 
//  188     case ALARM_SIGNAL_OFF:
//  189         if (m_xTimer.IsOverflow())
//  190         {
//  191             m_xTimer.Set(ALARM_SIGNAL_ON_TIME());
//  192             NotifyerEmergencyOn();
//  193             SetFsmState(ALARM_SIGNAL_ON);
//  194         }
//  195         break;
//  196 
//  197     case ERROR_SIGNAL_START:
//  198         m_xTimer.Set(ERROR_SIGNAL_ON_TIME());
//  199         NotifyerEmergencyOn();
//  200         SetFsmState(ERROR_SIGNAL_ON);
//  201         break;
//  202 
//  203     case ERROR_SIGNAL_ON:
//  204         if (m_xTimer.IsOverflow())
//  205         {
//  206             m_xTimer.Set(ERROR_SIGNAL_OFF_TIME());
//  207             NotifyerOff();
//  208             SetFsmState(ERROR_SIGNAL_OFF);
//  209         }
//  210         break;
//  211 
//  212     case ERROR_SIGNAL_OFF:
//  213         if (m_xTimer.IsOverflow())
//  214         {
//  215             m_xTimer.Set(ERROR_SIGNAL_ON_TIME());
//  216             NotifyerEmergencyOn();
//  217             SetFsmState(ERROR_SIGNAL_ON_2);
//  218         }
//  219         break;
//  220 
//  221     case ERROR_SIGNAL_ON_2:
//  222         if (m_xTimer.IsOverflow())
//  223         {
//  224             m_xTimer.Set(ERROR_SIGNAL_PAUSE_TIME());
//  225             NotifyerOff();
//  226             SetFsmState(ERROR_SIGNAL_OFF_2);
//  227         }
//  228         break;
//  229 
//  230     case ERROR_SIGNAL_OFF_2:
//  231         if (m_xTimer.IsOverflow())
//  232         {
//  233             m_xTimer.Set(ERROR_SIGNAL_ON_TIME());
//  234             NotifyerEmergencyOn();
//  235             SetFsmState(ERROR_SIGNAL_ON);
//  236         }
//  237         break;
//  238 
//  239     case BEEP_SIGNAL_START:
//  240         m_xTimer.Set(BEEP_SIGNAL_ON_TIME());
//  241         //        NotifyerEmergencyOn();
//  242         NotifyerPreventiveOn();
//  243         SetFsmState(BEEP_SIGNAL_ON);
//  244         break;
//  245 
//  246     case BEEP_SIGNAL_ON:
//  247         if (m_xTimer.IsOverflow())
//  248         {
//  249             NotifyerOff();
//  250             // Восстановим предыдущее состояние автомата.
//  251             SetFsmState(GetSavedFsmState());
//  252 //            SetFsmState(STOP);
//  253         }
//  254         break;
//  255 
//  256     case STOP:
//  257         NotifyerOff();
//  258         SetFsmState(IDDLE);
//  259         break;
//  260 
//  261     default:
//  262         break;
//  263     };
//  264 }
//  265 //-----------------------------------------------------------------------------------------------------
//  266 
//  267 
//  268 
//  269 
//  270 
//  271 
//  272 //-----------------------------------------------------------------------------------------------------

        RSEG CODE:CODE:NOROOT(1)
//  273 CPreventiveAlarmWindowNotifyerControl::CPreventiveAlarmWindowNotifyerControl()
??CPreventiveAlarmWindowNotifyerControl:
        ST      -Y, R27
        ST      -Y, R26
        MOVW    R27:R26, R17:R16
//  274 {
        MOVW    R17:R16, R27:R26
        RCALL   ??CNotifyerControl
        LDI     R16, LOW(??__vtbl_1)
        LDI     R17, (??__vtbl_1) >> 8
        MOVW    R31:R30, R27:R26
        STD     Z+1, R16
        STD     Z+2, R17
//  275     SetFsmState(STOP);
        LDI     R18, 37
        MOVW    R17:R16, R27:R26
        CALL    ??SetFsmState
//  276     SetSavedFsmState(STOP);
        LDI     R18, 37
        MOVW    R17:R16, R27:R26
        CALL    ??SetSavedFsmState
//  277 }
        MOVW    R17:R16, R27:R26
        LD      R26, Y+
        LD      R27, Y+
        RET

        RSEG CODE:CODE:NOROOT(1)
// __version_3 CPreventiveAlarmWindowNotifyerControl &CPreventiveAlarmWindowNotifyerControl::new CPreventiveAlarmWindowNotifyerControl()
`??new CPreventiveAlarmWindowNotifyerControl`:
        LDI     R16, 12
        LDI     R17, 0
        CALL    `??operator new`
        MOV     R18, R16
        OR      R18, R17
        BREQ    `??new CPreventiveAlarmWindowNotifyerControl_1`
        RCALL   ??CPreventiveAlarmWindowNotifyerControl
        RET
`??new CPreventiveAlarmWindowNotifyerControl_1`:
        LDI     R16, 0
        LDI     R17, 0
        RET
//  278 
//  279 CPreventiveAlarmWindowNotifyerControl::~CPreventiveAlarmWindowNotifyerControl()
//  280 {
//  281     SetFsmState(STOP);
//  282 }
//  283 
//  284 //-----------------------------------------------------------------------------------------------------
//  285 void CPreventiveAlarmWindowNotifyerControl::AlarmSet(uint8_t uiAlarmType)
//  286 {
//  287     // Сохраним текущее состояние автомата.
//  288     SetSavedFsmState(GetFsmState());
//  289     switch (uiAlarmType)
//  290     {
//  291     case NORMAL:
//  292         SetFsmState(STOP);
//  293         break;
//  294 
//  295     case INDICATION:
//  296         SetFsmState(INDICATION_SIGNAL_START);
//  297         break;
//  298 
//  299     case PREVENTIVE:
//  300         SetFsmState(WARNING_SIGNAL_START);
//  301         break;
//  302 
//  303     case EMERGENCY:
//  304         SetFsmState(WARNING_SIGNAL_START);
//  305         break;
//  306 
//  307     case IND_PREVENTIVE:
//  308         break;
//  309 
//  310     case IND_EMERGENCY:
//  311         break;
//  312 
//  313     case ERROR:
//  314         break;
//  315 
//  316     case BEEP_SIGNAL:
//  317         break;
//  318 
//  319     default:
//  320         break;
//  321     }
//  322 }
//  323 
//  324 //-----------------------------------------------------------------------------------------------------
//  325 void CPreventiveAlarmWindowNotifyerControl::NotifyerNormalOn(void)
//  326 {
//  327 
//  328 }
//  329 
//  330 //-----------------------------------------------------------------------------------------------------
//  331 void CPreventiveAlarmWindowNotifyerControl::NotifyerIndicationOn(void)
//  332 {
//  333     CPss21::ActiveAlarmWindowOn(INDICATION);
//  334 }
//  335 
//  336 //-----------------------------------------------------------------------------------------------------
//  337 void CPreventiveAlarmWindowNotifyerControl::NotifyerPreventiveOn(void)
//  338 {
//  339     CPss21::ActiveAlarmWindowOn(PREVENTIVE);
//  340 }
//  341 
//  342 //-----------------------------------------------------------------------------------------------------
//  343 void CPreventiveAlarmWindowNotifyerControl::NotifyerEmergencyOn(void)
//  344 {
//  345 
//  346 }
//  347 
//  348 //-----------------------------------------------------------------------------------------------------
//  349 void CPreventiveAlarmWindowNotifyerControl::NotifyerOff(void)
//  350 {
//  351     CPss21::ActiveAlarmWindowOff(PREVENTIVE);
//  352     CPss21::BoardWindowsUpdate();
//  353 }
//  354 //-----------------------------------------------------------------------------------------------------
//  355 
//  356 
//  357 
//  358 
//  359 
//  360 
//  361 //-----------------------------------------------------------------------------------------------------

        RSEG CODE:CODE:NOROOT(1)
//  362 CEmergencyAlarmWindowNotifyerControl::CEmergencyAlarmWindowNotifyerControl()
??CEmergencyAlarmWindowNotifyerControl:
        ST      -Y, R27
        ST      -Y, R26
        MOVW    R27:R26, R17:R16
//  363 {
        MOVW    R17:R16, R27:R26
        RCALL   ??CNotifyerControl
        LDI     R16, LOW(??__vtbl_2)
        LDI     R17, (??__vtbl_2) >> 8
        MOVW    R31:R30, R27:R26
        STD     Z+1, R16
        STD     Z+2, R17
//  364     SetFsmState(STOP);
        LDI     R18, 37
        MOVW    R17:R16, R27:R26
        CALL    ??SetFsmState
//  365     SetSavedFsmState(STOP);
        LDI     R18, 37
        MOVW    R17:R16, R27:R26
        CALL    ??SetSavedFsmState
//  366 }
        MOVW    R17:R16, R27:R26
        LD      R26, Y+
        LD      R27, Y+
        RET

        RSEG CODE:CODE:NOROOT(1)
// __version_3 CEmergencyAlarmWindowNotifyerControl &CEmergencyAlarmWindowNotifyerControl::new CEmergencyAlarmWindowNotifyerControl()
`??new CEmergencyAlarmWindowNotifyerControl`:
        LDI     R16, 12
        LDI     R17, 0
        CALL    `??operator new`
        MOV     R18, R16
        OR      R18, R17
        BREQ    `??new CEmergencyAlarmWindowNotifyerControl_1`
        RCALL   ??CEmergencyAlarmWindowNotifyerControl
        RET
`??new CEmergencyAlarmWindowNotifyerControl_1`:
        LDI     R16, 0
        LDI     R17, 0
        RET
//  367 
//  368 CEmergencyAlarmWindowNotifyerControl::~CEmergencyAlarmWindowNotifyerControl()
//  369 {
//  370     SetFsmState(STOP);
//  371 }
//  372 
//  373 //-----------------------------------------------------------------------------------------------------
//  374 void CEmergencyAlarmWindowNotifyerControl::AlarmSet(uint8_t uiAlarmType)
//  375 {
//  376     // Сохраним текущее состояние автомата.
//  377     SetSavedFsmState(GetFsmState());
//  378     switch (uiAlarmType)
//  379     {
//  380     case NORMAL:
//  381         SetFsmState(STOP);
//  382         break;
//  383 
//  384     case INDICATION:
//  385         SetFsmState(INDICATION_SIGNAL_START);
//  386         break;
//  387 
//  388     case PREVENTIVE:
//  389         SetFsmState(STOP);
//  390         break;
//  391 
//  392     case EMERGENCY:
//  393         SetFsmState(ALARM_SIGNAL_START);
//  394         break;
//  395 
//  396     case IND_PREVENTIVE:
//  397         break;
//  398 
//  399     case IND_EMERGENCY:
//  400         break;
//  401 
//  402     case ERROR:
//  403         break;
//  404 
//  405     case BEEP_SIGNAL:
//  406         break;
//  407 
//  408     default:
//  409         break;
//  410     }
//  411 }
//  412 
//  413 
//  414 //-----------------------------------------------------------------------------------------------------
//  415 void CEmergencyAlarmWindowNotifyerControl::NotifyerNormalOn(void)
//  416 {
//  417 
//  418 }
//  419 
//  420 //-----------------------------------------------------------------------------------------------------
//  421 void CEmergencyAlarmWindowNotifyerControl::NotifyerIndicationOn(void)
//  422 {
//  423     CPss21::ActiveAlarmWindowOn(INDICATION);
//  424 }
//  425 
//  426 //-----------------------------------------------------------------------------------------------------
//  427 void CEmergencyAlarmWindowNotifyerControl::NotifyerPreventiveOn(void)
//  428 {
//  429 
//  430 }
//  431 
//  432 //-----------------------------------------------------------------------------------------------------
//  433 void CEmergencyAlarmWindowNotifyerControl::NotifyerEmergencyOn(void)
//  434 {
//  435     CPss21::ActiveAlarmWindowOn(EMERGENCY);
//  436 }
//  437 
//  438 //-----------------------------------------------------------------------------------------------------
//  439 void CEmergencyAlarmWindowNotifyerControl::NotifyerOff(void)
//  440 {
//  441     CPss21::ActiveAlarmWindowOff(EMERGENCY);
//  442     CPss21::BoardWindowsUpdate();
//  443 }
//  444 //-----------------------------------------------------------------------------------------------------
//  445 
//  446 
//  447 
//  448 
//  449 
//  450 
//  451 
//  452 
//  453 
//  454 //-----------------------------------------------------------------------------------------------------
//  455 

        RSEG CODE:CODE:NOROOT(1)
//  456 CStatusLedNotifyerControl::CStatusLedNotifyerControl()
??CStatusLedNotifyerControl:
        ST      -Y, R27
        ST      -Y, R26
        MOVW    R27:R26, R17:R16
//  457 {
        MOVW    R17:R16, R27:R26
        RCALL   ??CNotifyerControl
        LDI     R16, LOW(??__vtbl_7)
        LDI     R17, (??__vtbl_7) >> 8
        MOVW    R31:R30, R27:R26
        STD     Z+1, R16
        STD     Z+2, R17
//  458     SetFsmState(NORMAL_SIGNAL_START);
        LDI     R18, 24
        MOVW    R17:R16, R27:R26
        CALL    ??SetFsmState
//  459     SetSavedFsmState(NORMAL_SIGNAL_START);
        LDI     R18, 24
        MOVW    R17:R16, R27:R26
        CALL    ??SetSavedFsmState
//  460 }
        MOVW    R17:R16, R27:R26
        LD      R26, Y+
        LD      R27, Y+
        RET

        RSEG CODE:CODE:NOROOT(1)
// __version_3 CStatusLedNotifyerControl &CStatusLedNotifyerControl::new CStatusLedNotifyerControl()
`??new CStatusLedNotifyerControl`:
        LDI     R16, 12
        LDI     R17, 0
        CALL    `??operator new`
        MOV     R18, R16
        OR      R18, R17
        BREQ    `??new CStatusLedNotifyerControl_1`
        RCALL   ??CStatusLedNotifyerControl
        RET
`??new CStatusLedNotifyerControl_1`:
        LDI     R16, 0
        LDI     R17, 0
        RET
//  461 
//  462 CStatusLedNotifyerControl::~CStatusLedNotifyerControl()
//  463 {
//  464     SetFsmState(STOP);
//  465 }
//  466 
//  467 //-----------------------------------------------------------------------------------------------------
//  468 void CStatusLedNotifyerControl::AlarmSet(uint8_t uiAlarmType)
//  469 {
//  470     // Сохраним текущее состояние автомата.
//  471     SetSavedFsmState(GetFsmState());
//  472     switch (uiAlarmType)
//  473     {
//  474     case NORMAL:
//  475         SetFsmState(NORMAL_SIGNAL_START);
//  476         break;
//  477 
//  478     case INDICATION:
//  479         SetFsmState(NORMAL_SIGNAL_START);
//  480         break;
//  481 
//  482     case PREVENTIVE:
//  483         SetFsmState(WARNING_SIGNAL_START);
//  484         break;
//  485 
//  486     case EMERGENCY:
//  487         SetFsmState(ALARM_SIGNAL_START);
//  488         break;
//  489 
//  490     case IND_PREVENTIVE:
//  491         break;
//  492 
//  493     case IND_EMERGENCY:
//  494         break;
//  495 
//  496     case ERROR:
//  497         SetFsmState(ERROR_SIGNAL_START);
//  498         break;
//  499 
//  500     case BEEP_SIGNAL:
//  501         break;
//  502 
//  503     default:
//  504         break;
//  505     }
//  506 }
//  507 
//  508 //-----------------------------------------------------------------------------------------------------
//  509 void CStatusLedNotifyerControl::NotifyerNormalOn(void)
//  510 {
//  511     CPlatform::StatusLedOn();
//  512 }
//  513 
//  514 //-----------------------------------------------------------------------------------------------------
//  515 void CStatusLedNotifyerControl::NotifyerIndicationOn(void)
//  516 {
//  517 
//  518 }
//  519 
//  520 //-----------------------------------------------------------------------------------------------------
//  521 void CStatusLedNotifyerControl::NotifyerPreventiveOn(void)
//  522 {
//  523     CPlatform::StatusLedOn();
//  524 }
//  525 
//  526 //-----------------------------------------------------------------------------------------------------
//  527 void CStatusLedNotifyerControl::NotifyerEmergencyOn(void)
//  528 {
//  529     CPlatform::StatusLedOn();
//  530 }
//  531 
//  532 //-----------------------------------------------------------------------------------------------------
//  533 void CStatusLedNotifyerControl::NotifyerOff(void)
//  534 {
//  535     CPlatform::StatusLedOff();
//  536     CPss21::BoardWindowsUpdate();
//  537 }
//  538 //-----------------------------------------------------------------------------------------------------
//  539 
//  540 
//  541 
//  542 
//  543 
//  544 
//  545 //-----------------------------------------------------------------------------------------------------
//  546 

        RSEG CODE:CODE:NOROOT(1)
//  547 CBuzzerNotifyerControl::CBuzzerNotifyerControl()
??CBuzzerNotifyerControl:
        ST      -Y, R27
        ST      -Y, R26
        MOVW    R27:R26, R17:R16
//  548 {
        MOVW    R17:R16, R27:R26
        RCALL   ??CNotifyerControl
        LDI     R16, LOW(??__vtbl_8)
        LDI     R17, (??__vtbl_8) >> 8
        MOVW    R31:R30, R27:R26
        STD     Z+1, R16
        STD     Z+2, R17
//  549     SetFsmState(STOP);
        LDI     R18, 37
        MOVW    R17:R16, R27:R26
        CALL    ??SetFsmState
//  550     SetSavedFsmState(STOP);
        LDI     R18, 37
        MOVW    R17:R16, R27:R26
        CALL    ??SetSavedFsmState
//  551 }
        MOVW    R17:R16, R27:R26
        LD      R26, Y+
        LD      R27, Y+
        RET

        RSEG CODE:CODE:NOROOT(1)
// __version_3 CBuzzerNotifyerControl &CBuzzerNotifyerControl::new CBuzzerNotifyerControl()
`??new CBuzzerNotifyerControl`:
        LDI     R16, 12
        LDI     R17, 0
        CALL    `??operator new`
        MOV     R18, R16
        OR      R18, R17
        BREQ    `??new CBuzzerNotifyerControl_1`
        RCALL   ??CBuzzerNotifyerControl
        RET
`??new CBuzzerNotifyerControl_1`:
        LDI     R16, 0
        LDI     R17, 0
        RET

        RSEG CODE:CODE:NOROOT(1)
??CTestModeNotifyerControl:
        ST      -Y, R27
        ST      -Y, R26
        MOVW    R27:R26, R17:R16
        MOVW    R17:R16, R27:R26
        RCALL   ??CNotifyerControl
        LDI     R16, LOW(??__vtbl_3)
        LDI     R17, (??__vtbl_3) >> 8
        MOVW    R31:R30, R27:R26
        STD     Z+1, R16
        STD     Z+2, R17
        LDI     R18, 37
        MOVW    R17:R16, R27:R26
        CALL    ??SetFsmState
        LDI     R18, 37
        MOVW    R17:R16, R27:R26
        CALL    ??SetSavedFsmState
        MOVW    R17:R16, R27:R26
        LD      R26, Y+
        LD      R27, Y+
        RET

        RSEG CODE:CODE:NOROOT(1)
// __version_3 CTestModeNotifyerControl &CTestModeNotifyerControl::new CTestModeNotifyerControl()
`??new CTestModeNotifyerControl`:
        LDI     R16, 12
        LDI     R17, 0
        CALL    `??operator new`
        MOV     R18, R16
        OR      R18, R17
        BREQ    `??new CTestModeNotifyerControl_1`
        RCALL   ??CTestModeNotifyerControl
        RET
`??new CTestModeNotifyerControl_1`:
        LDI     R16, 0
        LDI     R17, 0
        RET

        RSEG CODE:CODE:NOROOT(1)
`?~CNotifyerControl`:
        CALL    ?PROLOGUE4_L09
        MOVW    R27:R26, R17:R16
        MOVW    R25:R24, R19:R18
        MOV     R16, R26
        OR      R16, R27
        BREQ    `?~CNotifyerControl_1`
        LDI     R16, LOW(??__vtbl)
        LDI     R17, (??__vtbl) >> 8
        MOVW    R31:R30, R27:R26
        STD     Z+1, R16
        STD     Z+2, R17
        LDI     R18, 2
        LDI     R19, 0
        MOVW    R17:R16, R27:R26
        SUBI    R16, 250
        SBCI    R17, 255
        CALL    `?~CTimer`
        LDI     R18, 0
        LDI     R19, 0
        MOVW    R17:R16, R27:R26
        CALL    `?~CDfa`
        BST     R24, 0
        BRTC    `?~CNotifyerControl_1`
        MOVW    R17:R16, R27:R26
        CALL    `??operator delete`
`?~CNotifyerControl_1`:
        LDI     R30, 4
        JMP     ?EPILOGUE_B4_L09

        RSEG CODE:CODE:NOROOT(1)
??Fsm:
        ST      -Y, R27
        ST      -Y, R26
        MOVW    R27:R26, R17:R16
        MOVW    R17:R16, R27:R26
        CALL    ??GetFsmState
        LDI     R30, LOW(`?<Jumptable for Fsm>_0`)
        LDI     R31, (`?<Jumptable for Fsm>_0`) >> 16
        OUT     0x3B, R31
        LDI     R31, HIGH(`?<Jumptable for Fsm>_0`)
        JMP     ?CV_SWITCH_L06
??Fsm_2:
        MOVW    R17:R16, R27:R26
        ADIW    R27:R26, 1
        LD      R30, X+
        LD      R31, X
        SBIW    R27:R26, 2
        ADIW    R31:R30, 16
        LPM     R18, Z+
        LPM     R19, Z
        SBIW    R31:R30, 17
        MOVW    R31:R30, R19:R18
        ICALL
        MOVW    R19:R18, R17:R16
        MOVW    R17:R16, R27:R26
        SUBI    R16, 250
        SBCI    R17, 255
        CALL    ??Set
        MOVW    R17:R16, R27:R26
        ADIW    R27:R26, 1
        LD      R30, X+
        LD      R31, X
        SBIW    R27:R26, 2
        ADIW    R31:R30, 4
        LPM     R18, Z+
        LPM     R19, Z
        SBIW    R31:R30, 5
        MOVW    R31:R30, R19:R18
        ICALL
        LDI     R18, 25
        MOVW    R17:R16, R27:R26
        CALL    ??SetFsmState
        RJMP    ??Fsm_3
??Fsm_4:
        MOVW    R17:R16, R27:R26
        SUBI    R16, 250
        SBCI    R17, 255
        CALL    ??IsOverflow
        TST     R16
        BREQ    ??Fsm_5
        MOVW    R17:R16, R27:R26
        ADIW    R27:R26, 1
        LD      R30, X+
        LD      R31, X
        SBIW    R27:R26, 2
        ADIW    R31:R30, 18
        LPM     R18, Z+
        LPM     R19, Z
        SBIW    R31:R30, 19
        MOVW    R31:R30, R19:R18
        ICALL
        MOVW    R19:R18, R17:R16
        MOVW    R17:R16, R27:R26
        SUBI    R16, 250
        SBCI    R17, 255
        CALL    ??Set
        MOVW    R17:R16, R27:R26
        ADIW    R27:R26, 1
        LD      R30, X+
        LD      R31, X
        SBIW    R27:R26, 2
        ADIW    R31:R30, 12
        LPM     R18, Z+
        LPM     R19, Z
        SBIW    R31:R30, 13
        MOVW    R31:R30, R19:R18
        ICALL
        LDI     R18, 26
        MOVW    R17:R16, R27:R26
        CALL    ??SetFsmState
??Fsm_5:
        RJMP    ??Fsm_3
??Fsm_6:
        MOVW    R17:R16, R27:R26
        SUBI    R16, 250
        SBCI    R17, 255
        CALL    ??IsOverflow
        TST     R16
        BREQ    ??Fsm_7
        MOVW    R17:R16, R27:R26
        ADIW    R27:R26, 1
        LD      R30, X+
        LD      R31, X
        SBIW    R27:R26, 2
        ADIW    R31:R30, 16
        LPM     R18, Z+
        LPM     R19, Z
        SBIW    R31:R30, 17
        MOVW    R31:R30, R19:R18
        ICALL
        MOVW    R19:R18, R17:R16
        MOVW    R17:R16, R27:R26
        SUBI    R16, 250
        SBCI    R17, 255
        CALL    ??Set
        MOVW    R17:R16, R27:R26
        ADIW    R27:R26, 1
        LD      R30, X+
        LD      R31, X
        SBIW    R27:R26, 2
        ADIW    R31:R30, 4
        LPM     R18, Z+
        LPM     R19, Z
        SBIW    R31:R30, 5
        MOVW    R31:R30, R19:R18
        ICALL
        LDI     R18, 25
        MOVW    R17:R16, R27:R26
        CALL    ??SetFsmState
??Fsm_7:
        RJMP    ??Fsm_3
??Fsm_8:
        MOVW    R17:R16, R27:R26
        ADIW    R27:R26, 1
        LD      R30, X+
        LD      R31, X
        SBIW    R27:R26, 2
        ADIW    R31:R30, 16
        LPM     R18, Z+
        LPM     R19, Z
        SBIW    R31:R30, 17
        MOVW    R31:R30, R19:R18
        ICALL
        MOVW    R19:R18, R17:R16
        MOVW    R17:R16, R27:R26
        SUBI    R16, 250
        SBCI    R17, 255
        CALL    ??Set
        MOVW    R17:R16, R27:R26
        ADIW    R27:R26, 1
        LD      R30, X+
        LD      R31, X
        SBIW    R27:R26, 2
        ADIW    R31:R30, 6
        LPM     R18, Z+
        LPM     R19, Z
        SBIW    R31:R30, 7
        MOVW    R31:R30, R19:R18
        ICALL
        LDI     R18, 2
        MOVW    R17:R16, R27:R26
        CALL    ??SetFsmState
        RJMP    ??Fsm_3
??Fsm_9:
        MOVW    R17:R16, R27:R26
        SUBI    R16, 250
        SBCI    R17, 255
        CALL    ??IsOverflow
        TST     R16
        BREQ    ??Fsm_10
        LDI     R18, 1
        MOVW    R17:R16, R27:R26
        CALL    ??SetFsmState
??Fsm_10:
        RJMP    ??Fsm_3
??Fsm_11:
        MOVW    R17:R16, R27:R26
        ADIW    R27:R26, 1
        LD      R30, X+
        LD      R31, X
        SBIW    R27:R26, 2
        ADIW    R31:R30, 20
        LPM     R18, Z+
        LPM     R19, Z
        SBIW    R31:R30, 21
        MOVW    R31:R30, R19:R18
        ICALL
        MOVW    R19:R18, R17:R16
        MOVW    R17:R16, R27:R26
        SUBI    R16, 250
        SBCI    R17, 255
        CALL    ??Set
        MOVW    R17:R16, R27:R26
        ADIW    R27:R26, 1
        LD      R30, X+
        LD      R31, X
        SBIW    R27:R26, 2
        ADIW    R31:R30, 8
        LPM     R18, Z+
        LPM     R19, Z
        SBIW    R31:R30, 9
        MOVW    R31:R30, R19:R18
        ICALL
        LDI     R18, 8
        MOVW    R17:R16, R27:R26
        CALL    ??SetFsmState
        RJMP    ??Fsm_3
??Fsm_12:
        MOVW    R17:R16, R27:R26
        SUBI    R16, 250
        SBCI    R17, 255
        CALL    ??IsOverflow
        TST     R16
        BREQ    ??Fsm_13
        MOVW    R17:R16, R27:R26
        ADIW    R27:R26, 1
        LD      R30, X+
        LD      R31, X
        SBIW    R27:R26, 2
        ADIW    R31:R30, 22
        LPM     R18, Z+
        LPM     R19, Z
        SBIW    R31:R30, 23
        MOVW    R31:R30, R19:R18
        ICALL
        MOVW    R19:R18, R17:R16
        MOVW    R17:R16, R27:R26
        SUBI    R16, 250
        SBCI    R17, 255
        CALL    ??Set
        MOVW    R17:R16, R27:R26
        ADIW    R27:R26, 1
        LD      R30, X+
        LD      R31, X
        SBIW    R27:R26, 2
        ADIW    R31:R30, 12
        LPM     R18, Z+
        LPM     R19, Z
        SBIW    R31:R30, 13
        MOVW    R31:R30, R19:R18
        ICALL
        LDI     R18, 9
        MOVW    R17:R16, R27:R26
        CALL    ??SetFsmState
??Fsm_13:
        RJMP    ??Fsm_3
??Fsm_14:
        MOVW    R17:R16, R27:R26
        SUBI    R16, 250
        SBCI    R17, 255
        CALL    ??IsOverflow
        TST     R16
        BREQ    ??Fsm_15
        MOVW    R17:R16, R27:R26
        ADIW    R27:R26, 1
        LD      R30, X+
        LD      R31, X
        SBIW    R27:R26, 2
        ADIW    R31:R30, 20
        LPM     R18, Z+
        LPM     R19, Z
        SBIW    R31:R30, 21
        MOVW    R31:R30, R19:R18
        ICALL
        MOVW    R19:R18, R17:R16
        MOVW    R17:R16, R27:R26
        SUBI    R16, 250
        SBCI    R17, 255
        CALL    ??Set
        MOVW    R17:R16, R27:R26
        ADIW    R27:R26, 1
        LD      R30, X+
        LD      R31, X
        SBIW    R27:R26, 2
        ADIW    R31:R30, 8
        LPM     R18, Z+
        LPM     R19, Z
        SBIW    R31:R30, 9
        MOVW    R31:R30, R19:R18
        ICALL
        LDI     R18, 8
        MOVW    R17:R16, R27:R26
        CALL    ??SetFsmState
??Fsm_15:
        RJMP    ??Fsm_3
??Fsm_16:
        MOVW    R17:R16, R27:R26
        ADIW    R27:R26, 1
        LD      R30, X+
        LD      R31, X
        SBIW    R27:R26, 2
        ADIW    R31:R30, 24
        LPM     R18, Z+
        LPM     R19, Z
        SBIW    R31:R30, 25
        MOVW    R31:R30, R19:R18
        ICALL
        MOVW    R19:R18, R17:R16
        MOVW    R17:R16, R27:R26
        SUBI    R16, 250
        SBCI    R17, 255
        CALL    ??Set
        MOVW    R17:R16, R27:R26
        ADIW    R27:R26, 1
        LD      R30, X+
        LD      R31, X
        SBIW    R27:R26, 2
        ADIW    R31:R30, 10
        LPM     R18, Z+
        LPM     R19, Z
        SBIW    R31:R30, 11
        MOVW    R31:R30, R19:R18
        ICALL
        LDI     R18, 14
        MOVW    R17:R16, R27:R26
        CALL    ??SetFsmState
        RJMP    ??Fsm_3
??Fsm_17:
        MOVW    R17:R16, R27:R26
        SUBI    R16, 250
        SBCI    R17, 255
        CALL    ??IsOverflow
        TST     R16
        BREQ    ??Fsm_18
        MOVW    R17:R16, R27:R26
        ADIW    R27:R26, 1
        LD      R30, X+
        LD      R31, X
        SBIW    R27:R26, 2
        ADIW    R31:R30, 26
        LPM     R18, Z+
        LPM     R19, Z
        SBIW    R31:R30, 27
        MOVW    R31:R30, R19:R18
        ICALL
        MOVW    R19:R18, R17:R16
        MOVW    R17:R16, R27:R26
        SUBI    R16, 250
        SBCI    R17, 255
        CALL    ??Set
        MOVW    R17:R16, R27:R26
        ADIW    R27:R26, 1
        LD      R30, X+
        LD      R31, X
        SBIW    R27:R26, 2
        ADIW    R31:R30, 12
        LPM     R18, Z+
        LPM     R19, Z
        SBIW    R31:R30, 13
        MOVW    R31:R30, R19:R18
        ICALL
        LDI     R18, 15
        MOVW    R17:R16, R27:R26
        CALL    ??SetFsmState
??Fsm_18:
        RJMP    ??Fsm_3
??Fsm_19:
        MOVW    R17:R16, R27:R26
        SUBI    R16, 250
        SBCI    R17, 255
        CALL    ??IsOverflow
        TST     R16
        BREQ    ??Fsm_20
        MOVW    R17:R16, R27:R26
        ADIW    R27:R26, 1
        LD      R30, X+
        LD      R31, X
        SBIW    R27:R26, 2
        ADIW    R31:R30, 24
        LPM     R18, Z+
        LPM     R19, Z
        SBIW    R31:R30, 25
        MOVW    R31:R30, R19:R18
        ICALL
        MOVW    R19:R18, R17:R16
        MOVW    R17:R16, R27:R26
        SUBI    R16, 250
        SBCI    R17, 255
        CALL    ??Set
        MOVW    R17:R16, R27:R26
        ADIW    R27:R26, 1
        LD      R30, X+
        LD      R31, X
        SBIW    R27:R26, 2
        ADIW    R31:R30, 10
        LPM     R18, Z+
        LPM     R19, Z
        SBIW    R31:R30, 11
        MOVW    R31:R30, R19:R18
        ICALL
        LDI     R18, 14
        MOVW    R17:R16, R27:R26
        CALL    ??SetFsmState
??Fsm_20:
        RJMP    ??Fsm_3
??Fsm_21:
        MOVW    R17:R16, R27:R26
        ADIW    R27:R26, 1
        LD      R30, X+
        LD      R31, X
        SBIW    R27:R26, 2
        ADIW    R31:R30, 28
        LPM     R18, Z+
        LPM     R19, Z
        SBIW    R31:R30, 29
        MOVW    R31:R30, R19:R18
        ICALL
        MOVW    R19:R18, R17:R16
        MOVW    R17:R16, R27:R26
        SUBI    R16, 250
        SBCI    R17, 255
        CALL    ??Set
        MOVW    R17:R16, R27:R26
        ADIW    R27:R26, 1
        LD      R30, X+
        LD      R31, X
        SBIW    R27:R26, 2
        ADIW    R31:R30, 10
        LPM     R18, Z+
        LPM     R19, Z
        SBIW    R31:R30, 11
        MOVW    R31:R30, R19:R18
        ICALL
        LDI     R18, 20
        MOVW    R17:R16, R27:R26
        CALL    ??SetFsmState
        RJMP    ??Fsm_3
??Fsm_22:
        MOVW    R17:R16, R27:R26
        SUBI    R16, 250
        SBCI    R17, 255
        CALL    ??IsOverflow
        TST     R16
        BREQ    ??Fsm_23
        MOVW    R17:R16, R27:R26
        ADIW    R27:R26, 1
        LD      R30, X+
        LD      R31, X
        SBIW    R27:R26, 2
        ADIW    R31:R30, 30
        LPM     R18, Z+
        LPM     R19, Z
        SBIW    R31:R30, 31
        MOVW    R31:R30, R19:R18
        ICALL
        MOVW    R19:R18, R17:R16
        MOVW    R17:R16, R27:R26
        SUBI    R16, 250
        SBCI    R17, 255
        CALL    ??Set
        MOVW    R17:R16, R27:R26
        ADIW    R27:R26, 1
        LD      R30, X+
        LD      R31, X
        SBIW    R27:R26, 2
        ADIW    R31:R30, 12
        LPM     R18, Z+
        LPM     R19, Z
        SBIW    R31:R30, 13
        MOVW    R31:R30, R19:R18
        ICALL
        LDI     R18, 21
        MOVW    R17:R16, R27:R26
        CALL    ??SetFsmState
??Fsm_23:
        RJMP    ??Fsm_3
??Fsm_24:
        MOVW    R17:R16, R27:R26
        SUBI    R16, 250
        SBCI    R17, 255
        CALL    ??IsOverflow
        TST     R16
        BREQ    ??Fsm_25
        MOVW    R17:R16, R27:R26
        ADIW    R27:R26, 1
        LD      R30, X+
        LD      R31, X
        SBIW    R27:R26, 2
        ADIW    R31:R30, 28
        LPM     R18, Z+
        LPM     R19, Z
        SBIW    R31:R30, 29
        MOVW    R31:R30, R19:R18
        ICALL
        MOVW    R19:R18, R17:R16
        MOVW    R17:R16, R27:R26
        SUBI    R16, 250
        SBCI    R17, 255
        CALL    ??Set
        MOVW    R17:R16, R27:R26
        ADIW    R27:R26, 1
        LD      R30, X+
        LD      R31, X
        SBIW    R27:R26, 2
        ADIW    R31:R30, 10
        LPM     R18, Z+
        LPM     R19, Z
        SBIW    R31:R30, 11
        MOVW    R31:R30, R19:R18
        ICALL
        LDI     R18, 22
        MOVW    R17:R16, R27:R26
        CALL    ??SetFsmState
??Fsm_25:
        RJMP    ??Fsm_3
??Fsm_26:
        MOVW    R17:R16, R27:R26
        SUBI    R16, 250
        SBCI    R17, 255
        CALL    ??IsOverflow
        TST     R16
        BREQ    ??Fsm_27
        MOVW    R17:R16, R27:R26
        ADIW    R27:R26, 1
        LD      R30, X+
        LD      R31, X
        SBIW    R27:R26, 2
        ADIW    R31:R30, 32
        LPM     R18, Z+
        LPM     R19, Z
        SBIW    R31:R30, 33
        MOVW    R31:R30, R19:R18
        ICALL
        MOVW    R19:R18, R17:R16
        MOVW    R17:R16, R27:R26
        SUBI    R16, 250
        SBCI    R17, 255
        CALL    ??Set
        MOVW    R17:R16, R27:R26
        ADIW    R27:R26, 1
        LD      R30, X+
        LD      R31, X
        SBIW    R27:R26, 2
        ADIW    R31:R30, 12
        LPM     R18, Z+
        LPM     R19, Z
        SBIW    R31:R30, 13
        MOVW    R31:R30, R19:R18
        ICALL
        LDI     R18, 23
        MOVW    R17:R16, R27:R26
        CALL    ??SetFsmState
??Fsm_27:
        RJMP    ??Fsm_3
??Fsm_28:
        MOVW    R17:R16, R27:R26
        SUBI    R16, 250
        SBCI    R17, 255
        CALL    ??IsOverflow
        TST     R16
        BREQ    ??Fsm_29
        MOVW    R17:R16, R27:R26
        ADIW    R27:R26, 1
        LD      R30, X+
        LD      R31, X
        SBIW    R27:R26, 2
        ADIW    R31:R30, 28
        LPM     R18, Z+
        LPM     R19, Z
        SBIW    R31:R30, 29
        MOVW    R31:R30, R19:R18
        ICALL
        MOVW    R19:R18, R17:R16
        MOVW    R17:R16, R27:R26
        SUBI    R16, 250
        SBCI    R17, 255
        CALL    ??Set
        MOVW    R17:R16, R27:R26
        ADIW    R27:R26, 1
        LD      R30, X+
        LD      R31, X
        SBIW    R27:R26, 2
        ADIW    R31:R30, 10
        LPM     R18, Z+
        LPM     R19, Z
        SBIW    R31:R30, 11
        MOVW    R31:R30, R19:R18
        ICALL
        LDI     R18, 20
        MOVW    R17:R16, R27:R26
        CALL    ??SetFsmState
??Fsm_29:
        RJMP    ??Fsm_3
??Fsm_30:
        MOVW    R17:R16, R27:R26
        ADIW    R27:R26, 1
        LD      R30, X+
        LD      R31, X
        SBIW    R27:R26, 2
        ADIW    R31:R30, 34
        LPM     R18, Z+
        LPM     R19, Z
        SBIW    R31:R30, 35
        MOVW    R31:R30, R19:R18
        ICALL
        MOVW    R19:R18, R17:R16
        MOVW    R17:R16, R27:R26
        SUBI    R16, 250
        SBCI    R17, 255
        CALL    ??Set
        MOVW    R17:R16, R27:R26
        ADIW    R27:R26, 1
        LD      R30, X+
        LD      R31, X
        SBIW    R27:R26, 2
        ADIW    R31:R30, 8
        LPM     R18, Z+
        LPM     R19, Z
        SBIW    R31:R30, 9
        MOVW    R31:R30, R19:R18
        ICALL
        LDI     R18, 31
        MOVW    R17:R16, R27:R26
        CALL    ??SetFsmState
        RJMP    ??Fsm_3
??Fsm_31:
        MOVW    R17:R16, R27:R26
        SUBI    R16, 250
        SBCI    R17, 255
        CALL    ??IsOverflow
        TST     R16
        BREQ    ??Fsm_3
        MOVW    R17:R16, R27:R26
        ADIW    R27:R26, 1
        LD      R30, X+
        LD      R31, X
        SBIW    R27:R26, 2
        ADIW    R31:R30, 12
        LPM     R18, Z+
        LPM     R19, Z
        SBIW    R31:R30, 13
        MOVW    R31:R30, R19:R18
        ICALL
        MOVW    R17:R16, R27:R26
        CALL    ??GetSavedFsmState
        MOV     R18, R16
        MOVW    R17:R16, R27:R26
        CALL    ??SetFsmState
        RJMP    ??Fsm_3
??Fsm_32:
        MOVW    R17:R16, R27:R26
        ADIW    R27:R26, 1
        LD      R30, X+
        LD      R31, X
        SBIW    R27:R26, 2
        ADIW    R31:R30, 12
        LPM     R18, Z+
        LPM     R19, Z
        SBIW    R31:R30, 13
        MOVW    R31:R30, R19:R18
        ICALL
        LDI     R18, 0
        MOVW    R17:R16, R27:R26
        CALL    ??SetFsmState
??Fsm_3:
        LD      R26, Y+
        LD      R27, Y+
        RET

        RSEG CODE:CODE:NOROOT(1)
`?~CPreventiveAlarmWindowNotifyerControl`:
        CALL    ?PROLOGUE4_L09
        MOVW    R25:R24, R17:R16
        MOVW    R27:R26, R19:R18
        MOV     R16, R24
        OR      R16, R25
        BREQ    `?~CPreventiveAlarmWindowNotifyerControl_1`
        LDI     R18, 37
        MOVW    R17:R16, R25:R24
        CALL    ??SetFsmState
        LDI     R18, 0
        LDI     R19, 0
        MOVW    R17:R16, R25:R24
        RCALL   `?~CNotifyerControl`
        BST     R26, 0
        BRTC    `?~CPreventiveAlarmWindowNotifyerControl_1`
        MOVW    R17:R16, R25:R24
        CALL    `??operator delete`
`?~CPreventiveAlarmWindowNotifyerControl_1`:
        LDI     R30, 4
        JMP     ?EPILOGUE_B4_L09

        RSEG CODE:CODE:NOROOT(1)
??AlarmSet:
        CALL    ?PROLOGUE3_L09
        MOVW    R25:R24, R17:R16
        MOV     R26, R18
        MOVW    R17:R16, R25:R24
        CALL    ??GetFsmState
        MOV     R18, R16
        MOVW    R17:R16, R25:R24
        CALL    ??SetSavedFsmState
        MOV     R16, R26
        SUBI    R16, 0
        BREQ    ??AlarmSet_5
        DEC     R16
        BREQ    ??AlarmSet_6
        DEC     R16
        BREQ    ??AlarmSet_7
        DEC     R16
        BREQ    ??AlarmSet_8
        DEC     R16
        BREQ    ??AlarmSet_9
        DEC     R16
        BREQ    ??AlarmSet_9
        SUBI    R16, 2
        BREQ    ??AlarmSet_9
        DEC     R16
        BREQ    ??AlarmSet_9
        RJMP    ??AlarmSet_9
??AlarmSet_5:
        LDI     R18, 37
        MOVW    R17:R16, R25:R24
        CALL    ??SetFsmState
        RJMP    ??AlarmSet_9
??AlarmSet_6:
        LDI     R18, 1
        MOVW    R17:R16, R25:R24
        CALL    ??SetFsmState
        RJMP    ??AlarmSet_9
??AlarmSet_7:
        LDI     R18, 7
        MOVW    R17:R16, R25:R24
        CALL    ??SetFsmState
        RJMP    ??AlarmSet_9
??AlarmSet_8:
        LDI     R18, 7
        MOVW    R17:R16, R25:R24
        CALL    ??SetFsmState
??AlarmSet_9:
        LDI     R30, 3
        JMP     ?EPILOGUE_B3_L09

        RSEG CODE:CODE:NOROOT(1)
??NotifyerNormalOn:
        RET

        RSEG CODE:CODE:NOROOT(1)
??NotifyerIndicationOn:
        ST      -Y, R25
        ST      -Y, R24
        MOVW    R25:R24, R17:R16
        LDI     R16, 1
        CALL    ??ActiveAlarmWindowOn
        LD      R24, Y+
        LD      R25, Y+
        RET

        RSEG CODE:CODE:NOROOT(1)
??NotifyerPreventiveOn:
        ST      -Y, R25
        ST      -Y, R24
        MOVW    R25:R24, R17:R16
        LDI     R16, 2
        CALL    ??ActiveAlarmWindowOn
        LD      R24, Y+
        LD      R25, Y+
        RET

        RSEG CODE:CODE:NOROOT(1)
??NotifyerEmergencyOn:
        RET

        RSEG CODE:CODE:NOROOT(1)
??NotifyerOff:
        ST      -Y, R25
        ST      -Y, R24
        MOVW    R25:R24, R17:R16
        LDI     R16, 2
        CALL    ??ActiveAlarmWindowOff
        CALL    ??BoardWindowsUpdate
        LD      R24, Y+
        LD      R25, Y+
        RET

        RSEG CODE:CODE:NOROOT(1)
`?~CEmergencyAlarmWindowNotifyerControl`:
        CALL    ?PROLOGUE4_L09
        MOVW    R25:R24, R17:R16
        MOVW    R27:R26, R19:R18
        MOV     R16, R24
        OR      R16, R25
        BREQ    `?~CEmergencyAlarmWindowNotifyerControl_1`
        LDI     R18, 37
        MOVW    R17:R16, R25:R24
        CALL    ??SetFsmState
        LDI     R18, 0
        LDI     R19, 0
        MOVW    R17:R16, R25:R24
        RCALL   `?~CNotifyerControl`
        BST     R26, 0
        BRTC    `?~CEmergencyAlarmWindowNotifyerControl_1`
        MOVW    R17:R16, R25:R24
        CALL    `??operator delete`
`?~CEmergencyAlarmWindowNotifyerControl_1`:
        LDI     R30, 4
        JMP     ?EPILOGUE_B4_L09

        RSEG CODE:CODE:NOROOT(1)
??AlarmSet_1:
        CALL    ?PROLOGUE3_L09
        MOVW    R25:R24, R17:R16
        MOV     R26, R18
        MOVW    R17:R16, R25:R24
        CALL    ??GetFsmState
        MOV     R18, R16
        MOVW    R17:R16, R25:R24
        CALL    ??SetSavedFsmState
        MOV     R16, R26
        SUBI    R16, 0
        BREQ    ??AlarmSet_10
        DEC     R16
        BREQ    ??AlarmSet_11
        DEC     R16
        BREQ    ??AlarmSet_12
        DEC     R16
        BREQ    ??AlarmSet_13
        DEC     R16
        BREQ    ??AlarmSet_14
        DEC     R16
        BREQ    ??AlarmSet_14
        SUBI    R16, 2
        BREQ    ??AlarmSet_14
        DEC     R16
        BREQ    ??AlarmSet_14
        RJMP    ??AlarmSet_14
??AlarmSet_10:
        LDI     R18, 37
        MOVW    R17:R16, R25:R24
        CALL    ??SetFsmState
        RJMP    ??AlarmSet_14
??AlarmSet_11:
        LDI     R18, 1
        MOVW    R17:R16, R25:R24
        CALL    ??SetFsmState
        RJMP    ??AlarmSet_14
??AlarmSet_12:
        LDI     R18, 37
        MOVW    R17:R16, R25:R24
        CALL    ??SetFsmState
        RJMP    ??AlarmSet_14
??AlarmSet_13:
        LDI     R18, 13
        MOVW    R17:R16, R25:R24
        CALL    ??SetFsmState
??AlarmSet_14:
        LDI     R30, 3
        JMP     ?EPILOGUE_B3_L09

        RSEG CODE:CODE:NOROOT(1)
??NotifyerNormalOn_1:
        RET

        RSEG CODE:CODE:NOROOT(1)
??NotifyerIndicationOn_1:
        ST      -Y, R25
        ST      -Y, R24
        MOVW    R25:R24, R17:R16
        LDI     R16, 1
        CALL    ??ActiveAlarmWindowOn
        LD      R24, Y+
        LD      R25, Y+
        RET

        RSEG CODE:CODE:NOROOT(1)
??NotifyerPreventiveOn_1:
        RET

        RSEG CODE:CODE:NOROOT(1)
??NotifyerEmergencyOn_1:
        ST      -Y, R25
        ST      -Y, R24
        MOVW    R25:R24, R17:R16
        LDI     R16, 3
        CALL    ??ActiveAlarmWindowOn
        LD      R24, Y+
        LD      R25, Y+
        RET

        RSEG CODE:CODE:NOROOT(1)
??NotifyerOff_1:
        ST      -Y, R25
        ST      -Y, R24
        MOVW    R25:R24, R17:R16
        LDI     R16, 3
        CALL    ??ActiveAlarmWindowOff
        CALL    ??BoardWindowsUpdate
        LD      R24, Y+
        LD      R25, Y+
        RET

        RSEG CODE:CODE:NOROOT(1)
`?~CStatusLedNotifyerControl`:
        CALL    ?PROLOGUE4_L09
        MOVW    R25:R24, R17:R16
        MOVW    R27:R26, R19:R18
        MOV     R16, R24
        OR      R16, R25
        BREQ    `?~CStatusLedNotifyerControl_1`
        LDI     R18, 37
        MOVW    R17:R16, R25:R24
        CALL    ??SetFsmState
        LDI     R18, 0
        LDI     R19, 0
        MOVW    R17:R16, R25:R24
        RCALL   `?~CNotifyerControl`
        BST     R26, 0
        BRTC    `?~CStatusLedNotifyerControl_1`
        MOVW    R17:R16, R25:R24
        CALL    `??operator delete`
`?~CStatusLedNotifyerControl_1`:
        LDI     R30, 4
        JMP     ?EPILOGUE_B4_L09

        RSEG CODE:CODE:NOROOT(1)
??AlarmSet_3:
        CALL    ?PROLOGUE3_L09
        MOVW    R25:R24, R17:R16
        MOV     R26, R18
        MOVW    R17:R16, R25:R24
        CALL    ??GetFsmState
        MOV     R18, R16
        MOVW    R17:R16, R25:R24
        CALL    ??SetSavedFsmState
        MOV     R16, R26
        SUBI    R16, 0
        BREQ    ??AlarmSet_15
        DEC     R16
        BREQ    ??AlarmSet_16
        DEC     R16
        BREQ    ??AlarmSet_17
        DEC     R16
        BREQ    ??AlarmSet_18
        DEC     R16
        BREQ    ??AlarmSet_19
        DEC     R16
        BREQ    ??AlarmSet_19
        SUBI    R16, 2
        BREQ    ??AlarmSet_20
        DEC     R16
        BREQ    ??AlarmSet_19
        RJMP    ??AlarmSet_19
??AlarmSet_15:
        LDI     R18, 24
        MOVW    R17:R16, R25:R24
        CALL    ??SetFsmState
        RJMP    ??AlarmSet_19
??AlarmSet_16:
        LDI     R18, 24
        MOVW    R17:R16, R25:R24
        CALL    ??SetFsmState
        RJMP    ??AlarmSet_19
??AlarmSet_17:
        LDI     R18, 7
        MOVW    R17:R16, R25:R24
        CALL    ??SetFsmState
        RJMP    ??AlarmSet_19
??AlarmSet_18:
        LDI     R18, 13
        MOVW    R17:R16, R25:R24
        CALL    ??SetFsmState
        RJMP    ??AlarmSet_19
??AlarmSet_20:
        LDI     R18, 19
        MOVW    R17:R16, R25:R24
        CALL    ??SetFsmState
??AlarmSet_19:
        LDI     R30, 3
        JMP     ?EPILOGUE_B3_L09

        RSEG CODE:CODE:NOROOT(1)
??NotifyerNormalOn_3:
        ST      -Y, R25
        ST      -Y, R24
        MOVW    R25:R24, R17:R16
        CALL    ??StatusLedOn
        LD      R24, Y+
        LD      R25, Y+
        RET

        RSEG CODE:CODE:NOROOT(1)
??NotifyerIndicationOn_3:
        RET

        RSEG CODE:CODE:NOROOT(1)
??NotifyerPreventiveOn_3:
        ST      -Y, R25
        ST      -Y, R24
        MOVW    R25:R24, R17:R16
        CALL    ??StatusLedOn
        LD      R24, Y+
        LD      R25, Y+
        RET

        RSEG CODE:CODE:NOROOT(1)
??NotifyerEmergencyOn_3:
        ST      -Y, R25
        ST      -Y, R24
        MOVW    R25:R24, R17:R16
        CALL    ??StatusLedOn
        LD      R24, Y+
        LD      R25, Y+
        RET

        RSEG CODE:CODE:NOROOT(1)
??NotifyerOff_3:
        ST      -Y, R25
        ST      -Y, R24
        MOVW    R25:R24, R17:R16
        CALL    ??StatusLedOff
        CALL    ??BoardWindowsUpdate
        LD      R24, Y+
        LD      R25, Y+
        RET
//  552 

        RSEG CODE:CODE:NOROOT(1)
//  553 CBuzzerNotifyerControl::~CBuzzerNotifyerControl()
`?~CBuzzerNotifyerControl`:
//  554 {
        CALL    ?PROLOGUE4_L09
        MOVW    R25:R24, R17:R16
        MOVW    R27:R26, R19:R18
        MOV     R16, R24
        OR      R16, R25
        BREQ    `?~CBuzzerNotifyerControl_1`
//  555     SetFsmState(STOP);
        LDI     R18, 37
        MOVW    R17:R16, R25:R24
        CALL    ??SetFsmState
//  556 }
        LDI     R18, 0
        LDI     R19, 0
        MOVW    R17:R16, R25:R24
        RCALL   `?~CNotifyerControl`
        BST     R26, 0
        BRTC    `?~CBuzzerNotifyerControl_1`
        MOVW    R17:R16, R25:R24
        CALL    `??operator delete`
`?~CBuzzerNotifyerControl_1`:
        LDI     R30, 4
        JMP     ?EPILOGUE_B4_L09
//  557 
//  558 //-----------------------------------------------------------------------------------------------------

        RSEG CODE:CODE:NOROOT(1)
//  559 void CBuzzerNotifyerControl::AlarmSet(uint8_t uiAlarmType)
??AlarmSet_4:
//  560 {
        CALL    ?PROLOGUE3_L09
        MOVW    R25:R24, R17:R16
        MOV     R26, R18
//  561     // Сохраним текущее состояние автомата.
//  562     SetSavedFsmState(GetFsmState());
        MOVW    R17:R16, R25:R24
        CALL    ??GetFsmState
        MOV     R18, R16
        MOVW    R17:R16, R25:R24
        CALL    ??SetSavedFsmState
//  563     switch (uiAlarmType)
        MOV     R16, R26
        SUBI    R16, 0
        BREQ    ??AlarmSet_21
        DEC     R16
        BREQ    ??AlarmSet_22
        DEC     R16
        BREQ    ??AlarmSet_23
        DEC     R16
        BREQ    ??AlarmSet_24
        DEC     R16
        BREQ    ??AlarmSet_25
        DEC     R16
        BREQ    ??AlarmSet_25
        SUBI    R16, 2
        BREQ    ??AlarmSet_26
        DEC     R16
        BREQ    ??AlarmSet_27
        RJMP    ??AlarmSet_25
//  564     {
//  565     case NORMAL:
//  566         SetFsmState(STOP);
??AlarmSet_21:
        LDI     R18, 37
        MOVW    R17:R16, R25:R24
        CALL    ??SetFsmState
//  567         break;
        RJMP    ??AlarmSet_25
//  568 
//  569     case INDICATION:
//  570         SetFsmState(STOP);
??AlarmSet_22:
        LDI     R18, 37
        MOVW    R17:R16, R25:R24
        CALL    ??SetFsmState
//  571         break;
        RJMP    ??AlarmSet_25
//  572 
//  573     case PREVENTIVE:
//  574         SetFsmState(WARNING_SIGNAL_START);
??AlarmSet_23:
        LDI     R18, 7
        MOVW    R17:R16, R25:R24
        CALL    ??SetFsmState
//  575         break;
        RJMP    ??AlarmSet_25
//  576 
//  577     case EMERGENCY:
//  578         SetFsmState(ALARM_SIGNAL_START);
??AlarmSet_24:
        LDI     R18, 13
        MOVW    R17:R16, R25:R24
        CALL    ??SetFsmState
//  579         break;
        RJMP    ??AlarmSet_25
//  580 
//  581     case IND_PREVENTIVE:
//  582         break;
//  583 
//  584     case IND_EMERGENCY:
//  585         break;
//  586 
//  587     case ERROR:
//  588         SetFsmState(ERROR_SIGNAL_START);
??AlarmSet_26:
        LDI     R18, 19
        MOVW    R17:R16, R25:R24
        CALL    ??SetFsmState
//  589         break;
        RJMP    ??AlarmSet_25
//  590 
//  591     case BEEP_SIGNAL:
//  592         SetFsmState(BEEP_SIGNAL_START);
??AlarmSet_27:
        LDI     R18, 30
        MOVW    R17:R16, R25:R24
        CALL    ??SetFsmState
//  593         break;
//  594 
//  595     default:
//  596         break;
//  597     }
//  598 }
??AlarmSet_25:
        LDI     R30, 3
        JMP     ?EPILOGUE_B3_L09
//  599 
//  600 //-----------------------------------------------------------------------------------------------------

        RSEG CODE:CODE:NOROOT(1)
//  601 void CBuzzerNotifyerControl::NotifyerNormalOn(void)
??NotifyerNormalOn_4:
//  602 {
        ST      -Y, R25
        ST      -Y, R24
        MOVW    R25:R24, R17:R16
//  603     CBuzzer::Off();
        CALL    ??Off
//  604 }
        LD      R24, Y+
        LD      R25, Y+
        RET
//  605 
//  606 //-----------------------------------------------------------------------------------------------------

        RSEG CODE:CODE:NOROOT(1)
//  607 void CBuzzerNotifyerControl::NotifyerIndicationOn(void)
??NotifyerIndicationOn_4:
//  608 {
        ST      -Y, R25
        ST      -Y, R24
        MOVW    R25:R24, R17:R16
//  609     CBuzzer::Off();
        CALL    ??Off
//  610 }
        LD      R24, Y+
        LD      R25, Y+
        RET
//  611 
//  612 //-----------------------------------------------------------------------------------------------------

        RSEG CODE:CODE:NOROOT(1)
//  613 void CBuzzerNotifyerControl::NotifyerPreventiveOn(void)
??NotifyerPreventiveOn_4:
//  614 {
        ST      -Y, R25
        ST      -Y, R24
        MOVW    R25:R24, R17:R16
//  615     CBuzzer::LowOn();
        CALL    ??LowOn
//  616 }
        LD      R24, Y+
        LD      R25, Y+
        RET
//  617 
//  618 //-----------------------------------------------------------------------------------------------------

        RSEG CODE:CODE:NOROOT(1)
//  619 void CBuzzerNotifyerControl::NotifyerEmergencyOn(void)
??NotifyerEmergencyOn_4:
//  620 {
        ST      -Y, R25
        ST      -Y, R24
        MOVW    R25:R24, R17:R16
//  621     CBuzzer::HighOn();
        CALL    ??HighOn
//  622 }
        LD      R24, Y+
        LD      R25, Y+
        RET
//  623 
//  624 //-----------------------------------------------------------------------------------------------------

        RSEG CODE:CODE:NOROOT(1)
//  625 void CBuzzerNotifyerControl::NotifyerOff(void)
??NotifyerOff_4:
//  626 {
        ST      -Y, R25
        ST      -Y, R24
        MOVW    R25:R24, R17:R16
//  627     CBuzzer::Off();
        CALL    ??Off
//  628     CPss21::BoardWindowsUpdate();
        CALL    ??BoardWindowsUpdate
//  629 }
        LD      R24, Y+
        LD      R25, Y+
        RET
//  630 //-----------------------------------------------------------------------------------------------------
//  631 
//  632 
//  633 
//  634 
//  635 
//  636 
//  637 
//  638 //-----------------------------------------------------------------------------------------------------
//  639 CTestModeNotifyerControl::CTestModeNotifyerControl()
//  640 {
//  641     SetFsmState(STOP);
//  642     SetSavedFsmState(STOP);
//  643 }
//  644 

        RSEG CODE:CODE:NOROOT(1)
//  645 CTestModeNotifyerControl::~CTestModeNotifyerControl()
`?~CTestModeNotifyerControl`:
//  646 {
        CALL    ?PROLOGUE4_L09
        MOVW    R25:R24, R17:R16
        MOVW    R27:R26, R19:R18
        MOV     R16, R24
        OR      R16, R25
        BREQ    `?~CTestModeNotifyerControl_1`
//  647     SetFsmState(STOP);
        LDI     R18, 37
        MOVW    R17:R16, R25:R24
        CALL    ??SetFsmState
//  648 }
        LDI     R18, 0
        LDI     R19, 0
        MOVW    R17:R16, R25:R24
        RCALL   `?~CNotifyerControl`
        BST     R26, 0
        BRTC    `?~CTestModeNotifyerControl_1`
        MOVW    R17:R16, R25:R24
        CALL    `??operator delete`
`?~CTestModeNotifyerControl_1`:
        LDI     R30, 4
        JMP     ?EPILOGUE_B4_L09
//  649 
//  650 //-----------------------------------------------------------------------------------------------------

        RSEG CODE:CODE:NOROOT(1)
//  651 void CTestModeNotifyerControl::AlarmSet(uint8_t uiAlarmType)
??AlarmSet_2:
//  652 {
//  653 //    // Сохраним текущее состояние автомата.
//  654 //    SetSavedFsmState(GetFsmState());
//  655 //    switch (uiAlarmType)
//  656 //    {
//  657 //    case NORMAL:
//  658 //        SetFsmState(STOP);
//  659 //        break;
//  660 //
//  661 //    case INDICATION:
//  662 //        SetFsmState(INDICATION_SIGNAL_START);
//  663 //        break;
//  664 //
//  665 //    case PREVENTIVE:
//  666 //        SetFsmState(WARNING_SIGNAL_START);
//  667 //        break;
//  668 //
//  669 //    case EMERGENCY:
//  670 //        SetFsmState(WARNING_SIGNAL_START);
//  671 //        break;
//  672 //
//  673 //    case IND_PREVENTIVE:
//  674 //        break;
//  675 //
//  676 //    case IND_EMERGENCY:
//  677 //        break;
//  678 //
//  679 //    case ERROR:
//  680 //        break;
//  681 //
//  682 //    case BEEP_SIGNAL:
//  683 //        break;
//  684 //
//  685 //    default:
//  686 //        break;
//  687 //    }
//  688 }
        RET
//  689 
//  690 //-----------------------------------------------------------------------------------------------------

        RSEG CODE:CODE:NOROOT(1)
//  691 void CTestModeNotifyerControl::NotifyerNormalOn(void)
??NotifyerNormalOn_2:
//  692 {
        ST      -Y, R25
        ST      -Y, R24
        MOVW    R25:R24, R17:R16
//  693     CPss21::AllAlarmWindowOn(INDICATION);
        LDI     R16, 1
        CALL    ??AllAlarmWindowOn
//  694     CBuzzer::LowOn();
        CALL    ??LowOn
//  695 }
        LD      R24, Y+
        LD      R25, Y+
        RET
//  696 
//  697 //-----------------------------------------------------------------------------------------------------

        RSEG CODE:CODE:NOROOT(1)
//  698 void CTestModeNotifyerControl::NotifyerIndicationOn(void)
??NotifyerIndicationOn_2:
//  699 {
        ST      -Y, R25
        ST      -Y, R24
        MOVW    R25:R24, R17:R16
//  700     CPss21::AllAlarmWindowOn(INDICATION);
        LDI     R16, 1
        CALL    ??AllAlarmWindowOn
//  701     CBuzzer::LowOn();
        CALL    ??LowOn
//  702 }
        LD      R24, Y+
        LD      R25, Y+
        RET
//  703 
//  704 //-----------------------------------------------------------------------------------------------------

        RSEG CODE:CODE:NOROOT(1)
//  705 void CTestModeNotifyerControl::NotifyerPreventiveOn(void)
??NotifyerPreventiveOn_2:
//  706 {
        ST      -Y, R25
        ST      -Y, R24
        MOVW    R25:R24, R17:R16
//  707     CPss21::AllAlarmWindowOn(PREVENTIVE);
        LDI     R16, 2
        CALL    ??AllAlarmWindowOn
//  708     CBuzzer::LowOn();
        CALL    ??LowOn
//  709 }
        LD      R24, Y+
        LD      R25, Y+
        RET
//  710 
//  711 //-----------------------------------------------------------------------------------------------------

        RSEG CODE:CODE:NOROOT(1)
//  712 void CTestModeNotifyerControl::NotifyerEmergencyOn(void)
??NotifyerEmergencyOn_2:
//  713 {
        ST      -Y, R25
        ST      -Y, R24
        MOVW    R25:R24, R17:R16
//  714     CPss21::AllAlarmWindowOn(EMERGENCY);
        LDI     R16, 3
        CALL    ??AllAlarmWindowOn
//  715     CBuzzer::LowOn();
        CALL    ??LowOn
//  716 }
        LD      R24, Y+
        LD      R25, Y+
        RET
//  717 
//  718 //-----------------------------------------------------------------------------------------------------

        RSEG CODE:CODE:NOROOT(1)
//  719 void CTestModeNotifyerControl::NotifyerOff(void)
??NotifyerOff_2:
//  720 {
        ST      -Y, R25
        ST      -Y, R24
        MOVW    R25:R24, R17:R16
//  721     CBuzzer::Off();
        CALL    ??Off
//  722     CPss21::AllAlarmWindowOff();
        CALL    ??AllAlarmWindowOff
//  723     CPss21::BoardWindowsUpdate();
        CALL    ??BoardWindowsUpdate
//  724 }
        LD      R24, Y+
        LD      R25, Y+
        RET
//  725 
//  726 //-----------------------------------------------------------------------------------------------------

        RSEG CODE:CODE:NOROOT(1)
//  727 void CTestModeNotifyerControl::Fsm(void)
??Fsm_1:
//  728 {
        ST      -Y, R27
        ST      -Y, R26
        MOVW    R27:R26, R17:R16
//  729     switch (GetFsmState())
        MOVW    R17:R16, R27:R26
        CALL    ??GetFsmState
        SUBI    R16, 0
        BREQ    ??Fsm_33
        DEC     R16
        BREQ    ??Fsm_34
        DEC     R16
        BREQ    ??Fsm_35
        DEC     R16
        BRNE    $+2+2
        RJMP    ??Fsm_36
        SUBI    R16, 4
        BRNE    $+2+2
        RJMP    ??Fsm_37
        DEC     R16
        BRNE    $+2+2
        RJMP    ??Fsm_38
        DEC     R16
        BRNE    $+2+2
        RJMP    ??Fsm_39
        SUBI    R16, 4
        BRNE    $+2+2
        RJMP    ??Fsm_40
        DEC     R16
        BRNE    $+2+2
        RJMP    ??Fsm_41
        DEC     R16
        BRNE    $+2+2
        RJMP    ??Fsm_42
        SUBI    R16, 22
        BRNE    $+2+2
        RJMP    ??Fsm_43
        RJMP    ??Fsm_44
//  730     {
//  731     case IDDLE:
//  732         break;
??Fsm_33:
        RJMP    ??Fsm_44
//  733 
//  734     case INDICATION_SIGNAL_START:
//  735         m_xTimer.Set(NORMAL_SIGNAL_ON_TIME());
??Fsm_34:
        MOVW    R17:R16, R27:R26
        ADIW    R27:R26, 1
        LD      R30, X+
        LD      R31, X
        SBIW    R27:R26, 2
        ADIW    R31:R30, 16
        LPM     R18, Z+
        LPM     R19, Z
        SBIW    R31:R30, 17
        MOVW    R31:R30, R19:R18
        ICALL
        MOVW    R19:R18, R17:R16
        MOVW    R17:R16, R27:R26
        SUBI    R16, 250
        SBCI    R17, 255
        CALL    ??Set
//  736         NotifyerIndicationOn();
        MOVW    R17:R16, R27:R26
        ADIW    R27:R26, 1
        LD      R30, X+
        LD      R31, X
        SBIW    R27:R26, 2
        ADIW    R31:R30, 6
        LPM     R18, Z+
        LPM     R19, Z
        SBIW    R31:R30, 7
        MOVW    R31:R30, R19:R18
        ICALL
//  737         SetFsmState(INDICATION_SIGNAL_ON);
        LDI     R18, 2
        MOVW    R17:R16, R27:R26
        CALL    ??SetFsmState
//  738         break;
        RJMP    ??Fsm_44
//  739 
//  740     case INDICATION_SIGNAL_ON:
//  741         if (m_xTimer.IsOverflow())
??Fsm_35:
        MOVW    R17:R16, R27:R26
        SUBI    R16, 250
        SBCI    R17, 255
        CALL    ??IsOverflow
        TST     R16
        BREQ    ??Fsm_45
//  742         {
//  743             m_xTimer.Set(NORMAL_SIGNAL_OFF_TIME());
        MOVW    R17:R16, R27:R26
        ADIW    R27:R26, 1
        LD      R30, X+
        LD      R31, X
        SBIW    R27:R26, 2
        ADIW    R31:R30, 18
        LPM     R18, Z+
        LPM     R19, Z
        SBIW    R31:R30, 19
        MOVW    R31:R30, R19:R18
        ICALL
        MOVW    R19:R18, R17:R16
        MOVW    R17:R16, R27:R26
        SUBI    R16, 250
        SBCI    R17, 255
        CALL    ??Set
//  744             NotifyerOff();
        MOVW    R17:R16, R27:R26
        ADIW    R27:R26, 1
        LD      R30, X+
        LD      R31, X
        SBIW    R27:R26, 2
        ADIW    R31:R30, 12
        LPM     R18, Z+
        LPM     R19, Z
        SBIW    R31:R30, 13
        MOVW    R31:R30, R19:R18
        ICALL
//  745             SetFsmState(INDICATION_SIGNAL_OFF);
        LDI     R18, 3
        MOVW    R17:R16, R27:R26
        CALL    ??SetFsmState
//  746         }
//  747         break;
??Fsm_45:
        RJMP    ??Fsm_44
//  748 
//  749     case INDICATION_SIGNAL_OFF:
//  750         if (m_xTimer.IsOverflow())
??Fsm_36:
        MOVW    R17:R16, R27:R26
        SUBI    R16, 250
        SBCI    R17, 255
        CALL    ??IsOverflow
        TST     R16
        BREQ    ??Fsm_46
//  751         {
//  752             SetFsmState(WARNING_SIGNAL_START);
        LDI     R18, 7
        MOVW    R17:R16, R27:R26
        CALL    ??SetFsmState
//  753         }
//  754         break;
??Fsm_46:
        RJMP    ??Fsm_44
//  755 
//  756     case WARNING_SIGNAL_START:
//  757         m_xTimer.Set(WARNING_SIGNAL_ON_TIME());
??Fsm_37:
        MOVW    R17:R16, R27:R26
        ADIW    R27:R26, 1
        LD      R30, X+
        LD      R31, X
        SBIW    R27:R26, 2
        ADIW    R31:R30, 20
        LPM     R18, Z+
        LPM     R19, Z
        SBIW    R31:R30, 21
        MOVW    R31:R30, R19:R18
        ICALL
        MOVW    R19:R18, R17:R16
        MOVW    R17:R16, R27:R26
        SUBI    R16, 250
        SBCI    R17, 255
        CALL    ??Set
//  758         NotifyerPreventiveOn();
        MOVW    R17:R16, R27:R26
        ADIW    R27:R26, 1
        LD      R30, X+
        LD      R31, X
        SBIW    R27:R26, 2
        ADIW    R31:R30, 8
        LPM     R18, Z+
        LPM     R19, Z
        SBIW    R31:R30, 9
        MOVW    R31:R30, R19:R18
        ICALL
//  759         SetFsmState(WARNING_SIGNAL_ON);
        LDI     R18, 8
        MOVW    R17:R16, R27:R26
        CALL    ??SetFsmState
//  760         break;
        RJMP    ??Fsm_44
//  761 
//  762     case WARNING_SIGNAL_ON:
//  763         if (m_xTimer.IsOverflow())
??Fsm_38:
        MOVW    R17:R16, R27:R26
        SUBI    R16, 250
        SBCI    R17, 255
        CALL    ??IsOverflow
        TST     R16
        BREQ    ??Fsm_47
//  764         {
//  765             m_xTimer.Set(WARNING_SIGNAL_OFF_TIME());
        MOVW    R17:R16, R27:R26
        ADIW    R27:R26, 1
        LD      R30, X+
        LD      R31, X
        SBIW    R27:R26, 2
        ADIW    R31:R30, 22
        LPM     R18, Z+
        LPM     R19, Z
        SBIW    R31:R30, 23
        MOVW    R31:R30, R19:R18
        ICALL
        MOVW    R19:R18, R17:R16
        MOVW    R17:R16, R27:R26
        SUBI    R16, 250
        SBCI    R17, 255
        CALL    ??Set
//  766             NotifyerOff();
        MOVW    R17:R16, R27:R26
        ADIW    R27:R26, 1
        LD      R30, X+
        LD      R31, X
        SBIW    R27:R26, 2
        ADIW    R31:R30, 12
        LPM     R18, Z+
        LPM     R19, Z
        SBIW    R31:R30, 13
        MOVW    R31:R30, R19:R18
        ICALL
//  767             SetFsmState(WARNING_SIGNAL_OFF);
        LDI     R18, 9
        MOVW    R17:R16, R27:R26
        CALL    ??SetFsmState
//  768         }
//  769         break;
??Fsm_47:
        RJMP    ??Fsm_44
//  770 
//  771     case WARNING_SIGNAL_OFF:
//  772         if (m_xTimer.IsOverflow())
??Fsm_39:
        MOVW    R17:R16, R27:R26
        SUBI    R16, 250
        SBCI    R17, 255
        CALL    ??IsOverflow
        TST     R16
        BREQ    ??Fsm_48
//  773         {
//  774             SetFsmState(ALARM_SIGNAL_START);
        LDI     R18, 13
        MOVW    R17:R16, R27:R26
        CALL    ??SetFsmState
//  775         }
//  776         break;
??Fsm_48:
        RJMP    ??Fsm_44
//  777 
//  778     case ALARM_SIGNAL_START:
//  779         m_xTimer.Set(ALARM_SIGNAL_ON_TIME());
??Fsm_40:
        MOVW    R17:R16, R27:R26
        ADIW    R27:R26, 1
        LD      R30, X+
        LD      R31, X
        SBIW    R27:R26, 2
        ADIW    R31:R30, 24
        LPM     R18, Z+
        LPM     R19, Z
        SBIW    R31:R30, 25
        MOVW    R31:R30, R19:R18
        ICALL
        MOVW    R19:R18, R17:R16
        MOVW    R17:R16, R27:R26
        SUBI    R16, 250
        SBCI    R17, 255
        CALL    ??Set
//  780         NotifyerEmergencyOn();
        MOVW    R17:R16, R27:R26
        ADIW    R27:R26, 1
        LD      R30, X+
        LD      R31, X
        SBIW    R27:R26, 2
        ADIW    R31:R30, 10
        LPM     R18, Z+
        LPM     R19, Z
        SBIW    R31:R30, 11
        MOVW    R31:R30, R19:R18
        ICALL
//  781         SetFsmState(ALARM_SIGNAL_ON);
        LDI     R18, 14
        MOVW    R17:R16, R27:R26
        CALL    ??SetFsmState
//  782         break;
        RJMP    ??Fsm_44
//  783 
//  784     case ALARM_SIGNAL_ON:
//  785         if (m_xTimer.IsOverflow())
??Fsm_41:
        MOVW    R17:R16, R27:R26
        SUBI    R16, 250
        SBCI    R17, 255
        CALL    ??IsOverflow
        TST     R16
        BREQ    ??Fsm_44
//  786         {
//  787             m_xTimer.Set(ALARM_SIGNAL_OFF_TIME());
        MOVW    R17:R16, R27:R26
        ADIW    R27:R26, 1
        LD      R30, X+
        LD      R31, X
        SBIW    R27:R26, 2
        ADIW    R31:R30, 26
        LPM     R18, Z+
        LPM     R19, Z
        SBIW    R31:R30, 27
        MOVW    R31:R30, R19:R18
        ICALL
        MOVW    R19:R18, R17:R16
        MOVW    R17:R16, R27:R26
        SUBI    R16, 250
        SBCI    R17, 255
        CALL    ??Set
//  788             NotifyerOff();
        MOVW    R17:R16, R27:R26
        ADIW    R27:R26, 1
        LD      R30, X+
        LD      R31, X
        SBIW    R27:R26, 2
        ADIW    R31:R30, 12
        LPM     R18, Z+
        LPM     R19, Z
        SBIW    R31:R30, 13
        MOVW    R31:R30, R19:R18
        ICALL
//  789             SetFsmState(ALARM_SIGNAL_OFF);
        LDI     R18, 15
        MOVW    R17:R16, R27:R26
        CALL    ??SetFsmState
//  790         }
//  791         break;
        RJMP    ??Fsm_44
//  792 
//  793     case ALARM_SIGNAL_OFF:
//  794         if (m_xTimer.IsOverflow())
??Fsm_42:
        MOVW    R17:R16, R27:R26
        SUBI    R16, 250
        SBCI    R17, 255
        CALL    ??IsOverflow
        TST     R16
        BREQ    ??Fsm_44
//  795         {
//  796             SetFsmState(STOP);
        LDI     R18, 37
        MOVW    R17:R16, R27:R26
        CALL    ??SetFsmState
//  797         }
//  798         break;
        RJMP    ??Fsm_44
//  799 
//  800     case STOP:
//  801         NotifyerOff();
??Fsm_43:
        MOVW    R17:R16, R27:R26
        ADIW    R27:R26, 1
        LD      R30, X+
        LD      R31, X
        SBIW    R27:R26, 2
        ADIW    R31:R30, 12
        LPM     R18, Z+
        LPM     R19, Z
        SBIW    R31:R30, 13
        MOVW    R31:R30, R19:R18
        ICALL
//  802         SetFsmState(IDDLE);
        LDI     R18, 0
        MOVW    R17:R16, R27:R26
        CALL    ??SetFsmState
//  803         break;
//  804 
//  805     default:
//  806         break;
//  807     };
//  808 }
??Fsm_44:
        LD      R26, Y+
        LD      R27, Y+
        RET

        RSEG CODE:CODE:NOROOT(1)
// __version_3 uint8_t CDfaLite::GetFsmState()
??GetFsmState:
        MOVW    R31:R30, R17:R16
        LD      R16, Z
        RET

        RSEG CODE:CODE:NOROOT(1)
// __version_3 uint8_t CDfa::GetSavedFsmState()
??GetSavedFsmState:
        MOVW    R31:R30, R17:R16
        LDD     R16, Z+3
        RET

        RSEG CODE:CODE:NOROOT(1)
// __version_3 uint16_t CNotifyerControl::NORMAL_SIGNAL_ON_TIME()
??NORMAL_SIGNAL_ON_TIME:
        MOVW    R19:R18, R17:R16
        LDI     R16, 208
        LDI     R17, 7
        RET

        RSEG CODE:CODE:NOROOT(1)
// __version_3 uint16_t CNotifyerControl::NORMAL_SIGNAL_OFF_TIME()
??NORMAL_SIGNAL_OFF_TIME:
        MOVW    R19:R18, R17:R16
        LDI     R16, 208
        LDI     R17, 7
        RET

        RSEG CODE:CODE:NOROOT(1)
// __version_3 uint16_t CNotifyerControl::WARNING_SIGNAL_ON_TIME()
??WARNING_SIGNAL_ON_TIME:
        MOVW    R19:R18, R17:R16
        LDI     R16, 32
        LDI     R17, 3
        RET

        RSEG CODE:CODE:NOROOT(1)
// __version_3 uint16_t CNotifyerControl::WARNING_SIGNAL_OFF_TIME()
??WARNING_SIGNAL_OFF_TIME:
        MOVW    R19:R18, R17:R16
        LDI     R16, 44
        LDI     R17, 1
        RET

        RSEG CODE:CODE:NOROOT(1)
// __version_3 uint16_t CNotifyerControl::ALARM_SIGNAL_ON_TIME()
??ALARM_SIGNAL_ON_TIME:
        MOVW    R19:R18, R17:R16
        LDI     R16, 44
        LDI     R17, 1
        RET

        RSEG CODE:CODE:NOROOT(1)
// __version_3 uint16_t CNotifyerControl::ALARM_SIGNAL_OFF_TIME()
??ALARM_SIGNAL_OFF_TIME:
        MOVW    R19:R18, R17:R16
        LDI     R16, 44
        LDI     R17, 1
        RET

        RSEG CODE:CODE:NOROOT(1)
// __version_3 uint16_t CNotifyerControl::ERROR_SIGNAL_ON_TIME()
??ERROR_SIGNAL_ON_TIME:
        MOVW    R19:R18, R17:R16
        LDI     R16, 150
        LDI     R17, 0
        RET

        RSEG CODE:CODE:NOROOT(1)
// __version_3 uint16_t CNotifyerControl::ERROR_SIGNAL_OFF_TIME()
??ERROR_SIGNAL_OFF_TIME:
        MOVW    R19:R18, R17:R16
        LDI     R16, 150
        LDI     R17, 0
        RET

        RSEG CODE:CODE:NOROOT(1)
// __version_3 uint16_t CNotifyerControl::ERROR_SIGNAL_PAUSE_TIME()
??ERROR_SIGNAL_PAUSE_TIME:
        MOVW    R19:R18, R17:R16
        LDI     R16, 194
        LDI     R17, 1
        RET

        RSEG CODE:CODE:NOROOT(1)
// __version_3 uint16_t CNotifyerControl::BEEP_SIGNAL_ON_TIME()
??BEEP_SIGNAL_ON_TIME:
        MOVW    R19:R18, R17:R16
        LDI     R16, 50
        LDI     R17, 0
        RET

        RSEG CODE:CODE:NOROOT(1)
// __version_3 uint16_t CPreventiveAlarmWindowNotifyerControl::NORMAL_SIGNAL_ON_TIME()
??NORMAL_SIGNAL_ON_TIME_1:
        MOVW    R19:R18, R17:R16
        LDI     R16, 208
        LDI     R17, 7
        RET

        RSEG CODE:CODE:NOROOT(1)
// __version_3 uint16_t CPreventiveAlarmWindowNotifyerControl::NORMAL_SIGNAL_OFF_TIME()
??NORMAL_SIGNAL_OFF_TIME_1:
        MOVW    R19:R18, R17:R16
        LDI     R16, 208
        LDI     R17, 7
        RET

        RSEG CODE:CODE:NOROOT(1)
// __version_3 uint16_t CPreventiveAlarmWindowNotifyerControl::WARNING_SIGNAL_ON_TIME()
??WARNING_SIGNAL_ON_TIME_1:
        MOVW    R19:R18, R17:R16
        LDI     R16, 32
        LDI     R17, 3
        RET

        RSEG CODE:CODE:NOROOT(1)
// __version_3 uint16_t CPreventiveAlarmWindowNotifyerControl::WARNING_SIGNAL_OFF_TIME()
??WARNING_SIGNAL_OFF_TIME_1:
        MOVW    R19:R18, R17:R16
        LDI     R16, 44
        LDI     R17, 1
        RET

        RSEG CODE:CODE:NOROOT(1)
// __version_3 uint16_t CPreventiveAlarmWindowNotifyerControl::ALARM_SIGNAL_ON_TIME()
??ALARM_SIGNAL_ON_TIME_1:
        MOVW    R19:R18, R17:R16
        LDI     R16, 44
        LDI     R17, 1
        RET

        RSEG CODE:CODE:NOROOT(1)
// __version_3 uint16_t CPreventiveAlarmWindowNotifyerControl::ALARM_SIGNAL_OFF_TIME()
??ALARM_SIGNAL_OFF_TIME_1:
        MOVW    R19:R18, R17:R16
        LDI     R16, 44
        LDI     R17, 1
        RET

        RSEG CODE:CODE:NOROOT(1)
// __version_3 uint16_t CEmergencyAlarmWindowNotifyerControl::NORMAL_SIGNAL_ON_TIME()
??NORMAL_SIGNAL_ON_TIME_2:
        MOVW    R19:R18, R17:R16
        LDI     R16, 208
        LDI     R17, 7
        RET

        RSEG CODE:CODE:NOROOT(1)
// __version_3 uint16_t CEmergencyAlarmWindowNotifyerControl::NORMAL_SIGNAL_OFF_TIME()
??NORMAL_SIGNAL_OFF_TIME_2:
        MOVW    R19:R18, R17:R16
        LDI     R16, 208
        LDI     R17, 7
        RET

        RSEG CODE:CODE:NOROOT(1)
// __version_3 uint16_t CEmergencyAlarmWindowNotifyerControl::WARNING_SIGNAL_ON_TIME()
??WARNING_SIGNAL_ON_TIME_2:
        MOVW    R19:R18, R17:R16
        LDI     R16, 32
        LDI     R17, 3
        RET

        RSEG CODE:CODE:NOROOT(1)
// __version_3 uint16_t CEmergencyAlarmWindowNotifyerControl::WARNING_SIGNAL_OFF_TIME()
??WARNING_SIGNAL_OFF_TIME_2:
        MOVW    R19:R18, R17:R16
        LDI     R16, 44
        LDI     R17, 1
        RET

        RSEG CODE:CODE:NOROOT(1)
// __version_3 uint16_t CEmergencyAlarmWindowNotifyerControl::ALARM_SIGNAL_ON_TIME()
??ALARM_SIGNAL_ON_TIME_2:
        MOVW    R19:R18, R17:R16
        LDI     R16, 44
        LDI     R17, 1
        RET

        RSEG CODE:CODE:NOROOT(1)
// __version_3 uint16_t CEmergencyAlarmWindowNotifyerControl::ALARM_SIGNAL_OFF_TIME()
??ALARM_SIGNAL_OFF_TIME_2:
        MOVW    R19:R18, R17:R16
        LDI     R16, 44
        LDI     R17, 1
        RET

        RSEG CODE:CODE:NOROOT(1)
// __version_3 uint16_t CTestModeNotifyerControl::NORMAL_SIGNAL_ON_TIME()
??NORMAL_SIGNAL_ON_TIME_3:
        MOVW    R19:R18, R17:R16
        LDI     R16, 232
        LDI     R17, 3
        RET

        RSEG CODE:CODE:NOROOT(1)
// __version_3 uint16_t CTestModeNotifyerControl::NORMAL_SIGNAL_OFF_TIME()
??NORMAL_SIGNAL_OFF_TIME_3:
        MOVW    R19:R18, R17:R16
        LDI     R16, 232
        LDI     R17, 3
        RET

        RSEG CODE:CODE:NOROOT(1)
// __version_3 uint16_t CTestModeNotifyerControl::WARNING_SIGNAL_ON_TIME()
??WARNING_SIGNAL_ON_TIME_3:
        MOVW    R19:R18, R17:R16
        LDI     R16, 232
        LDI     R17, 3
        RET

        RSEG CODE:CODE:NOROOT(1)
// __version_3 uint16_t CTestModeNotifyerControl::WARNING_SIGNAL_OFF_TIME()
??WARNING_SIGNAL_OFF_TIME_3:
        MOVW    R19:R18, R17:R16
        LDI     R16, 232
        LDI     R17, 3
        RET

        RSEG CODE:CODE:NOROOT(1)
// __version_3 uint16_t CTestModeNotifyerControl::ALARM_SIGNAL_ON_TIME()
??ALARM_SIGNAL_ON_TIME_3:
        MOVW    R19:R18, R17:R16
        LDI     R16, 232
        LDI     R17, 3
        RET

        RSEG CODE:CODE:NOROOT(1)
// __version_3 uint16_t CTestModeNotifyerControl::ALARM_SIGNAL_OFF_TIME()
??ALARM_SIGNAL_OFF_TIME_3:
        MOVW    R19:R18, R17:R16
        LDI     R16, 232
        LDI     R17, 3
        RET

        RSEG CODE:CODE:NOROOT(1)
// __version_3 void CPlatform::StatusLedOn()
??StatusLedOn:
        CBI     0x1B, 0x04
        RET
        REQUIRE _A_PORTA

        RSEG CODE:CODE:NOROOT(1)
// __version_3 void CPlatform::StatusLedOff()
??StatusLedOff:
        SBI     0x1B, 0x04
        RET
        REQUIRE _A_PORTA

        ASEGN ABSOLUTE:DATA:NOROOT,01cH
__?EECR:

        ASEGN ABSOLUTE:DATA:NOROOT,01dH
__?EEDR:

        ASEGN ABSOLUTE:DATA:NOROOT,01eH
__?EEARL:

        ASEGN ABSOLUTE:DATA:NOROOT,01fH
__?EEARH:

        RSEG SWITCH:CODE:NOROOT(1)
`?<Jumptable for Fsm>_0`:
        DB      0
        DB      1
        DW      (??Fsm_3) /2
        DW      (??Fsm_3) /2
        DB      0x1
        DW      (??Fsm_8) /2
        DB      0x1
        DW      (??Fsm_9) /2
        DB      0x5
        DW      (??Fsm_11) /2
        DB      0x1
        DW      (??Fsm_12) /2
        DB      0x1
        DW      (??Fsm_14) /2
        DB      0x4
        DW      (??Fsm_16) /2
        DB      0x1
        DW      (??Fsm_17) /2
        DB      0x1
        DW      (??Fsm_19) /2
        DB      0x4
        DW      (??Fsm_21) /2
        DB      0x1
        DW      (??Fsm_22) /2
        DB      0x1
        DW      (??Fsm_24) /2
        DB      0x1
        DW      (??Fsm_26) /2
        DB      0x1
        DW      (??Fsm_28) /2
        DB      0x1
        DW      (??Fsm_2) /2
        DB      0x1
        DW      (??Fsm_4) /2
        DB      0x1
        DW      (??Fsm_6) /2
        DB      0x4
        DW      (??Fsm_30) /2
        DB      0x1
        DW      (??Fsm_31) /2
        DB      0x6
        DW      (??Fsm_32) /2
        DB      251

        RSEG NEAR_F:CODE:ROOT(0)
// __vtbl_entry const __flash CNotifyerControl::__vtbl[18]
??__vtbl:
        DC16 `?~CNotifyerControl`/2, ??Fsm/2, __pure_virtual_called/2
        DC16 __pure_virtual_called/2, __pure_virtual_called/2
        DC16 __pure_virtual_called/2, __pure_virtual_called/2
        DC16 __pure_virtual_called/2, ??NORMAL_SIGNAL_ON_TIME/2
        DC16 ??NORMAL_SIGNAL_OFF_TIME/2, ??WARNING_SIGNAL_ON_TIME/2
        DC16 ??WARNING_SIGNAL_OFF_TIME/2, ??ALARM_SIGNAL_ON_TIME/2
        DC16 ??ALARM_SIGNAL_OFF_TIME/2, ??ERROR_SIGNAL_ON_TIME/2
        DC16 ??ERROR_SIGNAL_OFF_TIME/2, ??ERROR_SIGNAL_PAUSE_TIME/2
        DC16 ??BEEP_SIGNAL_ON_TIME/2

        RSEG NEAR_F:CODE:ROOT(0)
// __vtbl_entry const __flash CPreventiveAlarmWindowNotifyerControl::__vtbl[18]
??__vtbl_1:
        DC16 `?~CPreventiveAlarmWindowNotifyerControl`/2, ??Fsm/2
        DC16 ??NotifyerNormalOn/2, ??NotifyerIndicationOn/2
        DC16 ??NotifyerPreventiveOn/2, ??NotifyerEmergencyOn/2, ??NotifyerOff/2
        DC16 ??AlarmSet/2, ??NORMAL_SIGNAL_ON_TIME_1/2
        DC16 ??NORMAL_SIGNAL_OFF_TIME_1/2, ??WARNING_SIGNAL_ON_TIME_1/2
        DC16 ??WARNING_SIGNAL_OFF_TIME_1/2, ??ALARM_SIGNAL_ON_TIME_1/2
        DC16 ??ALARM_SIGNAL_OFF_TIME_1/2, ??ERROR_SIGNAL_ON_TIME/2
        DC16 ??ERROR_SIGNAL_OFF_TIME/2, ??ERROR_SIGNAL_PAUSE_TIME/2
        DC16 ??BEEP_SIGNAL_ON_TIME/2

        RSEG NEAR_F:CODE:ROOT(0)
// __vtbl_entry const __flash CEmergencyAlarmWindowNotifyerControl::__vtbl[18]
??__vtbl_2:
        DC16 `?~CEmergencyAlarmWindowNotifyerControl`/2, ??Fsm/2
        DC16 ??NotifyerNormalOn_1/2, ??NotifyerIndicationOn_1/2
        DC16 ??NotifyerPreventiveOn_1/2, ??NotifyerEmergencyOn_1/2
        DC16 ??NotifyerOff_1/2, ??AlarmSet_1/2, ??NORMAL_SIGNAL_ON_TIME_2/2
        DC16 ??NORMAL_SIGNAL_OFF_TIME_2/2, ??WARNING_SIGNAL_ON_TIME_2/2
        DC16 ??WARNING_SIGNAL_OFF_TIME_2/2, ??ALARM_SIGNAL_ON_TIME_2/2
        DC16 ??ALARM_SIGNAL_OFF_TIME_2/2, ??ERROR_SIGNAL_ON_TIME/2
        DC16 ??ERROR_SIGNAL_OFF_TIME/2, ??ERROR_SIGNAL_PAUSE_TIME/2
        DC16 ??BEEP_SIGNAL_ON_TIME/2

        RSEG NEAR_F:CODE:ROOT(0)
// __vtbl_entry const __flash CTestModeNotifyerControl::__vtbl[18]
??__vtbl_3:
        DC16 `?~CTestModeNotifyerControl`/2, ??Fsm_1/2, ??NotifyerNormalOn_2/2
        DC16 ??NotifyerIndicationOn_2/2, ??NotifyerPreventiveOn_2/2
        DC16 ??NotifyerEmergencyOn_2/2, ??NotifyerOff_2/2, ??AlarmSet_2/2
        DC16 ??NORMAL_SIGNAL_ON_TIME_3/2, ??NORMAL_SIGNAL_OFF_TIME_3/2
        DC16 ??WARNING_SIGNAL_ON_TIME_3/2, ??WARNING_SIGNAL_OFF_TIME_3/2
        DC16 ??ALARM_SIGNAL_ON_TIME_3/2, ??ALARM_SIGNAL_OFF_TIME_3/2
        DC16 ??ERROR_SIGNAL_ON_TIME/2, ??ERROR_SIGNAL_OFF_TIME/2
        DC16 ??ERROR_SIGNAL_PAUSE_TIME/2, ??BEEP_SIGNAL_ON_TIME/2

        RSEG NEAR_F:CODE:ROOT(0)
        DC8 0, 0, 0, 0

        RSEG NEAR_F:CODE:ROOT(0)
        DC8 0, 0, 0, 0, 0, 0, 0, 0

        RSEG NEAR_F:CODE:ROOT(0)
        DC8 0, 0, 0, 0, 0, 0, 0, 0, 0, 0

        RSEG NEAR_F:CODE:ROOT(0)
// __vtbl_entry const __flash CStatusLedNotifyerControl::__vtbl[18]
??__vtbl_7:
        DC16 `?~CStatusLedNotifyerControl`/2, ??Fsm/2, ??NotifyerNormalOn_3/2
        DC16 ??NotifyerIndicationOn_3/2, ??NotifyerPreventiveOn_3/2
        DC16 ??NotifyerEmergencyOn_3/2, ??NotifyerOff_3/2, ??AlarmSet_3/2
        DC16 ??NORMAL_SIGNAL_ON_TIME/2, ??NORMAL_SIGNAL_OFF_TIME/2
        DC16 ??WARNING_SIGNAL_ON_TIME/2, ??WARNING_SIGNAL_OFF_TIME/2
        DC16 ??ALARM_SIGNAL_ON_TIME/2, ??ALARM_SIGNAL_OFF_TIME/2
        DC16 ??ERROR_SIGNAL_ON_TIME/2, ??ERROR_SIGNAL_OFF_TIME/2
        DC16 ??ERROR_SIGNAL_PAUSE_TIME/2, ??BEEP_SIGNAL_ON_TIME/2

        RSEG NEAR_F:CODE:ROOT(0)
// __vtbl_entry const __flash CBuzzerNotifyerControl::__vtbl[18]
??__vtbl_8:
        DC16 `?~CBuzzerNotifyerControl`/2, ??Fsm/2, ??NotifyerNormalOn_4/2
        DC16 ??NotifyerIndicationOn_4/2, ??NotifyerPreventiveOn_4/2
        DC16 ??NotifyerEmergencyOn_4/2, ??NotifyerOff_4/2, ??AlarmSet_4/2
        DC16 ??NORMAL_SIGNAL_ON_TIME/2, ??NORMAL_SIGNAL_OFF_TIME/2
        DC16 ??WARNING_SIGNAL_ON_TIME/2, ??WARNING_SIGNAL_OFF_TIME/2
        DC16 ??ALARM_SIGNAL_ON_TIME/2, ??ALARM_SIGNAL_OFF_TIME/2
        DC16 ??ERROR_SIGNAL_ON_TIME/2, ??ERROR_SIGNAL_OFF_TIME/2
        DC16 ??ERROR_SIGNAL_PAUSE_TIME/2, ??BEEP_SIGNAL_ON_TIME/2

        END
//  809 //-----------------------------------------------------------------------------------------------------
//  810 
//  811 
// 
//   105 bytes in segment ABSOLUTE
// 3 754 bytes in segment CODE
//   238 bytes in segment NEAR_F
//    64 bytes in segment SWITCH
// 
// 3 584 bytes of CODE memory (+ 472 bytes shared)
//     0 bytes of DATA memory (+ 105 bytes shared)
//
//Errors: none
//Warnings: 7
