###############################################################################
#
# IAR C/C++ Compiler V7.10.6.1378 for Atmel AVR           30/May/2023  07:56:24
# Copyright 1996-2018 IAR Systems AB.
#
#    Source file  =  
#        D:\Projects\CurrentProjects\CautoProjects\PSS48Color\src\Platform.cpp
#    Command line =  
#        -f C:\Users\Admin\AppData\Local\Temp\EW408A.tmp
#        (--string_literals_in_flash
#        D:\Projects\CurrentProjects\CautoProjects\PSS48Color\src\Platform.cpp
#        --cpu=m128a -ms -o
#        D:\Projects\CurrentProjects\CautoProjects\PSS48Color\Debug\Obj -lC
#        D:\Projects\CurrentProjects\CautoProjects\PSS48Color\Debug\List -lB
#        D:\Projects\CurrentProjects\CautoProjects\PSS48Color\Debug\List -y
#        --initializers_in_flash --root_variables --debug
#        -DENABLE_BIT_DEFINITIONS -e -I
#        D:\Projects\CurrentProjects\CautoProjects\PSS48Color\Modbus\ -I
#        D:\Projects\CurrentProjects\CautoProjects\PSS48Color\include\
#        --eeprom_size 4096 --dlib --dlib_config "C:\Program Files (x86)\IAR
#        Systems\Embedded Workbench 8.0\avr\LIB\DLIB\dlAVR-3s-ec_mul-n.h" -Ohz
#        --eec++)
#    Locale       =  Russian_RUS.1251
#    List file    =  
#        D:\Projects\CurrentProjects\CautoProjects\PSS48Color\Debug\List\Platform.lst
#    Object file  =  
#        D:\Projects\CurrentProjects\CautoProjects\PSS48Color\Debug\Obj\Platform.r90
#
###############################################################################

D:\Projects\CurrentProjects\CautoProjects\PSS48Color\src\Platform.cpp
      1          //-----------------------------------------------------------------------------------------------------
      2          //  Source      : FileName.cpp
      3          //  Created     : 01.06.2022
      4          //  Author      : Alexandr Volvenkin
      5          //  email       : aav-36@mail.ru
      6          //  GitHub      : https://github.com/AlexandrVolvenkin
      7          //-----------------------------------------------------------------------------------------------------
      8          #include <cstddef>
      9          
     10          #include "Platform.h"

   \                                 In  segment ABSOLUTE, at 0x9d, root
   \   union <unnamed> volatile __io _A_UCSR1C
   \                     _A_UCSR1C:
   \   00000000                      DS8 1

   \                                 In  segment ABSOLUTE, at 0x9c, root
   \   union <unnamed> volatile __io _A_UDR1
   \                     _A_UDR1:
   \   00000000                      DS8 1

   \                                 In  segment ABSOLUTE, at 0x9b, root
   \   union <unnamed> volatile __io _A_UCSR1A
   \                     _A_UCSR1A:
   \   00000000                      DS8 1

   \                                 In  segment ABSOLUTE, at 0x9a, root
   \   union <unnamed> volatile __io _A_UCSR1B
   \                     _A_UCSR1B:
   \   00000000                      DS8 1

   \                                 In  segment ABSOLUTE, at 0x99, root
   \   union <unnamed> volatile __io _A_UBRR1L
   \                     _A_UBRR1L:
   \   00000000                      DS8 1

   \                                 In  segment ABSOLUTE, at 0x98, root
   \   union <unnamed> volatile __io _A_UBRR1H
   \                     _A_UBRR1H:
   \   00000000                      DS8 1

   \                                 In  segment ABSOLUTE, at 0x95, root
   \   union <unnamed> volatile __io _A_UCSR0C
   \                     _A_UCSR0C:
   \   00000000                      DS8 1

   \                                 In  segment ABSOLUTE, at 0x90, root
   \   union <unnamed> volatile __io _A_UBRR0H
   \                     _A_UBRR0H:
   \   00000000                      DS8 1

   \                                 In  segment ABSOLUTE, at 0x8c, root
   \   union <unnamed> volatile __io _A_TCCR3C
   \                     _A_TCCR3C:
   \   00000000                      DS8 1

   \                                 In  segment ABSOLUTE, at 0x8b, root
   \   union <unnamed> volatile __io _A_TCCR3A
   \                     _A_TCCR3A:
   \   00000000                      DS8 1

   \                                 In  segment ABSOLUTE, at 0x8a, root
   \   union <unnamed> volatile __io _A_TCCR3B
   \                     _A_TCCR3B:
   \   00000000                      DS8 1

   \                                 In  segment ABSOLUTE, at 0x88, root
   \   union <unnamed> volatile __io _A_TCNT3
   \                     _A_TCNT3:
   \   00000000                      DS8 2

   \                                 In  segment ABSOLUTE, at 0x86, root
   \   union <unnamed> volatile __io _A_OCR3A
   \                     _A_OCR3A:
   \   00000000                      DS8 2

   \                                 In  segment ABSOLUTE, at 0x84, root
   \   union <unnamed> volatile __io _A_OCR3B
   \                     _A_OCR3B:
   \   00000000                      DS8 2

   \                                 In  segment ABSOLUTE, at 0x82, root
   \   union <unnamed> volatile __io _A_OCR3C
   \                     _A_OCR3C:
   \   00000000                      DS8 2

   \                                 In  segment ABSOLUTE, at 0x80, root
   \   union <unnamed> volatile __io _A_ICR3
   \                     _A_ICR3:
   \   00000000                      DS8 2

   \                                 In  segment ABSOLUTE, at 0x7d, root
   \   union <unnamed> volatile __io _A_ETIMSK
   \                     _A_ETIMSK:
   \   00000000                      DS8 1

   \                                 In  segment ABSOLUTE, at 0x7c, root
   \   union <unnamed> volatile __io _A_ETIFR
   \                     _A_ETIFR:
   \   00000000                      DS8 1

   \                                 In  segment ABSOLUTE, at 0x7a, root
   \   union <unnamed> volatile __io _A_TCCR1C
   \                     _A_TCCR1C:
   \   00000000                      DS8 1

   \                                 In  segment ABSOLUTE, at 0x78, root
   \   union <unnamed> volatile __io _A_OCR1C
   \                     _A_OCR1C:
   \   00000000                      DS8 2

   \                                 In  segment ABSOLUTE, at 0x74, root
   \   union <unnamed> volatile __io _A_TWCR
   \                     _A_TWCR:
   \   00000000                      DS8 1

   \                                 In  segment ABSOLUTE, at 0x73, root
   \   union <unnamed> volatile __io _A_TWDR
   \                     _A_TWDR:
   \   00000000                      DS8 1

   \                                 In  segment ABSOLUTE, at 0x72, root
   \   union <unnamed> volatile __io _A_TWAR
   \                     _A_TWAR:
   \   00000000                      DS8 1

   \                                 In  segment ABSOLUTE, at 0x71, root
   \   union <unnamed> volatile __io _A_TWSR
   \                     _A_TWSR:
   \   00000000                      DS8 1

   \                                 In  segment ABSOLUTE, at 0x70, root
   \   union <unnamed> volatile __io _A_TWBR
   \                     _A_TWBR:
   \   00000000                      DS8 1

   \                                 In  segment ABSOLUTE, at 0x6f, root
   \   union <unnamed> volatile __io _A_OSCCAL
   \                     _A_OSCCAL:
   \   00000000                      DS8 1

   \                                 In  segment ABSOLUTE, at 0x6d, root
   \   union <unnamed> volatile __io _A_XMCRA
   \                     _A_XMCRA:
   \   00000000                      DS8 1

   \                                 In  segment ABSOLUTE, at 0x6c, root
   \   union <unnamed> volatile __io _A_XMCRB
   \                     _A_XMCRB:
   \   00000000                      DS8 1

   \                                 In  segment ABSOLUTE, at 0x6a, root
   \   union <unnamed> volatile __io _A_EICRA
   \                     _A_EICRA:
   \   00000000                      DS8 1

   \                                 In  segment ABSOLUTE, at 0x68, root
   \   union <unnamed> volatile __io _A_SPMCSR
   \                     _A_SPMCSR:
   \   00000000                      DS8 1

   \                                 In  segment ABSOLUTE, at 0x65, root
   \   union <unnamed> volatile __io _A_PORTG
   \                     _A_PORTG:
   \   00000000                      DS8 1

   \                                 In  segment ABSOLUTE, at 0x64, root
   \   union <unnamed> volatile __io _A_DDRG
   \                     _A_DDRG:
   \   00000000                      DS8 1

   \                                 In  segment ABSOLUTE, at 0x63, root
   \   union <unnamed> volatile __io _A_PING
   \                     _A_PING:
   \   00000000                      DS8 1

   \                                 In  segment ABSOLUTE, at 0x62, root
   \   union <unnamed> volatile __io _A_PORTF
   \                     _A_PORTF:
   \   00000000                      DS8 1

   \                                 In  segment ABSOLUTE, at 0x61, root
   \   union <unnamed> volatile __io _A_DDRF
   \                     _A_DDRF:
   \   00000000                      DS8 1

   \                                 In  segment ABSOLUTE, at 0x5f, root
   \   union <unnamed> volatile __io _A_SREG
   \                     _A_SREG:
   \   00000000                      DS8 1

   \                                 In  segment ABSOLUTE, at 0x5d, root
   \   union <unnamed> volatile __io _A_SP
   \                     _A_SP:
   \   00000000                      DS8 2

   \                                 In  segment ABSOLUTE, at 0x5c, root
   \   union <unnamed> volatile __io _A_XDIV
   \                     _A_XDIV:
   \   00000000                      DS8 1

   \                                 In  segment ABSOLUTE, at 0x5b, root
   \   union <unnamed> volatile __io _A_RAMPZ
   \                     _A_RAMPZ:
   \   00000000                      DS8 1

   \                                 In  segment ABSOLUTE, at 0x5a, root
   \   union <unnamed> volatile __io _A_EICRB
   \                     _A_EICRB:
   \   00000000                      DS8 1

   \                                 In  segment ABSOLUTE, at 0x59, root
   \   union <unnamed> volatile __io _A_EIMSK
   \                     _A_EIMSK:
   \   00000000                      DS8 1

   \                                 In  segment ABSOLUTE, at 0x58, root
   \   union <unnamed> volatile __io _A_EIFR
   \                     _A_EIFR:
   \   00000000                      DS8 1

   \                                 In  segment ABSOLUTE, at 0x57, root
   \   union <unnamed> volatile __io _A_TIMSK
   \                     _A_TIMSK:
   \   00000000                      DS8 1

   \                                 In  segment ABSOLUTE, at 0x56, root
   \   union <unnamed> volatile __io _A_TIFR
   \                     _A_TIFR:
   \   00000000                      DS8 1

   \                                 In  segment ABSOLUTE, at 0x55, root
   \   union <unnamed> volatile __io _A_MCUCR
   \                     _A_MCUCR:
   \   00000000                      DS8 1

   \                                 In  segment ABSOLUTE, at 0x54, root
   \   union <unnamed> volatile __io _A_MCUCSR
   \                     _A_MCUCSR:
   \   00000000                      DS8 1

   \                                 In  segment ABSOLUTE, at 0x53, root
   \   union <unnamed> volatile __io _A_TCCR0
   \                     _A_TCCR0:
   \   00000000                      DS8 1

   \                                 In  segment ABSOLUTE, at 0x52, root
   \   union <unnamed> volatile __io _A_TCNT0
   \                     _A_TCNT0:
   \   00000000                      DS8 1

   \                                 In  segment ABSOLUTE, at 0x51, root
   \   union <unnamed> volatile __io _A_OCR0
   \                     _A_OCR0:
   \   00000000                      DS8 1

   \                                 In  segment ABSOLUTE, at 0x50, root
   \   union <unnamed> volatile __io _A_ASSR
   \                     _A_ASSR:
   \   00000000                      DS8 1

   \                                 In  segment ABSOLUTE, at 0x4f, root
   \   union <unnamed> volatile __io _A_TCCR1A
   \                     _A_TCCR1A:
   \   00000000                      DS8 1

   \                                 In  segment ABSOLUTE, at 0x4e, root
   \   union <unnamed> volatile __io _A_TCCR1B
   \                     _A_TCCR1B:
   \   00000000                      DS8 1

   \                                 In  segment ABSOLUTE, at 0x4c, root
   \   union <unnamed> volatile __io _A_TCNT1
   \                     _A_TCNT1:
   \   00000000                      DS8 2

   \                                 In  segment ABSOLUTE, at 0x4a, root
   \   union <unnamed> volatile __io _A_OCR1A
   \                     _A_OCR1A:
   \   00000000                      DS8 2

   \                                 In  segment ABSOLUTE, at 0x48, root
   \   union <unnamed> volatile __io _A_OCR1B
   \                     _A_OCR1B:
   \   00000000                      DS8 2

   \                                 In  segment ABSOLUTE, at 0x46, root
   \   union <unnamed> volatile __io _A_ICR1
   \                     _A_ICR1:
   \   00000000                      DS8 2

   \                                 In  segment ABSOLUTE, at 0x45, root
   \   union <unnamed> volatile __io _A_TCCR2
   \                     _A_TCCR2:
   \   00000000                      DS8 1

   \                                 In  segment ABSOLUTE, at 0x44, root
   \   union <unnamed> volatile __io _A_TCNT2
   \                     _A_TCNT2:
   \   00000000                      DS8 1

   \                                 In  segment ABSOLUTE, at 0x43, root
   \   union <unnamed> volatile __io _A_OCR2
   \                     _A_OCR2:
   \   00000000                      DS8 1

   \                                 In  segment ABSOLUTE, at 0x42, root
   \   union <unnamed> volatile __io _A_OCDR
   \                     _A_OCDR:
   \   00000000                      DS8 1

   \                                 In  segment ABSOLUTE, at 0x41, root
   \   union <unnamed> volatile __io _A_WDTCR
   \                     _A_WDTCR:
   \   00000000                      DS8 1

   \                                 In  segment ABSOLUTE, at 0x40, root
   \   union <unnamed> volatile __io _A_SFIOR
   \                     _A_SFIOR:
   \   00000000                      DS8 1

   \                                 In  segment ABSOLUTE, at 0x3e, root
   \   union <unnamed> volatile __io _A_EEAR
   \                     _A_EEAR:
   \   00000000                      DS8 2

   \                                 In  segment ABSOLUTE, at 0x3d, root
   \   union <unnamed> volatile __io _A_EEDR
   \                     _A_EEDR:
   \   00000000                      DS8 1

   \                                 In  segment ABSOLUTE, at 0x3c, root
   \   union <unnamed> volatile __io _A_EECR
   \                     _A_EECR:
   \   00000000                      DS8 1

   \                                 In  segment ABSOLUTE, at 0x3b, root
   \   union <unnamed> volatile __io _A_PORTA
   \                     _A_PORTA:
   \   00000000                      DS8 1

   \                                 In  segment ABSOLUTE, at 0x3a, root
   \   union <unnamed> volatile __io _A_DDRA
   \                     _A_DDRA:
   \   00000000                      DS8 1

   \                                 In  segment ABSOLUTE, at 0x39, root
   \   union <unnamed> volatile __io _A_PINA
   \                     _A_PINA:
   \   00000000                      DS8 1

   \                                 In  segment ABSOLUTE, at 0x38, root
   \   union <unnamed> volatile __io _A_PORTB
   \                     _A_PORTB:
   \   00000000                      DS8 1

   \                                 In  segment ABSOLUTE, at 0x37, root
   \   union <unnamed> volatile __io _A_DDRB
   \                     _A_DDRB:
   \   00000000                      DS8 1

   \                                 In  segment ABSOLUTE, at 0x36, root
   \   union <unnamed> volatile __io _A_PINB
   \                     _A_PINB:
   \   00000000                      DS8 1

   \                                 In  segment ABSOLUTE, at 0x35, root
   \   union <unnamed> volatile __io _A_PORTC
   \                     _A_PORTC:
   \   00000000                      DS8 1

   \                                 In  segment ABSOLUTE, at 0x34, root
   \   union <unnamed> volatile __io _A_DDRC
   \                     _A_DDRC:
   \   00000000                      DS8 1

   \                                 In  segment ABSOLUTE, at 0x33, root
   \   union <unnamed> volatile __io _A_PINC
   \                     _A_PINC:
   \   00000000                      DS8 1

   \                                 In  segment ABSOLUTE, at 0x32, root
   \   union <unnamed> volatile __io _A_PORTD
   \                     _A_PORTD:
   \   00000000                      DS8 1

   \                                 In  segment ABSOLUTE, at 0x31, root
   \   union <unnamed> volatile __io _A_DDRD
   \                     _A_DDRD:
   \   00000000                      DS8 1

   \                                 In  segment ABSOLUTE, at 0x30, root
   \   union <unnamed> volatile __io _A_PIND
   \                     _A_PIND:
   \   00000000                      DS8 1

   \                                 In  segment ABSOLUTE, at 0x2f, root
   \   union <unnamed> volatile __io _A_SPDR
   \                     _A_SPDR:
   \   00000000                      DS8 1

   \                                 In  segment ABSOLUTE, at 0x2e, root
   \   union <unnamed> volatile __io _A_SPSR
   \                     _A_SPSR:
   \   00000000                      DS8 1

   \                                 In  segment ABSOLUTE, at 0x2d, root
   \   union <unnamed> volatile __io _A_SPCR
   \                     _A_SPCR:
   \   00000000                      DS8 1

   \                                 In  segment ABSOLUTE, at 0x2c, root
   \   union <unnamed> volatile __io _A_UDR0
   \                     _A_UDR0:
   \   00000000                      DS8 1

   \                                 In  segment ABSOLUTE, at 0x2b, root
   \   union <unnamed> volatile __io _A_UCSR0A
   \                     _A_UCSR0A:
   \   00000000                      DS8 1

   \                                 In  segment ABSOLUTE, at 0x2a, root
   \   union <unnamed> volatile __io _A_UCSR0B
   \                     _A_UCSR0B:
   \   00000000                      DS8 1

   \                                 In  segment ABSOLUTE, at 0x29, root
   \   union <unnamed> volatile __io _A_UBRR0L
   \                     _A_UBRR0L:
   \   00000000                      DS8 1

   \                                 In  segment ABSOLUTE, at 0x28, root
   \   union <unnamed> volatile __io _A_ACSR
   \                     _A_ACSR:
   \   00000000                      DS8 1

   \                                 In  segment ABSOLUTE, at 0x27, root
   \   union <unnamed> volatile __io _A_ADMUX
   \                     _A_ADMUX:
   \   00000000                      DS8 1

   \                                 In  segment ABSOLUTE, at 0x26, root
   \   union <unnamed> volatile __io _A_ADCSRA
   \                     _A_ADCSRA:
   \   00000000                      DS8 1

   \                                 In  segment ABSOLUTE, at 0x24, root
   \   union <unnamed> volatile __io _A_ADC
   \                     _A_ADC:
   \   00000000                      DS8 2

   \                                 In  segment ABSOLUTE, at 0x23, root
   \   union <unnamed> volatile __io _A_PORTE
   \                     _A_PORTE:
   \   00000000                      DS8 1

   \                                 In  segment ABSOLUTE, at 0x22, root
   \   union <unnamed> volatile __io _A_DDRE
   \                     _A_DDRE:
   \   00000000                      DS8 1

   \                                 In  segment ABSOLUTE, at 0x21, root
   \   union <unnamed> volatile __io _A_PINE
   \                     _A_PINE:
   \   00000000                      DS8 1

   \                                 In  segment ABSOLUTE, at 0x20, root
   \   union <unnamed> volatile __io _A_PINF
   \                     _A_PINF:
   \   00000000                      DS8 1

      static __flash TDataBase CFlash::xMainDataBase;
                               ^
"D:\Projects\CurrentProjects\CautoProjects\PSS48Color\include\Platform.h",368  Warning[Pe427]: 
          qualified name is not allowed in member declaration

      static __flash TDataBaseBlockPositionData CFlash::axDataBaseBlocksPositionData[];
                                                ^
"D:\Projects\CurrentProjects\CautoProjects\PSS48Color\include\Platform.h",369  Warning[Pe427]: 
          qualified name is not allowed in member declaration
     11          #include "Pss21.h"

      virtual bool IsSolved(void) {};
                                   ^
"D:\Projects\CurrentProjects\CautoProjects\PSS48Color\include\Task.h",20  Warning[Pe940]: 
          missing return statement at end of non-void function
          "CTaskInterface::IsSolved"

      virtual bool IsSourceStateActive(void) {};
                                              ^
"D:\Projects\CurrentProjects\CautoProjects\PSS48Color\include\Task.h",23  Warning[Pe940]: 
          missing return statement at end of non-void function
          "CTaskInterface::IsSourceStateActive"

      bool IsSolved(void) {};
                           ^
"D:\Projects\CurrentProjects\CautoProjects\PSS48Color\include\Task.h",58  Warning[Pe940]: 
          missing return statement at end of non-void function
          "CIsRegularButtonPressedInterface::IsSolved"

      virtual bool IsSourceStateActive(void) {};
                                              ^
"D:\Projects\CurrentProjects\CautoProjects\PSS48Color\include\Task.h",61  Warning[Pe940]: 
          missing return statement at end of non-void function
          "CIsRegularButtonPressedInterface::IsSourceStateActive"

      virtual uint16_t KEY_PRESSED_TIME(void) {};
                                               ^
"D:\Projects\CurrentProjects\CautoProjects\PSS48Color\include\Task.h",63  Warning[Pe940]: 
          missing return statement at end of non-void function
          "CIsRegularButtonPressedInterface::KEY_PRESSED_TIME"
Warning[Pa082]: undefined behavior: the order of volatile accesses is undefined
          in this statement
     12          #include "Crc.h"
     13          
     14          
     15          // ATMega128a
     16          //-----------------------------------------------------------------------------------------------------

   \                                 In  segment CODE, align 2, keep-with-next
     17          CUart::CUart()
   \                     ??CUart:
     18          {
   \   00000000   ....               LDI     R18, LOW(??__vtbl)
   \   00000002   ....               LDI     R19, (??__vtbl) >> 8
   \   00000004   01F8               MOVW    R31:R30, R17:R16
   \   00000006   A725               STD     Z+45, R18
   \   00000008   A736               STD     Z+46, R19
     19          
     20          }
   \   0000000A   9508               RET
     21          
     22          //-----------------------------------------------------------------------------------------------------

   \                                 In  segment CODE, align 2, keep-with-next
     23          CUart::CUart(volatile uint8_t *ubrrh, volatile uint8_t *ubrrl,
   \                     ??CUart_1:
     24                       volatile uint8_t *ucsra, volatile uint8_t *ucsrb,
     25                       volatile uint8_t *ucsrc, volatile uint8_t *udr,
     26                       volatile uint8_t *rs485DirectionPort, volatile uint8_t rs485DirectionPin,
     27                       volatile uint8_t *rs485OutputPort, volatile uint8_t rs485OutputPin) :
   \   00000000   2E1B               MOV     R1, R27
   \   00000002   2E2A               MOV     R2, R26
   \   00000004   01F8               MOVW    R31:R30, R17:R16
   \   00000006   ....               LDI     R16, LOW(??__vtbl)
   \   00000008   ....               LDI     R17, (??__vtbl) >> 8
   \   0000000A   A705               STD     Z+45, R16
   \   0000000C   A716               STD     Z+46, R17
     28              m_UBRRH(ubrrh), m_UBRRL(ubrrl), m_UCSRA(ucsra),
   \   0000000E   8320               ST      Z, R18
   \   00000010   8331               STD     Z+1, R19
   \   00000012   8342               STD     Z+2, R20
   \   00000014   8353               STD     Z+3, R21
   \   00000016   8364               STD     Z+4, R22
   \   00000018   8375               STD     Z+5, R23
     29              m_UCSRB(ucsrb), m_UCSRC(ucsrc), m_UDR(udr),
   \   0000001A   8108               LD      R16, Y
   \   0000001C   8119               LDD     R17, Y+1
   \   0000001E   8306               STD     Z+6, R16
   \   00000020   8317               STD     Z+7, R17
   \   00000022   810A               LDD     R16, Y+2
   \   00000024   811B               LDD     R17, Y+3
   \   00000026   8700               STD     Z+8, R16
   \   00000028   8711               STD     Z+9, R17
   \   0000002A   810C               LDD     R16, Y+4
   \   0000002C   811D               LDD     R17, Y+5
   \   0000002E   8702               STD     Z+10, R16
   \   00000030   8713               STD     Z+11, R17
     30              m_rs485DirectionPort(rs485DirectionPort), m_rs485DirectionPin(rs485DirectionPin), m_rs485OutputPort(rs485OutputPort), m_rs485OutputPin(rs485OutputPin)
   \   00000032   810E               LDD     R16, Y+6
   \   00000034   811F               LDD     R17, Y+7
   \   00000036   8704               STD     Z+12, R16
   \   00000038   8715               STD     Z+13, R17
   \   0000003A   8508               LDD     R16, Y+8
   \   0000003C   8706               STD     Z+14, R16
   \   0000003E   8509               LDD     R16, Y+9
   \   00000040   851A               LDD     R17, Y+10
   \   00000042   8707               STD     Z+15, R16
   \   00000044   8B10               STD     Z+16, R17
   \   00000046   850B               LDD     R16, Y+11
   \   00000048   8B01               STD     Z+17, R16
     31          {
     32              if (m_rs485DirectionPort)
   \   0000004A   85A4               LDD     R26, Z+12
   \   0000004C   85B5               LDD     R27, Z+13
   \   0000004E   2F0A               MOV     R16, R26
   \   00000050   2B0B               OR      R16, R27
   \   00000052   F031               BREQ    ??CrossCallReturnLabel_0
     33              {
     34                  uint8_t uiData = m_rs485DirectionPin;
   \   00000054   8546               LDD     R20, Z+14
     35                  *m_rs485DirectionPort |= _BV(uiData);
   \   00000056   ....               RCALL   ?Subroutine22
   \                     ??CrossCallReturnLabel_28:
   \   00000058   911C               LD      R17, X
   \   0000005A   2B10               OR      R17, R16
   \   0000005C   931C               ST      X, R17
     36                  uiData = m_rs485OutputPin;
   \   0000005E   ....               RCALL   ?Subroutine2
     37                  *m_rs485OutputPort &= ~(_BV(uiData));
     38              }
     39          }
   \                     ??CrossCallReturnLabel_0:
   \   00000060   018F               MOVW    R17:R16, R31:R30
   \   00000062   2DA2               MOV     R26, R2
   \   00000064   2DB1               MOV     R27, R1
   \   00000066   962C               ADIW    R29:R28, 12
   \   00000068   9508               RET

   \                                 In  segment CODE, align 2, keep-with-next
   \                     ?Subroutine22:
   \   00000000   E001               LDI     R16, 1
   \   00000002   E010               LDI     R17, 0
   \   00000004   ........           JMP     ?S_SHL_L02

   \                                 In  segment CODE, align 2, keep-with-next
   \                     ?Subroutine2:
   \   00000000   8941               LDD     R20, Z+17
   \   00000002   ....               RCALL   ?Subroutine22
   \                     ??CrossCallReturnLabel_30:
   \   00000004   9500               COM     R16
   \   00000006   85A7               LDD     R26, Z+15
   \   00000008   89B0               LDD     R27, Z+16
   \   0000000A   911C               LD      R17, X
   \   0000000C   2310               AND     R17, R16
   \   0000000E   931C               ST      X, R17
   \   00000010   9508               RET
     40          
     41          //-----------------------------------------------------------------------------------------------------

   \                                 In  segment CODE, align 2, keep-with-next
     42          CUart::~CUart()
   \                     `?~CUart`:
   \   00000000   ....               RJMP    ?Subroutine8

   \                                 In  segment CODE, align 2, keep-with-next
   \                     ?Subroutine8:
     43          {
   \   00000000   2F40               MOV     R20, R16
   \   00000002   2B41               OR      R20, R17
   \   00000004   F021               BREQ    ??Subroutine8_0
   \   00000006   FB20               BST     R18, 0
   \   00000008   F416               BRTC    ??Subroutine8_0
     44          
     45          }
   \   0000000A   ........           CALL    `??operator delete`
   \                     ??Subroutine8_0:
   \   0000000E   9508               RET
     46          
     47          //-----------------------------------------------------------------------------------------------------

   \                                 In  segment CODE, align 2, keep-with-next
     48          void CUart::Init(uint32_t ulBaudRate,
   \                     ??Init:
     49                           uint8_t ucParity,
     50                           uint8_t uiDataBits,
     51                           uint8_t ucStopBit,
     52                           uint8_t *puiRxBuffer,
     53                           uint8_t *puiTxBuffer)
     54          {
   \   00000000   93BA               ST      -Y, R27
   \   00000002   93AA               ST      -Y, R26
   \   00000004   01D8               MOVW    R27:R26, R17:R16
     55          //    m_puiRxBuffer = puiRxBuffer;
     56          //    m_puiTxBuffer = puiTxBuffer;
     57          
     58              /* Set the baud rate */
     59              uint16_t uiBaudRateTemp = static_cast<uint16_t>((F_CPU / (ulBaudRate * 16UL) - 1));
   \   00000006   018A               MOVW    R17:R16, R21:R20
   \   00000008   019B               MOVW    R19:R18, R23:R22
   \   0000000A   E044               LDI     R20, 4
   \   0000000C   ........           CALL    ?L_SHL_L03
   \   00000010   01A8               MOVW    R21:R20, R17:R16
   \   00000012   01B9               MOVW    R23:R22, R19:R18
   \   00000014   ....               RCALL   ?Subroutine3
     60          //    uint16_t uiBaudRateTemp = static_cast<uint16_t>(CPss21::m_xModbusSettings.BaudRate);//(F_CPU / (ulBaudRate * 16UL) - 1);//
     61              *m_UBRRL = static_cast<uint8_t>(uiBaudRateTemp);
   \                     ??CrossCallReturnLabel_2:
   \   00000016   9612               ADIW    R27:R26, 2
   \   00000018   91ED               LD      R30, X+
   \   0000001A   91FC               LD      R31, X
   \   0000001C   9713               SBIW    R27:R26, 3
   \   0000001E   8300               ST      Z, R16
     62              *m_UBRRH = static_cast<uint8_t>(uiBaudRateTemp >> 8);
   \   00000020   01FD               MOVW    R31:R30, R27:R26
   \   00000022   8100               LD      R16, Z
   \   00000024   81F1               LDD     R31, Z+1
   \   00000026   2FE0               MOV     R30, R16
   \   00000028   8310               ST      Z, R17
     63          
     64              *m_UCSRC = (CPss21::m_xModbusSettings.LinkParam &	// 2 стоп-бита, 8 бит данных
     65                          (BIT(UPM11)|BIT(UPM10)|BIT(USBS1))) |
     66                         (BIT(UCSZ11)|BIT(UCSZ10));
   \   0000002A   9100....           LDS     R16, (??m_xModbusSettings + 2)
   \   0000002E   7308               ANDI    R16, 0x38
   \   00000030   6006               ORI     R16, 0x06
   \   00000032   01FD               MOVW    R31:R30, R27:R26
   \   00000034   85A0               LDD     R26, Z+8
   \   00000036   85B1               LDD     R27, Z+9
   \   00000038   930C               ST      X, R16
     67          
     68          //    /* Set data bits (7, 8 bits) */
     69          //    switch (uiDataBits)
     70          //    {
     71          //    case 8:
     72          //        *m_UCSRC |= (1 << UCSZ00) | (1 << UCSZ01);
     73          //        break;
     74          //    case 7:
     75          //        *m_UCSRC |= (1 << UCSZ01);
     76          //        break;
     77          //    }
     78          //
     79          //    /* Set parity */
     80          //    if (ucParity == 'N')
     81          //    {
     82          //        /* None */
     83          //    }
     84          //    else if (ucParity == 'E')
     85          //    {
     86          //        /* Even */
     87          //        *m_UCSRC |= (1 << UPM01);
     88          //    }
     89          //    else
     90          //    {
     91          //        /* Odd */
     92          //        *m_UCSRC |= (1 << UPM01) | (1 << UPM00);
     93          //    }
     94          //
     95          //    /* Stop bit (1 or 2) */
     96          //    if (ucStopBit == 1)
     97          //    {
     98          //        *m_UCSRC &= ~(1 << USBS0);
     99          //    }
    100          //    else if (ucStopBit == 2) /* 2 */
    101          //    {
    102          //        *m_UCSRC |= (1 << USBS0);
    103          //    }
    104          }
   \   0000003A   91A9               LD      R26, Y+
   \   0000003C   91B9               LD      R27, Y+
   \   0000003E   9625               ADIW    R29:R28, 5
   \   00000040   9508               RET

   \                                 In  segment CODE, align 2, keep-with-next
   \                     ?Subroutine3:
   \   00000000   E000               LDI     R16, 0
   \   00000002   E810               LDI     R17, 128
   \   00000004   E720               LDI     R18, 112
   \   00000006   E030               LDI     R19, 0
   \   00000008   ........           CALL    ?UL_DIVMOD_L03
   \   0000000C   5001               SUBI    R16, 1
   \   0000000E   4010               SBCI    R17, 0
   \   00000010   9508               RET
    105          
    106          //-----------------------------------------------------------------------------------------------------

   \                                 In  segment CODE, align 2, keep-with-next
    107          void CUart::Reset(void)
   \                     ??Reset:
    108          {
    109              m_nuiRxBuffByteCounter = 0;
   \   00000000   01F8               MOVW    R31:R30, R17:R16
   \   00000002   E020               LDI     R18, 0
   \   00000004   8F20               STD     Z+24, R18
   \   00000006   8F21               STD     Z+25, R18
    110              m_bfByteIsReceived = 0;
   \   00000008   A722               STD     Z+42, R18
    111              m_bfFrameIsSended = 0;
   \   0000000A   A723               STD     Z+43, R18
    112              m_bfRxBuffOverflow = 0;
   \   0000000C   A724               STD     Z+44, R18
    113          }
   \   0000000E   9508               RET
    114          
    115          //-----------------------------------------------------------------------------------------------------

   \                                 In  segment CODE, align 2, keep-with-next
    116          void CUart::Open(void)
   \                     ??Open:
    117          {
   \   00000000   ....               RCALL   ?Subroutine6
    118              *m_UCSRA |= (1 << RXC0) | (1 << TXC0);
   \                     ??CrossCallReturnLabel_52:
   \   00000002   6C20               ORI     R18, 0xC0
   \   00000004   ....               RCALL   ?Subroutine12
    119              *m_UCSRB |= (1 << RXEN0) | (1 << TXEN0);
   \                     ??CrossCallReturnLabel_8:
   \   00000006   6108               ORI     R16, 0x18
   \   00000008   ....               RJMP    ?Subroutine14

   \                                 In  segment CODE, align 2, keep-with-next
   \                     ?Subroutine14:
   \   00000000   930C               ST      X, R16
    120          }
   \   00000002                      REQUIRE ?Subroutine27
   \   00000002                      ;               // Fall through to label ?Subroutine27

   \                                 In  segment CODE, align 2, keep-with-next
   \                     ?Subroutine27:
   \   00000000   2FA4               MOV     R26, R20
   \   00000002   2FB3               MOV     R27, R19
   \   00000004   9508               RET

   \                                 In  segment CODE, align 2, keep-with-next
   \                     ?Subroutine31:
   \   00000000   912C               LD      R18, X
   \   00000002   9508               RET

   \                                 In  segment CODE, align 2, keep-with-next
   \                     ?Subroutine12:
   \   00000000   932C               ST      X, R18
   \   00000002   81A6               LDD     R26, Z+6
   \   00000004   81B7               LDD     R27, Z+7
   \   00000006   910C               LD      R16, X
   \   00000008   9508               RET

   \                                 In  segment CODE, align 2, keep-with-next
   \                     ?Subroutine6:
   \   00000000   2F3B               MOV     R19, R27
   \   00000002   2F4A               MOV     R20, R26
   \   00000004   01F8               MOVW    R31:R30, R17:R16
   \   00000006   81A4               LDD     R26, Z+4
   \   00000008   81B5               LDD     R27, Z+5
   \   0000000A   ....               RJMP    ?Subroutine31
    121          
    122          //-----------------------------------------------------------------------------------------------------

   \                                 In  segment CODE, align 2, keep-with-next
    123          void CUart::Close(void)
   \                     ??Close:
    124          {
   \   00000000   ....               RCALL   ?Subroutine4
    125              *m_UCSRB &= ~((1 << RXEN0) | (1 << RXCIE0));
   \                     ??CrossCallReturnLabel_54:
   \   00000002   762F               ANDI    R18, 0x6F
   \   00000004   932C               ST      X, R18
    126              *m_UCSRB &= ~((1 << TXEN0) | (1 << TXCIE0));
   \   00000006   ....               RCALL   ?Subroutine16
   \                     ??CrossCallReturnLabel_17:
   \   00000008   912C               LD      R18, X
   \   0000000A   7B27               ANDI    R18, 0xB7
   \   0000000C   ....               RCALL   ?Subroutine12
    127              *m_UCSRB &= ~((1 << UDRIE0));
   \                     ??CrossCallReturnLabel_9:
   \   0000000E   7D0F               ANDI    R16, 0xDF
   \   00000010                      REQUIRE ?Subroutine14
   \   00000010                      ;               // Fall through to label ?Subroutine14
    128          }

   \                                 In  segment CODE, align 2, keep-with-next
   \                     ?Subroutine4:
   \   00000000   2F3B               MOV     R19, R27
   \   00000002   2F4A               MOV     R20, R26
   \   00000004                      REQUIRE ?Subroutine31
   \   00000004                      REQUIRE ??Subroutine43_0
   \   00000004                      ;               // Fall through to label ??Subroutine43_0

   \                                 In  segment CODE, align 2, keep-with-next
   \                     ??Subroutine43_0:
   \   00000000   01F8               MOVW    R31:R30, R17:R16
   \   00000002   81A6               LDD     R26, Z+6
   \   00000004   81B7               LDD     R27, Z+7
   \   00000006                      REQUIRE ?Subroutine31
   \   00000006                      ;               // Fall through to label ?Subroutine31

   \                                 In  segment CODE, align 2, keep-with-next
   \                     ?Subroutine16:
   \   00000000   81A6               LDD     R26, Z+6
   \   00000002   81B7               LDD     R27, Z+7
   \   00000004   9508               RET
    129          
    130          //-----------------------------------------------------------------------------------------------------

   \                                 In  segment CODE, align 2, keep-with-next
    131          void CUart::Enable(void)
   \                     ??Enable:
    132          {
   \   00000000   ....               RCALL   ?Subroutine6
    133              *m_UCSRA |= (1 << RXC0);
   \                     ??CrossCallReturnLabel_53:
   \   00000002   6820               ORI     R18, 0x80
   \   00000004   ....               RCALL   ?Subroutine12
    134              *m_UCSRB |= (1 << RXEN0) | (1 << RXCIE0);
   \                     ??CrossCallReturnLabel_10:
   \   00000006   6900               ORI     R16, 0x90
   \   00000008   ....               RJMP    ?Subroutine14
    135          }
    136          
    137          //-----------------------------------------------------------------------------------------------------

   \                                 In  segment CODE, align 2, keep-with-next
    138          void CUart::Disable(void)
   \                     ??Disable:
    139          {
   \   00000000   019D               MOVW    R19:R18, R27:R26
    140              *m_UCSRB &= ~((1 << RXEN0) | (1 << RXCIE0));
   \   00000002   01F8               MOVW    R31:R30, R17:R16
   \   00000004   ....               RCALL   ?Subroutine16
   \                     ??CrossCallReturnLabel_18:
   \   00000006   910C               LD      R16, X
   \   00000008   760F               ANDI    R16, 0x6F
   \   0000000A   930C               ST      X, R16
    141          }
   \   0000000C                      REQUIRE ?Subroutine32
   \   0000000C                      ;               // Fall through to label ?Subroutine32

   \                                 In  segment CODE, align 2, keep-with-next
   \                     ?Subroutine32:
   \   00000000   01D9               MOVW    R27:R26, R19:R18
   \   00000002   9508               RET
    142          
    143          //-----------------------------------------------------------------------------------------------------

   \                                 In  segment CODE, align 2, keep-with-next
    144          void CUart::Rs485RtsOn(void)
   \                     ??Rs485RtsOn:
    145          {
   \   00000000   019D               MOVW    R19:R18, R27:R26
   \   00000002   01F8               MOVW    R31:R30, R17:R16
    146              uint8_t uiData = m_rs485OutputPin;
   \   00000004   8941               LDD     R20, Z+17
    147              *m_rs485OutputPort |= (1 << uiData);
   \   00000006   ....               RCALL   ?Subroutine22
   \                     ??CrossCallReturnLabel_29:
   \   00000008   85A7               LDD     R26, Z+15
   \   0000000A   89B0               LDD     R27, Z+16
   \   0000000C   911C               LD      R17, X
   \   0000000E   2B10               OR      R17, R16
   \   00000010   931C               ST      X, R17
    148          }
   \   00000012   ....               RJMP    ?Subroutine32
    149          
    150          //-----------------------------------------------------------------------------------------------------

   \                                 In  segment CODE, align 2, keep-with-next
    151          void CUart::Rs485RtsOff(void)
   \                     ??Rs485RtsOff:
    152          {
   \   00000000   019D               MOVW    R19:R18, R27:R26
   \   00000002   01F8               MOVW    R31:R30, R17:R16
    153              uint8_t uiData = m_rs485OutputPin;
   \   00000004   ....               RCALL   ?Subroutine2
    154              *m_rs485OutputPort &= ~(1 << uiData);
    155          }
   \                     ??CrossCallReturnLabel_1:
   \   00000006   ....               RJMP    ?Subroutine32
    156          
    157          //-----------------------------------------------------------------------------------------------------

   \                                 In  segment CODE, align 2, keep-with-next
    158          void CUart::TransmitEnable(void)
   \                     ??TransmitEnable:
    159          {
   \   00000000   2F5B               MOV     R21, R27
   \   00000002   2F6A               MOV     R22, R26
   \   00000004   01D8               MOVW    R27:R26, R17:R16
    160              if (m_rs485DirectionPort)
   \   00000006   01F8               MOVW    R31:R30, R17:R16
   \   00000008   8504               LDD     R16, Z+12
   \   0000000A   8515               LDD     R17, Z+13
   \   0000000C   2B01               OR      R16, R17
   \   0000000E   F011               BREQ    ??TransmitEnable_1
    161              {
    162                  Rs485RtsOn();
   \   00000010   018D               MOVW    R17:R16, R27:R26
   \   00000012   ....               RCALL   ??Rs485RtsOn
    163              }
    164          
    165              *m_UCSRA |= (1 << TXC0) | (1 << UDRE0);
   \                     ??TransmitEnable_1:
   \   00000014   9614               ADIW    R27:R26, 4
   \   00000016   91ED               LD      R30, X+
   \   00000018   91FC               LD      R31, X
   \   0000001A   9715               SBIW    R27:R26, 5
   \   0000001C   8100               LD      R16, Z
   \   0000001E   6600               ORI     R16, 0x60
   \   00000020   8300               ST      Z, R16
    166              *m_UCSRB |= (1 << TXEN0) | (1 << UDRIE0);
   \   00000022   01FD               MOVW    R31:R30, R27:R26
   \   00000024   ....               RCALL   ?Subroutine16
   \                     ??CrossCallReturnLabel_19:
   \   00000026   910C               LD      R16, X
   \   00000028   6208               ORI     R16, 0x28
   \   0000002A   930C               ST      X, R16
    167          
    168          }
   \   0000002C                      REQUIRE ?Subroutine28
   \   0000002C                      ;               // Fall through to label ?Subroutine28

   \                                 In  segment CODE, align 2, keep-with-next
   \                     ?Subroutine28:
   \   00000000   2FA6               MOV     R26, R22
   \   00000002   2FB5               MOV     R27, R21
   \   00000004   9508               RET
    169          
    170          //-----------------------------------------------------------------------------------------------------

   \                                 In  segment CODE, align 2, keep-with-next
    171          void CUart::TransmitDisable(void)
   \                     ??TransmitDisable:
    172          {
   \   00000000   2F5B               MOV     R21, R27
   \   00000002   2F6A               MOV     R22, R26
    173              *m_UCSRB &= ~((1 << TXEN0) | (1 << TXCIE0) | (1 << UDRIE0));
   \   00000004   ....               RCALL   ??Subroutine43_0
   \                     ??CrossCallReturnLabel_56:
   \   00000006   7927               ANDI    R18, 0x97
   \   00000008   932C               ST      X, R18
    174          
    175              if (m_rs485DirectionPort)
   \   0000000A   8524               LDD     R18, Z+12
   \   0000000C   8535               LDD     R19, Z+13
   \   0000000E   2B23               OR      R18, R19
   \   00000010   F009               BREQ    ??TransmitDisable_1
    176              {
    177                  Rs485RtsOff();
   \   00000012   ....               RCALL   ??Rs485RtsOff
    178              }
    179          }
   \                     ??TransmitDisable_1:
   \   00000014   ....               RJMP    ?Subroutine28
    180          
    181          //-----------------------------------------------------------------------------------------------------

   \                                 In  segment CODE, align 2, keep-with-next
   \                     ?Subroutine30:
   \   00000000   E010               LDI     R17, 0
   \   00000002   9508               RET

   \                                 In  segment CODE, align 2, keep-with-next
    182          int16_t CUart::Write(uint8_t *puiSource, uint16_t uiLength)
   \                     ??Write:
    183          {
    184              m_puiTxBuffer = (uint8_t*)puiSource;
   \   00000000   01F8               MOVW    R31:R30, R17:R16
   \   00000002   8B22               STD     Z+18, R18
   \   00000004   8B33               STD     Z+19, R19
    185              m_nuiTxBuffByteCounter = uiLength;
   \   00000006   8B44               STD     Z+20, R20
   \   00000008   8B55               STD     Z+21, R21
    186          
    187              return 1;
   \   0000000A   E001               LDI     R16, 1
   \   0000000C   ....               RJMP    ?Subroutine30
    188          }
    189          
    190          //-----------------------------------------------------------------------------------------------------

   \                                 In  segment CODE, align 2, keep-with-next
   \                     ?Subroutine5:
   \   00000000   E000               LDI     R16, 0
   \   00000002                      REQUIRE ?Subroutine30
   \   00000002                      ;               // Fall through to label ?Subroutine30

   \                                 In  segment CODE, align 2, keep-with-next
    191          int16_t CUart::Read(uint8_t *puiDestination, uint16_t uiLength)
   \                     ??Read:
    192          {
   \   00000000   ....               RCALL   ?Subroutine17
   \                     ??CrossCallReturnLabel_21:
   \   00000002   01F8               MOVW    R31:R30, R17:R16
    193              m_bfByteIsReceived = 0;
   \   00000004   E000               LDI     R16, 0
   \   00000006   A702               STD     Z+42, R16
    194          
    195              if (m_bfRxBuffOverflow)
   \   00000008   A504               LDD     R16, Z+44
   \   0000000A   2300               TST     R16
   \   0000000C   F429               BRNE    ??Read_4
    196              {
    197                  return -1;
    198              }
    199          
    200              if (uiLength <= m_nuiRxBuffByteCounter)
   \   0000000E   8D00               LDD     R16, Z+24
   \   00000010   8D11               LDD     R17, Z+25
   \   00000012   1704               CP      R16, R20
   \   00000014   0715               CPC     R17, R21
   \   00000016   F018               BRCS    ??Read_5
    201              {
    202                  return -1;
   \                     ??Read_4:
   \   00000018   EF0F               LDI     R16, 255
   \   0000001A   EF1F               LDI     R17, 255
   \   0000001C   C01B               RJMP    ??CrossCallReturnLabel_37
    203              }
    204              else if (m_nuiRxBuffByteCounter)
   \                     ??Read_5:
   \   0000001E   2B01               OR      R16, R17
   \   00000020   F0C1               BREQ    ??Read_6
    205              {
    206                  CPlatform::InterruptDisable();
   \   00000022   94F8               CLI
    207          
    208                  for (int16_t i = 0; i < m_nuiRxBuffByteCounter; i++)
   \   00000024   E080               LDI     R24, 0
   \   00000026   E090               LDI     R25, 0
   \   00000028   C00A               RJMP    ??Read_7
    209                  {
    210                      puiDestination[i] = m_auiIntermediateBuff[i];
   \                     ??Read_8:
   \   0000002A   01DF               MOVW    R27:R26, R31:R30
   \   0000002C   0FA8               ADD     R26, R24
   \   0000002E   1FB9               ADC     R27, R25
   \   00000030   965A               ADIW    R27:R26, 26
   \   00000032   910C               LD      R16, X
   \   00000034   01D9               MOVW    R27:R26, R19:R18
   \   00000036   0FA8               ADD     R26, R24
   \   00000038   1FB9               ADC     R27, R25
   \   0000003A   930C               ST      X, R16
    211                  }
   \   0000003C   9601               ADIW    R25:R24, 1
   \                     ??Read_7:
   \   0000003E   8D00               LDD     R16, Z+24
   \   00000040   8D11               LDD     R17, Z+25
   \   00000042   1780               CP      R24, R16
   \   00000044   0791               CPC     R25, R17
   \   00000046   F388               BRCS    ??Read_8
    212          
    213                  uint8_t uiCounter = m_nuiRxBuffByteCounter;
    214                  m_nuiRxBuffByteCounter = 0;
   \   00000048   E010               LDI     R17, 0
   \   0000004A   8F10               STD     Z+24, R17
   \   0000004C   8F11               STD     Z+25, R17
    215          
    216                  CPlatform::InterruptEnable();
   \   0000004E   9478               SEI
    217          
    218                  return uiCounter;
    219              }
   \   00000050   C001               RJMP    ??CrossCallReturnLabel_37
    220              else if (0 == m_nuiRxBuffByteCounter)
    221              {
    222                  return 0;
    223              }
    224              return 0;
   \                     ??Read_6:
   \   00000052   ....               RCALL   ?Subroutine5
   \                     ??CrossCallReturnLabel_37:
   \   00000054                      REQUIRE ?Subroutine38
   \   00000054                      ;               // Fall through to label ?Subroutine38
    225          }

   \                                 In  segment CODE, align 2, keep-with-next
   \                     ?Subroutine38:
   \   00000000   E0E4               LDI     R30, 4
   \   00000002   ........           JMP     ?EPILOGUE_B4_L09

   \                                 In  segment CODE, align 2, keep-with-next
   \                     ?Subroutine17:
   \   00000000   ........           JMP     ?PROLOGUE4_L09
    226          
    227          //-----------------------------------------------------------------------------------------------------

   \                                 In  segment CODE, align 2, keep-with-next
    228          void CUart::UdreInterruptHandler(void)
   \                     ??UdreInterruptHandler:
    229          {
   \   00000000   01AD               MOVW    R21:R20, R27:R26
    230              if (m_nuiTxBuffByteCounter == 0)
   \   00000002   01F8               MOVW    R31:R30, R17:R16
   \   00000004   8924               LDD     R18, Z+20
   \   00000006   8935               LDD     R19, Z+21
   \   00000008   2B23               OR      R18, R19
   \   0000000A   F461               BRNE    ??UdreInterruptHandler_1
    231              {
    232                  *m_UCSRB &= ~((1 << UDRIE0));
   \   0000000C   ....               RCALL   ?Subroutine16
   \                     ??CrossCallReturnLabel_20:
   \   0000000E   912C               LD      R18, X
   \   00000010   7D2F               ANDI    R18, 0xDF
   \   00000012   932C               ST      X, R18
    233                  *m_UCSRA |= (1 << TXC0);
   \   00000014   81A4               LDD     R26, Z+4
   \   00000016   81B5               LDD     R27, Z+5
   \   00000018   912C               LD      R18, X
   \   0000001A   6420               ORI     R18, 0x40
   \   0000001C   ....               RCALL   ?Subroutine12
    234                  *m_UCSRB |= (1 << TXCIE0);
   \                     ??CrossCallReturnLabel_11:
   \   0000001E   6400               ORI     R16, 0x40
   \   00000020   930C               ST      X, R16
    235                  return;
   \   00000022   C00E               RJMP    ??UdreInterruptHandler_2
    236              }
    237              *m_UDR = *m_puiTxBuffer++;
   \                     ??UdreInterruptHandler_1:
   \   00000024   89A2               LDD     R26, Z+18
   \   00000026   89B3               LDD     R27, Z+19
   \   00000028   912D               LD      R18, X+
   \   0000002A   8BA2               STD     Z+18, R26
   \   0000002C   8BB3               STD     Z+19, R27
   \   0000002E   85A2               LDD     R26, Z+10
   \   00000030   85B3               LDD     R27, Z+11
   \   00000032   932C               ST      X, R18
    238              m_nuiTxBuffByteCounter--;
   \   00000034   8904               LDD     R16, Z+20
   \   00000036   8915               LDD     R17, Z+21
   \   00000038   5001               SUBI    R16, 1
   \   0000003A   4010               SBCI    R17, 0
   \   0000003C   8B04               STD     Z+20, R16
   \   0000003E   8B15               STD     Z+21, R17
    239          }
   \                     ??UdreInterruptHandler_2:
   \   00000040                      REQUIRE ?Subroutine33
   \   00000040                      ;               // Fall through to label ?Subroutine33

   \                                 In  segment CODE, align 2, keep-with-next
   \                     ?Subroutine33:
   \   00000000   01DA               MOVW    R27:R26, R21:R20
   \   00000002   9508               RET
    240          
    241          //-----------------------------------------------------------------------------------------------------

   \                                 In  segment CODE, align 2, keep-with-next
    242          void CUart::TxcInterruptHandler(void)
   \                     ??TxcInterruptHandler:
    243          {
   \   00000000   ....               RCALL   ?Subroutine4
    244              *m_UCSRB &= ~((1 << TXCIE0));
   \                     ??CrossCallReturnLabel_55:
   \   00000002   7B2F               ANDI    R18, 0xBF
   \   00000004   932C               ST      X, R18
    245              m_bfFrameIsSended = 1;
   \   00000006   E001               LDI     R16, 1
   \   00000008   A703               STD     Z+43, R16
    246              return;
   \   0000000A   ....               RJMP    ?Subroutine27
    247          }
    248          
    249          //-----------------------------------------------------------------------------------------------------

   \                                 In  segment CODE, align 2, keep-with-next
    250          void CUart::RecvInterruptHandler(void)
   \                     ??RecvInterruptHandler:
    251          {
   \   00000000   ....               RCALL   ?Subroutine17
    252              // промежуточный буфер приёма переполнен?
    253              if (m_nuiRxBuffByteCounter >=
    254                      UART_INTERMEDIATE_BUFF_LENGTH)
   \                     ??CrossCallReturnLabel_22:
   \   00000002   01F8               MOVW    R31:R30, R17:R16
   \   00000004   8D20               LDD     R18, Z+24
   \   00000006   8D31               LDD     R19, Z+25
   \   00000008   3120               CPI     R18, 16
   \   0000000A   E040               LDI     R20, 0
   \   0000000C   0734               CPC     R19, R20
   \   0000000E   F020               BRCS    ??RecvInterruptHandler_1
    255              {
    256                  m_bfRxBuffOverflow = 1;
   \   00000010   E021               LDI     R18, 1
   \   00000012   A724               STD     Z+44, R18
    257                  m_bfByteIsReceived = 1;
   \   00000014   A722               STD     Z+42, R18
   \   00000016   C00D               RJMP    ??RecvInterruptHandler_2
    258              }
    259              else
    260              {
    261                  m_auiIntermediateBuff[m_nuiRxBuffByteCounter++] = *m_UDR;
   \                     ??RecvInterruptHandler_1:
   \   00000018   01C9               MOVW    R25:R24, R19:R18
   \   0000001A   9601               ADIW    R25:R24, 1
   \   0000001C   8F80               STD     Z+24, R24
   \   0000001E   8F91               STD     Z+25, R25
   \   00000020   85A2               LDD     R26, Z+10
   \   00000022   85B3               LDD     R27, Z+11
   \   00000024   914C               LD      R20, X
   \   00000026   0FE2               ADD     R30, R18
   \   00000028   1FF3               ADC     R31, R19
   \   0000002A   8F42               STD     Z+26, R20
    262                  m_bfByteIsReceived = 1;
   \   0000002C   01F8               MOVW    R31:R30, R17:R16
   \   0000002E   E001               LDI     R16, 1
   \   00000030   A702               STD     Z+42, R16
    263              }
    264          }
   \                     ??RecvInterruptHandler_2:
   \   00000032   ....               RJMP    ?Subroutine38
    265          
    266          ////-----------------------------------------------------------------------------------------------------
    267          //// Прерывание по пустому регистру данных UDR
    268          //#pragma vector = USART0_UDRE_vect
    269          //__interrupt void SIG_UART0_DATA(void)
    270          //{
    271          //    CPlatform::m_pxUart0 -> UdreInterruptHandler();
    272          //}
    273          //
    274          ////-----------------------------------------------------------------------------------------------------
    275          //// Прерывание по завершению передачи UART
    276          //#pragma vector = USART0_TX_vect
    277          //__interrupt void SIG_UART0_TXC(void)
    278          //{
    279          //    CPlatform::m_pxUart0 -> TxcInterruptHandler();
    280          //}
    281          //
    282          ////-----------------------------------------------------------------------------------------------------
    283          //// Прерывание по завершению приема UART
    284          //#pragma vector = USART0_RX_vect
    285          //__interrupt void SIG_UART0_RECV(void)
    286          //{
    287          //    CPlatform::m_pxUart0 -> RecvInterruptHandler();
    288          //}
    289          
    290          //-----------------------------------------------------------------------------------------------------
    291          // Прерывание по пустому регистру данных UDR
    292          #pragma vector = USART1_UDRE_vect

   \                                 In  segment CODE, align 2, keep-with-next
    293          __interrupt void SIG_UART1_DATA(void)
   \                     ??SIG_UART1_DATA:
    294          {
   \   00000000   ....               RCALL   ?Subroutine11
    295              CPlatform::m_pxUart1 -> UdreInterruptHandler();
   \                     ??CrossCallReturnLabel_6:
   \   00000002   ....               RCALL   ?Subroutine24
   \                     ??CrossCallReturnLabel_31:
   \   00000004   ....               RCALL   ??UdreInterruptHandler
    296          }
   \   00000006                      REQUIRE ?Subroutine39
   \   00000006                      ;               // Fall through to label ?Subroutine39

   \                                 In  segment CODE, align 2, keep-with-next
   \                     ?Subroutine39:
   \   00000000   ....               RCALL   ?Subroutine18
   \                     ??CrossCallReturnLabel_41:
   \   00000002   9518               RETI

   \                                 In  segment CODE, align 2, keep-with-next
   \                     ?Subroutine23:
   \   00000000   9109               LD      R16, Y+
   \   00000002   9119               LD      R17, Y+
   \   00000004   9129               LD      R18, Y+
   \   00000006   9139               LD      R19, Y+
   \   00000008   9149               LD      R20, Y+
   \   0000000A   9159               LD      R21, Y+
   \   0000000C   9169               LD      R22, Y+
   \   0000000E   9508               RET

   \                                 In  segment CODE, align 2, keep-with-next
   \                     ?Subroutine24:
   \   00000000   9100....           LDS     R16, ??m_pxUart1
   \   00000004   9110....           LDS     R17, (??m_pxUart1 + 1)
   \   00000008   9508               RET

   \                                 In  segment CODE, align 2, keep-with-next
   \                     ?Subroutine21:
   \   00000000   936A               ST      -Y, R22
   \   00000002   935A               ST      -Y, R21
   \   00000004   934A               ST      -Y, R20
   \   00000006   933A               ST      -Y, R19
   \   00000008                      REQUIRE ??Subroutine44_0
   \   00000008                      ;               // Fall through to label ??Subroutine44_0

   \                                 In  segment CODE, align 2, keep-with-next
   \                     ??Subroutine44_0:
   \   00000000   932A               ST      -Y, R18
   \   00000002   931A               ST      -Y, R17
   \   00000004   930A               ST      -Y, R16
   \   00000006   9508               RET

   \                                 In  segment CODE, align 2, keep-with-next
   \                     ?Subroutine18:
   \   00000000   BF7B               OUT     0x3B, R23
   \   00000002   BF6F               OUT     0x3F, R22
   \   00000004   ....               RCALL   ?Subroutine23
   \                     ??CrossCallReturnLabel_40:
   \   00000006   9179               LD      R23, Y+
   \   00000008                      REQUIRE ?Subroutine26
   \   00000008                      ;               // Fall through to label ?Subroutine26

   \                                 In  segment CODE, align 2, keep-with-next
   \                     ?Subroutine26:
   \   00000000   91E9               LD      R30, Y+
   \   00000002   91F9               LD      R31, Y+
   \   00000004   9508               RET

   \                                 In  segment CODE, align 2, keep-with-next
   \                     ?Subroutine11:
   \   00000000   ....               RCALL   ?Subroutine25
   \                     ??CrossCallReturnLabel_35:
   \   00000002   937A               ST      -Y, R23
   \   00000004   ....               RCALL   ?Subroutine21
   \                     ??CrossCallReturnLabel_59:
   \   00000006   B76F               IN      R22, 0x3F
   \   00000008   B77B               IN      R23, 0x3B
   \   0000000A   9508               RET

   \                                 In  segment CODE, align 2, keep-with-next
   \                     ?Subroutine25:
   \   00000000   93FA               ST      -Y, R31
   \   00000002   93EA               ST      -Y, R30
   \   00000004   9508               RET
    297          
    298          //-----------------------------------------------------------------------------------------------------
    299          // Прерывание по завершению передачи UART
    300          #pragma vector = USART1_TX_vect

   \                                 In  segment CODE, align 2, keep-with-next
    301          __interrupt void SIG_UART1_TXC(void)
   \                     ??SIG_UART1_TXC:
    302          {
   \   00000000   ....               RCALL   ?Subroutine25
   \                     ??CrossCallReturnLabel_32:
   \   00000002   ....               RCALL   ?Subroutine10
    303              CPlatform::m_pxUart1 -> TxcInterruptHandler();
   \                     ??CrossCallReturnLabel_5:
   \   00000004   ....               RCALL   ??TxcInterruptHandler
    304          }
   \   00000006   ....               RCALL   ?Subroutine19
   \                     ??CrossCallReturnLabel_38:
   \   00000008                      REQUIRE ?Subroutine40
   \   00000008                      ;               // Fall through to label ?Subroutine40

   \                                 In  segment CODE, align 2, keep-with-next
   \                     ?Subroutine40:
   \   00000000   ....               RCALL   ?Subroutine26
   \                     ??CrossCallReturnLabel_42:
   \   00000002   9518               RETI

   \                                 In  segment CODE, align 2, keep-with-next
   \                     ?Subroutine19:
   \   00000000   BF6B               OUT     0x3B, R22
   \   00000002   BF5F               OUT     0x3F, R21
   \   00000004                      REQUIRE ?Subroutine23
   \   00000004                      ;               // Fall through to label ?Subroutine23

   \                                 In  segment CODE, align 2, keep-with-next
   \                     ?Subroutine10:
   \   00000000   ....               RCALL   ?Subroutine21
   \                     ??CrossCallReturnLabel_58:
   \   00000002   B75F               IN      R21, 0x3F
   \   00000004   B76B               IN      R22, 0x3B
   \   00000006                      REQUIRE ?Subroutine24
   \   00000006                      ;               // Fall through to label ?Subroutine24
    305          
    306          //-----------------------------------------------------------------------------------------------------
    307          // Прерывание по завершению приема UART
    308          #pragma vector = USART1_RX_vect

   \                                 In  segment CODE, align 2, keep-with-next
    309          __interrupt void SIG_UART1_RECV(void)
   \                     ??SIG_UART1_RECV:
    310          {
   \   00000000   ....               RCALL   ?Subroutine25
   \                     ??CrossCallReturnLabel_33:
   \   00000002   920A               ST      -Y, R0
   \   00000004   ....               RCALL   ?Subroutine10
    311              CPlatform::m_pxUart1 -> RecvInterruptHandler();
   \                     ??CrossCallReturnLabel_4:
   \   00000006   ....               RCALL   ??RecvInterruptHandler
    312          }
   \   00000008   ....               RCALL   ?Subroutine19
   \                     ??CrossCallReturnLabel_39:
   \   0000000A   9009               LD      R0, Y+
   \   0000000C   ....               RJMP    ?Subroutine40
    313          
    314          //-----------------------------------------------------------------------------------------------------
    315          
    316          
    317          
    318          //----------------------------------------- EEPROM ----------------------------------------------------------------

   \                                 In  segment NEAR_Z, align 1, keep-with-next, root
   \   00000000                      REQUIRE `?<Segment init: NEAR_Z>`
    319          uint8_t* CEeprom::m_puiBuffer;
   \                     ??m_puiBuffer:
   \   00000000                      DS8 2
    320          uint16_t CEeprom::m_uiAddress;
   \                     ??m_uiAddress:
   \   00000002                      DS8 2
    321          uint16_t CEeprom::m_nuiBufferByteCounter;
   \                     ??m_nuiBufferByteCounter:
   \   00000004                      DS8 2
    322          uint16_t CEeprom::m_uiLength;
   \                     ??m_uiLength:
   \   00000006                      DS8 2
    323          bool CEeprom::m_bBufferIsWrited;
   \                     ??m_bBufferIsWrited:
   \   00000008                      DS8 1
    324          
    325          //-----------------------------------------------------------------------------------------------------

   \                                 In  segment CODE, align 2, keep-with-next
    326          CEeprom::CEeprom()
   \                     ??CEeprom:
   \   00000000                      REQUIRE ?Subroutine1
   \   00000000                      ;               // Fall through to label ?Subroutine1

   \                                 In  segment CODE, align 2, keep-with-next
   \                     ?Subroutine1:
    327          {
   \   00000000   ....               LDI     R18, LOW(??__vtbl_1)
   \   00000002   ....               LDI     R19, (??__vtbl_1) >> 8
   \   00000004                      REQUIRE ??Subroutine45_0
   \   00000004                      ;               // Fall through to label ??Subroutine45_0

   \                                 In  segment CODE, align 2, keep-with-next
   \                     ??Subroutine45_0:
   \   00000000   01F8               MOVW    R31:R30, R17:R16
   \   00000002   8320               ST      Z, R18
   \   00000004   8331               STD     Z+1, R19
   \   00000006   9508               RET
    328          
    329          }
    330          
    331          //-----------------------------------------------------------------------------------------------------

   \                                 In  segment CODE, align 2, keep-with-next
    332          CEeprom::~CEeprom()
   \                     `?~CEeprom`:
   \   00000000   ....               RJMP    ?Subroutine8
    333          {
    334          
    335          }
    336          
    337          //-----------------------------------------------------------------------------------------------------

   \                                 In  segment CODE, align 2, keep-with-next
    338          uint8_t CEeprom::Read(uint8_t *puiDestination, uint16_t uiSource, uint16_t uiLength)
   \                     ??Read_1:
    339          {
   \   00000000   01F8               MOVW    R31:R30, R17:R16
   \   00000002   C007               RJMP    ??Read_9
    340              while (uiLength != 0)
    341              {
    342                  *puiDestination++ = ReadByte(uiSource++);
   \                     ??Read_10:
   \   00000004   0189               MOVW    R17:R16, R19:R18
   \   00000006   ....               RCALL   ??ReadByte
   \   00000008   5F2F               SUBI    R18, 255
   \   0000000A   4F3F               SBCI    R19, 255
   \   0000000C   9301               ST      Z+, R16
    343                  uiLength--;
   \   0000000E   5041               SUBI    R20, 1
   \   00000010   4050               SBCI    R21, 0
    344              }
   \                     ??Read_9:
   \   00000012   2F04               MOV     R16, R20
   \   00000014   2B05               OR      R16, R21
   \   00000016   F7B1               BRNE    ??Read_10
    345              return 1;
   \   00000018                      REQUIRE ?Subroutine34
   \   00000018                      ;               // Fall through to label ?Subroutine34
    346          }

   \                                 In  segment CODE, align 2, keep-with-next
   \                     ?Subroutine34:
   \   00000000   E001               LDI     R16, 1
   \   00000002   9508               RET
    347          
    348          //-----------------------------------------------------------------------------------------------------

   \                                 In  segment CODE, align 2, keep-with-next
    349          uint8_t CEeprom::Write(uint16_t uiDestination, uint8_t *puiSource, uint16_t uiLength)
   \                     ??Write_1:
    350          {
   \   00000000   ....               RCALL   ?Subroutine17
   \                     ??CrossCallReturnLabel_23:
   \   00000002   01C8               MOVW    R25:R24, R17:R16
   \   00000004   01D9               MOVW    R27:R26, R19:R18
   \   00000006   01FA               MOVW    R31:R30, R21:R20
   \   00000008   C005               RJMP    ??Write_2
    351              while (uiLength != 0)
    352              {
    353                  WriteByte((uiDestination++), (*puiSource++));
   \                     ??Write_3:
   \   0000000A   912D               LD      R18, X+
   \   0000000C   018C               MOVW    R17:R16, R25:R24
   \   0000000E   ....               RCALL   ??WriteByte
   \   00000010   9601               ADIW    R25:R24, 1
    354                  uiLength--;
   \   00000012   9731               SBIW    R31:R30, 1
    355              }
   \                     ??Write_2:
   \   00000014   2F0E               MOV     R16, R30
   \   00000016   2B0F               OR      R16, R31
   \   00000018   F7C1               BRNE    ??Write_3
    356              return 1;
   \   0000001A   E001               LDI     R16, 1
   \   0000001C   ....               RJMP    ?Subroutine38
    357          }
    358          
    359          //-----------------------------------------------------------------------------------------------------

   \                                 In  segment CODE, align 2, keep-with-next
    360          uint8_t CEeprom::ReadByte(uint16_t uiSource)
   \                     ??ReadByte:
   \                     ??ReadByte_1:
    361          {
    362              __watchdog_reset();
    363              while (BitIsSet(EECR, EEWE))
    364              {
    365                  __watchdog_reset();
   \   00000000   95A8               WDR
    366              }
   \   00000002   99E1               SBIC    0x1C, 0x01
   \   00000004   CFFD               RJMP    ??ReadByte_1
    367              __disable_interrupt();
   \   00000006   94F8               CLI
    368              EEAR = uiSource;
   \   00000008   BB1F               OUT     0x1F, R17
   \   0000000A   BB0E               OUT     0x1E, R16
    369              SetBit(EECR, EERE);
   \   0000000C   9AE0               SBI     0x1C, 0x00
    370              __enable_interrupt();
   \   0000000E   9478               SEI
    371              return EEDR;
   \   00000010   B30D               IN      R16, 0x1D
   \   00000012   9508               RET
   \   00000014                      REQUIRE _A_EECR
   \   00000014                      REQUIRE _A_EEAR
   \   00000014                      REQUIRE _A_EEDR
    372          }
    373          
    374          //-----------------------------------------------------------------------------------------------------

   \                                 In  segment CODE, align 2, keep-with-next
    375          void CEeprom::WriteByte(uint16_t uiDestination, uint8_t uiData)
   \                     ??WriteByte:
    376          {
   \   00000000   01A8               MOVW    R21:R20, R17:R16
    377              if (ReadByte(uiDestination) != uiData)
   \   00000002   ....               RCALL   ??ReadByte
   \   00000004   1702               CP      R16, R18
   \   00000006   F051               BREQ    ??WriteByte_1
    378              {
    379                  __watchdog_reset();
    380                  while (BitIsSet(EECR, EEWE))
    381                  {
    382                      __watchdog_reset();
   \                     ??WriteByte_2:
   \   00000008   95A8               WDR
    383                  }
   \   0000000A   99E1               SBIC    0x1C, 0x01
   \   0000000C   CFFD               RJMP    ??WriteByte_2
    384                  __disable_interrupt();
   \   0000000E   94F8               CLI
    385                  EEAR = uiDestination;
   \   00000010   BB5F               OUT     0x1F, R21
   \   00000012   BB4E               OUT     0x1E, R20
    386                  EEDR = uiData;
   \   00000014   BB2D               OUT     0x1D, R18
    387                  EECR |= (1<<EEMWE);
   \   00000016   9AE2               SBI     0x1C, 0x02
    388                  EECR |= (1<<EEWE);
   \   00000018   9AE1               SBI     0x1C, 0x01
    389                  __enable_interrupt();
   \   0000001A   9478               SEI
    390              }
    391          }
   \                     ??WriteByte_1:
   \   0000001C   9508               RET
   \   0000001E                      REQUIRE _A_EECR
   \   0000001E                      REQUIRE _A_EEAR
   \   0000001E                      REQUIRE _A_EEDR
    392          
    393          //-----------------------------------------------------------------------------------------------------

   \                                 In  segment CODE, align 2, keep-with-next
    394          void CEeprom::WriteInterrupt(uint16_t uiDestination, uint8_t *puiSource, uint16_t uiLength)
   \                     ??WriteInterrupt:
    395          {
    396              SetAddress(uiDestination);
   \   00000000   ....               LDI     R30, LOW(??m_puiBuffer)
   \   00000002   ....               LDI     R31, (??m_puiBuffer) >> 8
   \   00000004   8302               STD     Z+2, R16
   \   00000006   8313               STD     Z+3, R17
    397              SetBufferPointer(puiSource);
   \   00000008   8320               ST      Z, R18
   \   0000000A   8331               STD     Z+1, R19
    398              SetLength(uiLength);
   \   0000000C   8346               STD     Z+6, R20
   \   0000000E   8357               STD     Z+7, R21
    399              SetBufferByteCounter(0);
   \   00000010   E000               LDI     R16, 0
   \   00000012   8304               STD     Z+4, R16
   \   00000014   8305               STD     Z+5, R16
    400          }
   \   00000016   9508               RET
    401          
    402          //-----------------------------------------------------------------------------------------------------
    403          // Прерывание по завершению записи.

   \                                 In  segment CODE, align 2, keep-with-next
    404          void CEeprom::ReadyInterruptHandler(void)
   \                     ??ReadyInterruptHandler:
    405          {
   \   00000000   01AD               MOVW    R21:R20, R27:R26
    406              if (GetBufferByteCounter() < GetLength())
   \   00000002   ....               LDI     R30, LOW(??m_puiBuffer)
   \   00000004   ....               LDI     R31, (??m_puiBuffer) >> 8
   \   00000006   8124               LDD     R18, Z+4
   \   00000008   8135               LDD     R19, Z+5
   \   0000000A   8106               LDD     R16, Z+6
   \   0000000C   8117               LDD     R17, Z+7
   \   0000000E   1720               CP      R18, R16
   \   00000010   0731               CPC     R19, R17
   \   00000012   F4E8               BRCC    ??ReadyInterruptHandler_1
    407              {
    408                  EEAR = GetAddress();
   \   00000014   8102               LDD     R16, Z+2
   \   00000016   8113               LDD     R17, Z+3
   \   00000018   BB1F               OUT     0x1F, R17
   \   0000001A   BB0E               OUT     0x1E, R16
    409                  SetAddress(GetAddress() + 1);
   \   0000001C   8102               LDD     R16, Z+2
   \   0000001E   8113               LDD     R17, Z+3
   \   00000020   5F0F               SUBI    R16, 255
   \   00000022   4F1F               SBCI    R17, 255
   \   00000024   8302               STD     Z+2, R16
   \   00000026   8313               STD     Z+3, R17
    410                  EECR |= BIT(EERE);
   \   00000028   9AE0               SBI     0x1C, 0x00
    411          
    412                  if (EEDR != GetBufferPointer()[GetBufferByteCounter()])
   \   0000002A   81A0               LD      R26, Z
   \   0000002C   81B1               LDD     R27, Z+1
   \   0000002E   0FA2               ADD     R26, R18
   \   00000030   1FB3               ADC     R27, R19
   \   00000032   910C               LD      R16, X
   \   00000034   B31D               IN      R17, 0x1D
   \   00000036   1710               CP      R17, R16
   \   00000038   F019               BREQ    ??ReadyInterruptHandler_2
    413                  {
    414                      EEDR = GetBufferPointer()[GetBufferByteCounter()];
   \   0000003A   BB0D               OUT     0x1D, R16
    415                      EECR |= BIT(EEMWE);
   \   0000003C   9AE2               SBI     0x1C, 0x02
    416                      EECR |= BIT(EEWE);
   \   0000003E   9AE1               SBI     0x1C, 0x01
    417                  }
    418          
    419                  SetBufferByteCounter(GetBufferByteCounter() + 1);
   \                     ??ReadyInterruptHandler_2:
   \   00000040   8104               LDD     R16, Z+4
   \   00000042   8115               LDD     R17, Z+5
   \   00000044   5F0F               SUBI    R16, 255
   \   00000046   4F1F               SBCI    R17, 255
   \   00000048   8304               STD     Z+4, R16
   \   0000004A   8315               STD     Z+5, R17
    420              }
   \   0000004C   C006               RJMP    ??ReadyInterruptHandler_3
    421              else
    422              {
    423                  ReadyInterruptDisaable();
   \                     ??ReadyInterruptHandler_1:
   \   0000004E   98E3               CBI     0x1C, 0x03
    424                  EEAR   = 0x0000;			// Обнуляем для безопасности
   \   00000050   E000               LDI     R16, 0
   \   00000052   BB0F               OUT     0x1F, R16
   \   00000054   BB0E               OUT     0x1E, R16
    425                  SetBufferIsWrited(true);
   \   00000056   E001               LDI     R16, 1
   \   00000058   8700               STD     Z+8, R16
    426              }
    427          }
   \                     ??ReadyInterruptHandler_3:
   \   0000005A   ....               RJMP    ?Subroutine33
   \   0000005C                      REQUIRE _A_EEAR
   \   0000005C                      REQUIRE _A_EECR
   \   0000005C                      REQUIRE _A_EEDR
    428          
    429          //-----------------------------------------------------------------------------------------------------
    430          // Прерывание по завершению записи.
    431          #pragma vector = EE_READY_vect

   \                                 In  segment CODE, align 2, keep-with-next
    432          __interrupt void EEPROM_EE_READY(void)
   \                     ??EEPROM_EE_READY:
    433          {
   \   00000000   ....               RCALL   ?Subroutine11
    434              CEeprom::ReadyInterruptHandler();
   \                     ??CrossCallReturnLabel_7:
   \   00000002   ....               RCALL   ??ReadyInterruptHandler
    435          }
   \   00000004   ....               RJMP    ?Subroutine39
    436          
    437          //-----------------------------------------------------------------------------------------------------
    438          
    439          
    440          
    441          
    442          
    443          
    444          
    445          
    446          //-----------------------------------------------------------------------------------------------------
    447          // Основной блок БД прибора

   \                                 In  segment NEAR_F, align 1, keep-with-next, root
    448          TDataBase __flash CFlash::xMainDataBase =
    449          {
    450              {
    451                  2,1,48,false,false,false,0,0,{ 0,0,0,0,0,0,0,0,0,0,0,0,0 }
    452              },0x0A6F,
    453          
    454          //    {
    455          //        2,1,48,false,false,0,{ 0,0,0,0,0,0,0,0,0,0,0,0,0,0 }
    456          //    },0x0A6F,
    457          
    458              {
    459                  1,47,BIT(USBS1),0x73,BIT(CS02)|BIT(CS01),0x00,0x00
    460              },0x1B17,
    461          
    462              {
    463                  0x00,0x00,0x00,0x00,0x00,0x00,0x00,0x00,
    464                  0x00,0x00,0x00,0x00,0x00,0x00,0x00,0x00
    465              },0xF0BE,
    466          
    467              {
    468                  0, 1, 2, 3, 4, 5, 6, 7,
    469                  8, 9, 10, 11, 12, 13, 14, 15,
    470                  16, 17, 18, 19, 20, 21, 22, 23,
    471                  24, 25, 26, 27, 28, 29, 30, 31,
    472                  32, 33, 34, 35, 36, 37, 38, 39,
    473                  40, 41, 42, 43, 44, 45, 46, 47,
    474                  0xFF,0xFF,0xFF,0xFF,0xFF,0xFF,0xFF,0xFF,
    475                  0xFF,0xFF,0xFF,0xFF,0xFF,0xFF,0xFF,0xFF,
    476                  0xFF,0xFF,0xFF,0xFF,0xFF,0xFF,0xFF,0xFF,
    477                  0xFF,0xFF,0xFF,0xFF,0xFF,0xFF,0xFF,0xFF,
    478                  0xFF,0xFF,0xFF,0xFF,0xFF,0xFF,0xFF,0xFF,
    479                  0xFF,0xFF,0xFF,0xFF,0xFF,0xFF,0xFF,0xFF,
    480                  0xFF,0xFF,0xFF,0xFF,0xFF,0xFF,0xFF,0xFF,
    481                  0xFF,0xFF,0xFF,0xFF,0xFF,0xFF,0xFF,0xFF,
    482                  0xFF,0xFF,0xFF,0xFF,0xFF,0xFF,0xFF,0xFF,
    483                  0xFF,0xFF,0xFF,0xFF,0xFF,0xFF,0xFF,0xFF
    484              },0x5AF9,
    485          
    486              {
    487                  0x03,0x03,0x03,0x03,0x03,0x03,0x03,0x03,
    488                  0x03,0x03,0x03,0x03,0x03,0x03,0x03,0x03,
    489                  0x03,0x03,0x03,0x03,0x03,0x03,0x03,0x03,
    490                  0x02,0x02,0x02,0x02,0x02,0x02,0x02,0x02,
    491                  0x02,0x02,0x02,0x02,0x02,0x02,0x02,0x02,
    492                  0x02,0x02,0x02,0x02,0x02,0x02,0x02,0x02,
    493                  0x02,0x02,0x02,0x02,0x02,0x02,0x02,0x02,
    494                  0x02,0x02,0x02,0x02,0x02,0x02,0x02,0x02
    495              },0x4139,
    496          
    497              {
    498                  { 0x3E,0x3E,0x3E,0x3E,0x3C,0x3C,0x3C,0x3C },
    499                  { 0xFF,0xFF,0xFF,0xFF,0xFF,0xFF,0xFF,0xFF },
    500                  { 0xFF,0xFF,0xFF,0xFF,0xFF,0xFF,0xFF,0xFF }
    501              },0x6F4B,
    502          
    503              {
    504                  0x01,0x02,0x04,0x08,0x10,0x20,0x40,0x80,
    505                  0x00,0x00,0x00,0x00,0x00,0x00,0x00,0x00,
    506                  0x00,0x00,0x00,0x00,0x00,0x00,0x00,0x00,
    507                  0x00,0x00,0x00,0x00,0x00,0x00,0x00,0x00,
    508                  0x00,0x00,0x00,0x00,0x00,0x00,0x00,0x00,
    509                  0x00,0x00,0x00,0x00,0x00,0x00,0x00,0x00,
    510                  0x00,0x00,0x00,0x00,0x00,0x00,0x00,0x00,
    511                  0x00,0x00,0x00,0x00,0x00,0x00,0x00,0x00,
    512                  0x00,0x00,0x00,0x00,0x00,0x00,0x00,0x00,
    513                  0x00,0x00,0x00,0x00,0x00,0x00,0x00,0x00,
    514                  0x00,0x00,0x00,0x00,0x00,0x00,0x00,0x00,
    515                  0x00,0x00,0x00,0x00,0x00,0x00,0x00,0x00,
    516                  0x00,0x00,0x00,0x00,0x00,0x00,0x00,0x00,
    517                  0x00,0x00,0x00,0x00,0x00,0x00,0x00,0x00,
    518                  0x00,0x00,0x00,0x00,0x00,0x00,0x00,0x00,
    519                  0x00,0x00,0x00,0x00,0x00,0x00,0x00,0x00,
    520              },0xE899,
    521          
    522              {
    523                  1,
    524                  {
    525                      {
    526                          1,0x02,0x0010,0x20
    527                      },
    528                      {
    529                          0,0,0,0
    530                      },
    531                      {
    532                          0,0,0,0
    533                      },
    534                      {
    535                          0,0,0,0
    536                      },
    537                      {
    538                          0,0,0,0
    539                      },
    540                      {
    541                          0,0,0,0
    542                      },
    543                      {
    544                          0,0,0,0
    545                      },
    546                      {
    547                          0,0,0,0
    548                      },
    549                      {
    550                          0,0,0,0
    551                      },
    552                      {
    553                          0,0,0,0
    554                      },
    555                      {
    556                          0,0,0,0
    557                      },
    558                      {
    559                          0,0,0,0
    560                      },
    561                      {
    562                          0,0,0,0
    563                      },
    564                      {
    565                          0,0,0,0
    566                      },
    567                      {
    568                          0,0,0,0
    569                      },
    570                      {
    571                          0,0,0,0
    572                      }
    573                  }
    574              },0xE223,
    575          
    576              {
    577                  1,
    578                  {
    579                      {
    580                          1,0x05,0x0000,0xFF
    581                      },
    582                      {
    583                          0,0,0,0
    584                      },
    585                      {
    586                          0,0,0,0
    587                      },
    588                      {
    589                          0,0,0,0
    590                      },
    591                      {
    592                          0,0,0,0
    593                      },
    594                      {
    595                          0,0,0,0
    596                      },
    597                      {
    598                          0,0,0,0
    599                      },
    600                      {
    601                          0,0,0,0
    602                      },
    603                      {
    604                          0,0,0,0
    605                      },
    606                      {
    607                          0,0,0,0
    608                      },
    609                      {
    610                          0,0,0,0
    611                      },
    612                      {
    613                          0,0,0,0
    614                      },
    615                      {
    616                          0,0,0,0
    617                      },
    618                      {
    619                          0,0,0,0
    620                      },
    621                      {
    622                          0,0,0,0
    623                      },
    624                      {
    625                          0,0,0,0
    626                      }
    627                  }
    628              },0x9C7B,
    629          
    630              {
    631                  1,
    632                  {
    633                      {
    634                          1,0x05,0x0001,0xFF
    635                      },
    636                      {
    637                          0,0,0,0
    638                      },
    639                      {
    640                          0,0,0,0
    641                      },
    642                      {
    643                          0,0,0,0
    644                      },
    645                      {
    646                          0,0,0,0
    647                      },
    648                      {
    649                          0,0,0,0
    650                      },
    651                      {
    652                          0,0,0,0
    653                      },
    654                      {
    655                          0,0,0,0
    656                      },
    657                      {
    658                          0,0,0,0
    659                      },
    660                      {
    661                          0,0,0,0
    662                      },
    663                      {
    664                          0,0,0,0
    665                      },
    666                      {
    667                          0,0,0,0
    668                      },
    669                      {
    670                          0,0,0,0
    671                      },
    672                      {
    673                          0,0,0,0
    674                      },
    675                      {
    676                          0,0,0,0
    677                      },
    678                      {
    679                          0,0,0,0
    680                      }
    681                  }
    682              },0x6CFB,
    683          
    684              false, {0,0,0,0,0,0,0},0x0B40,
    685          };
    686          
    687          //-----------------------------------------------------------------------------------------------------
    688          TDataBaseBlockPositionData __flash CFlash::axDataBaseBlocksPositionData[] =
   \                     ??axDataBaseBlocksPositionData:
   \   00000000   1400               DC8 0, 20
   \   00000002   0000               DC16 0
   \   00000004   0701               DC8 1, 7
   \   00000006   0016               DC16 22
   \   00000008   1002               DC8 2, 16
   \   0000000A   001F               DC16 31
   \   0000000C   8003               DC8 3, 128
   \   0000000E   0031               DC16 49
   \   00000010   4004               DC8 4, 64
   \   00000012   00B3               DC16 179
   \   00000014   1805               DC8 5, 24
   \   00000016   00F5               DC16 245
   \   00000018   8006               DC8 6, 128
   \   0000001A   010F               DC16 271
   \   0000001C   5107               DC8 7, 81
   \   0000001E   0191               DC16 401
   \   00000020   5108               DC8 8, 81
   \   00000022   01E4               DC16 484
   \   00000024   5109               DC8 9, 81
   \   00000026   0237               DC16 567
   \   00000028   080A               DC8 10, 8
   \   0000002A   028A               DC16 650
   \                     ??xMainDataBase:
   \   0000002C   010200300000       DC8 2, 1, 48, 0, 0, 0, 0, 0, 0, 0, 0, 0, 0, 0, 0, 0, 0, 0, 0, 0
   \              000000000000
   \              000000000000
   \              0000        
   \   00000040   0A6F               DC16 2671
   \   00000042   2F0173080006       DC8 1, 47, 8, 115, 6, 0, 0
   \              00          
   \   00000049   1B17               DC16 6935
   \   0000004B   000000000000       DC8 0, 0, 0, 0, 0, 0, 0, 0, 0, 0, 0, 0, 0, 0, 0, 0
   \              000000000000
   \              00000000    
   \   0000005B   F0BE               DC16 61630
   \   0000005D   010003020504       DC8 0, 1, 2, 3, 4, 5, 6, 7, 8, 9, 10, 11, 12, 13, 14, 15, 16, 17, 18
   \              070609080B0A
   \              0D0C0F0E1110
   \              12          
   \   00000070   141316151817       DC8 19, 20, 21, 22, 23, 24, 25, 26, 27, 28, 29, 30, 31, 32, 33, 34, 35
   \              1A191C1B1E1D
   \              201F222123  
   \   00000081   252427262928       DC8 36, 37, 38, 39, 40, 41, 42, 43, 44, 45, 46, 47, 255, 255, 255, 255
   \              2B2A2D2C2F2E
   \              FFFFFFFF    
   \   00000091   FFFFFFFFFFFF       DC8 255, 255, 255, 255, 255, 255, 255, 255, 255, 255, 255, 255, 255
   \              FFFFFFFFFFFF
   \              FF          
   \   0000009E   FFFFFFFFFFFF       DC8 255, 255, 255, 255, 255, 255, 255, 255, 255, 255, 255, 255, 255
   \              FFFFFFFFFFFF
   \              FF          
   \   000000AB   FFFFFFFFFFFF       DC8 255, 255, 255, 255, 255, 255, 255, 255, 255, 255, 255, 255, 255
   \              FFFFFFFFFFFF
   \              FF          
   \   000000B8   FFFFFFFFFFFF       DC8 255, 255, 255, 255, 255, 255, 255, 255, 255, 255, 255, 255, 255
   \              FFFFFFFFFFFF
   \              FF          
   \   000000C5   FFFFFFFFFFFF       DC8 255, 255, 255, 255, 255, 255, 255, 255, 255, 255, 255, 255, 255
   \              FFFFFFFFFFFF
   \              FF          
   \   000000D2   FFFFFFFFFFFF       DC8 255, 255, 255, 255, 255, 255, 255, 255, 255, 255, 255
   \              FFFFFFFFFF  
   \   000000DD   5AF9               DC16 23289
   \   000000DF   030303030303       DC8 3, 3, 3, 3, 3, 3, 3, 3, 3, 3, 3, 3, 3, 3, 3, 3, 3, 3, 3, 3, 3, 3, 3
   \              030303030303
   \              030303030303
   \              0303030303  
   \   000000F6   020302020202       DC8 3, 2, 2, 2, 2, 2, 2, 2, 2, 2, 2, 2, 2, 2, 2, 2, 2, 2, 2, 2, 2, 2, 2
   \              020202020202
   \              020202020202
   \              0202020202  
   \   0000010D   020202020202       DC8 2, 2, 2, 2, 2, 2, 2, 2, 2, 2, 2, 2, 2, 2, 2, 2, 2, 2
   \              020202020202
   \              020202020202
   \   0000011F   4139               DC16 16697
   \   00000121   3E3E3E3E3C3C       DC8 62, 62, 62, 62, 60, 60, 60, 60, 255, 255, 255, 255, 255, 255, 255
   \              3C3CFFFFFFFF
   \              FFFFFF      
   \   00000130   FFFFFFFFFFFF       DC8 255, 255, 255, 255, 255, 255, 255, 255, 255
   \              FFFFFF      
   \   00000139   6F4B               DC16 28491
   \   0000013B   020108042010       DC8 1, 2, 4, 8, 16, 32, 64, 128, 0, 0, 0, 0, 0, 0, 0, 0, 0, 0, 0, 0, 0
   \              804000000000
   \              000000000000
   \              000000      
   \   00000150   000000000000       DC8 0, 0, 0, 0, 0, 0, 0, 0, 0, 0, 0, 0, 0, 0, 0, 0, 0, 0, 0, 0, 0, 0, 0
   \              000000000000
   \              000000000000
   \              0000000000  
   \   00000167   000000000000       DC8 0, 0, 0, 0, 0, 0, 0, 0, 0, 0, 0, 0, 0, 0, 0, 0, 0, 0, 0, 0, 0, 0, 0
   \              000000000000
   \              000000000000
   \              0000000000  
   \   0000017E   000000000000       DC8 0, 0, 0, 0, 0, 0, 0, 0, 0, 0, 0, 0, 0, 0, 0, 0, 0, 0, 0, 0, 0, 0, 0
   \              000000000000
   \              000000000000
   \              0000000000  
   \   00000195   000000000000       DC8 0, 0, 0, 0, 0, 0, 0, 0, 0, 0, 0, 0, 0, 0, 0, 0, 0, 0, 0, 0, 0, 0, 0
   \              000000000000
   \              000000000000
   \              0000000000  
   \   000001AC   000000000000       DC8 0, 0, 0, 0, 0, 0, 0, 0, 0, 0, 0, 0, 0, 0, 0
   \              000000000000
   \              000000      
   \   000001BB   E899               DC16 59545
   \   000001BD   010102             DC8 1, 1, 2
   \   000001C0   0010               DC16 16
   \   000001C2   002000             DC8 32, 0, 0
   \   000001C5   0000               DC16 0
   \   000001C7   000000             DC8 0, 0, 0
   \   000001CA   0000               DC16 0
   \   000001CC   000000             DC8 0, 0, 0
   \   000001CF   0000               DC16 0
   \   000001D1   000000             DC8 0, 0, 0
   \   000001D4   0000               DC16 0
   \   000001D6   000000             DC8 0, 0, 0
   \   000001D9   0000               DC16 0
   \   000001DB   000000             DC8 0, 0, 0
   \   000001DE   0000               DC16 0
   \   000001E0   000000             DC8 0, 0, 0
   \   000001E3   0000               DC16 0
   \   000001E5   000000             DC8 0, 0, 0
   \   000001E8   0000               DC16 0
   \   000001EA   000000             DC8 0, 0, 0
   \   000001ED   0000               DC16 0
   \   000001EF   000000             DC8 0, 0, 0
   \   000001F2   0000               DC16 0
   \   000001F4   000000             DC8 0, 0, 0
   \   000001F7   0000               DC16 0
   \   000001F9   000000             DC8 0, 0, 0
   \   000001FC   0000               DC16 0
   \   000001FE   000000             DC8 0, 0, 0
   \   00000201   0000               DC16 0
   \   00000203   000000             DC8 0, 0, 0
   \   00000206   0000               DC16 0
   \   00000208   000000             DC8 0, 0, 0
   \   0000020B   0000               DC16 0
   \   0000020D   00                 DC8 0
   \   0000020E   E223               DC16 57891
   \   00000210   010105             DC8 1, 1, 5
   \   00000213   0000               DC16 0
   \   00000215   00FF00             DC8 255, 0, 0
   \   00000218   0000               DC16 0
   \   0000021A   000000             DC8 0, 0, 0
   \   0000021D   0000               DC16 0
   \   0000021F   000000             DC8 0, 0, 0
   \   00000222   0000               DC16 0
   \   00000224   000000             DC8 0, 0, 0
   \   00000227   0000               DC16 0
   \   00000229   000000             DC8 0, 0, 0
   \   0000022C   0000               DC16 0
   \   0000022E   000000             DC8 0, 0, 0
   \   00000231   0000               DC16 0
   \   00000233   000000             DC8 0, 0, 0
   \   00000236   0000               DC16 0
   \   00000238   000000             DC8 0, 0, 0
   \   0000023B   0000               DC16 0
   \   0000023D   000000             DC8 0, 0, 0
   \   00000240   0000               DC16 0
   \   00000242   000000             DC8 0, 0, 0
   \   00000245   0000               DC16 0
   \   00000247   000000             DC8 0, 0, 0
   \   0000024A   0000               DC16 0
   \   0000024C   000000             DC8 0, 0, 0
   \   0000024F   0000               DC16 0
   \   00000251   000000             DC8 0, 0, 0
   \   00000254   0000               DC16 0
   \   00000256   000000             DC8 0, 0, 0
   \   00000259   0000               DC16 0
   \   0000025B   000000             DC8 0, 0, 0
   \   0000025E   0000               DC16 0
   \   00000260   00                 DC8 0
   \   00000261   9C7B               DC16 40059
   \   00000263   010105             DC8 1, 1, 5
   \   00000266   0001               DC16 1
   \   00000268   00FF00             DC8 255, 0, 0
   \   0000026B   0000               DC16 0
   \   0000026D   000000             DC8 0, 0, 0
   \   00000270   0000               DC16 0
   \   00000272   000000             DC8 0, 0, 0
   \   00000275   0000               DC16 0
   \   00000277   000000             DC8 0, 0, 0
   \   0000027A   0000               DC16 0
   \   0000027C   000000             DC8 0, 0, 0
   \   0000027F   0000               DC16 0
   \   00000281   000000             DC8 0, 0, 0
   \   00000284   0000               DC16 0
   \   00000286   000000             DC8 0, 0, 0
   \   00000289   0000               DC16 0
   \   0000028B   000000             DC8 0, 0, 0
   \   0000028E   0000               DC16 0
   \   00000290   000000             DC8 0, 0, 0
   \   00000293   0000               DC16 0
   \   00000295   000000             DC8 0, 0, 0
   \   00000298   0000               DC16 0
   \   0000029A   000000             DC8 0, 0, 0
   \   0000029D   0000               DC16 0
   \   0000029F   000000             DC8 0, 0, 0
   \   000002A2   0000               DC16 0
   \   000002A4   000000             DC8 0, 0, 0
   \   000002A7   0000               DC16 0
   \   000002A9   000000             DC8 0, 0, 0
   \   000002AC   0000               DC16 0
   \   000002AE   000000             DC8 0, 0, 0
   \   000002B1   0000               DC16 0
   \   000002B3   00                 DC8 0
   \   000002B4   6CFB               DC16 27899
   \   000002B6   000000000000       DC8 0, 0, 0, 0, 0, 0, 0, 0
   \              0000        
   \   000002BE   0B40               DC16 2880
    689          {
    690              { 0, sizeof(xMainDataBase.DevConfig),	  offsetof(TDataBase,DevConfig)	 	},
    691              { 1, sizeof(xMainDataBase.MBSet),	  offsetof(TDataBase,MBSet)	 	},
    692              { 2, sizeof(xMainDataBase.ActivityLevel),	  offsetof(TDataBase,ActivityLevel)		},
    693              { 3, sizeof(xMainDataBase.AlarmWindowIndex),	  offsetof(TDataBase,AlarmWindowIndex)	 	},
    694              { 4, sizeof(xMainDataBase.AlarmType), offsetof(TDataBase,AlarmType) 	},
    695              { 5, sizeof(xMainDataBase.OutConfig),	  offsetof(TDataBase,OutConfig)  	},
    696              { 6, sizeof(xMainDataBase.Relay),	  offsetof(TDataBase,Relay)       	},
    697              { 7, sizeof(xMainDataBase.InputList),	  offsetof(TDataBase,InputList)  	},
    698              { 8, sizeof(xMainDataBase.ReceiptList), offsetof(TDataBase,ReceiptList)	},
    699              { 9, sizeof(xMainDataBase.UnsetList),	  offsetof(TDataBase,UnsetList)  	},
    700              { 10, sizeof(xMainDataBase.DeviceState),	  offsetof(TDataBase,DeviceState)  	}
    701          };
    702          
    703          //----------------------------------------- Flash ----------------------------------------------------------------
    704          //CFlash::CFlash()
    705          //{
    706          //
    707          //}
    708          //
    709          ////-----------------------------------------------------------------------------------------------------
    710          //CFlash::~CFlash()
    711          //{
    712          //
    713          //}
    714          
    715          //-----------------------------------------------------------------------------------------------------

   \                                 In  segment CODE, align 2, keep-with-next
    716          uint8_t CFlash::Read(uint8_t *puiDestination, uint8_t __farflash *uiSource, uint16_t uiLength)
   \                     ??Read_2:
    717          {
   \   00000000   2F79               MOV     R23, R25
   \   00000002   2E28               MOV     R2, R24
   \   00000004   2E02               MOV     R0, R18
    718              // Скопируем данные из флеш в буфер Ram.
    719              for (uint16_t i = 0; i < uiLength; i++)
   \   00000006   E080               LDI     R24, 0
   \   00000008   E090               LDI     R25, 0
   \   0000000A   C008               RJMP    ??Read_11
    720              {
    721                  puiDestination[i] = uiSource[i];
   \                     ??Read_12:
   \   0000000C   01FA               MOVW    R31:R30, R21:R20
   \   0000000E   ....               RCALL   ?Subroutine20
    722              }
   \                     ??CrossCallReturnLabel_24:
   \   00000010   BF6B               OUT     0x3B, R22
   \   00000012   9126               ELPM    R18, Z
   \   00000014   01F8               MOVW    R31:R30, R17:R16
   \   00000016   ....               RCALL   ?Subroutine20
   \                     ??CrossCallReturnLabel_25:
   \   00000018   8320               ST      Z, R18
   \   0000001A   9601               ADIW    R25:R24, 1
   \                     ??Read_11:
   \   0000001C   1580               CP      R24, R0
   \   0000001E   0793               CPC     R25, R19
   \   00000020   F3A8               BRCS    ??Read_12
    723              return 1;
   \   00000022   E001               LDI     R16, 1
   \   00000024   2D82               MOV     R24, R2
   \   00000026                      REQUIRE ?Subroutine35
   \   00000026                      ;               // Fall through to label ?Subroutine35
    724          }

   \                                 In  segment CODE, align 2, keep-with-next
   \                     ?Subroutine35:
   \   00000000   2F97               MOV     R25, R23
   \   00000002   9508               RET

   \                                 In  segment CODE, align 2, keep-with-next
   \                     ?Subroutine20:
   \   00000000   0FE8               ADD     R30, R24
   \   00000002   1FF9               ADC     R31, R25
   \   00000004   9508               RET
    725          
    726          //-----------------------------------------------------------------------------------------------------

   \                                 In  segment CODE, align 2, keep-with-next
    727          uint16_t CFlash::ReadBlock(uint8_t *puiDestination, uint8_t uiBlock)
   \                     ??ReadBlock:
    728          {
   \   00000000   ........           CALL    ?PROLOGUE6_L09
   \   00000004                      REQUIRE ?Register_R4_is_cg_reg
   \   00000004                      REQUIRE ?Register_R5_is_cg_reg
   \   00000004   01C8               MOVW    R25:R24, R17:R16
    729              // Прочитаем блок из флеш вместе с Crc.
    730              Read(puiDestination,
    731                   GetBlockPointer(uiBlock),
    732                   (GetBlockLength(uiBlock) + CRC_LENGTH));
   \   00000006   E004               LDI     R16, 4
   \   00000008   9F20               MUL     R18, R16
   \   0000000A   ....               LDI     R26, LOW(??axDataBaseBlocksPositionData)
   \   0000000C   ....               LDI     R27, (??axDataBaseBlocksPositionData) >> 8
   \   0000000E   0DA0               ADD     R26, R0
   \   00000010   1DB1               ADC     R27, R1
   \   00000012   ....               RCALL   ?Subroutine15
   \                     ??CrossCallReturnLabel_15:
   \   00000014   5F2E               SUBI    R18, 254
   \   00000016   4F3F               SBCI    R19, 255
   \   00000018   ....               LDI     R20, LOW((??axDataBaseBlocksPositionData + 44))
   \   0000001A   ....               LDI     R21, HIGH((??axDataBaseBlocksPositionData + 44))
   \   0000001C   E060               LDI     R22, 0
   \   0000001E   01FD               MOVW    R31:R30, R27:R26
   \   00000020   9632               ADIW    R31:R30, 2
   \   00000022   9105               LPM     R16, Z+
   \   00000024   9114               LPM     R17, Z
   \   00000026   0F40               ADD     R20, R16
   \   00000028   1F51               ADC     R21, R17
   \   0000002A   018C               MOVW    R17:R16, R25:R24
   \   0000002C   ....               RCALL   ??Read_2
    733          
    734              // Получим контрольную сумму блока во флеш.
    735              uint16_t uiCrc = static_cast<uint16_t>(puiDestination[GetBlockLength(uiBlock)]);
    736              uiCrc |= (static_cast<uint16_t>(puiDestination[GetBlockLength(uiBlock) + 1]) << 8);
   \   0000002E   ....               RCALL   ?Subroutine15
   \                     ??CrossCallReturnLabel_16:
   \   00000030   01FC               MOVW    R31:R30, R25:R24
   \   00000032   0FE2               ADD     R30, R18
   \   00000034   1FF3               ADC     R31, R19
   \   00000036   8040               LD      R4, Z
   \   00000038   8051               LDD     R5, Z+1
    737              // Вычислим контрольную сумму блока.
    738              // Блок не повреждён?
    739              if (uiCrc == usCrc16(puiDestination, GetBlockLength(uiBlock)))
   \   0000003A   018C               MOVW    R17:R16, R25:R24
   \   0000003C   ........           CALL    ??usCrc16
   \   00000040   1640               CP      R4, R16
   \   00000042   0651               CPC     R5, R17
   \   00000044   F421               BRNE    ??ReadBlock_1
    740              {
    741                  return GetBlockLength(uiBlock);
   \   00000046   01FD               MOVW    R31:R30, R27:R26
   \   00000048   9631               ADIW    R31:R30, 1
   \   0000004A   9104               LPM     R16, Z
   \   0000004C   C004               RJMP    ??ReadBlock_2
    742              }
    743              else
    744              {
    745                  CPss21::SetErrorCode(DB_ERROR);
   \                     ??ReadBlock_1:
   \   0000004E   E004               LDI     R16, 4
   \   00000050   9300....           STS     ??m_uiErrorCode, R16
    746                  // Нет данных.
    747                  return 0;
   \   00000054   E000               LDI     R16, 0
   \                     ??ReadBlock_2:
   \   00000056   E010               LDI     R17, 0
   \   00000058   E0E6               LDI     R30, 6
   \   0000005A   ........           JMP     ?EPILOGUE_B6_L09
    748              }
    749          }

   \                                 In  segment CODE, align 2, keep-with-next
   \                     ?Subroutine15:
   \   00000000   01FD               MOVW    R31:R30, R27:R26
   \   00000002   9631               ADIW    R31:R30, 1
   \   00000004   9124               LPM     R18, Z
   \   00000006   E030               LDI     R19, 0
   \   00000008   9508               RET
    750          
    751          //-----------------------------------------------------------------------------------------------------
    752          
    753          
    754          
    755          
    756          
    757          
    758          
    759          
    760          //----------------------------------------- CSpi ----------------------------------------------------------------

   \                                 In  segment CODE, align 2, keep-with-next
    761          CSpi::CSpi()
   \                     ??CSpi:
   \   00000000                      REQUIRE ?Subroutine36
   \   00000000                      ;               // Fall through to label ?Subroutine36

   \                                 In  segment CODE, align 2, keep-with-next
   \                     ?Subroutine36:
    762          {
   \   00000000   ....               LDI     R18, LOW(??__vtbl_6)
   \   00000002   ....               LDI     R19, (??__vtbl_6) >> 8
   \   00000004   ....               RJMP    ??Subroutine45_0
    763          
    764          }
    765          
    766          //-----------------------------------------------------------------------------------------------------

   \                                 In  segment CODE, align 2, keep-with-next
    767          CSpi::~CSpi()
   \                     `?~CSpi`:
   \   00000000                      REQUIRE ?Subroutine8
   \   00000000                      ;               // Fall through to label ?Subroutine8
    768          {
    769          
    770          }
    771          
    772          //-----------------------------------------------------------------------------------------------------

   \                                 In  segment CODE, align 2, keep-with-next
    773          void CSpi::Init(void)
   \                     ??Init_1:
    774          {
    775              // Master mode.
    776          //    SPCR = (BIT(MSTR) | BIT(SPR1));		// master,  115200.
    777              SPCR = (BIT(MSTR) | BIT(SPR1) | BIT(SPR0));		// master,  57600.
   \   00000000   E103               LDI     R16, 19
   \   00000002   B90D               OUT     0x0D, R16
    778          
    779              DDRB |= (Bit(MOSI) | Bit(SCK));
   \   00000004   B307               IN      R16, 0x17
   \   00000006   6006               ORI     R16, 0x06
   \   00000008   BB07               OUT     0x17, R16
    780              PORTB |= (Bit(MOSI) | Bit(SCK));
   \   0000000A   B308               IN      R16, 0x18
   \   0000000C   6006               ORI     R16, 0x06
   \   0000000E   BB08               OUT     0x18, R16
    781          };
   \   00000010   9508               RET
   \   00000012                      REQUIRE _A_SPCR
   \   00000012                      REQUIRE _A_DDRB
   \   00000012                      REQUIRE _A_PORTB
    782          
    783          //-----------------------------------------------------------------------------------------------------

   \                                 In  segment CODE, align 2, keep-with-next
    784          void CSpi::Enable(void)
   \                     ??Enable_1:
    785          {
    786              // разрешим SPI.
    787              SPCR  |= BIT(SPE);
   \   00000000   9A6E               SBI     0x0D, 0x06
    788          }
   \   00000002   9508               RET
   \   00000004                      REQUIRE _A_SPCR
    789          
    790          //-----------------------------------------------------------------------------------------------------

   \                                 In  segment CODE, align 2, keep-with-next
    791          void CSpi::Disable(void)
   \                     ??Disable_1:
    792          {
    793              SPCR &= ~BIT(SPE);
   \   00000000   986E               CBI     0x0D, 0x06
    794          }
   \   00000002   9508               RET
   \   00000004                      REQUIRE _A_SPCR
    795          
    796          //-----------------------------------------------------------------------------------------------------

   \                                 In  segment CODE, align 2, keep-with-next
    797          uint8_t CSpi::Exchange(uint8_t uiData)
   \                     ??Exchange:
    798          {
    799              SPDR = uiData;
   \   00000000   B90F               OUT     0x0F, R16
    800          
    801              uint8_t uiGuardCounter = 0;
   \   00000002   EC08               LDI     R16, 200
   \   00000004   C001               RJMP    ??Exchange_2
    802          
    803              while(!(SPSR & BIT(SPIF)))		// Ожидание конца передачи
    804              {
    805                  CPlatform::WatchdogReset();
    806          
    807                  if (uiGuardCounter < 200)
    808                  {
    809                      uiGuardCounter++;
   \                     ??Exchange_3:
   \   00000006   950A               DEC     R16
    810                  }
   \                     ??Exchange_2:
   \   00000008   9977               SBIC    0x0E, 0x07
   \   0000000A   C004               RJMP    ??Exchange_4
   \   0000000C   95A8               WDR
   \   0000000E   2300               TST     R16
   \   00000010   F7D1               BRNE    ??Exchange_3
    811                  else
    812                  {
    813                      return  SPDR;
   \   00000012   C004               RJMP    ??Exchange_5
    814                  }
    815              };
    816          
    817              delay_us(100);
   \                     ??Exchange_4:
   \   00000014   EE09               LDI     R16, 233
   \   00000016   950A               DEC     R16
   \   00000018   F7F1               BRNE    $-2
   \   0000001A   0000               NOP
    818          
    819              return  SPDR;
   \                     ??Exchange_5:
   \   0000001C   B10F               IN      R16, 0x0F
   \   0000001E   9508               RET
   \   00000020                      REQUIRE _A_SPDR
   \   00000020                      REQUIRE _A_SPSR
    820          }
    821          
    822          //-----------------------------------------------------------------------------------------------------

   \                                 In  segment CODE, align 2, keep-with-next
    823          uint8_t CSpi::Exchange(uint8_t *puiDestination, uint8_t *pucSource, uint16_t uiLength)
   \                     ??Exchange_1:
    824          {
   \   00000000   2F79               MOV     R23, R25
   \   00000002   2E08               MOV     R0, R24
   \   00000004   2F60               MOV     R22, R16
    825              if (uiLength > BUFFER_LENGTH)
   \   00000006   3441               CPI     R20, 65
   \   00000008   E000               LDI     R16, 0
   \   0000000A   0750               CPC     R21, R16
   \   0000000C   F480               BRCC    ??Exchange_6
    826              {
    827                  return 0;
    828              }
    829          
    830              for (uint16_t i = 0; i < uiLength; i++)
   \   0000000E   E080               LDI     R24, 0
   \   00000010   E090               LDI     R25, 0
   \   00000012   C009               RJMP    ??Exchange_7
    831              {
    832                  puiDestination[i] = Exchange(pucSource[i]);
   \                     ??Exchange_8:
   \   00000014   01F9               MOVW    R31:R30, R19:R18
   \   00000016   ....               RCALL   ?Subroutine20
    833              }
   \                     ??CrossCallReturnLabel_26:
   \   00000018   8100               LD      R16, Z
   \   0000001A   ....               RCALL   ??Exchange
   \   0000001C   2FE6               MOV     R30, R22
   \   0000001E   2FF1               MOV     R31, R17
   \   00000020   ....               RCALL   ?Subroutine20
   \                     ??CrossCallReturnLabel_27:
   \   00000022   8300               ST      Z, R16
   \   00000024   9601               ADIW    R25:R24, 1
   \                     ??Exchange_7:
   \   00000026   1784               CP      R24, R20
   \   00000028   0795               CPC     R25, R21
   \   0000002A   F3A0               BRCS    ??Exchange_8
    834              return 1;
   \   0000002C   E001               LDI     R16, 1
   \                     ??Exchange_6:
   \   0000002E   2D80               MOV     R24, R0
   \   00000030   ....               RJMP    ?Subroutine35
    835          }
    836          
    837          //-----------------------------------------------------------------------------------------------------

   \                                 In  segment CODE, align 2, keep-with-next
    838          uint8_t CSpi::Read(uint8_t *puiDestination, uint16_t uiLength)
   \                     ??Read_3:
    839          {
    840          
    841              return 1;
   \   00000000   ....               RJMP    ?Subroutine34
    842          }
    843          //-----------------------------------------------------------------------------------------------------
    844          
    845          
    846          
    847          
    848          
    849          
    850          
    851          //-----------------------------------------------------------------------------------------------------
    852          // delay

   \                                 In  segment CODE, align 2, keep-with-next
    853          void delay_ms(uint16_t millisecs)
   \                     ??delay_ms:
    854          {
   \   00000000   C007               RJMP    ??delay_ms_1
    855              while(millisecs--)
    856              {
    857                  delay_us(1000);
   \                     ??delay_ms_2:
   \   00000002   ED25               LDI     R18, 213
   \   00000004   E036               LDI     R19, 6
   \   00000006   5021               SUBI    R18, 1
   \   00000008   4030               SBCI    R19, 0
   \   0000000A   F7E9               BRNE    $-4
   \   0000000C   C000               RJMP    $+2
   \   0000000E   0000               NOP
    858              }
   \                     ??delay_ms_1:
   \   00000010   ....               RCALL   ?Subroutine13
   \                     ??CrossCallReturnLabel_12:
   \   00000012   F7B9               BRNE    ??delay_ms_2
    859          }
   \   00000014   9508               RET

   \                                 In  segment CODE, align 2, keep-with-next
   \                     ?Subroutine13:
   \   00000000   0198               MOVW    R19:R18, R17:R16
   \   00000002   5001               SUBI    R16, 1
   \   00000004   4010               SBCI    R17, 0
   \   00000006   2B23               OR      R18, R19
   \   00000008   9508               RET

   \                                 In  segment CODE, align 2, keep-with-next
    860          void delay_s(uint16_t secs)
   \                     ??delay_s:
    861          {
   \   00000000   C009               RJMP    ??delay_s_1
    862              while(secs--)
    863              {
    864                  __delay_cycles(F_CPU);
   \                     ??delay_s_2:
   \   00000002   EF4F               LDI     R20, 255
   \   00000004   E75F               LDI     R21, 127
   \   00000006   E166               LDI     R22, 22
   \   00000008   5041               SUBI    R20, 1
   \   0000000A   4050               SBCI    R21, 0
   \   0000000C   4060               SBCI    R22, 0
   \   0000000E   F7E1               BRNE    $-6
   \   00000010   C000               RJMP    $+2
   \   00000012   0000               NOP
    865              }
   \                     ??delay_s_1:
   \   00000014   ....               RCALL   ?Subroutine13
   \                     ??CrossCallReturnLabel_13:
   \   00000016   F7A9               BRNE    ??delay_s_2
    866          }
   \   00000018   9508               RET

   \                                 In  segment CODE, align 2, keep-with-next
    867          void delay_mins(uint16_t minutes)
   \                     ??delay_mins:
    868          {
   \   00000000   C00B               RJMP    ??delay_mins_1
    869              while(minutes--)
    870              {
    871                  __delay_cycles(60*F_CPU);
   \                     ??delay_mins_2:
   \   00000002   EF4F               LDI     R20, 255
   \   00000004   EF5F               LDI     R21, 255
   \   00000006   E664               LDI     R22, 100
   \   00000008   E074               LDI     R23, 4
   \   0000000A   5041               SUBI    R20, 1
   \   0000000C   4050               SBCI    R21, 0
   \   0000000E   4060               SBCI    R22, 0
   \   00000010   4070               SBCI    R23, 0
   \   00000012   F7D9               BRNE    $-8
   \   00000014   C000               RJMP    $+2
   \   00000016   0000               NOP
    872              }
   \                     ??delay_mins_1:
   \   00000018   ....               RCALL   ?Subroutine13
   \                     ??CrossCallReturnLabel_14:
   \   0000001A   F799               BRNE    ??delay_mins_2
    873          }
   \   0000001C   9508               RET
    874          
    875          //-----------------------------------------------------------------------------------------------------

   \                                 In  segment NEAR_Z, align 1, keep-with-next, root
   \   00000000                      REQUIRE `?<Segment init: NEAR_Z>`
    876          uint16_t CPlatform::m_uiSystemTick;
   \                     ??m_uiSystemTick:
   \   00000000                      DS8 2

   \                                 In  segment NEAR_Z, align 1, keep-with-next, root
   \   00000000                      REQUIRE `?<Segment init: NEAR_Z>`
    877          uint8_t CPlatform::m_uiWatchDogStepID;
   \                     ??m_uiWatchDogStepID:
   \   00000000                      DS8 1
    878          //CUart* CPlatform::m_pxUart0;

   \                                 In  segment NEAR_Z, align 1, keep-with-next, root
   \   00000000                      REQUIRE `?<Segment init: NEAR_Z>`
    879          CUart* CPlatform::m_pxUart1;
   \                     ??m_pxUart1:
   \   00000000                      DS8 2
    880          
    881          //-----------------------------------------------------------------------------------------------------

   \                                 In  segment CODE, align 2, keep-with-next
    882          CPlatform::CPlatform()
   \                     ??CPlatform:
   \   00000000                      REQUIRE ?Subroutine37
   \   00000000                      ;               // Fall through to label ?Subroutine37

   \                                 In  segment CODE, align 2, keep-with-next
   \                     ?Subroutine37:
    883          {
   \   00000000   ....               LDI     R18, LOW(??__vtbl_2)
   \   00000002   ....               LDI     R19, (??__vtbl_2) >> 8
   \   00000004   ....               RJMP    ??Subroutine45_0
    884          
    885          }
    886          
    887          //-----------------------------------------------------------------------------------------------------

   \                                 In  segment CODE, align 2, keep-with-next
    888          CPlatform::~CPlatform()
   \                     `?~CPlatform`:
   \   00000000   ....               RJMP    ?Subroutine8
    889          {
    890          
    891          }
    892          
    893          //-----------------------------------------------------------------------------------------------------

   \                                 In  segment CODE, align 2, keep-with-next
    894          void CPlatform::Init(void)
   \                     ??Init_2:
    895          {
    896              SystemTickInit();
   \   00000000   ....               RCALL   ??SystemTickInit
    897              StatusLedSetPinOutput();
   \   00000002   91000061           LDS     R16, 97
   \   00000006   6800               ORI     R16, 0x80
   \   00000008   93000061           STS     97, R16
    898              TxLedSetPinOutput();
   \   0000000C   91000061           LDS     R16, 97
   \   00000010   6400               ORI     R16, 0x40
   \   00000012   93000061           STS     97, R16
    899              TxLedOff();
   \   00000016   91000062           LDS     R16, 98
   \   0000001A   6400               ORI     R16, 0x40
   \   0000001C   93000062           STS     98, R16
    900              KeyOneSetPinInput();
   \   00000020   98A2               CBI     0x14, 0x02
    901              KeyTwoSetPinInput();
   \   00000022   98A1               CBI     0x14, 0x01
    902              KeyThreeSetPinInput();
   \   00000024   98A0               CBI     0x14, 0x00
    903              ExternalKeySetPinInput();
   \   00000026   91000064           LDS     R16, 100
   \   0000002A   7F0E               ANDI    R16, 0xFE
   \   0000002C   93000064           STS     100, R16
    904              CPlatform::InterruptEnable();
   \   00000030   9478               SEI
    905          }
   \   00000032   9508               RET
   \   00000034                      REQUIRE _A_DDRF
   \   00000034                      REQUIRE _A_PORTF
   \   00000034                      REQUIRE _A_DDRC
   \   00000034                      REQUIRE _A_DDRG
    906          
    907          // Сирена
    908          ////-----------------------------------------------------------------------------------------------------
    909          //void CPlatform::BuzzerTimerFrequencySet(uint16_t uiFrequency)
    910          //{
    911          //    unsigned short usCompareMatch;
    912          //
    913          //    // half-period time.
    914          //    usCompareMatch = ((F_CPU / (2UL * uiFrequency)) - 1UL);
    915          //    // Срабатывает по Top совпадению значения в ICR3.
    916          //    // Если Top по совпадению значения в OCR3A, то нельзя использовать COM3A вывод.
    917          //    ICR3 = usCompareMatch * 2;
    918          //    OCR3A = usCompareMatch;
    919          //    OCR3B = usCompareMatch;
    920          //
    921          //    // Fast PWM Mode Top OCRn, prescaller - 1,
    922          //    // Clear OC3B on compare match (set output to low level).
    923          //    // Set OC3A on compare match (set output to high level).
    924          //    TCCR3A = (1 << COM3B1) | (1 << COM3A1) | (1 << COM3A0) | (1 << WGM31);
    925          //    TCCR3B = (1 << WGM33) | (1 << WGM32) | (1 << CS30);
    926          //};
    927          //
    928          ////-----------------------------------------------------------------------------------------------------
    929          //void CPlatform::BuzzerTimerStop(void)
    930          //{
    931          //    // timer off.
    932          //    TCCR3A &= ~((1 << COM3B1) | (1 << COM3A1) | (1 << COM3A0) | (1 << WGM31));
    933          //    TCCR3B &= ~((1 << WGM33) | (1 << WGM32) | (1 << CS30));
    934          //};
    935          
    936          // color variant

   \                                 In  segment CODE, align 2, keep-with-next
    937          void CPlatform::BuzzerTimerFrequencySet(uint16_t uiFrequency)
   \                     ??BuzzerTimerFrequencySet:
    938          {
    939              unsigned short usCompareMatch;
    940          
    941              // half-period time.
    942              usCompareMatch = ((F_CPU / (2UL * uiFrequency)) - 1UL);
   \   00000000   01A8               MOVW    R21:R20, R17:R16
   \   00000002   E060               LDI     R22, 0
   \   00000004   E070               LDI     R23, 0
   \   00000006   0F44               LSL     R20
   \   00000008   1F55               ROL     R21
   \   0000000A   1F66               ROL     R22
   \   0000000C   ....               RCALL   ?Subroutine3
    943          
    944              OCR3A = usCompareMatch * 2;
   \                     ??CrossCallReturnLabel_3:
   \   0000000E   0198               MOVW    R19:R18, R17:R16
   \   00000010   0F22               LSL     R18
   \   00000012   1F33               ROL     R19
   \   00000014   9330....           STS     (_A_OCR3A + 1), R19
   \   00000018   9320....           STS     _A_OCR3A, R18
    945              OCR3B = usCompareMatch;
   \   0000001C   9310....           STS     (_A_OCR3B + 1), R17
   \   00000020   9300....           STS     _A_OCR3B, R16
    946              OCR3C = usCompareMatch;
   \   00000024   9310....           STS     (_A_OCR3C + 1), R17
   \   00000028   9300....           STS     _A_OCR3C, R16
    947          
    948              // Fast PWM Mode, prescaller - 1,
    949              // Clear OC3B on compare match (set output to low level).
    950              // Set OC3C on compare match (set output to high level).
    951              TCCR3A = (1 << COM3B1) | (1 << COM3C1) | (1 << COM3C0) | (1 << WGM31) | (1 << WGM30);
   \   0000002C   E20F               LDI     R16, 47
   \   0000002E   9300....           STS     _A_TCCR3A, R16
    952              TCCR3B = (1 << WGM33) | (1 << WGM32) | (1 << CS30);
   \   00000032   E109               LDI     R16, 25
   \   00000034                      REQUIRE ?Subroutine29
   \   00000034                      REQUIRE _A_OCR3A
   \   00000034                      REQUIRE _A_OCR3B
   \   00000034                      REQUIRE _A_OCR3C
   \   00000034                      REQUIRE _A_TCCR3A
   \   00000034                      REQUIRE _A_TCCR3B
   \   00000034                      ;               // Fall through to label ?Subroutine29
    953          }

   \                                 In  segment CODE, align 2, keep-with-next
   \                     ?Subroutine29:
   \   00000000   9300....           STS     _A_TCCR3B, R16
   \   00000004   9508               RET
    954          

   \                                 In  segment CODE, align 2, keep-with-next
    955          void CPlatform::BuzzerTimerStop(void)
   \                     ??BuzzerTimerStop:
    956          {
    957              // timer off.
    958              TCCR3A &= ~((1 << COM3B1) | (1 << COM3C1) | (1 << COM3C0) | (1 << WGM31) | (1 << WGM30));
   \   00000000   9100....           LDS     R16, _A_TCCR3A
   \   00000004   7D00               ANDI    R16, 0xD0
   \   00000006   9300....           STS     _A_TCCR3A, R16
    959              TCCR3B &= ~((1 << WGM33) | (1 << WGM32) | (1 << CS30));
   \   0000000A   9100....           LDS     R16, _A_TCCR3B
   \   0000000E   7E06               ANDI    R16, 0xE6
   \   00000010   ....               RJMP    ?Subroutine29
   \   00000012                      REQUIRE _A_TCCR3A
   \   00000012                      REQUIRE _A_TCCR3B
    960          }
    961          
    962          //-----------------------------------------------------------------------------------------------------

   \                                 In  segment CODE, align 2, keep-with-next
    963          void CPlatform::SystemTickInit(void)
   \                     ??SystemTickInit:
    964          {
    965          #define MAIN_TIMER_TICK_RATE_HZ 1000
    966          
    967          //#define TIMER1_INTERRUPT
    968          #define TIMER2_INTERRUPT
    969          
    970          
    971          #ifdef TIMER2_INTERRUPT
    972              /* Hardware constants for timer 2. */
    973          #define portCLEAR_COUNTER_ON_MATCH              ( ( unsigned char ) _BV(WGM21) )
    974          #define portPRESCALE_64                         ( ( unsigned char ) (_BV(CS21) | _BV(CS20)) )
    975          #define portCLOCK_PRESCALER                     ( ( unsigned long ) 64 )
    976          #define portCOMPARE_MATCH_A_INTERRUPT_ENABLE    ( ( unsigned char ) _BV(OCIE2) )
    977          #endif //TIMER2_INTERRUPT
    978          
    979          #ifdef TIMER1_INTERRUPT
    980              /* Hardware constants for timer 1. */
    981          #define portCLEAR_COUNTER_ON_MATCH              ( ( unsigned char ) _BV(WGM12) )
    982          #define portPRESCALE_64                         ( ( unsigned char ) (_BV(CS11) | _BV(CS10)) )
    983          #define portCLOCK_PRESCALER                     ( ( unsigned long ) 64 )
    984          #define portCOMPARE_MATCH_A_INTERRUPT_ENABLE    ( ( unsigned char ) _BV(OCIE1A) )
    985          #endif //TIMER1_INTERRUPT
    986          
    987          #ifdef TIMER2_INTERRUPT
    988          
    989              /*
    990               * Setup timer 2 compare match A to generate a tick interrupt.
    991               */
    992          //  TMR2 mega128a
    993              unsigned long ulCompareMatch;
    994              unsigned char ucLowByte;
    995          
    996              /* Using 16bit timer 1 to generate the tick.  Correct fuses must be
    997              selected for the configCPU_CLOCK_HZ clock. */
    998          
    999          //ulCompareMatch  = (configCPU_CLOCK_HZ / prescaller) / period
   1000          
   1001              ulCompareMatch = F_CPU / MAIN_TIMER_TICK_RATE_HZ;
   1002          
   1003              /* We only have 16 bits so have to scale to get our required tick rate. */
   1004              ulCompareMatch /= portCLOCK_PRESCALER;
   1005          
   1006              /* Adjust for correct value. */
   1007              ulCompareMatch -= ( unsigned long ) 1;
   1008          
   1009              /* Setup compare match value for compare match A.  Interrupts are disabled
   1010              before this is called so we need not worry here. */
   1011              OCR2 = ulCompareMatch;
   \   00000000   E702               LDI     R16, 114
   \   00000002   BD03               OUT     0x23, R16
   1012          
   1013              /* Setup clock Source and compare match behaviour. */
   1014              ucLowByte = portCLEAR_COUNTER_ON_MATCH | portPRESCALE_64;
   1015              TCCR2 = ucLowByte;
   \   00000004   E00B               LDI     R16, 11
   \   00000006   BD05               OUT     0x25, R16
   1016          
   1017              /* Enable the interrupt - this is okay as interrupt are currently globally
   1018              disabled. */
   1019              ucLowByte = TIMSK;
   1020              ucLowByte |= portCOMPARE_MATCH_A_INTERRUPT_ENABLE;
   1021              TIMSK = ucLowByte;
   \   00000008   B707               IN      R16, 0x37
   \   0000000A   6800               ORI     R16, 0x80
   \   0000000C   BF07               OUT     0x37, R16
   1022          
   1023          #endif //TIMER2_INTERRUPT
   1024          
   1025          #ifdef TIMER1_INTERRUPT
   1026          
   1027          // mega128a
   1028              unsigned long ulCompareMatch;
   1029              unsigned char ucLowByte;
   1030          
   1031              /* Using 16bit timer 1 to generate the tick.  Correct fuses must be
   1032              selected for the configCPU_CLOCK_HZ clock. */
   1033          
   1034              ulCompareMatch = CPlatform::F_CPU / MAIN_TIMER_TICK_RATE_HZ;
   1035          
   1036              /* We only have 16 bits so have to scale to get our required tick rate. */
   1037              ulCompareMatch /= portCLOCK_PRESCALER;
   1038          
   1039              /* Adjust for correct value. */
   1040              ulCompareMatch -= ( unsigned long ) 1;
   1041          
   1042              /* Setup compare match value for compare match A.  Interrupts are disabled
   1043              before this is called so we need not worry here. */
   1044              OCR1A = ulCompareMatch;
   1045          
   1046              /* Setup clock Source and compare match behaviour. */
   1047              TCCR1A &= ~(_BV(WGM11) | _BV(WGM10));
   1048              ucLowByte = portCLEAR_COUNTER_ON_MATCH | portPRESCALE_64;
   1049              TCCR1B = ucLowByte;
   1050          
   1051              /* Enable the interrupt - this is okay as interrupt are currently globally
   1052              disabled. */
   1053              ucLowByte = TIMSK;
   1054              ucLowByte |= portCOMPARE_MATCH_A_INTERRUPT_ENABLE;
   1055              TIMSK = ucLowByte;
   1056          
   1057          #endif //TIMER1_INTERRUPT
   1058          
   1059          }
   \   0000000E   9508               RET
   \   00000010                      REQUIRE _A_OCR2
   \   00000010                      REQUIRE _A_TCCR2
   \   00000010                      REQUIRE _A_TIMSK
   1060          
   1061          //-----------------------------------------------------------------------------------------------------
   1062          #ifdef TIMER1_INTERRUPT
   1063          // Прерывание TIMER1_COMPA_vect
   1064          __interrupt void SystemTickInterrupt(void)
   1065          {
   1066              CPlatform::IncrementSystemTick();
   1067          }
   1068          #endif //TIMER1_INTERRUPT
   1069          //-----------------------------------------------------------------------------------------------------
   1070          #ifdef TIMER2_INTERRUPT
   1071          // Прерывание TIMER2_COMP_vect
   1072          #pragma vector = TIMER2_COMP_vect	// Прерывание по совпадению TMR2 с OCR2

   \                                 In  segment CODE, align 2, keep-with-next
   1073          __interrupt void SystemTickInterrupt(void)
   \                     ??SystemTickInterrupt:
   1074          {
   \   00000000   ....               RCALL   ?Subroutine25
   \                     ??CrossCallReturnLabel_34:
   \   00000002   ....               RCALL   ??Subroutine44_0
   \                     ??CrossCallReturnLabel_57:
   \   00000004   B72F               IN      R18, 0x3F
   1075              CPlatform::IncrementSystemTick();
   \   00000006   ....               LDI     R30, LOW(??m_uiSystemTick)
   \   00000008   ....               LDI     R31, (??m_uiSystemTick) >> 8
   \   0000000A   8100               LD      R16, Z
   \   0000000C   8111               LDD     R17, Z+1
   \   0000000E   5F0F               SUBI    R16, 255
   \   00000010   4F1F               SBCI    R17, 255
   \   00000012   8300               ST      Z, R16
   \   00000014   8311               STD     Z+1, R17
   1076          }
   \   00000016   BF2F               OUT     0x3F, R18
   \   00000018   9109               LD      R16, Y+
   \   0000001A   9119               LD      R17, Y+
   \   0000001C   9129               LD      R18, Y+
   \   0000001E   ....               RJMP    ?Subroutine40

   \                                 In  segment INTVEC, offset 0x24, root
   \                     `??SystemTickInterrupt::??INTVEC 36`:
   \   00000024   ........           JMP     ??SystemTickInterrupt

   \                                 In  segment INTVEC, offset 0x58, root
   \                     `??EEPROM_EE_READY::??INTVEC 88`:
   \   00000058   ........           JMP     ??EEPROM_EE_READY

   \                                 In  segment INTVEC, offset 0x78, root
   \                     `??SIG_UART1_RECV::??INTVEC 120`:
   \   00000078   ........           JMP     ??SIG_UART1_RECV

   \                                 In  segment INTVEC, offset 0x7c, root
   \                     `??SIG_UART1_DATA::??INTVEC 124`:
   \   0000007C   ........           JMP     ??SIG_UART1_DATA

   \                                 In  segment INTVEC, offset 0x80, root
   \                     `??SIG_UART1_TXC::??INTVEC 128`:
   \   00000080   ........           JMP     ??SIG_UART1_TXC

   \                                 In  segment CODE, align 2, keep-with-next
   \   __version_3 CUart &CUart::new CUart()
   \                     `??new CUart`:
   \   00000000   E20F               LDI     R16, 47
   \   00000002   ....               RCALL   ??Subroutine42_0
   \                     ??CrossCallReturnLabel_50:
   \   00000004   F009               BREQ    `??new CUart_2`
   \   00000006   ....               RJMP    ??CUart
   \                     `??new CUart_2`:
   \   00000008   ....               RJMP    ?Subroutine5

   \                                 In  segment CODE, align 2, keep-with-next
   \   __version_3 CUart &CUart::new CUart(uint8_t volatile *, uint8_t volatile *, uint8_t volatile *, uint8_t volatile *, uint8_t volatile *, uint8_t volatile *, uint8_t volatile *, uint8_t, uint8_t volatile *, uint8_t)
   \                     `??new CUart_1`:
   \   00000000   ........           CALL    ?PROLOGUE8_L09
   \   00000004                      REQUIRE ?Register_R4_is_cg_reg
   \   00000004                      REQUIRE ?Register_R5_is_cg_reg
   \   00000004                      REQUIRE ?Register_R6_is_cg_reg
   \   00000004                      REQUIRE ?Register_R7_is_cg_reg
   \   00000004   01D8               MOVW    R27:R26, R17:R16
   \   00000006   0139               MOVW    R7:R6, R19:R18
   \   00000008   012A               MOVW    R5:R4, R21:R20
   \   0000000A   01CB               MOVW    R25:R24, R23:R22
   \   0000000C   E20F               LDI     R16, 47
   \   0000000E   ....               RCALL   ??Subroutine42_0
   \                     ??CrossCallReturnLabel_51:
   \   00000010   F059               BREQ    `??new CUart_3`
   \   00000012   ....               RCALL   ?Subroutine9
   \                     ??CrossCallReturnLabel_45:
   \   00000014   ....               RCALL   ?Subroutine9
   \                     ??CrossCallReturnLabel_46:
   \   00000016   ....               RCALL   ??Subroutine41_0
   \                     ??CrossCallReturnLabel_43:
   \   00000018   ....               RCALL   ??Subroutine41_0
   \                     ??CrossCallReturnLabel_44:
   \   0000001A   939A               ST      -Y, R25
   \   0000001C   938A               ST      -Y, R24
   \   0000001E   01B2               MOVW    R23:R22, R5:R4
   \   00000020   01A3               MOVW    R21:R20, R7:R6
   \   00000022   019D               MOVW    R19:R18, R27:R26
   \   00000024   ....               RCALL   ??CUart_1
   \   00000026   C001               RJMP    ??CrossCallReturnLabel_36
   \                     `??new CUart_3`:
   \   00000028   ....               RCALL   ?Subroutine5
   \                     ??CrossCallReturnLabel_36:
   \   0000002A   E1E2               LDI     R30, 18
   \   0000002C   ........           JMP     ?EPILOGUE_B8_L09

   \                                 In  segment CODE, align 2, keep-with-next
   \                     ?Subroutine9:
   \   00000000   8929               LDD     R18, Y+17
   \   00000002   932A               ST      -Y, R18
   \   00000004                      REQUIRE ??Subroutine41_0
   \   00000004                      ;               // Fall through to label ??Subroutine41_0

   \                                 In  segment CODE, align 2, keep-with-next
   \                     ??Subroutine41_0:
   \   00000000   8928               LDD     R18, Y+16
   \   00000002   8939               LDD     R19, Y+17
   \   00000004   933A               ST      -Y, R19
   \   00000006   932A               ST      -Y, R18
   \   00000008   9508               RET

   \                                 In  segment CODE, align 2, keep-with-next
   \   __version_3 CEeprom &CEeprom::new CEeprom()
   \                     `??new CEeprom`:
   \   00000000   ....               RCALL   ?Subroutine0
   \                     ??CrossCallReturnLabel_47:
   \   00000002   F009               BREQ    `??new CEeprom_1`
   \   00000004   ....               RJMP    ?Subroutine1
   \                     `??new CEeprom_1`:
   \   00000006   ....               RJMP    ?Subroutine5

   \                                 In  segment CODE, align 2, keep-with-next
   \                     ?Subroutine0:
   \   00000000   E002               LDI     R16, 2
   \   00000002                      REQUIRE ??Subroutine42_0
   \   00000002                      ;               // Fall through to label ??Subroutine42_0

   \                                 In  segment CODE, align 2, keep-with-next
   \                     ??Subroutine42_0:
   \   00000000   E010               LDI     R17, 0
   \   00000002   ........           CALL    `??operator new`
   \   00000006   2F20               MOV     R18, R16
   \   00000008   2B21               OR      R18, R17
   \   0000000A   9508               RET

   \                                 In  segment CODE, align 2, keep-with-next
   \   __version_3 CSpi &CSpi::new CSpi()
   \                     `??new CSpi`:
   \   00000000   ....               RCALL   ?Subroutine0
   \                     ??CrossCallReturnLabel_48:
   \   00000002   F009               BREQ    `??new CSpi_1`
   \   00000004   ....               RJMP    ?Subroutine36
   \                     `??new CSpi_1`:
   \   00000006                      REQUIRE ?Subroutine5
   \   00000006                      ;               // Fall through to label ?Subroutine5

   \                                 In  segment CODE, align 2, keep-with-next
   \   __version_3 CPlatform &CPlatform::new CPlatform()
   \                     `??new CPlatform`:
   \   00000000   ....               RCALL   ?Subroutine0
   \                     ??CrossCallReturnLabel_49:
   \   00000002   F009               BREQ    `??new CPlatform_1`
   \   00000004   ....               RJMP    ?Subroutine37
   \                     `??new CPlatform_1`:
   \   00000006   ....               RJMP    ?Subroutine5
   1077          #endif //TIMER2_INTERRUPT
   1078          
   1079          
   1080          

   Maximum stack usage in bytes:

   CSTACK RSTACK Function
   ------ ------ --------
      0      0   CEeprom::CEeprom()
      0      2   CEeprom::Read(uint8_t *, uint16_t, uint16_t)
        0      2   -> CEeprom::ReadByte(uint16_t)
      0      2   CEeprom::ReadByte(uint16_t)
      0      2   CEeprom::ReadyInterruptHandler()
      4      2   CEeprom::Write(uint16_t, uint8_t *, uint16_t)
        4      2   -> CEeprom::WriteByte(uint16_t, uint8_t)
      0      2   CEeprom::WriteByte(uint16_t, uint8_t)
        0      2   -> CEeprom::ReadByte(uint16_t)
      0      2   CEeprom::WriteInterrupt(uint16_t, uint8_t *, uint16_t)
      0      2   CEeprom::new CEeprom()
        0      4   -> operator new(unsigned int)
      0      2   CEeprom::~CEeprom()
        0      2   -> operator delete(void *)
      0      2   CFlash::Read(uint8_t *, uint8_t __farflash *, uint16_t)
      6      2   CFlash::ReadBlock(uint8_t *, uint8_t)
        6      2   -> CFlash::Read(uint8_t *, uint8_t __farflash *, uint16_t)
        6      2   -> usCrc16(unsigned char const *, uint16_t)
      0      2   CPlatform::BuzzerTimerFrequencySet(uint16_t)
        0      4 ?UL_DIVMOD_L03
      0      2   CPlatform::BuzzerTimerStop()
      0      0   CPlatform::CPlatform()
      0      2   CPlatform::Init()
        0      2   -> CPlatform::SystemTickInit()
      0      2   CPlatform::SystemTickInit()
      0      2   CPlatform::new CPlatform()
        0      4   -> operator new(unsigned int)
      0      2   CPlatform::~CPlatform()
        0      2   -> operator delete(void *)
      0      0   CSpi::CSpi()
      0      2   CSpi::Disable()
      0      2   CSpi::Enable()
      0      2   CSpi::Exchange(uint8_t *, uint8_t *, uint16_t)
        0      2   -> CSpi::Exchange(uint8_t)
      0      2   CSpi::Exchange(uint8_t)
      0      2   CSpi::Init()
      0      2   CSpi::Read(uint8_t *, uint16_t)
      0      2   CSpi::new CSpi()
        0      4   -> operator new(unsigned int)
      0      0   CSpi::~CSpi()
        0      2   -> operator delete(void *)
      0      2   CUart::CUart()
     12      2   CUart::CUart(uint8_t volatile *, uint8_t volatile *, uint8_t volatile *, uint8_t volatile *, uint8_t volatile *, uint8_t volatile *, uint8_t volatile *, uint8_t, uint8_t volatile *, uint8_t)
       12      2 ?S_SHL_L02
       12      4 ?S_SHL_L02
      0      2   CUart::Close()
      0      2   CUart::Disable()
      0      2   CUart::Enable()
      7      2   CUart::Init(uint32_t, uint8_t, uint8_t, uint8_t, uint8_t *, uint8_t *)
        7      2 ?L_SHL_L03
        7      4 ?UL_DIVMOD_L03
      0      2   CUart::Open()
      4      2   CUart::Read(uint8_t *, uint16_t)
      4      2   CUart::RecvInterruptHandler()
      0      2   CUart::Reset()
      0      2   CUart::Rs485RtsOff()
        0      4 ?S_SHL_L02
      0      2   CUart::Rs485RtsOn()
        0      2 ?S_SHL_L02
      0      2   CUart::TransmitDisable()
        0      2   -> CUart::Rs485RtsOff()
      0      2   CUart::TransmitEnable()
        0      2   -> CUart::Rs485RtsOn()
      0      2   CUart::TxcInterruptHandler()
      0      2   CUart::UdreInterruptHandler()
      0      2   CUart::Write(uint8_t *, uint16_t)
      0      2   CUart::new CUart()
        0      2   -> CUart::CUart()
        0      4   -> operator new(unsigned int)
     30      2   CUart::new CUart(uint8_t volatile *, uint8_t volatile *, uint8_t volatile *, uint8_t volatile *, uint8_t volatile *, uint8_t volatile *, uint8_t volatile *, uint8_t, uint8_t volatile *, uint8_t)
       18      2   -> CUart::CUart(uint8_t volatile *, uint8_t volatile *, uint8_t volatile *, uint8_t volatile *, uint8_t volatile *, uint8_t volatile *, uint8_t volatile *, uint8_t, uint8_t volatile *, uint8_t)
       18      4   -> operator new(unsigned int)
      0      2   CUart::~CUart()
        0      2   -> operator delete(void *)
     10      2   EEPROM_EE_READY()
       10      2   -> CEeprom::ReadyInterruptHandler()
     10      2   SIG_UART1_DATA()
       10      2   -> CUart::UdreInterruptHandler()
     10      2   SIG_UART1_RECV()
       10      2   -> CUart::RecvInterruptHandler()
      9      2   SIG_UART1_TXC()
        9      2   -> CUart::TxcInterruptHandler()
      5      2   SystemTickInterrupt()
      0      2   delay_mins(uint16_t)
      0      2   delay_ms(uint16_t)
      0      2   delay_s(uint16_t)


   Segment part sizes:

   Bytes  Function/Label
   -----  --------------
      10  ??Subroutine41_0
      12  ??Subroutine42_0
       6  ??Subroutine43_0
       8  ??Subroutine44_0
       8  ??Subroutine45_0
       2  ?Subroutine0
       4  ?Subroutine1
       6  ?Subroutine10
      12  ?Subroutine11
      10  ?Subroutine12
      10  ?Subroutine13
       2  ?Subroutine14
      10  ?Subroutine15
       6  ?Subroutine16
       4  ?Subroutine17
       8  ?Subroutine18
       4  ?Subroutine19
      18  ?Subroutine2
       6  ?Subroutine20
       8  ?Subroutine21
       8  ?Subroutine22
      16  ?Subroutine23
      10  ?Subroutine24
       6  ?Subroutine25
       6  ?Subroutine26
       6  ?Subroutine27
       6  ?Subroutine28
       6  ?Subroutine29
      18  ?Subroutine3
       4  ?Subroutine30
       4  ?Subroutine31
       4  ?Subroutine32
       4  ?Subroutine33
       4  ?Subroutine34
       4  ?Subroutine35
       6  ?Subroutine36
       6  ?Subroutine37
       6  ?Subroutine38
       4  ?Subroutine39
       4  ?Subroutine4
       4  ?Subroutine40
       2  ?Subroutine5
      12  ?Subroutine6
      16  ?Subroutine8
       4  ?Subroutine9
       0  CEeprom::CEeprom()
      24  CEeprom::Read(uint8_t *, uint16_t, uint16_t)
      20  CEeprom::ReadByte(uint16_t)
      92  CEeprom::ReadyInterruptHandler()
      30  CEeprom::Write(uint16_t, uint8_t *, uint16_t)
      30  CEeprom::WriteByte(uint16_t, uint8_t)
      24  CEeprom::WriteInterrupt(uint16_t, uint8_t *, uint16_t)
       9  CEeprom::m_puiBuffer
          CEeprom::m_uiAddress
          CEeprom::m_nuiBufferByteCounter
          CEeprom::m_uiLength
          CEeprom::m_bBufferIsWrited
       8  CEeprom::new CEeprom()
       2  CEeprom::~CEeprom()
      38  CFlash::Read(uint8_t *, uint8_t __farflash *, uint16_t)
      94  CFlash::ReadBlock(uint8_t *, uint8_t)
     704  CFlash::axDataBaseBlocksPositionData
          CFlash::xMainDataBase
      52  CPlatform::BuzzerTimerFrequencySet(uint16_t)
      18  CPlatform::BuzzerTimerStop()
       0  CPlatform::CPlatform()
      52  CPlatform::Init()
      16  CPlatform::SystemTickInit()
       2  CPlatform::m_pxUart1
       2  CPlatform::m_uiSystemTick
       1  CPlatform::m_uiWatchDogStepID
       8  CPlatform::new CPlatform()
       2  CPlatform::~CPlatform()
       0  CSpi::CSpi()
       4  CSpi::Disable()
       4  CSpi::Enable()
      50  CSpi::Exchange(uint8_t *, uint8_t *, uint16_t)
      32  CSpi::Exchange(uint8_t)
      18  CSpi::Init()
       2  CSpi::Read(uint8_t *, uint16_t)
       6  CSpi::new CSpi()
       0  CSpi::~CSpi()
      12  CUart::CUart()
     106  CUart::CUart(uint8_t volatile *, uint8_t volatile *, uint8_t volatile *, uint8_t volatile *, uint8_t volatile *, uint8_t volatile *, uint8_t volatile *, uint8_t, uint8_t volatile *, uint8_t)
      16  CUart::Close()
      12  CUart::Disable()
      10  CUart::Enable()
      66  CUart::Init(uint32_t, uint8_t, uint8_t, uint8_t, uint8_t *, uint8_t *)
      10  CUart::Open()
      84  CUart::Read(uint8_t *, uint16_t)
      52  CUart::RecvInterruptHandler()
      16  CUart::Reset()
       8  CUart::Rs485RtsOff()
      20  CUart::Rs485RtsOn()
      22  CUart::TransmitDisable()
      44  CUart::TransmitEnable()
      12  CUart::TxcInterruptHandler()
      64  CUart::UdreInterruptHandler()
      14  CUart::Write(uint8_t *, uint16_t)
      10  CUart::new CUart()
      48  CUart::new CUart(uint8_t volatile *, uint8_t volatile *, uint8_t volatile *, uint8_t volatile *, uint8_t volatile *, uint8_t volatile *, uint8_t volatile *, uint8_t, uint8_t volatile *, uint8_t)
       2  CUart::~CUart()
       6  EEPROM_EE_READY()
       4  EEPROM_EE_READY()::??INTVEC 88
       6  SIG_UART1_DATA()
       4  SIG_UART1_DATA()::??INTVEC 124
      14  SIG_UART1_RECV()
       4  SIG_UART1_RECV()::??INTVEC 120
       8  SIG_UART1_TXC()
       4  SIG_UART1_TXC()::??INTVEC 128
      32  SystemTickInterrupt()
       4  SystemTickInterrupt()::??INTVEC 36
       1  _A_ACSR
       2  _A_ADC
       1  _A_ADCSRA
       1  _A_ADMUX
       1  _A_ASSR
       1  _A_DDRA
       1  _A_DDRB
       1  _A_DDRC
       1  _A_DDRD
       1  _A_DDRE
       1  _A_DDRF
       1  _A_DDRG
       2  _A_EEAR
       1  _A_EECR
       1  _A_EEDR
       1  _A_EICRA
       1  _A_EICRB
       1  _A_EIFR
       1  _A_EIMSK
       1  _A_ETIFR
       1  _A_ETIMSK
       2  _A_ICR1
       2  _A_ICR3
       1  _A_MCUCR
       1  _A_MCUCSR
       1  _A_OCDR
       1  _A_OCR0
       2  _A_OCR1A
       2  _A_OCR1B
       2  _A_OCR1C
       1  _A_OCR2
       2  _A_OCR3A
       2  _A_OCR3B
       2  _A_OCR3C
       1  _A_OSCCAL
       1  _A_PINA
       1  _A_PINB
       1  _A_PINC
       1  _A_PIND
       1  _A_PINE
       1  _A_PINF
       1  _A_PING
       1  _A_PORTA
       1  _A_PORTB
       1  _A_PORTC
       1  _A_PORTD
       1  _A_PORTE
       1  _A_PORTF
       1  _A_PORTG
       1  _A_RAMPZ
       1  _A_SFIOR
       2  _A_SP
       1  _A_SPCR
       1  _A_SPDR
       1  _A_SPMCSR
       1  _A_SPSR
       1  _A_SREG
       1  _A_TCCR0
       1  _A_TCCR1A
       1  _A_TCCR1B
       1  _A_TCCR1C
       1  _A_TCCR2
       1  _A_TCCR3A
       1  _A_TCCR3B
       1  _A_TCCR3C
       1  _A_TCNT0
       2  _A_TCNT1
       1  _A_TCNT2
       2  _A_TCNT3
       1  _A_TIFR
       1  _A_TIMSK
       1  _A_TWAR
       1  _A_TWBR
       1  _A_TWCR
       1  _A_TWDR
       1  _A_TWSR
       1  _A_UBRR0H
       1  _A_UBRR0L
       1  _A_UBRR1H
       1  _A_UBRR1L
       1  _A_UCSR0A
       1  _A_UCSR0B
       1  _A_UCSR0C
       1  _A_UCSR1A
       1  _A_UCSR1B
       1  _A_UCSR1C
       1  _A_UDR0
       1  _A_UDR1
       1  _A_WDTCR
       1  _A_XDIV
       1  _A_XMCRA
       1  _A_XMCRB
      30  delay_mins(uint16_t)
      22  delay_ms(uint16_t)
      26  delay_s(uint16_t)
      37  -- Other

 
   105 bytes in segment ABSOLUTE
 1 722 bytes in segment CODE
     7 bytes in segment INITTAB
    20 bytes in segment INTVEC
   734 bytes in segment NEAR_F
    14 bytes in segment NEAR_Z
 
 2 448 bytes of CODE memory (+  35 bytes shared)
    14 bytes of DATA memory (+ 105 bytes shared)

Errors: none
Warnings: 8
