###############################################################################
#
# IAR C/C++ Compiler V7.10.6.1378 for Atmel AVR           10/Sep/2024  15:26:26
# Copyright 1996-2018 IAR Systems AB.
#
#    Source file  =  
#        D:\Projects\CurrentProjects\CautoProjects\PSS48Color\src\Pss21.cpp
#    Command line =  
#        -f C:\Users\Admin\AppData\Local\Temp\EWC4DD.tmp
#        (--string_literals_in_flash
#        D:\Projects\CurrentProjects\CautoProjects\PSS48Color\src\Pss21.cpp
#        --cpu=m128a -ms -o
#        D:\Projects\CurrentProjects\CautoProjects\PSS48Color\Debug\Obj -lC
#        D:\Projects\CurrentProjects\CautoProjects\PSS48Color\Debug\List -lB
#        D:\Projects\CurrentProjects\CautoProjects\PSS48Color\Debug\List -y
#        --initializers_in_flash --root_variables --no_cse --no_inline
#        --no_code_motion --no_cross_call --no_clustering --no_tbaa --debug
#        -DENABLE_BIT_DEFINITIONS -e -I
#        D:\Projects\CurrentProjects\CautoProjects\PSS48Color\Modbus\ -I
#        D:\Projects\CurrentProjects\CautoProjects\PSS48Color\include\
#        --eeprom_size 4096 --dlib --dlib_config "C:\Program Files (x86)\IAR
#        Systems\Embedded Workbench 8.0\avr\LIB\DLIB\dlAVR-3s-ec_mul-n.h" -On
#        --eec++)
#    Locale       =  Russian_RUS.1251
#    List file    =  
#        D:\Projects\CurrentProjects\CautoProjects\PSS48Color\Debug\List\Pss21.lst
#    Object file  =  
#        D:\Projects\CurrentProjects\CautoProjects\PSS48Color\Debug\Obj\Pss21.r90
#
###############################################################################

D:\Projects\CurrentProjects\CautoProjects\PSS48Color\src\Pss21.cpp
      1          //-----------------------------------------------------------------------------------------------------
      2          //  Source      : FileName.cpp
      3          //  Created     : 01.06.2022
      4          //  Author      : Alexandr Volvenkin
      5          //  email       : aav-36@mail.ru
      6          //  GitHub      : https://github.com/AlexandrVolvenkin
      7          //-----------------------------------------------------------------------------------------------------
      8          #include "Pss21.h"

   \                                 In  segment CODE, align 2, keep-with-next
   \   __version_3 void CDriver::SetReceipt(uint8_t)
   \                     ??SetReceipt:
   \   00000000   01F8               MOVW    R31:R30, R17:R16
   \   00000002   8321               STD     Z+1, R18
   \   00000004   9508               RET

   \                                 In  segment CODE, align 2, keep-with-next
   \   __version_3 void CDriver::SetReset(uint8_t)
   \                     ??SetReset:
   \   00000000   01F8               MOVW    R31:R30, R17:R16
   \   00000002   8322               STD     Z+2, R18
   \   00000004   9508               RET

   \                                 In  segment CODE, align 2, keep-with-next
   \   __version_3 void CDriver::SetModbusReceipt(uint8_t)
   \                     ??SetModbusReceipt:
   \   00000000   01F8               MOVW    R31:R30, R17:R16
   \   00000002   8323               STD     Z+3, R18
   \   00000004   9508               RET

   \                                 In  segment CODE, align 2, keep-with-next
   \   __version_3 void CDriver::SetModbusReset(uint8_t)
   \                     ??SetModbusReset:
   \   00000000   01F8               MOVW    R31:R30, R17:R16
   \   00000002   8324               STD     Z+4, R18
   \   00000004   9508               RET

   \                                 In  segment CODE, align 2, keep-with-next
   \   __version_3 void CDfaLite::SetFsmState(uint8_t)
   \                     ??SetFsmState:
   \   00000000   01F8               MOVW    R31:R30, R17:R16
   \   00000002   8320               ST      Z, R18
   \   00000004   9508               RET

   \                                 In  segment CODE, align 2, keep-with-next
   \   __version_3 uint8_t CDfaLite::GetFsmState()
   \                     ??GetFsmState:
   \   00000000   01F8               MOVW    R31:R30, R17:R16
   \   00000002   8100               LD      R16, Z
   \   00000004   9508               RET

   \                                 In  segment CODE, align 2, keep-with-next
   \   __version_3 void CDfa::SetFsmEvent(uint8_t)
   \                     ??SetFsmEvent:
   \   00000000   01F8               MOVW    R31:R30, R17:R16
   \   00000002   8324               STD     Z+4, R18
   \   00000004   9508               RET

   \                                 In  segment ABSOLUTE, at 0x9d, root
   \   union <unnamed> volatile __io _A_UCSR1C
   \                     _A_UCSR1C:
   \   00000000                      DS8 1

   \                                 In  segment ABSOLUTE, at 0x9c, root
   \   union <unnamed> volatile __io _A_UDR1
   \                     _A_UDR1:
   \   00000000                      DS8 1

   \                                 In  segment ABSOLUTE, at 0x9b, root
   \   union <unnamed> volatile __io _A_UCSR1A
   \                     _A_UCSR1A:
   \   00000000                      DS8 1

   \                                 In  segment ABSOLUTE, at 0x9a, root
   \   union <unnamed> volatile __io _A_UCSR1B
   \                     _A_UCSR1B:
   \   00000000                      DS8 1

   \                                 In  segment ABSOLUTE, at 0x99, root
   \   union <unnamed> volatile __io _A_UBRR1L
   \                     _A_UBRR1L:
   \   00000000                      DS8 1

   \                                 In  segment ABSOLUTE, at 0x98, root
   \   union <unnamed> volatile __io _A_UBRR1H
   \                     _A_UBRR1H:
   \   00000000                      DS8 1

   \                                 In  segment ABSOLUTE, at 0x95, root
   \   union <unnamed> volatile __io _A_UCSR0C
   \                     _A_UCSR0C:
   \   00000000                      DS8 1

   \                                 In  segment ABSOLUTE, at 0x90, root
   \   union <unnamed> volatile __io _A_UBRR0H
   \                     _A_UBRR0H:
   \   00000000                      DS8 1

   \                                 In  segment ABSOLUTE, at 0x8c, root
   \   union <unnamed> volatile __io _A_TCCR3C
   \                     _A_TCCR3C:
   \   00000000                      DS8 1

   \                                 In  segment ABSOLUTE, at 0x8b, root
   \   union <unnamed> volatile __io _A_TCCR3A
   \                     _A_TCCR3A:
   \   00000000                      DS8 1

   \                                 In  segment ABSOLUTE, at 0x8a, root
   \   union <unnamed> volatile __io _A_TCCR3B
   \                     _A_TCCR3B:
   \   00000000                      DS8 1

   \                                 In  segment ABSOLUTE, at 0x88, root
   \   union <unnamed> volatile __io _A_TCNT3
   \                     _A_TCNT3:
   \   00000000                      DS8 2

   \                                 In  segment ABSOLUTE, at 0x86, root
   \   union <unnamed> volatile __io _A_OCR3A
   \                     _A_OCR3A:
   \   00000000                      DS8 2

   \                                 In  segment ABSOLUTE, at 0x84, root
   \   union <unnamed> volatile __io _A_OCR3B
   \                     _A_OCR3B:
   \   00000000                      DS8 2

   \                                 In  segment ABSOLUTE, at 0x82, root
   \   union <unnamed> volatile __io _A_OCR3C
   \                     _A_OCR3C:
   \   00000000                      DS8 2

   \                                 In  segment ABSOLUTE, at 0x80, root
   \   union <unnamed> volatile __io _A_ICR3
   \                     _A_ICR3:
   \   00000000                      DS8 2

   \                                 In  segment ABSOLUTE, at 0x7d, root
   \   union <unnamed> volatile __io _A_ETIMSK
   \                     _A_ETIMSK:
   \   00000000                      DS8 1

   \                                 In  segment ABSOLUTE, at 0x7c, root
   \   union <unnamed> volatile __io _A_ETIFR
   \                     _A_ETIFR:
   \   00000000                      DS8 1

   \                                 In  segment ABSOLUTE, at 0x7a, root
   \   union <unnamed> volatile __io _A_TCCR1C
   \                     _A_TCCR1C:
   \   00000000                      DS8 1

   \                                 In  segment ABSOLUTE, at 0x78, root
   \   union <unnamed> volatile __io _A_OCR1C
   \                     _A_OCR1C:
   \   00000000                      DS8 2

   \                                 In  segment ABSOLUTE, at 0x74, root
   \   union <unnamed> volatile __io _A_TWCR
   \                     _A_TWCR:
   \   00000000                      DS8 1

   \                                 In  segment ABSOLUTE, at 0x73, root
   \   union <unnamed> volatile __io _A_TWDR
   \                     _A_TWDR:
   \   00000000                      DS8 1

   \                                 In  segment ABSOLUTE, at 0x72, root
   \   union <unnamed> volatile __io _A_TWAR
   \                     _A_TWAR:
   \   00000000                      DS8 1

   \                                 In  segment ABSOLUTE, at 0x71, root
   \   union <unnamed> volatile __io _A_TWSR
   \                     _A_TWSR:
   \   00000000                      DS8 1

   \                                 In  segment ABSOLUTE, at 0x70, root
   \   union <unnamed> volatile __io _A_TWBR
   \                     _A_TWBR:
   \   00000000                      DS8 1

   \                                 In  segment ABSOLUTE, at 0x6f, root
   \   union <unnamed> volatile __io _A_OSCCAL
   \                     _A_OSCCAL:
   \   00000000                      DS8 1

   \                                 In  segment ABSOLUTE, at 0x6d, root
   \   union <unnamed> volatile __io _A_XMCRA
   \                     _A_XMCRA:
   \   00000000                      DS8 1

   \                                 In  segment ABSOLUTE, at 0x6c, root
   \   union <unnamed> volatile __io _A_XMCRB
   \                     _A_XMCRB:
   \   00000000                      DS8 1

   \                                 In  segment ABSOLUTE, at 0x6a, root
   \   union <unnamed> volatile __io _A_EICRA
   \                     _A_EICRA:
   \   00000000                      DS8 1

   \                                 In  segment ABSOLUTE, at 0x68, root
   \   union <unnamed> volatile __io _A_SPMCSR
   \                     _A_SPMCSR:
   \   00000000                      DS8 1

   \                                 In  segment ABSOLUTE, at 0x65, root
   \   union <unnamed> volatile __io _A_PORTG
   \                     _A_PORTG:
   \   00000000                      DS8 1

   \                                 In  segment ABSOLUTE, at 0x64, root
   \   union <unnamed> volatile __io _A_DDRG
   \                     _A_DDRG:
   \   00000000                      DS8 1

   \                                 In  segment ABSOLUTE, at 0x63, root
   \   union <unnamed> volatile __io _A_PING
   \                     _A_PING:
   \   00000000                      DS8 1

   \                                 In  segment ABSOLUTE, at 0x62, root
   \   union <unnamed> volatile __io _A_PORTF
   \                     _A_PORTF:
   \   00000000                      DS8 1

   \                                 In  segment ABSOLUTE, at 0x61, root
   \   union <unnamed> volatile __io _A_DDRF
   \                     _A_DDRF:
   \   00000000                      DS8 1

   \                                 In  segment ABSOLUTE, at 0x5f, root
   \   union <unnamed> volatile __io _A_SREG
   \                     _A_SREG:
   \   00000000                      DS8 1

   \                                 In  segment ABSOLUTE, at 0x5d, root
   \   union <unnamed> volatile __io _A_SP
   \                     _A_SP:
   \   00000000                      DS8 2

   \                                 In  segment ABSOLUTE, at 0x5c, root
   \   union <unnamed> volatile __io _A_XDIV
   \                     _A_XDIV:
   \   00000000                      DS8 1

   \                                 In  segment ABSOLUTE, at 0x5b, root
   \   union <unnamed> volatile __io _A_RAMPZ
   \                     _A_RAMPZ:
   \   00000000                      DS8 1

   \                                 In  segment ABSOLUTE, at 0x5a, root
   \   union <unnamed> volatile __io _A_EICRB
   \                     _A_EICRB:
   \   00000000                      DS8 1

   \                                 In  segment ABSOLUTE, at 0x59, root
   \   union <unnamed> volatile __io _A_EIMSK
   \                     _A_EIMSK:
   \   00000000                      DS8 1

   \                                 In  segment ABSOLUTE, at 0x58, root
   \   union <unnamed> volatile __io _A_EIFR
   \                     _A_EIFR:
   \   00000000                      DS8 1

   \                                 In  segment ABSOLUTE, at 0x57, root
   \   union <unnamed> volatile __io _A_TIMSK
   \                     _A_TIMSK:
   \   00000000                      DS8 1

   \                                 In  segment ABSOLUTE, at 0x56, root
   \   union <unnamed> volatile __io _A_TIFR
   \                     _A_TIFR:
   \   00000000                      DS8 1

   \                                 In  segment ABSOLUTE, at 0x55, root
   \   union <unnamed> volatile __io _A_MCUCR
   \                     _A_MCUCR:
   \   00000000                      DS8 1

   \                                 In  segment ABSOLUTE, at 0x54, root
   \   union <unnamed> volatile __io _A_MCUCSR
   \                     _A_MCUCSR:
   \   00000000                      DS8 1

   \                                 In  segment ABSOLUTE, at 0x53, root
   \   union <unnamed> volatile __io _A_TCCR0
   \                     _A_TCCR0:
   \   00000000                      DS8 1

   \                                 In  segment ABSOLUTE, at 0x52, root
   \   union <unnamed> volatile __io _A_TCNT0
   \                     _A_TCNT0:
   \   00000000                      DS8 1

   \                                 In  segment ABSOLUTE, at 0x51, root
   \   union <unnamed> volatile __io _A_OCR0
   \                     _A_OCR0:
   \   00000000                      DS8 1

   \                                 In  segment ABSOLUTE, at 0x50, root
   \   union <unnamed> volatile __io _A_ASSR
   \                     _A_ASSR:
   \   00000000                      DS8 1

   \                                 In  segment ABSOLUTE, at 0x4f, root
   \   union <unnamed> volatile __io _A_TCCR1A
   \                     _A_TCCR1A:
   \   00000000                      DS8 1

   \                                 In  segment ABSOLUTE, at 0x4e, root
   \   union <unnamed> volatile __io _A_TCCR1B
   \                     _A_TCCR1B:
   \   00000000                      DS8 1

   \                                 In  segment ABSOLUTE, at 0x4c, root
   \   union <unnamed> volatile __io _A_TCNT1
   \                     _A_TCNT1:
   \   00000000                      DS8 2

   \                                 In  segment ABSOLUTE, at 0x4a, root
   \   union <unnamed> volatile __io _A_OCR1A
   \                     _A_OCR1A:
   \   00000000                      DS8 2

   \                                 In  segment ABSOLUTE, at 0x48, root
   \   union <unnamed> volatile __io _A_OCR1B
   \                     _A_OCR1B:
   \   00000000                      DS8 2

   \                                 In  segment ABSOLUTE, at 0x46, root
   \   union <unnamed> volatile __io _A_ICR1
   \                     _A_ICR1:
   \   00000000                      DS8 2

   \                                 In  segment ABSOLUTE, at 0x45, root
   \   union <unnamed> volatile __io _A_TCCR2
   \                     _A_TCCR2:
   \   00000000                      DS8 1

   \                                 In  segment ABSOLUTE, at 0x44, root
   \   union <unnamed> volatile __io _A_TCNT2
   \                     _A_TCNT2:
   \   00000000                      DS8 1

   \                                 In  segment ABSOLUTE, at 0x43, root
   \   union <unnamed> volatile __io _A_OCR2
   \                     _A_OCR2:
   \   00000000                      DS8 1

   \                                 In  segment ABSOLUTE, at 0x42, root
   \   union <unnamed> volatile __io _A_OCDR
   \                     _A_OCDR:
   \   00000000                      DS8 1

   \                                 In  segment ABSOLUTE, at 0x41, root
   \   union <unnamed> volatile __io _A_WDTCR
   \                     _A_WDTCR:
   \   00000000                      DS8 1

   \                                 In  segment ABSOLUTE, at 0x40, root
   \   union <unnamed> volatile __io _A_SFIOR
   \                     _A_SFIOR:
   \   00000000                      DS8 1

   \                                 In  segment ABSOLUTE, at 0x3e, root
   \   union <unnamed> volatile __io _A_EEAR
   \                     _A_EEAR:
   \   00000000                      DS8 2

   \                                 In  segment ABSOLUTE, at 0x3d, root
   \   union <unnamed> volatile __io _A_EEDR
   \                     _A_EEDR:
   \   00000000                      DS8 1

   \                                 In  segment ABSOLUTE, at 0x3c, root
   \   union <unnamed> volatile __io _A_EECR
   \                     _A_EECR:
   \   00000000                      DS8 1

   \                                 In  segment ABSOLUTE, at 0x3b, root
   \   union <unnamed> volatile __io _A_PORTA
   \                     _A_PORTA:
   \   00000000                      DS8 1

   \                                 In  segment ABSOLUTE, at 0x3a, root
   \   union <unnamed> volatile __io _A_DDRA
   \                     _A_DDRA:
   \   00000000                      DS8 1

   \                                 In  segment ABSOLUTE, at 0x39, root
   \   union <unnamed> volatile __io _A_PINA
   \                     _A_PINA:
   \   00000000                      DS8 1

   \                                 In  segment ABSOLUTE, at 0x38, root
   \   union <unnamed> volatile __io _A_PORTB
   \                     _A_PORTB:
   \   00000000                      DS8 1

   \                                 In  segment ABSOLUTE, at 0x37, root
   \   union <unnamed> volatile __io _A_DDRB
   \                     _A_DDRB:
   \   00000000                      DS8 1

   \                                 In  segment ABSOLUTE, at 0x36, root
   \   union <unnamed> volatile __io _A_PINB
   \                     _A_PINB:
   \   00000000                      DS8 1

   \                                 In  segment ABSOLUTE, at 0x35, root
   \   union <unnamed> volatile __io _A_PORTC
   \                     _A_PORTC:
   \   00000000                      DS8 1

   \                                 In  segment ABSOLUTE, at 0x34, root
   \   union <unnamed> volatile __io _A_DDRC
   \                     _A_DDRC:
   \   00000000                      DS8 1

   \                                 In  segment ABSOLUTE, at 0x33, root
   \   union <unnamed> volatile __io _A_PINC
   \                     _A_PINC:
   \   00000000                      DS8 1

   \                                 In  segment ABSOLUTE, at 0x32, root
   \   union <unnamed> volatile __io _A_PORTD
   \                     _A_PORTD:
   \   00000000                      DS8 1

   \                                 In  segment ABSOLUTE, at 0x31, root
   \   union <unnamed> volatile __io _A_DDRD
   \                     _A_DDRD:
   \   00000000                      DS8 1

   \                                 In  segment ABSOLUTE, at 0x30, root
   \   union <unnamed> volatile __io _A_PIND
   \                     _A_PIND:
   \   00000000                      DS8 1

   \                                 In  segment ABSOLUTE, at 0x2f, root
   \   union <unnamed> volatile __io _A_SPDR
   \                     _A_SPDR:
   \   00000000                      DS8 1

   \                                 In  segment ABSOLUTE, at 0x2e, root
   \   union <unnamed> volatile __io _A_SPSR
   \                     _A_SPSR:
   \   00000000                      DS8 1

   \                                 In  segment ABSOLUTE, at 0x2d, root
   \   union <unnamed> volatile __io _A_SPCR
   \                     _A_SPCR:
   \   00000000                      DS8 1

   \                                 In  segment ABSOLUTE, at 0x2c, root
   \   union <unnamed> volatile __io _A_UDR0
   \                     _A_UDR0:
   \   00000000                      DS8 1

   \                                 In  segment ABSOLUTE, at 0x2b, root
   \   union <unnamed> volatile __io _A_UCSR0A
   \                     _A_UCSR0A:
   \   00000000                      DS8 1

   \                                 In  segment ABSOLUTE, at 0x2a, root
   \   union <unnamed> volatile __io _A_UCSR0B
   \                     _A_UCSR0B:
   \   00000000                      DS8 1

   \                                 In  segment ABSOLUTE, at 0x29, root
   \   union <unnamed> volatile __io _A_UBRR0L
   \                     _A_UBRR0L:
   \   00000000                      DS8 1

   \                                 In  segment ABSOLUTE, at 0x28, root
   \   union <unnamed> volatile __io _A_ACSR
   \                     _A_ACSR:
   \   00000000                      DS8 1

   \                                 In  segment ABSOLUTE, at 0x27, root
   \   union <unnamed> volatile __io _A_ADMUX
   \                     _A_ADMUX:
   \   00000000                      DS8 1

   \                                 In  segment ABSOLUTE, at 0x26, root
   \   union <unnamed> volatile __io _A_ADCSRA
   \                     _A_ADCSRA:
   \   00000000                      DS8 1

   \                                 In  segment ABSOLUTE, at 0x24, root
   \   union <unnamed> volatile __io _A_ADC
   \                     _A_ADC:
   \   00000000                      DS8 2

   \                                 In  segment ABSOLUTE, at 0x23, root
   \   union <unnamed> volatile __io _A_PORTE
   \                     _A_PORTE:
   \   00000000                      DS8 1

   \                                 In  segment ABSOLUTE, at 0x22, root
   \   union <unnamed> volatile __io _A_DDRE
   \                     _A_DDRE:
   \   00000000                      DS8 1

   \                                 In  segment ABSOLUTE, at 0x21, root
   \   union <unnamed> volatile __io _A_PINE
   \                     _A_PINE:
   \   00000000                      DS8 1

   \                                 In  segment ABSOLUTE, at 0x20, root
   \   union <unnamed> volatile __io _A_PINF
   \                     _A_PINF:
   \   00000000                      DS8 1

      static __flash TDataBase CFlash::xMainDataBase;
                               ^
"D:\Projects\CurrentProjects\CautoProjects\PSS48Color\include\Platform.h",368  Warning[Pe427]: 
          qualified name is not allowed in member declaration

      static __flash TDataBaseBlockPositionData CFlash::axDataBaseBlocksPositionData[];
                                                ^
"D:\Projects\CurrentProjects\CautoProjects\PSS48Color\include\Platform.h",369  Warning[Pe427]: 
          qualified name is not allowed in member declaration

   \                                 In  segment CODE, align 2, keep-with-next
   \   __version_3 void CPlatform::WatchdogReset()
   \                     ??WatchdogReset:
   \   00000000   95A8               WDR
   \   00000002   9508               RET

   \                                 In  segment CODE, align 2, keep-with-next
   \   __version_3 void CPlatform::WatchdogEnable()
   \                     ??WatchdogEnable:
   \   00000000   95A8               WDR
   \   00000002   B501               IN      R16, 0x21
   \   00000004   6108               ORI     R16, 0x18
   \   00000006   BD01               OUT     0x21, R16
   \   00000008   B501               IN      R16, 0x21
   \   0000000A   6007               ORI     R16, 0x07
   \   0000000C   BD01               OUT     0x21, R16
   \   0000000E   9508               RET
   \   00000010                      REQUIRE _A_WDTCR

   \                                 In  segment CODE, align 2, keep-with-next
   \   __version_3 uint8_t CPlatform::KeyOneState()
   \                     ??KeyOneState:
   \   00000000   E000               LDI     R16, 0
   \   00000002   999A               SBIC    0x13, 0x02
   \   00000004   9503               INC     R16
   \                     ??KeyOneState_1:
   \   00000006   E011               LDI     R17, 1
   \   00000008   2701               EOR     R16, R17
   \   0000000A   9508               RET
   \   0000000C                      REQUIRE _A_PINC

   \                                 In  segment CODE, align 2, keep-with-next
   \   __version_3 uint8_t CPlatform::KeyTwoState()
   \                     ??KeyTwoState:
   \   00000000   E000               LDI     R16, 0
   \   00000002   9999               SBIC    0x13, 0x01
   \   00000004   9503               INC     R16
   \                     ??KeyTwoState_1:
   \   00000006   E011               LDI     R17, 1
   \   00000008   2701               EOR     R16, R17
   \   0000000A   9508               RET
   \   0000000C                      REQUIRE _A_PINC

   \                                 In  segment CODE, align 2, keep-with-next
   \   __version_3 uint8_t CPlatform::KeyThreeState()
   \                     ??KeyThreeState:
   \   00000000   E000               LDI     R16, 0
   \   00000002   9998               SBIC    0x13, 0x00
   \   00000004   9503               INC     R16
   \                     ??KeyThreeState_1:
   \   00000006   E011               LDI     R17, 1
   \   00000008   2701               EOR     R16, R17
   \   0000000A   9508               RET
   \   0000000C                      REQUIRE _A_PINC

   \                                 In  segment CODE, align 2, keep-with-next
   \   __version_3 uint8_t CPlatform::ExternalKeyState()
   \                     ??ExternalKeyState:
   \   00000000   E000               LDI     R16, 0
   \   00000002   999C               SBIC    0x13, 0x04
   \   00000004   9503               INC     R16
   \                     ??ExternalKeyState_1:
   \   00000006   E011               LDI     R17, 1
   \   00000008   2701               EOR     R16, R17
   \   0000000A   9508               RET
   \   0000000C                      REQUIRE _A_PINC

   \                                 In  segment CODE, align 2, keep-with-next
   \   __version_3 void CPlatform::SpiSlaveSelectAddress0SetPinOutput()
   \                     ??SpiSlaveSelectAddress0SetPinOutput:
   \   00000000   9A8F               SBI     0x11, 0x07
   \   00000002   9508               RET
   \   00000004                      REQUIRE _A_DDRD

   \                                 In  segment CODE, align 2, keep-with-next
   \   __version_3 void CPlatform::SpiSlaveSelectAddress0On()
   \                     ??SpiSlaveSelectAddress0On:
   \   00000000   9A97               SBI     0x12, 0x07
   \   00000002   9508               RET
   \   00000004                      REQUIRE _A_PORTD

   \                                 In  segment CODE, align 2, keep-with-next
   \   __version_3 void CPlatform::SpiSlaveSelectAddress0Off()
   \                     ??SpiSlaveSelectAddress0Off:
   \   00000000   9897               CBI     0x12, 0x07
   \   00000002   9508               RET
   \   00000004                      REQUIRE _A_PORTD

   \                                 In  segment CODE, align 2, keep-with-next
   \   __version_3 void CPlatform::SpiSlaveSelectAddress1SetPinOutput()
   \                     ??SpiSlaveSelectAddress1SetPinOutput:
   \   00000000   9A8E               SBI     0x11, 0x06
   \   00000002   9508               RET
   \   00000004                      REQUIRE _A_DDRD

   \                                 In  segment CODE, align 2, keep-with-next
   \   __version_3 void CPlatform::SpiSlaveSelectAddress1On()
   \                     ??SpiSlaveSelectAddress1On:
   \   00000000   9A96               SBI     0x12, 0x06
   \   00000002   9508               RET
   \   00000004                      REQUIRE _A_PORTD

   \                                 In  segment CODE, align 2, keep-with-next
   \   __version_3 void CPlatform::SpiSlaveSelectAddress1Off()
   \                     ??SpiSlaveSelectAddress1Off:
   \   00000000   9896               CBI     0x12, 0x06
   \   00000002   9508               RET
   \   00000004                      REQUIRE _A_PORTD

   \                                 In  segment CODE, align 2, keep-with-next
   \   __version_3 void CPlatform::SpiSlaveSelectAddress2SetPinOutput()
   \                     ??SpiSlaveSelectAddress2SetPinOutput:
   \   00000000   9A8D               SBI     0x11, 0x05
   \   00000002   9508               RET
   \   00000004                      REQUIRE _A_DDRD

   \                                 In  segment CODE, align 2, keep-with-next
   \   __version_3 void CPlatform::SpiSlaveSelectAddress2On()
   \                     ??SpiSlaveSelectAddress2On:
   \   00000000   9A95               SBI     0x12, 0x05
   \   00000002   9508               RET
   \   00000004                      REQUIRE _A_PORTD

   \                                 In  segment CODE, align 2, keep-with-next
   \   __version_3 void CPlatform::SpiSlaveSelectAddress2Off()
   \                     ??SpiSlaveSelectAddress2Off:
   \   00000000   9895               CBI     0x12, 0x05
   \   00000002   9508               RET
   \   00000004                      REQUIRE _A_PORTD

   \                                 In  segment CODE, align 2, keep-with-next
   \   __version_3 void CPlatform::SpiSlaveSelectAddress3SetPinOutput()
   \                     ??SpiSlaveSelectAddress3SetPinOutput:
   \   00000000   9A8C               SBI     0x11, 0x04
   \   00000002   9508               RET
   \   00000004                      REQUIRE _A_DDRD

   \                                 In  segment CODE, align 2, keep-with-next
   \   __version_3 void CPlatform::SpiSlaveSelectAddress3On()
   \                     ??SpiSlaveSelectAddress3On:
   \   00000000   9A94               SBI     0x12, 0x04
   \   00000002   9508               RET
   \   00000004                      REQUIRE _A_PORTD

   \                                 In  segment CODE, align 2, keep-with-next
   \   __version_3 void CPlatform::SpiSlaveSelectAddress3Off()
   \                     ??SpiSlaveSelectAddress3Off:
   \   00000000   9894               CBI     0x12, 0x04
   \   00000002   9508               RET
   \   00000004                      REQUIRE _A_PORTD

   \                                 In  segment CODE, align 2, keep-with-next
   \   __version_3 void CPlatform::SpiSlaveSelectEnableSetPinOutput()
   \                     ??SpiSlaveSelectEnableSetPinOutput:
   \   00000000   9A89               SBI     0x11, 0x01
   \   00000002   9508               RET
   \   00000004                      REQUIRE _A_DDRD

   \                                 In  segment CODE, align 2, keep-with-next
   \   __version_3 void CPlatform::SpiSlaveSelectEnableOn()
   \                     ??SpiSlaveSelectEnableOn:
   \   00000000   9A91               SBI     0x12, 0x01
   \   00000002   9508               RET
   \   00000004                      REQUIRE _A_PORTD

   \                                 In  segment CODE, align 2, keep-with-next
   \   __version_3 void CPlatform::SpiSlaveSelectEnableOff()
   \                     ??SpiSlaveSelectEnableOff:
   \   00000000   9891               CBI     0x12, 0x01
   \   00000002   9508               RET
   \   00000004                      REQUIRE _A_PORTD

   \                                 In  segment CODE, align 2, keep-with-next
   \   __version_3 void CAlarmWindow::SetActivityState(uint8_t)
   \                     ??SetActivityState:
   \   00000000   01F8               MOVW    R31:R30, R17:R16
   \   00000002   8320               ST      Z, R18
   \   00000004   9508               RET

   \                                 In  segment CODE, align 2, keep-with-next
   \   __version_3 uint8_t CAlarmWindow::GetActivityState()
   \                     ??GetActivityState:
   \   00000000   01F8               MOVW    R31:R30, R17:R16
   \   00000002   8100               LD      R16, Z
   \   00000004   9508               RET

   \                                 In  segment CODE, align 2, keep-with-next
   \   __version_3 void CAlarmWindow::SetSavedActivityState(uint8_t)
   \                     ??SetSavedActivityState:
   \   00000000   01F8               MOVW    R31:R30, R17:R16
   \   00000002   8321               STD     Z+1, R18
   \   00000004   9508               RET

   \                                 In  segment CODE, align 2, keep-with-next
   \   __version_3 uint8_t CAlarmWindow::GetSavedActivityState()
   \                     ??GetSavedActivityState:
   \   00000000   01F8               MOVW    R31:R30, R17:R16
   \   00000002   8101               LDD     R16, Z+1
   \   00000004   9508               RET

   \                                 In  segment CODE, align 2, keep-with-next
   \   __version_3 void CAlarmWindow::SetAlarmType(uint8_t)
   \                     ??SetAlarmType:
   \   00000000   01F8               MOVW    R31:R30, R17:R16
   \   00000002   8322               STD     Z+2, R18
   \   00000004   9508               RET

   \                                 In  segment CODE, align 2, keep-with-next
   \   __version_3 uint8_t CAlarmWindow::GetAlarmType()
   \                     ??GetAlarmType:
   \   00000000   01F8               MOVW    R31:R30, R17:R16
   \   00000002   8102               LDD     R16, Z+2
   \   00000004   9508               RET

   \                                 In  segment CODE, align 2, keep-with-next
   \   __version_3 void CAlarmWindow::SetSavedAlarmType(uint8_t)
   \                     ??SetSavedAlarmType:
   \   00000000   01F8               MOVW    R31:R30, R17:R16
   \   00000002   8323               STD     Z+3, R18
   \   00000004   9508               RET

   \                                 In  segment CODE, align 2, keep-with-next
   \   __version_3 uint8_t CAlarmWindow::GetSavedAlarmType()
   \                     ??GetSavedAlarmType:
   \   00000000   01F8               MOVW    R31:R30, R17:R16
   \   00000002   8103               LDD     R16, Z+3
   \   00000004   9508               RET

   \                                 In  segment CODE, align 2, keep-with-next
   \   __version_3 void CAlarmWindow::SetAlarmColor(uint8_t)
   \                     ??SetAlarmColor:
   \   00000000   01F8               MOVW    R31:R30, R17:R16
   \   00000002   8324               STD     Z+4, R18
   \   00000004   9508               RET

   \                                 In  segment CODE, align 2, keep-with-next
   \   __version_3 uint8_t CAlarmWindow::GetAlarmColor()
   \                     ??GetAlarmColor:
   \   00000000   01F8               MOVW    R31:R30, R17:R16
   \   00000002   8104               LDD     R16, Z+4
   \   00000004   9508               RET

   \                                 In  segment CODE, align 2, keep-with-next
   \   __version_3 void CAlarmWindow::SetSavedAlarmColor(uint8_t)
   \                     ??SetSavedAlarmColor:
   \   00000000   01F8               MOVW    R31:R30, R17:R16
   \   00000002   8325               STD     Z+5, R18
   \   00000004   9508               RET

   \                                 In  segment CODE, align 2, keep-with-next
   \   __version_3 uint8_t CAlarmWindow::GetSavedAlarmColor()
   \                     ??GetSavedAlarmColor:
   \   00000000   01F8               MOVW    R31:R30, R17:R16
   \   00000002   8105               LDD     R16, Z+5
   \   00000004   9508               RET

   \                                 In  segment CODE, align 2, keep-with-next
   \   __version_3 void CAlarmDfa::SetDiscreteStateIndex(uint8_t)
   \                     ??SetDiscreteStateIndex:
   \   00000000   01F8               MOVW    R31:R30, R17:R16
   \   00000002   8325               STD     Z+5, R18
   \   00000004   9508               RET

   \                                 In  segment CODE, align 2, keep-with-next
   \   __version_3 void CAlarmDfa::SetAlarmWindowIndex(uint8_t)
   \                     ??SetAlarmWindowIndex:
   \   00000000   01F8               MOVW    R31:R30, R17:R16
   \   00000002   8323               STD     Z+3, R18
   \   00000004   9508               RET

   \                                 In  segment CODE, align 2, keep-with-next
   \   __version_3 uint8_t CAlarmDfa::GetAlarmWindowIndex()
   \                     ??GetAlarmWindowIndex:
   \   00000000   01F8               MOVW    R31:R30, R17:R16
   \   00000002   8103               LDD     R16, Z+3
   \   00000004   9508               RET

   \                                 In  segment CODE, align 2, keep-with-next
   \   __version_3 uint8_t *CAlarmDfa::GetLinkedDiscreteOutputsPointer()
   \                     ??GetLinkedDiscreteOutputsPointer:
   \   00000000   5F0C               SUBI    R16, 252
   \   00000002   4F1F               SBCI    R17, 255
   \   00000004   9508               RET

      virtual bool IsSolved(void) {};
                                   ^
"D:\Projects\CurrentProjects\CautoProjects\PSS48Color\include\Task.h",20  Warning[Pe940]: 
          missing return statement at end of non-void function
          "CTaskInterface::IsSolved"

      virtual bool IsSourceStateActive(void) {};
                                              ^
"D:\Projects\CurrentProjects\CautoProjects\PSS48Color\include\Task.h",23  Warning[Pe940]: 
          missing return statement at end of non-void function
          "CTaskInterface::IsSourceStateActive"

      bool IsSolved(void) {};
                           ^
"D:\Projects\CurrentProjects\CautoProjects\PSS48Color\include\Task.h",58  Warning[Pe940]: 
          missing return statement at end of non-void function
          "CIsRegularButtonPressedInterface::IsSolved"

      virtual bool IsSourceStateActive(void) {};
                                              ^
"D:\Projects\CurrentProjects\CautoProjects\PSS48Color\include\Task.h",61  Warning[Pe940]: 
          missing return statement at end of non-void function
          "CIsRegularButtonPressedInterface::IsSourceStateActive"

      virtual uint16_t KEY_PRESSED_TIME(void) {};
                                               ^
"D:\Projects\CurrentProjects\CautoProjects\PSS48Color\include\Task.h",63  Warning[Pe940]: 
          missing return statement at end of non-void function
          "CIsRegularButtonPressedInterface::KEY_PRESSED_TIME"

   \                                 In  segment CODE, align 2, keep-with-next
   \   __version_3 uint8_t CPss21::GetFsmState()
   \                     ??GetFsmState_1:
   \   00000000   9100....           LDS     R16, ??m_uiFsmState
   \   00000004   9508               RET

   \                                 In  segment CODE, align 2, keep-with-next
   \   __version_3 void CPss21::SetFsmState(uint8_t)
   \                     ??SetFsmState_1:
   \   00000000   9300....           STS     ??m_uiFsmState, R16
   \   00000004   9508               RET

   \                                 In  segment CODE, align 2, keep-with-next
   \   __version_3 void CPss21::SetPanelReceipt(uint8_t)
   \                     ??SetPanelReceipt:
   \   00000000   9300....           STS     ??m_uiPanelReceipt, R16
   \   00000004   9508               RET

   \                                 In  segment CODE, align 2, keep-with-next
   \   __version_3 uint8_t CPss21::GetPanelReceipt()
   \                     ??GetPanelReceipt:
   \   00000000   9100....           LDS     R16, ??m_uiPanelReceipt
   \   00000004   9508               RET

   \                                 In  segment CODE, align 2, keep-with-next
   \   __version_3 void CPss21::SetPanelReset(uint8_t)
   \                     ??SetPanelReset:
   \   00000000   9300....           STS     ??m_uiPanelReset, R16
   \   00000004   9508               RET

   \                                 In  segment CODE, align 2, keep-with-next
   \   __version_3 uint8_t CPss21::GetPanelReset()
   \                     ??GetPanelReset:
   \   00000000   9100....           LDS     R16, ??m_uiPanelReset
   \   00000004   9508               RET

   \                                 In  segment CODE, align 2, keep-with-next
   \   __version_3 void CPss21::SetExternalReceipt(uint8_t)
   \                     ??SetExternalReceipt:
   \   00000000   9300....           STS     ??m_uiExternalReceipt, R16
   \   00000004   9508               RET

   \                                 In  segment CODE, align 2, keep-with-next
   \   __version_3 uint8_t CPss21::GetExternalReceipt()
   \                     ??GetExternalReceipt:
   \   00000000   9100....           LDS     R16, ??m_uiExternalReceipt
   \   00000004   9508               RET

   \                                 In  segment CODE, align 2, keep-with-next
   \   __version_3 void CPss21::SetExternalReset(uint8_t)
   \                     ??SetExternalReset:
   \   00000000   9300....           STS     ??m_uiExternalReset, R16
   \   00000004   9508               RET

   \                                 In  segment CODE, align 2, keep-with-next
   \   __version_3 uint8_t CPss21::GetExternalReset()
   \                     ??GetExternalReset:
   \   00000000   9100....           LDS     R16, ??m_uiExternalReset
   \   00000004   9508               RET

   \                                 In  segment CODE, align 2, keep-with-next
   \   __version_3 void CPss21::SetModbusReceipt(uint8_t)
   \                     ??SetModbusReceipt_1:
   \   00000000   9300....           STS     ??m_uiModbusReceipt, R16
   \   00000004   9508               RET

   \                                 In  segment CODE, align 2, keep-with-next
   \   __version_3 uint8_t CPss21::GetModbusReceipt()
   \                     ??GetModbusReceipt:
   \   00000000   9100....           LDS     R16, ??m_uiModbusReceipt
   \   00000004   9508               RET

   \                                 In  segment CODE, align 2, keep-with-next
   \   __version_3 void CPss21::SetModbusReset(uint8_t)
   \                     ??SetModbusReset_1:
   \   00000000   9300....           STS     ??m_uiModbusReset, R16
   \   00000004   9508               RET

   \                                 In  segment CODE, align 2, keep-with-next
   \   __version_3 uint8_t CPss21::GetModbusReset()
   \                     ??GetModbusReset:
   \   00000000   9100....           LDS     R16, ??m_uiModbusReset
   \   00000004   9508               RET

   \                                 In  segment CODE, align 2, keep-with-next
   \   __version_3 void CPss21::SetDiscreteSignalsReceipt(uint8_t)
   \                     ??SetDiscreteSignalsReceipt:
   \   00000000   9300....           STS     ??m_uiDiscreteSignalsReceipt, R16
   \   00000004   9508               RET

   \                                 In  segment CODE, align 2, keep-with-next
   \   __version_3 void CPss21::SetDiscreteSignalsReset(uint8_t)
   \                     ??SetDiscreteSignalsReset:
   \   00000000   9300....           STS     ??m_uiDiscreteSignalsReset, R16
   \   00000004   9508               RET

   \                                 In  segment CODE, align 2, keep-with-next
   \   __version_3 uint8_t CPss21::GetCommonAlarmType()
   \                     ??GetCommonAlarmType:
   \   00000000   9100....           LDS     R16, ??m_uiCommonAlarmType
   \   00000004   9508               RET

   \                                 In  segment CODE, align 2, keep-with-next
   \   __version_3 void CPss21::SetErrorCode(uint8_t)
   \                     ??SetErrorCode:
   \   00000000   9300....           STS     ??m_uiErrorCode, R16
   \   00000004   9508               RET

   \                                 In  segment CODE, align 2, keep-with-next
   \   __version_3 uint8_t CPss21::GetErrorCode()
   \                     ??GetErrorCode:
   \   00000000   9100....           LDS     R16, ??m_uiErrorCode
   \   00000004   9508               RET

   \                                 In  segment CODE, align 2, keep-with-next
   \   __version_3 uint8_t CPss21::GetModuleIndex()
   \                     ??GetModuleIndex:
   \   00000000   9100....           LDS     R16, ??m_uiModuleIndex
   \   00000004   9508               RET

   \                                 In  segment CODE, align 2, keep-with-next
   \   __version_3 void CPss21::SetModuleIndex(uint8_t)
   \                     ??SetModuleIndex:
   \   00000000   9300....           STS     ??m_uiModuleIndex, R16
   \   00000004   9508               RET

   \                                 In  segment CODE, align 2, keep-with-next
   \   __version_3 CAlarmWindow *CPss21::GetAlarmWindowControlPointer(uint8_t)
   \                     ??GetAlarmWindowControlPointer:
   \   00000000   E010               LDI     R17, 0
   \   00000002   E048               LDI     R20, 8
   \   00000004   E050               LDI     R21, 0
   \   00000006   ........           CALL    ?S_EC_MUL_L02
   \   0000000A   0198               MOVW    R19:R18, R17:R16
   \   0000000C   ....               LDI     R16, LOW(??m_axAlarmWindowControl)
   \   0000000E   ....               LDI     R17, (??m_axAlarmWindowControl) >> 8
   \   00000010   0F02               ADD     R16, R18
   \   00000012   1F13               ADC     R17, R19
   \   00000014   9508               RET
      9          #include "Platform.h"
     10          #include "InputDevice.h"
     11          #include "Mvsn21.h"
     12          #include "ModuleMrXX.h"
     13          #include "Crc.h"
     14          #include "ModbusRTU.h"
     15          #include "DataBase.h"
     16          #include "DataTypes.h"
     17          #include "Alarm.h"
     18          #include "NotifyerControl.h"
     19          #include "Buzzer.h"
     20          #include "Event.h"
     21          #include "Dfa.h"
     22          
     23          
     24          //uint8_t CPss21::m_aucRtuCoilsArray[];
     25          //uint8_t CPss21::m_aucRtuDiscreteInputsArray[];

   \                                 In  segment NEAR_Z, align 1, keep-with-next, root
   \   00000000                      REQUIRE `?<Segment init: NEAR_Z>`
     26          uint16_t CPss21::m_aucRtuHoldingRegistersArray[];
   \                     ??m_aucRtuHoldingRegistersArray:
   \   00000000                      DS8 16

   \                                 In  segment NEAR_Z, align 1, keep-with-next, root
   \   00000000                      REQUIRE `?<Segment init: NEAR_Z>`
     27          uint16_t CPss21::m_aucRtuInputRegistersArray[];
   \                     ??m_aucRtuInputRegistersArray:
   \   00000000                      DS8 16

   \                                 In  segment NEAR_Z, align 1, keep-with-next, root
   \   00000000                      REQUIRE `?<Segment init: NEAR_Z>`
     28          uint8_t CPss21::m_aucRtuDiscreteDataArray[];
   \                     ??m_aucRtuDiscreteDataArray:
   \   00000000                      DS8 120

   \                                 In  segment NEAR_Z, align 1, keep-with-next, root
   \   00000000                      REQUIRE `?<Segment init: NEAR_Z>`
     29          uint8_t CPss21::m_auiReceiveMessageBuff[];
   \                     ??m_auiReceiveMessageBuff:
   \   00000000                      DS8 256
     30          //uint8_t CPss21::m_auiTransmitMessageBuff[];

   \                                 In  segment NEAR_Z, align 1, keep-with-next, root
   \   00000000                      REQUIRE `?<Segment init: NEAR_Z>`
     31          uint8_t CPss21::m_auiIntermediateBuff[];
   \                     ??m_auiIntermediateBuff:
   \   00000000                      DS8 256

   \                                 In  segment NEAR_Z, align 1, keep-with-next, root
   \   00000000                      REQUIRE `?<Segment init: NEAR_Z>`
     32          uint8_t CPss21::m_auiSpiRxBuffer[];
   \                     ??m_auiSpiRxBuffer:
   \   00000000                      DS8 64

   \                                 In  segment NEAR_Z, align 1, keep-with-next, root
   \   00000000                      REQUIRE `?<Segment init: NEAR_Z>`
     33          uint8_t CPss21::m_auiSpiTxBuffer[];
   \                     ??m_auiSpiTxBuffer:
   \   00000000                      DS8 64
     34          

   \                                 In  segment NEAR_Z, align 1, keep-with-next, root
   \   00000000                      REQUIRE `?<Segment init: NEAR_Z>`
     35          uint8_t CPss21::m_uiFsmState;
   \                     ??m_uiFsmState:
   \   00000000                      DS8 1

   \                                 In  segment NEAR_Z, align 1, keep-with-next, root
   \   00000000                      REQUIRE `?<Segment init: NEAR_Z>`
     36          uint8_t CPss21::m_uiType;
   \                     ??m_uiType:
   \   00000000                      DS8 1
     37          //CDriver* CPss21::m_pxDriver;
     38          //CDevice* CPss21::m_apxDevices[];

   \                                 In  segment NEAR_Z, align 1, keep-with-next, root
   \   00000000                      REQUIRE `?<Segment init: NEAR_Z>`
     39          CDriver* CPss21::m_apxDrivers[];
   \                     ??m_apxDrivers:
   \   00000000                      DS8 6
     40          

   \                                 In  segment CODE, align 2, keep-with-next
   \   static __intrinsic __version_3 void __sti__routine()
   \                     ??__sti__routine:
     41          CUart CPss21::m_xUart1(&UBRR1H, &UBRR1L, &UCSR1A, &UCSR1B, &UCSR1C, &UDR1, &DDRC, DDC7, &PORTC, PC7);
   \   00000000   E007               LDI     R16, 7
   \   00000002   930A               ST      -Y, R16
   \   00000004   E305               LDI     R16, LOW(53)
   \   00000006   E010               LDI     R17, (53) >> 8
   \   00000008   931A               ST      -Y, R17
   \   0000000A   930A               ST      -Y, R16
   \   0000000C   E007               LDI     R16, 7
   \   0000000E   930A               ST      -Y, R16
   \   00000010   E304               LDI     R16, LOW(52)
   \   00000012   E010               LDI     R17, (52) >> 8
   \   00000014   931A               ST      -Y, R17
   \   00000016   930A               ST      -Y, R16
   \   00000018   E90C               LDI     R16, LOW(156)
   \   0000001A   E010               LDI     R17, (156) >> 8
   \   0000001C   931A               ST      -Y, R17
   \   0000001E   930A               ST      -Y, R16
   \   00000020   E90D               LDI     R16, LOW(157)
   \   00000022   E010               LDI     R17, (157) >> 8
   \   00000024   931A               ST      -Y, R17
   \   00000026   930A               ST      -Y, R16
   \   00000028   E90A               LDI     R16, LOW(154)
   \   0000002A   E010               LDI     R17, (154) >> 8
   \   0000002C   931A               ST      -Y, R17
   \   0000002E   930A               ST      -Y, R16
   \   00000030   E96B               LDI     R22, LOW(155)
   \   00000032   E070               LDI     R23, (155) >> 8
   \   00000034   E949               LDI     R20, LOW(153)
   \   00000036   E050               LDI     R21, (153) >> 8
   \   00000038   E928               LDI     R18, LOW(152)
   \   0000003A   E030               LDI     R19, (152) >> 8
   \   0000003C   ....               LDI     R16, LOW(??m_xUart1)
   \   0000003E   ....               LDI     R17, (??m_xUart1) >> 8
   \   00000040   ........           CALL    ??CUart
   \   00000044   ....               LDI     R16, LOW(?_0)
   \   00000046   ....               LDI     R17, (?_0) >> 8
   \   00000048   ........           CALL    __record_needed_destruction
     42          CModbusRTU CPss21::m_xModbusRtuOne;
   \   0000004C   E020               LDI     R18, 0
   \   0000004E   E030               LDI     R19, 0
   \   00000050   ....               LDI     R16, LOW(??m_xModbusRtuOne)
   \   00000052   ....               LDI     R17, (??m_xModbusRtuOne) >> 8
   \   00000054   ........           CALL    ??CModbusRTU
   \   00000058   ....               LDI     R16, LOW(?_2)
   \   0000005A   ....               LDI     R17, (?_2) >> 8
   \   0000005C   ........           CALL    __record_needed_destruction
     43          
     44          //CDataBase CPss21::m_xDataBase;
     45          //CDataBase* CPss21::m_pxDataBase;
     46          //CDataStore CPss21::m_xDataStore;
     47          
     48          CMultiFunctionKey CPss21::m_xReceiptKey(CPlatform::KeyOneState);
   \   00000060   ....               LDI     R18, LOW(??KeyOneState/2)
   \   00000062   ....               LDI     R19, (??KeyOneState/2) >> 8
   \   00000064   ....               LDI     R16, LOW(??m_xReceiptKey)
   \   00000066   ....               LDI     R17, (??m_xReceiptKey) >> 8
   \   00000068   ........           CALL    ??CMultiFunctionKey
   \   0000006C   ....               LDI     R16, LOW(?_4)
   \   0000006E   ....               LDI     R17, (?_4) >> 8
   \   00000070   ........           CALL    __record_needed_destruction
     49          CMultiFunctionKey CPss21::m_xResetKey(CPlatform::KeyTwoState);
   \   00000074   ....               LDI     R18, LOW(??KeyTwoState/2)
   \   00000076   ....               LDI     R19, (??KeyTwoState/2) >> 8
   \   00000078   ....               LDI     R16, LOW(??m_xResetKey)
   \   0000007A   ....               LDI     R17, (??m_xResetKey) >> 8
   \   0000007C   ........           CALL    ??CMultiFunctionKey
   \   00000080   ....               LDI     R16, LOW(?_6)
   \   00000082   ....               LDI     R17, (?_6) >> 8
   \   00000084   ........           CALL    __record_needed_destruction
     50          CMultiFunctionKey CPss21::m_xCheckKey(CPlatform::KeyThreeState);
   \   00000088   ....               LDI     R18, LOW(??KeyThreeState/2)
   \   0000008A   ....               LDI     R19, (??KeyThreeState/2) >> 8
   \   0000008C   ....               LDI     R16, LOW(??m_xCheckKey)
   \   0000008E   ....               LDI     R17, (??m_xCheckKey) >> 8
   \   00000090   ........           CALL    ??CMultiFunctionKey
   \   00000094   ....               LDI     R16, LOW(?_8)
   \   00000096   ....               LDI     R17, (?_8) >> 8
   \   00000098   ........           CALL    __record_needed_destruction
     51          CMultiFunctionKey CPss21::m_xExternalKey(CPlatform::ExternalKeyState);
   \   0000009C   ....               LDI     R18, LOW(??ExternalKeyState/2)
   \   0000009E   ....               LDI     R19, (??ExternalKeyState/2) >> 8
   \   000000A0   ....               LDI     R16, LOW(??m_xExternalKey)
   \   000000A2   ....               LDI     R17, (??m_xExternalKey) >> 8
   \   000000A4   ........           CALL    ??CMultiFunctionKey
   \   000000A8   ....               LDI     R16, LOW(?_10)
   \   000000AA   ....               LDI     R17, (?_10) >> 8
   \   000000AC   ........           CALL    __record_needed_destruction
     52          
     53          //CIsReceiptButtonPressed CPss21::m_xIsReceiptButtonPressed;
     54          
     55          uint8_t CPss21::m_uiPanelReceipt;
     56          uint8_t CPss21::m_uiPanelReset;
     57          uint8_t CPss21::m_uiExternalReceipt;
     58          uint8_t CPss21::m_uiExternalReset;
     59          uint8_t CPss21::m_uiModbusReceipt;
     60          uint8_t CPss21::m_uiModbusReset;
     61          uint8_t CPss21::m_uiDiscreteSignalsReceipt;
     62          uint8_t CPss21::m_uiDiscreteSignalsReset;
     63          uint8_t CPss21::m_uiErrorCode;
     64          uint8_t CPss21::m_uiModuleIndex;
     65          CEventUniteLogicAnd CPss21::m_xEventUniteLogicAndOne(500);
   \   000000B0   EF24               LDI     R18, 244
   \   000000B2   E031               LDI     R19, 1
   \   000000B4   ....               LDI     R16, LOW(??m_xEventUniteLogicAndOne)
   \   000000B6   ....               LDI     R17, (??m_xEventUniteLogicAndOne) >> 8
   \   000000B8   ........           CALL    ??CEventUniteLogicAnd
   \   000000BC   ....               LDI     R16, LOW(?_12)
   \   000000BE   ....               LDI     R17, (?_12) >> 8
   \   000000C0   ........           CALL    __record_needed_destruction
     66          CTimer CPss21::m_xMainCycleTimer(MAIN_CYCLE_PERIOD_TIME);
   \   000000C4   E624               LDI     R18, 100
   \   000000C6   E030               LDI     R19, 0
   \   000000C8   ....               LDI     R16, LOW(??m_xMainCycleTimer)
   \   000000CA   ....               LDI     R17, (??m_xMainCycleTimer) >> 8
   \   000000CC   ........           CALL    ??CTimer
   \   000000D0   ....               LDI     R16, LOW(?_14)
   \   000000D2   ....               LDI     R17, (?_14) >> 8
   \   000000D4   ........           CALL    __record_needed_destruction
     67          //CTimer CPss21::m_xPeripheryTimer(PERIPHERY_SCAN_TIME);
     68          
     69          CPreventiveAlarmWindowNotifyerControl CPss21::m_xPreventiveAlarmWindowNotifyerControl;
   \   000000D8   ....               LDI     R16, LOW(??m_xPreventiveAlarmWindowNotifyerControl)
   \   000000DA   ....               LDI     R17, (??m_xPreventiveAlarmWindowNotifyerControl) >> 8
   \   000000DC   ........           CALL    ??CPreventiveAlarmWindowNotifyerControl
   \   000000E0   ....               LDI     R16, LOW(?_16)
   \   000000E2   ....               LDI     R17, (?_16) >> 8
   \   000000E4   ........           CALL    __record_needed_destruction
     70          CEmergencyAlarmWindowNotifyerControl CPss21::m_xEmergencyAlarmWindowNotifyerControl;
   \   000000E8   ....               LDI     R16, LOW(??m_xEmergencyAlarmWindowNotifyerControl)
   \   000000EA   ....               LDI     R17, (??m_xEmergencyAlarmWindowNotifyerControl) >> 8
   \   000000EC   ........           CALL    ??CEmergencyAlarmWindowNotifyerControl
   \   000000F0   ....               LDI     R16, LOW(?_18)
   \   000000F2   ....               LDI     R17, (?_18) >> 8
   \   000000F4   ........           CALL    __record_needed_destruction
     71          CStatusLedNotifyerControl CPss21::m_xStatusLedNotifyerControl;
   \   000000F8   ....               LDI     R16, LOW(??m_xStatusLedNotifyerControl)
   \   000000FA   ....               LDI     R17, (??m_xStatusLedNotifyerControl) >> 8
   \   000000FC   ........           CALL    ??CStatusLedNotifyerControl
   \   00000100   ....               LDI     R16, LOW(?_20)
   \   00000102   ....               LDI     R17, (?_20) >> 8
   \   00000104   ........           CALL    __record_needed_destruction
     72          CBuzzerNotifyerControl CPss21::m_xBuzzerNotifyerControl;
   \   00000108   ....               LDI     R16, LOW(??m_xBuzzerNotifyerControl)
   \   0000010A   ....               LDI     R17, (??m_xBuzzerNotifyerControl) >> 8
   \   0000010C   ........           CALL    ??CBuzzerNotifyerControl
   \   00000110   ....               LDI     R16, LOW(?_22)
   \   00000112   ....               LDI     R17, (?_22) >> 8
   \   00000114   ........           CALL    __record_needed_destruction
     73          CTestModeNotifyerControl CPss21::m_xTestModeNotifyerControl;
   \   00000118   ....               LDI     R16, LOW(??m_xTestModeNotifyerControl)
   \   0000011A   ....               LDI     R17, (??m_xTestModeNotifyerControl) >> 8
   \   0000011C   ........           CALL    ??CTestModeNotifyerControl
   \   00000120   ....               LDI     R16, LOW(?_24)
   \   00000122   ....               LDI     R17, (?_24) >> 8
   \   00000124   ........           CALL    __record_needed_destruction
     74          CModbusRtuLinkControl CPss21::m_xModbusRtuLinkControl;
   \   00000128   ....               LDI     R16, LOW(??m_xModbusRtuLinkControl)
   \   0000012A   ....               LDI     R17, (??m_xModbusRtuLinkControl) >> 8
   \   0000012C   ........           CALL    ??CModbusRtuLinkControl
   \   00000130   ....               LDI     R16, LOW(?_26)
   \   00000132   ....               LDI     R17, (?_26) >> 8
   \   00000134   ........           CALL    __record_needed_destruction
     75          
     76          
     77          uint8_t CPss21::m_uiCommonAlarmType;
     78          uint8_t CPss21::m_uiCommonAlarmTypePrevious;
     79          //CLightBoard CPss21::m_xLightBoard;
     80          TConfigDataPackOne CPss21::m_xDeviceConfigSearch;
     81          TDevConfig CPss21::m_xDeviceConfiguration;
     82          TDeviceState CPss21::m_xDeviceState;
     83          TMBusSetting CPss21::m_xModbusSettings;
     84          CAlarmDfa *CPss21::m_apxAlarmDfa[];
     85          
     86          CErrorAlarmDfa *CPss21::m_apxErrorAlarmDfa[];
     87          uint8_t CPss21::m_auiErrorAlarmDataArray[];
     88          
     89          TDiscreteOutputControl CPss21::m_axDiscreteOutputControl[];
     90          TOutputData CPss21::m_xDiscreteOutputDataBase;
     91          CAlarmWindow CPss21::m_axAlarmWindowControl[];
   \   00000138   ....               LDI     R22, LOW(??CAlarmWindow/2)
   \   0000013A   ....               LDI     R23, (??CAlarmWindow/2) >> 8
   \   0000013C   E048               LDI     R20, 8
   \   0000013E   E050               LDI     R21, 0
   \   00000140   E320               LDI     R18, 48
   \   00000142   E030               LDI     R19, 0
   \   00000144   ....               LDI     R16, LOW(??m_axAlarmWindowControl)
   \   00000146   ....               LDI     R17, (??m_axAlarmWindowControl) >> 8
   \   00000148   ........           CALL    __near_vec_construct
   \   0000014C   ....               LDI     R16, LOW(?_28)
   \   0000014E   ....               LDI     R17, (?_28) >> 8
   \   00000150   ........           CALL    __record_needed_destruction
   \   00000154   9508               RET
   \   00000156                      REQUIRE _A_UBRR1H
   \   00000156                      REQUIRE _A_UBRR1L
   \   00000156                      REQUIRE _A_UCSR1A
   \   00000156                      REQUIRE _A_UCSR1B
   \   00000156                      REQUIRE _A_UCSR1C
   \   00000156                      REQUIRE _A_UDR1
   \   00000156                      REQUIRE _A_DDRC
   \   00000156                      REQUIRE _A_PORTC

   \                                 In  segment CODE, align 2, keep-with-next
   \                     `?<Unnamed 0>`:
   \   00000000   939A               ST      -Y, R25
   \   00000002   938A               ST      -Y, R24
   \   00000004   01C8               MOVW    R25:R24, R17:R16
   \   00000006   E022               LDI     R18, 2
   \   00000008   E030               LDI     R19, 0
   \   0000000A   018C               MOVW    R17:R16, R25:R24
   \   0000000C   ........           CALL    `?~CUart`
   \   00000010   9189               LD      R24, Y+
   \   00000012   9199               LD      R25, Y+
   \   00000014   9508               RET

   \                                 In  segment NEAR_Z, align 1, keep-with-next, root
   \   00000000                      REQUIRE `?<Segment init: NEAR_Z>`
   \                     ??m_xUart1:
   \   00000000                      DS8 47

   \                                 In  segment CODE, align 2, keep-with-next
   \                     `?<Unnamed 1>`:
   \   00000000   939A               ST      -Y, R25
   \   00000002   938A               ST      -Y, R24
   \   00000004   01C8               MOVW    R25:R24, R17:R16
   \   00000006   E022               LDI     R18, 2
   \   00000008   E030               LDI     R19, 0
   \   0000000A   018C               MOVW    R17:R16, R25:R24
   \   0000000C   ........           CALL    `?~CModbusRTU`
   \   00000010   9189               LD      R24, Y+
   \   00000012   9199               LD      R25, Y+
   \   00000014   9508               RET

   \                                 In  segment NEAR_Z, align 1, keep-with-next, root
   \   00000000                      REQUIRE `?<Segment init: NEAR_Z>`
   \                     ??m_xModbusRtuOne:
   \   00000000                      DS8 49

   \                                 In  segment CODE, align 2, keep-with-next
   \                     `?<Unnamed 2>`:
   \   00000000   939A               ST      -Y, R25
   \   00000002   938A               ST      -Y, R24
   \   00000004   01C8               MOVW    R25:R24, R17:R16
   \   00000006   E022               LDI     R18, 2
   \   00000008   E030               LDI     R19, 0
   \   0000000A   018C               MOVW    R17:R16, R25:R24
   \   0000000C   ........           CALL    `?~CMultiFunctionKey`
   \   00000010   9189               LD      R24, Y+
   \   00000012   9199               LD      R25, Y+
   \   00000014   9508               RET

   \                                 In  segment NEAR_Z, align 1, keep-with-next, root
   \   00000000                      REQUIRE `?<Segment init: NEAR_Z>`
   \                     ??m_xReceiptKey:
   \   00000000                      DS8 15

   \                                 In  segment NEAR_Z, align 1, keep-with-next, root
   \   00000000                      REQUIRE `?<Segment init: NEAR_Z>`
   \                     ??m_xResetKey:
   \   00000000                      DS8 15

   \                                 In  segment NEAR_Z, align 1, keep-with-next, root
   \   00000000                      REQUIRE `?<Segment init: NEAR_Z>`
   \                     ??m_xCheckKey:
   \   00000000                      DS8 15

   \                                 In  segment NEAR_Z, align 1, keep-with-next, root
   \   00000000                      REQUIRE `?<Segment init: NEAR_Z>`
   \                     ??m_xExternalKey:
   \   00000000                      DS8 15

   \                                 In  segment NEAR_Z, align 1, keep-with-next, root
   \   00000000                      REQUIRE `?<Segment init: NEAR_Z>`
   \                     ??m_uiPanelReceipt:
   \   00000000                      DS8 1

   \                                 In  segment NEAR_Z, align 1, keep-with-next, root
   \   00000000                      REQUIRE `?<Segment init: NEAR_Z>`
   \                     ??m_uiPanelReset:
   \   00000000                      DS8 1

   \                                 In  segment NEAR_Z, align 1, keep-with-next, root
   \   00000000                      REQUIRE `?<Segment init: NEAR_Z>`
   \                     ??m_uiExternalReceipt:
   \   00000000                      DS8 1

   \                                 In  segment NEAR_Z, align 1, keep-with-next, root
   \   00000000                      REQUIRE `?<Segment init: NEAR_Z>`
   \                     ??m_uiExternalReset:
   \   00000000                      DS8 1

   \                                 In  segment NEAR_Z, align 1, keep-with-next, root
   \   00000000                      REQUIRE `?<Segment init: NEAR_Z>`
   \                     ??m_uiModbusReceipt:
   \   00000000                      DS8 1

   \                                 In  segment NEAR_Z, align 1, keep-with-next, root
   \   00000000                      REQUIRE `?<Segment init: NEAR_Z>`
   \                     ??m_uiModbusReset:
   \   00000000                      DS8 1

   \                                 In  segment NEAR_Z, align 1, keep-with-next, root
   \   00000000                      REQUIRE `?<Segment init: NEAR_Z>`
   \                     ??m_uiDiscreteSignalsReceipt:
   \   00000000                      DS8 1

   \                                 In  segment NEAR_Z, align 1, keep-with-next, root
   \   00000000                      REQUIRE `?<Segment init: NEAR_Z>`
   \                     ??m_uiDiscreteSignalsReset:
   \   00000000                      DS8 1

   \                                 In  segment NEAR_Z, align 1, keep-with-next, root
   \   00000000                      REQUIRE `?<Segment init: NEAR_Z>`
   \                     ??m_uiErrorCode:
   \   00000000                      DS8 1

   \                                 In  segment NEAR_Z, align 1, keep-with-next, root
   \   00000000                      REQUIRE `?<Segment init: NEAR_Z>`
   \                     ??m_uiModuleIndex:
   \   00000000                      DS8 1

   \                                 In  segment CODE, align 2, keep-with-next
   \                     `?<Unnamed 3>`:
   \   00000000   939A               ST      -Y, R25
   \   00000002   938A               ST      -Y, R24
   \   00000004   01C8               MOVW    R25:R24, R17:R16
   \   00000006   E022               LDI     R18, 2
   \   00000008   E030               LDI     R19, 0
   \   0000000A   018C               MOVW    R17:R16, R25:R24
   \   0000000C   ........           CALL    `?~CEventUniteLogicAnd`
   \   00000010   9189               LD      R24, Y+
   \   00000012   9199               LD      R25, Y+
   \   00000014   9508               RET

   \                                 In  segment NEAR_Z, align 1, keep-with-next, root
   \   00000000                      REQUIRE `?<Segment init: NEAR_Z>`
   \                     ??m_xEventUniteLogicAndOne:
   \   00000000                      DS8 14

   \                                 In  segment CODE, align 2, keep-with-next
   \                     `?<Unnamed 4>`:
   \   00000000   939A               ST      -Y, R25
   \   00000002   938A               ST      -Y, R24
   \   00000004   01C8               MOVW    R25:R24, R17:R16
   \   00000006   E022               LDI     R18, 2
   \   00000008   E030               LDI     R19, 0
   \   0000000A   018C               MOVW    R17:R16, R25:R24
   \   0000000C   ........           CALL    `?~CTimer`
   \   00000010   9189               LD      R24, Y+
   \   00000012   9199               LD      R25, Y+
   \   00000014   9508               RET

   \                                 In  segment NEAR_Z, align 1, keep-with-next, root
   \   00000000                      REQUIRE `?<Segment init: NEAR_Z>`
   \                     ??m_xMainCycleTimer:
   \   00000000                      DS8 6

   \                                 In  segment CODE, align 2, keep-with-next
   \                     `?<Unnamed 5>`:
   \   00000000   939A               ST      -Y, R25
   \   00000002   938A               ST      -Y, R24
   \   00000004   01C8               MOVW    R25:R24, R17:R16
   \   00000006   E022               LDI     R18, 2
   \   00000008   E030               LDI     R19, 0
   \   0000000A   018C               MOVW    R17:R16, R25:R24
   \   0000000C   ........           CALL    `?~CPreventiveAlarmWindowNotifyerControl`
   \   00000010   9189               LD      R24, Y+
   \   00000012   9199               LD      R25, Y+
   \   00000014   9508               RET

   \                                 In  segment NEAR_Z, align 1, keep-with-next, root
   \   00000000                      REQUIRE `?<Segment init: NEAR_Z>`
   \                     ??m_xPreventiveAlarmWindowNotifyerControl:
   \   00000000                      DS8 12

   \                                 In  segment CODE, align 2, keep-with-next
   \                     `?<Unnamed 6>`:
   \   00000000   939A               ST      -Y, R25
   \   00000002   938A               ST      -Y, R24
   \   00000004   01C8               MOVW    R25:R24, R17:R16
   \   00000006   E022               LDI     R18, 2
   \   00000008   E030               LDI     R19, 0
   \   0000000A   018C               MOVW    R17:R16, R25:R24
   \   0000000C   ........           CALL    `?~CEmergencyAlarmWindowNotifyerControl`
   \   00000010   9189               LD      R24, Y+
   \   00000012   9199               LD      R25, Y+
   \   00000014   9508               RET

   \                                 In  segment NEAR_Z, align 1, keep-with-next, root
   \   00000000                      REQUIRE `?<Segment init: NEAR_Z>`
   \                     ??m_xEmergencyAlarmWindowNotifyerControl:
   \   00000000                      DS8 12

   \                                 In  segment CODE, align 2, keep-with-next
   \                     `?<Unnamed 7>`:
   \   00000000   939A               ST      -Y, R25
   \   00000002   938A               ST      -Y, R24
   \   00000004   01C8               MOVW    R25:R24, R17:R16
   \   00000006   E022               LDI     R18, 2
   \   00000008   E030               LDI     R19, 0
   \   0000000A   018C               MOVW    R17:R16, R25:R24
   \   0000000C   ........           CALL    `?~CStatusLedNotifyerControl`
   \   00000010   9189               LD      R24, Y+
   \   00000012   9199               LD      R25, Y+
   \   00000014   9508               RET

   \                                 In  segment NEAR_Z, align 1, keep-with-next, root
   \   00000000                      REQUIRE `?<Segment init: NEAR_Z>`
   \                     ??m_xStatusLedNotifyerControl:
   \   00000000                      DS8 12

   \                                 In  segment CODE, align 2, keep-with-next
   \                     `?<Unnamed 8>`:
   \   00000000   939A               ST      -Y, R25
   \   00000002   938A               ST      -Y, R24
   \   00000004   01C8               MOVW    R25:R24, R17:R16
   \   00000006   E022               LDI     R18, 2
   \   00000008   E030               LDI     R19, 0
   \   0000000A   018C               MOVW    R17:R16, R25:R24
   \   0000000C   ........           CALL    `?~CBuzzerNotifyerControl`
   \   00000010   9189               LD      R24, Y+
   \   00000012   9199               LD      R25, Y+
   \   00000014   9508               RET

   \                                 In  segment NEAR_Z, align 1, keep-with-next, root
   \   00000000                      REQUIRE `?<Segment init: NEAR_Z>`
   \                     ??m_xBuzzerNotifyerControl:
   \   00000000                      DS8 12

   \                                 In  segment CODE, align 2, keep-with-next
   \                     `?<Unnamed 9>`:
   \   00000000   939A               ST      -Y, R25
   \   00000002   938A               ST      -Y, R24
   \   00000004   01C8               MOVW    R25:R24, R17:R16
   \   00000006   E022               LDI     R18, 2
   \   00000008   E030               LDI     R19, 0
   \   0000000A   018C               MOVW    R17:R16, R25:R24
   \   0000000C   ........           CALL    `?~CTestModeNotifyerControl`
   \   00000010   9189               LD      R24, Y+
   \   00000012   9199               LD      R25, Y+
   \   00000014   9508               RET

   \                                 In  segment NEAR_Z, align 1, keep-with-next, root
   \   00000000                      REQUIRE `?<Segment init: NEAR_Z>`
   \                     ??m_xTestModeNotifyerControl:
   \   00000000                      DS8 12

   \                                 In  segment CODE, align 2, keep-with-next
   \                     `?<Unnamed 10>`:
   \   00000000   939A               ST      -Y, R25
   \   00000002   938A               ST      -Y, R24
   \   00000004   01C8               MOVW    R25:R24, R17:R16
   \   00000006   E022               LDI     R18, 2
   \   00000008   E030               LDI     R19, 0
   \   0000000A   018C               MOVW    R17:R16, R25:R24
   \   0000000C   ........           CALL    `?~CModbusRtuLinkControl`
   \   00000010   9189               LD      R24, Y+
   \   00000012   9199               LD      R25, Y+
   \   00000014   9508               RET

   \                                 In  segment NEAR_Z, align 1, keep-with-next, root
   \   00000000                      REQUIRE `?<Segment init: NEAR_Z>`
   \                     ??m_xModbusRtuLinkControl:
   \   00000000                      DS8 11

   \                                 In  segment NEAR_Z, align 1, keep-with-next, root
   \   00000000                      REQUIRE `?<Segment init: NEAR_Z>`
   \                     ??m_uiCommonAlarmType:
   \   00000000                      DS8 1

   \                                 In  segment NEAR_Z, align 1, keep-with-next, root
   \   00000000                      REQUIRE `?<Segment init: NEAR_Z>`
   \                     ??m_uiCommonAlarmTypePrevious:
   \   00000000                      DS8 1

   \                                 In  segment NEAR_Z, align 1, keep-with-next, root
   \   00000000                      REQUIRE `?<Segment init: NEAR_Z>`
   \                     ??m_xDeviceConfigSearch:
   \   00000000                      DS8 9

   \                                 In  segment NEAR_Z, align 1, keep-with-next, root
   \   00000000                      REQUIRE `?<Segment init: NEAR_Z>`
   \                     ??m_xDeviceConfiguration:
   \   00000000                      DS8 20

   \                                 In  segment NEAR_Z, align 1, keep-with-next, root
   \   00000000                      REQUIRE `?<Segment init: NEAR_Z>`
   \                     ??m_xDeviceState:
   \   00000000                      DS8 8

   \                                 In  segment NEAR_Z, align 1, keep-with-next, root
   \   00000000                      REQUIRE `?<Segment init: NEAR_Z>`
   \                     ??m_xModbusSettings:
   \   00000000                      DS8 7

   \                                 In  segment NEAR_Z, align 1, keep-with-next, root
   \   00000000                      REQUIRE `?<Segment init: NEAR_Z>`
   \                     ??m_apxAlarmDfa:
   \   00000000                      DS8 192

   \                                 In  segment NEAR_Z, align 1, keep-with-next, root
   \   00000000                      REQUIRE `?<Segment init: NEAR_Z>`
   \                     ??m_apxErrorAlarmDfa:
   \   00000000                      DS8 4

   \                                 In  segment NEAR_Z, align 1, keep-with-next, root
   \   00000000                      REQUIRE `?<Segment init: NEAR_Z>`
   \                     ??m_auiErrorAlarmDataArray:
   \   00000000                      DS8 2

   \                                 In  segment NEAR_Z, align 1, keep-with-next, root
   \   00000000                      REQUIRE `?<Segment init: NEAR_Z>`
   \                     ??m_axDiscreteOutputControl:
   \   00000000                      DS8 16

   \                                 In  segment NEAR_Z, align 1, keep-with-next, root
   \   00000000                      REQUIRE `?<Segment init: NEAR_Z>`
   \                     ??m_xDiscreteOutputDataBase:
   \   00000000                      DS8 24

   \                                 In  segment CODE, align 2, keep-with-next
   \                     `?<Unnamed 12>`:
   \   00000000   939A               ST      -Y, R25
   \   00000002   938A               ST      -Y, R24
   \   00000004   01C8               MOVW    R25:R24, R17:R16
   \   00000006   E022               LDI     R18, 2
   \   00000008   E030               LDI     R19, 0
   \   0000000A   018C               MOVW    R17:R16, R25:R24
   \   0000000C   ........           CALL    `?~CAlarmWindow`
   \   00000010   9189               LD      R24, Y+
   \   00000012   9199               LD      R25, Y+
   \   00000014   9508               RET

   \                                 In  segment NEAR_Z, align 1, keep-with-next, root
   \   00000000                      REQUIRE `?<Segment init: NEAR_Z>`
   \                     ??m_axAlarmWindowControl:
   \   00000000                      DS8 384
     92          

   \                                 In  segment NEAR_Z, align 1, keep-with-next, root
   \   00000000                      REQUIRE `?<Segment init: NEAR_Z>`
     93          uint8_t CPss21::m_aucDiscreteInputsBadState[];
   \                     ??m_aucDiscreteInputsBadState:
   \   00000000                      DS8 48
     94          

   \                                 In  segment NEAR_F, align 1, keep-with-next, root
     95          __flash uint8_t CPss21::m_auiErrorLedOn[] =
   \                     ??m_auiErrorLedOn:
   \   00000000   010101010101       DC8 1, 1, 1, 1, 1, 1, 1, 1, 1, 0, 0, 0, 0, 0, 0, 1, 1, 0, 0, 0, 0, 0, 0
   \              010100010000
   \              000001000001
   \              0000000000  
   \   00000017   010100000000       DC8 1, 1, 0, 0, 0, 0, 0, 0, 1, 1, 0, 0, 0, 0, 0, 0, 1, 1, 1, 1, 1, 1, 1
   \              000001010000
   \              000000000101
   \              0101010101  
   \   0000002E   0101               DC8 1, 1
     96          {
     97              1, 1, 1, 1,    1, 1, 1, 1,
     98              1, 0, 0, 0,    0, 0, 0, 1,
     99              1, 0, 0, 0,    0, 0, 0, 1,
    100              1, 0, 0, 0,    0, 0, 0, 1,
    101              1, 0, 0, 0,    0, 0, 0, 1,
    102              1, 1, 1, 1,    1, 1, 1, 1,
    103          };
    104          
    105          ////-----------------------------------------------------------------------------------------------------
    106          //CPss21::CPss21(uint8_t uiType, CDriver* pxDriver)// :
    107          ////    m_uiType(uiType),
    108          ////    m_pxDriver(pxDriver)
    109          //{
    110          //
    111          //}
    112          //
    113          ////-----------------------------------------------------------------------------------------------------
    114          //CPss21::~CPss21()
    115          //{
    116          //
    117          //}
    118          
    119          //-----------------------------------------------------------------------------------------------------

   \                                 In  segment CODE, align 2, keep-with-next
    120          void CPss21::ModbusInit(void)
   \                     ??ModbusInit:
    121          {
    122              CPlatform::m_pxUart1 = &m_xUart1;
   \   00000000   ....               LDI     R16, LOW(??m_xUart1)
   \   00000002   ....               LDI     R17, (??m_xUart1) >> 8
   \   00000004   ....               LDI     R30, LOW(??m_pxUart1)
   \   00000006   ....               LDI     R31, (??m_pxUart1) >> 8
   \   00000008   8300               ST      Z, R16
   \   0000000A   8311               STD     Z+1, R17
    123              m_xModbusRtuOne.Init(CPlatform::m_pxUart1,
    124                                   static_cast<uint32_t>((F_CPU / ((CPss21::m_xModbusSettings.BaudRate) + 1)) / 16UL),
    125                                   'N',
    126                                   8,
    127                                   1,
    128                                   CPss21::m_auiReceiveMessageBuff,
    129                                   CPss21::m_auiReceiveMessageBuff,//reinterpret_cast<uint8_t*>(CPss21::m_aucRtuHoldingRegistersArray),//m_auiTransmitMessageBuff,//
    130                                   CPss21::m_aucRtuDiscreteDataArray,//CPss21::m_aucRtuCoilsArray,
    131                                   CPss21::m_aucRtuDiscreteDataArray,//CPss21::m_aucRtuDiscreteInputsArray,
    132                                   CPss21::m_aucRtuHoldingRegistersArray,
    133                                   CPss21::m_aucRtuInputRegistersArray,
    134                                   DISCRETE_DATA_ARRAY_LENGTH,
    135                                   DISCRETE_DATA_ARRAY_LENGTH,
    136                                   HOLDING_REGISTERS_ARRAY_LENGTH,
    137                                   INPUT_REGISTERS_ARRAY_LENGTH);
   \   0000000C   E008               LDI     R16, 8
   \   0000000E   E010               LDI     R17, 0
   \   00000010   931A               ST      -Y, R17
   \   00000012   930A               ST      -Y, R16
   \   00000014   E008               LDI     R16, 8
   \   00000016   E010               LDI     R17, 0
   \   00000018   931A               ST      -Y, R17
   \   0000001A   930A               ST      -Y, R16
   \   0000001C   E708               LDI     R16, 120
   \   0000001E   E010               LDI     R17, 0
   \   00000020   931A               ST      -Y, R17
   \   00000022   930A               ST      -Y, R16
   \   00000024   E708               LDI     R16, 120
   \   00000026   E010               LDI     R17, 0
   \   00000028   931A               ST      -Y, R17
   \   0000002A   930A               ST      -Y, R16
   \   0000002C   ....               LDI     R16, LOW(??m_aucRtuInputRegistersArray)
   \   0000002E   ....               LDI     R17, (??m_aucRtuInputRegistersArray) >> 8
   \   00000030   931A               ST      -Y, R17
   \   00000032   930A               ST      -Y, R16
   \   00000034   ....               LDI     R16, LOW(??m_aucRtuHoldingRegistersArray)
   \   00000036   ....               LDI     R17, (??m_aucRtuHoldingRegistersArray) >> 8
   \   00000038   931A               ST      -Y, R17
   \   0000003A   930A               ST      -Y, R16
   \   0000003C   ....               LDI     R16, LOW(??m_aucRtuDiscreteDataArray)
   \   0000003E   ....               LDI     R17, (??m_aucRtuDiscreteDataArray) >> 8
   \   00000040   931A               ST      -Y, R17
   \   00000042   930A               ST      -Y, R16
   \   00000044   ....               LDI     R16, LOW(??m_aucRtuDiscreteDataArray)
   \   00000046   ....               LDI     R17, (??m_aucRtuDiscreteDataArray) >> 8
   \   00000048   931A               ST      -Y, R17
   \   0000004A   930A               ST      -Y, R16
   \   0000004C   ....               LDI     R16, LOW(??m_auiReceiveMessageBuff)
   \   0000004E   ....               LDI     R17, (??m_auiReceiveMessageBuff) >> 8
   \   00000050   931A               ST      -Y, R17
   \   00000052   930A               ST      -Y, R16
   \   00000054   ....               LDI     R16, LOW(??m_auiReceiveMessageBuff)
   \   00000056   ....               LDI     R17, (??m_auiReceiveMessageBuff) >> 8
   \   00000058   931A               ST      -Y, R17
   \   0000005A   930A               ST      -Y, R16
   \   0000005C   E001               LDI     R16, 1
   \   0000005E   930A               ST      -Y, R16
   \   00000060   E008               LDI     R16, 8
   \   00000062   930A               ST      -Y, R16
   \   00000064   E40E               LDI     R16, 78
   \   00000066   930A               ST      -Y, R16
   \   00000068   9140....           LDS     R20, (??m_xModbusSettings + 1)
   \   0000006C   E050               LDI     R21, 0
   \   0000006E   5F4F               SUBI    R20, 255
   \   00000070   4F5F               SBCI    R21, 255
   \   00000072   2F65               MOV     R22, R21
   \   00000074   0F66               LSL     R22
   \   00000076   0B66               SBC     R22, R22
   \   00000078   2F76               MOV     R23, R22
   \   0000007A   E000               LDI     R16, 0
   \   0000007C   E810               LDI     R17, 128
   \   0000007E   E720               LDI     R18, 112
   \   00000080   E030               LDI     R19, 0
   \   00000082   ........           CALL    ?UL_DIVMOD_L03
   \   00000086   E044               LDI     R20, 4
   \   00000088   ........           CALL    ?UL_SHR_L03
   \   0000008C   01A8               MOVW    R21:R20, R17:R16
   \   0000008E   01B9               MOVW    R23:R22, R19:R18
   \   00000090   ....               LDI     R30, LOW(??m_pxUart1)
   \   00000092   ....               LDI     R31, (??m_pxUart1) >> 8
   \   00000094   8120               LD      R18, Z
   \   00000096   8131               LDD     R19, Z+1
   \   00000098   ....               LDI     R16, LOW(??m_xModbusRtuOne)
   \   0000009A   ....               LDI     R17, (??m_xModbusRtuOne) >> 8
   \   0000009C   ........           CALL    ??Init_1
    138              m_xModbusRtuOne.SlaveSet(CPss21::m_xModbusSettings.NetAddress);
   \   000000A0   9120....           LDS     R18, ??m_xModbusSettings
   \   000000A4   ....               LDI     R30, LOW(??m_xModbusRtuOne)
   \   000000A6   ....               LDI     R31, (??m_xModbusRtuOne) >> 8
   \   000000A8   8505               LDD     R16, Z+13
   \   000000AA   8516               LDD     R17, Z+14
   \   000000AC   ........           CALL    ??SlaveSet
    139              m_xModbusRtuOne.SetFsmState(CModbus::START_SLAVE);
   \   000000B0   E022               LDI     R18, 2
   \   000000B2   ....               LDI     R30, LOW(??m_xModbusRtuOne)
   \   000000B4   ....               LDI     R31, (??m_xModbusRtuOne) >> 8
   \   000000B6   8505               LDD     R16, Z+13
   \   000000B8   8516               LDD     R17, Z+14
   \   000000BA   ........           CALL    ??SetFsmState
    140          }
   \   000000BE   9508               RET
    141          
    142          //-----------------------------------------------------------------------------------------------------

   \                                 In  segment CODE, align 2, keep-with-next
    143          void CPss21::ModbusDefaultInit(void)
   \                     ??ModbusDefaultInit:
    144          {
    145              CPss21::m_xModbusSettings.NetAddress = 1;
   \   00000000   E001               LDI     R16, 1
   \   00000002   9300....           STS     ??m_xModbusSettings, R16
    146              // 9600 baud.
    147              CPss21::m_xModbusSettings.BaudRate = 47;
   \   00000006   E20F               LDI     R16, 47
   \   00000008   9300....           STS     (??m_xModbusSettings + 1), R16
    148              //   .
    149              CPss21::m_xModbusSettings.LinkParam = 0x08;
   \   0000000C   E008               LDI     R16, 8
   \   0000000E   9300....           STS     (??m_xModbusSettings + 2), R16
    150          
    151              ModbusInit();
   \   00000012   ....               RCALL   ??ModbusInit
    152          }
   \   00000014   9508               RET
    153          
    154          //-----------------------------------------------------------------------------------------------------

   \                                 In  segment CODE, align 2, keep-with-next
    155          void CPss21::Init(void)
   \                     ??Init:
    156          {
    157              CLightBoard::Init(m_axAlarmWindowControl);
   \   00000000   ....               LDI     R16, LOW(??m_axAlarmWindowControl)
   \   00000002   ....               LDI     R17, (??m_axAlarmWindowControl) >> 8
   \   00000004   ........           CALL    ??Init_2
    158              m_uiCommonAlarmType = NORMAL;
   \   00000008   E000               LDI     R16, 0
   \   0000000A   9300....           STS     ??m_uiCommonAlarmType, R16
    159              m_uiCommonAlarmTypePrevious = NORMAL;
   \   0000000E   E000               LDI     R16, 0
   \   00000010   9300....           STS     ??m_uiCommonAlarmTypePrevious, R16
    160              SetErrorCode(0);
   \   00000014   E000               LDI     R16, 0
   \   00000016   ........           CALL    ??SetErrorCode
    161              //   .
    162              memset(CPss21::m_auiErrorAlarmDataArray, 0, HANDLED_ERROR_NUMBER);
   \   0000001A   E042               LDI     R20, 2
   \   0000001C   E050               LDI     R21, 0
   \   0000001E   E020               LDI     R18, 0
   \   00000020   E030               LDI     R19, 0
   \   00000022   ....               LDI     R16, LOW(??m_auiErrorAlarmDataArray)
   \   00000024   ....               LDI     R17, (??m_auiErrorAlarmDataArray) >> 8
   \   00000026   ........           CALL    memset
    163              CPss21::AllAlarmWindowOff();
   \   0000002A   ....               RCALL   ??AllAlarmWindowOff
    164          }
   \   0000002C   9508               RET
    165          
    166          //-----------------------------------------------------------------------------------------------------

   \                                 In  segment CODE, align 2, keep-with-next
    167          void CPss21::AddressBusInit(void)
   \                     ??AddressBusInit:
    168          {
    169              CPlatform::SpiSlaveSelectAddress0SetPinOutput();
   \   00000000   ........           CALL    ??SpiSlaveSelectAddress0SetPinOutput
    170              CPlatform::SpiSlaveSelectAddress1SetPinOutput();
   \   00000004   ........           CALL    ??SpiSlaveSelectAddress1SetPinOutput
    171              CPlatform::SpiSlaveSelectAddress2SetPinOutput();
   \   00000008   ........           CALL    ??SpiSlaveSelectAddress2SetPinOutput
    172              CPlatform::SpiSlaveSelectAddress3SetPinOutput();
   \   0000000C   ........           CALL    ??SpiSlaveSelectAddress3SetPinOutput
    173              CPlatform::SpiSlaveSelectEnableSetPinOutput();
   \   00000010   ........           CALL    ??SpiSlaveSelectEnableSetPinOutput
    174              CPlatform::SpiSlaveSelectAddress0On();
   \   00000014   ........           CALL    ??SpiSlaveSelectAddress0On
    175              CPlatform::SpiSlaveSelectAddress1On();
   \   00000018   ........           CALL    ??SpiSlaveSelectAddress1On
    176              CPlatform::SpiSlaveSelectAddress2On();
   \   0000001C   ........           CALL    ??SpiSlaveSelectAddress2On
    177              CPlatform::SpiSlaveSelectAddress3On();
   \   00000020   ........           CALL    ??SpiSlaveSelectAddress3On
    178              CPlatform::SpiSlaveSelectEnableOff();
   \   00000024   ........           CALL    ??SpiSlaveSelectEnableOff
    179          };
   \   00000028   9508               RET
    180          
    181          //-----------------------------------------------------------------------------------------------------

   \                                 In  segment CODE, align 2, keep-with-next
    182          void CPss21::ConnectDevice(uint8_t uiAddress)
   \                     ??ConnectDevice:
    183          {
   \   00000000   938A               ST      -Y, R24
   \   00000002   2F80               MOV     R24, R16
    184              uiAddress &= 0x0F;
   \   00000004   708F               ANDI    R24, 0x0F
    185          
    186              if (uiAddress &  BIT(0))
   \   00000006   FB80               BST     R24, 0
   \   00000008   F41E               BRTC    ??ConnectDevice_1
    187              {
    188                  CPlatform::SpiSlaveSelectAddress0Off();
   \   0000000A   ........           CALL    ??SpiSlaveSelectAddress0Off
   \   0000000E   C002               RJMP    ??ConnectDevice_2
    189              }
    190              else
    191              {
    192                  CPlatform::SpiSlaveSelectAddress0On();
   \                     ??ConnectDevice_1:
   \   00000010   ........           CALL    ??SpiSlaveSelectAddress0On
    193              }
    194              if (uiAddress &  BIT(1))
   \                     ??ConnectDevice_2:
   \   00000014   FB81               BST     R24, 1
   \   00000016   F41E               BRTC    ??ConnectDevice_3
    195              {
    196                  CPlatform::SpiSlaveSelectAddress1Off();
   \   00000018   ........           CALL    ??SpiSlaveSelectAddress1Off
   \   0000001C   C002               RJMP    ??ConnectDevice_4
    197              }
    198              else
    199              {
    200                  CPlatform::SpiSlaveSelectAddress1On();
   \                     ??ConnectDevice_3:
   \   0000001E   ........           CALL    ??SpiSlaveSelectAddress1On
    201              }
    202              if (uiAddress &  BIT(2))
   \                     ??ConnectDevice_4:
   \   00000022   FB82               BST     R24, 2
   \   00000024   F41E               BRTC    ??ConnectDevice_5
    203              {
    204                  CPlatform::SpiSlaveSelectAddress2Off();
   \   00000026   ........           CALL    ??SpiSlaveSelectAddress2Off
   \   0000002A   C002               RJMP    ??ConnectDevice_6
    205              }
    206              else
    207              {
    208                  CPlatform::SpiSlaveSelectAddress2On();
   \                     ??ConnectDevice_5:
   \   0000002C   ........           CALL    ??SpiSlaveSelectAddress2On
    209              }
    210              if (uiAddress &  BIT(3))
   \                     ??ConnectDevice_6:
   \   00000030   FB83               BST     R24, 3
   \   00000032   F41E               BRTC    ??ConnectDevice_7
    211              {
    212                  CPlatform::SpiSlaveSelectAddress3Off();
   \   00000034   ........           CALL    ??SpiSlaveSelectAddress3Off
   \   00000038   C002               RJMP    ??ConnectDevice_8
    213              }
    214              else
    215              {
    216                  CPlatform::SpiSlaveSelectAddress3On();
   \                     ??ConnectDevice_7:
   \   0000003A   ........           CALL    ??SpiSlaveSelectAddress3On
    217              }
    218          
    219              CPlatform::SpiSlaveSelectEnableOn();
   \                     ??ConnectDevice_8:
   \   0000003E   ........           CALL    ??SpiSlaveSelectEnableOn
    220              CSpi::Enable();
   \   00000042   ........           CALL    ??Enable
    221          };
   \   00000046   9189               LD      R24, Y+
   \   00000048   9508               RET
    222          
    223          //-----------------------------------------------------------------------------------------------------

   \                                 In  segment CODE, align 2, keep-with-next
    224          void CPss21::DisconnectDevice(void)
   \                     ??DisconnectDevice:
    225          {
    226              CSpi::Disable();
   \   00000000   ........           CALL    ??Disable
    227              CPlatform::SpiSlaveSelectEnableOff();
   \   00000004   ........           CALL    ??SpiSlaveSelectEnableOff
    228              CPlatform::SpiSlaveSelectAddress0Off();
   \   00000008   ........           CALL    ??SpiSlaveSelectAddress0Off
    229              CPlatform::SpiSlaveSelectAddress1Off();
   \   0000000C   ........           CALL    ??SpiSlaveSelectAddress1Off
    230              CPlatform::SpiSlaveSelectAddress2Off();
   \   00000010   ........           CALL    ??SpiSlaveSelectAddress2Off
    231              CPlatform::SpiSlaveSelectAddress3Off();
   \   00000014   ........           CALL    ??SpiSlaveSelectAddress3Off
    232          };
   \   00000018   9508               RET
    233          
    234          //-----------------------------------------------------------------------------------------------------

   \                                 In  segment CODE, align 2, keep-with-next
    235          void CPss21::SearchModules(void)
   \                     ??SearchModules:
    236          {
   \   00000000   939A               ST      -Y, R25
   \   00000002   938A               ST      -Y, R24
    237              delay_ms(500);
   \   00000004   EF04               LDI     R16, 244
   \   00000006   E011               LDI     R17, 1
   \   00000008   ........           CALL    ??delay_ms
    238              CPlatform::WatchdogReset();
   \   0000000C   ........           CALL    ??WatchdogReset
    239          
    240              memset(reinterpret_cast<uint8_t*>(&m_xDeviceConfigSearch),
    241                     0,
    242                     sizeof(struct TConfigDataPackOne));
   \   00000010   E049               LDI     R20, 9
   \   00000012   E050               LDI     R21, 0
   \   00000014   E020               LDI     R18, 0
   \   00000016   E030               LDI     R19, 0
   \   00000018   ....               LDI     R16, LOW(??m_xDeviceConfigSearch)
   \   0000001A   ....               LDI     R17, (??m_xDeviceConfigSearch) >> 8
   \   0000001C   ........           CALL    memset
    243          
    244              //   SPI.   ?
    245              for (uint8_t i = 0; i < SPI_MAX_BUS_ADDRESS; i++)
   \   00000020   E090               LDI     R25, 0
   \                     ??SearchModules_1:
   \   00000022   3190               CPI     R25, 16
   \   00000024   F008               BRCS    $+2+2
   \   00000026   C04D               RJMP    ??SearchModules_2
    246              {
    247                  //     MODULE_REQUEST_QUANTITY ,
    248                  //      .
    249                  for (uint8_t j = 0; j < MODULE_REQUEST_QUANTITY; j++)
   \   00000028   E080               LDI     R24, 0
   \                     ??SearchModules_3:
   \   0000002A   3085               CPI     R24, 5
   \   0000002C   F008               BRCS    $+2+2
   \   0000002E   C047               RJMP    ??SearchModules_4
    250                  {
    251                      CPlatform::WatchdogReset();
   \   00000030   ........           CALL    ??WatchdogReset
    252                      delay_ms(5);
   \   00000034   E005               LDI     R16, 5
   \   00000036   E010               LDI     R17, 0
   \   00000038   ........           CALL    ??delay_ms
    253          
    254                      m_auiSpiTxBuffer[0] = GET_MODULE_TYPE_COMMAND;
   \   0000003C   E901               LDI     R16, 145
   \   0000003E   9300....           STS     ??m_auiSpiTxBuffer, R16
    255                      ConnectDevice(i);
   \   00000042   2F09               MOV     R16, R25
   \   00000044   ....               RCALL   ??ConnectDevice
    256                      delay_us(500);
   \   00000046   E60A               LDI     R16, 106
   \   00000048   E013               LDI     R17, 3
   \   0000004A   5001               SUBI    R16, 1
   \   0000004C   4010               SBCI    R17, 0
   \   0000004E   F7E9               BRNE    $-4
   \   00000050   C000               RJMP    $+2
   \   00000052   0000               NOP
    257                      CSpi::Exchange(m_auiSpiRxBuffer,
    258                                     m_auiSpiTxBuffer,
    259                                     GET_MODULE_TYPE_REQUEST_LENGTH);
   \   00000054   E044               LDI     R20, 4
   \   00000056   E050               LDI     R21, 0
   \   00000058   ....               LDI     R18, LOW(??m_auiSpiTxBuffer)
   \   0000005A   ....               LDI     R19, (??m_auiSpiTxBuffer) >> 8
   \   0000005C   ....               LDI     R16, LOW(??m_auiSpiRxBuffer)
   \   0000005E   ....               LDI     R17, (??m_auiSpiRxBuffer) >> 8
   \   00000060   ........           CALL    ??Exchange
    260                      DisconnectDevice();
   \   00000064   ....               RCALL   ??DisconnectDevice
    261          
    262                      //  ?
    263                      if (m_auiSpiRxBuffer[SPI_COMMAND_BYTE_OFFSET] ==
    264                              GET_MODULE_TYPE_COMMAND)
   \   00000066   9100....           LDS     R16, (??m_auiSpiRxBuffer + 1)
   \   0000006A   3901               CPI     R16, 145
   \   0000006C   F531               BRNE    ??SearchModules_5
    265                      {
    266                          //     ?
    267                          if (iCrcSummOneByteCompare(&m_auiSpiRxBuffer[SPI_COMMAND_BYTE_OFFSET], 2))
   \   0000006E   E022               LDI     R18, 2
   \   00000070   E030               LDI     R19, 0
   \   00000072   ....               LDI     R16, LOW((??m_auiSpiRxBuffer + 1))
   \   00000074   ....               LDI     R17, HIGH((??m_auiSpiRxBuffer + 1))
   \   00000076   ........           CALL    ??iCrcSummOneByteCompare
   \   0000007A   2B01               OR      R16, R17
   \   0000007C   F0F1               BREQ    ??SearchModules_5
    268                          {
    269                              //             SPI.
    270                              m_xDeviceConfigSearch.axModulesContext[m_xDeviceConfigSearch.uiModulesQuantity].uiType =
    271                                  m_auiSpiRxBuffer[MODULE_TYPE_OFFSET];
   \   0000007E   9120....           LDS     R18, (??m_auiSpiRxBuffer + 2)
   \   00000082   9100....           LDS     R16, ??m_xDeviceConfigSearch
   \   00000086   E010               LDI     R17, 0
   \   00000088   0F00               LSL     R16
   \   0000008A   1F11               ROL     R17
   \   0000008C   01F8               MOVW    R31:R30, R17:R16
   \   0000008E   ....               SUBI    R30, LOW((-(??m_xDeviceConfigSearch) & 0xFFFF))
   \   00000090   ....               SBCI    R31, (-(??m_xDeviceConfigSearch) & 0xFFFF) >> 8
   \   00000092   8321               STD     Z+1, R18
    272                              //             SPI.
    273                              m_xDeviceConfigSearch.axModulesContext[m_xDeviceConfigSearch.uiModulesQuantity].uiAddress = i;
   \   00000094   9100....           LDS     R16, ??m_xDeviceConfigSearch
   \   00000098   E010               LDI     R17, 0
   \   0000009A   0F00               LSL     R16
   \   0000009C   1F11               ROL     R17
   \   0000009E   01F8               MOVW    R31:R30, R17:R16
   \   000000A0   ....               SUBI    R30, LOW((-(??m_xDeviceConfigSearch) & 0xFFFF))
   \   000000A2   ....               SBCI    R31, (-(??m_xDeviceConfigSearch) & 0xFFFF) >> 8
   \   000000A4   8392               STD     Z+2, R25
    274                              //  .    -
    275                              //     .
    276                              (m_xDeviceConfigSearch.uiModulesQuantity)++;
   \   000000A6   9100....           LDS     R16, ??m_xDeviceConfigSearch
   \   000000AA   9503               INC     R16
   \   000000AC   9300....           STS     ??m_xDeviceConfigSearch, R16
    277          
    278                              if (m_xDeviceConfigSearch.uiModulesQuantity >=
    279                                      INTERNAL_MODULE_QUANTITY)
   \   000000B0   9100....           LDS     R16, ??m_xDeviceConfigSearch
   \   000000B4   3003               CPI     R16, 3
   \   000000B6   F018               BRCS    ??SearchModules_4
    280                              {
    281                                  return;
   \   000000B8   C018               RJMP    ??SearchModules_6
    282                              }
    283                              //     .
    284                              break;
    285                          }
    286                      }
    287                  }
   \                     ??SearchModules_5:
   \   000000BA   9583               INC     R24
   \   000000BC   CFB6               RJMP    ??SearchModules_3
    288              }
   \                     ??SearchModules_4:
   \   000000BE   9593               INC     R25
   \   000000C0   CFB0               RJMP    ??SearchModules_1
    289          
    290              if(m_xDeviceConfiguration.FixConfig)
   \                     ??SearchModules_2:
   \   000000C2   ....               LDI     R30, LOW(??m_xDeviceConfiguration)
   \   000000C4   ....               LDI     R31, (??m_xDeviceConfiguration) >> 8
   \   000000C6   8103               LDD     R16, Z+3
   \   000000C8   FF00               SBRS    R16, 0
   \   000000CA   C00F               RJMP    ??SearchModules_6
    291              {
    292                  //       ?
    293                  if((m_xDeviceConfiguration.ICount != m_xDeviceConfigSearch.uiDiscreteInputQuantity) ||
    294                          (m_xDeviceConfiguration.OCount != m_xDeviceConfigSearch.uiDiscreteOutputQuantity))
   \   000000CC   9100....           LDS     R16, ??m_xDeviceConfiguration
   \   000000D0   9110....           LDS     R17, (??m_xDeviceConfigSearch + 8)
   \   000000D4   1701               CP      R16, R17
   \   000000D6   F431               BRNE    ??SearchModules_7
   \   000000D8   9100....           LDS     R16, (??m_xDeviceConfiguration + 1)
   \   000000DC   9110....           LDS     R17, (??m_xDeviceConfigSearch + 7)
   \   000000E0   1701               CP      R16, R17
   \   000000E2   F019               BREQ    ??SearchModules_6
    295                  {
    296                      SetErrorCode(CFG_ERROR);
   \                     ??SearchModules_7:
   \   000000E4   E003               LDI     R16, 3
   \   000000E6   ........           CALL    ??SetErrorCode
    297                  }
    298              }
    299          };
   \                     ??SearchModules_6:
   \   000000EA   9189               LD      R24, Y+
   \   000000EC   9199               LD      R25, Y+
   \   000000EE   9508               RET
    300          
    301          //-----------------------------------------------------------------------------------------------------

   \                                 In  segment CODE, align 2, keep-with-next
    302          void CPss21::InitAllocationContext(TMemoryAllocationContext &xMemoryAllocationContext)
   \                     ??InitAllocationContext:
    303          {
    304              //          .
    305          
    306              xMemoryAllocationContext.puiRxBuffer = m_auiSpiRxBuffer;
   \   00000000   ....               LDI     R18, LOW(??m_auiSpiRxBuffer)
   \   00000002   ....               LDI     R19, (??m_auiSpiRxBuffer) >> 8
   \   00000004   01F8               MOVW    R31:R30, R17:R16
   \   00000006   8321               STD     Z+1, R18
   \   00000008   8332               STD     Z+2, R19
    307              xMemoryAllocationContext.puiTxBuffer = m_auiSpiTxBuffer;
   \   0000000A   ....               LDI     R18, LOW(??m_auiSpiTxBuffer)
   \   0000000C   ....               LDI     R19, (??m_auiSpiTxBuffer) >> 8
   \   0000000E   01F8               MOVW    R31:R30, R17:R16
   \   00000010   8323               STD     Z+3, R18
   \   00000012   8334               STD     Z+4, R19
    308              xMemoryAllocationContext.puiErrorCode = &m_uiErrorCode;
   \   00000014   ....               LDI     R18, LOW(??m_uiErrorCode)
   \   00000016   ....               LDI     R19, (??m_uiErrorCode) >> 8
   \   00000018   01F8               MOVW    R31:R30, R17:R16
   \   0000001A   8325               STD     Z+5, R18
   \   0000001C   8336               STD     Z+6, R19
    309          
    310              //     .
    311              xMemoryAllocationContext.uiUsedDiscreteInputs = 0;
   \   0000001E   01F8               MOVW    R31:R30, R17:R16
   \   00000020   E020               LDI     R18, 0
   \   00000022   8721               STD     Z+9, R18
    312              //       .
    313              xMemoryAllocationContext.puiDiscreteInputs =
    314                  &m_aucRtuDiscreteDataArray[DISCRETE_INPUTS_BIT_ARRAY_OFFSET];
   \   00000024   ....               LDI     R18, LOW((??m_aucRtuDiscreteDataArray + 16))
   \   00000026   ....               LDI     R19, HIGH((??m_aucRtuDiscreteDataArray + 16))
   \   00000028   01F8               MOVW    R31:R30, R17:R16
   \   0000002A   8327               STD     Z+7, R18
   \   0000002C   8730               STD     Z+8, R19
    315          
    316              //     .
    317              xMemoryAllocationContext.uiUsedDiscreteInputsBadState = 0;
   \   0000002E   01F8               MOVW    R31:R30, R17:R16
   \   00000030   E020               LDI     R18, 0
   \   00000032   8724               STD     Z+12, R18
    318              //        .
    319              xMemoryAllocationContext.puiDiscreteInputsBadState =
    320                  &m_aucDiscreteInputsBadState[0];
   \   00000034   ....               LDI     R18, LOW(??m_aucDiscreteInputsBadState)
   \   00000036   ....               LDI     R19, (??m_aucDiscreteInputsBadState) >> 8
   \   00000038   01F8               MOVW    R31:R30, R17:R16
   \   0000003A   8722               STD     Z+10, R18
   \   0000003C   8733               STD     Z+11, R19
    321          
    322              //     .
    323              xMemoryAllocationContext.uiUsedDiscreteOutputState = 0;
   \   0000003E   01F8               MOVW    R31:R30, R17:R16
   \   00000040   E020               LDI     R18, 0
   \   00000042   8727               STD     Z+15, R18
    324              //       .
    325              xMemoryAllocationContext.puiDiscreteOutputState =
    326                  &m_aucRtuDiscreteDataArray[DISCRETE_OUTPUT_BIT_ARRAY_OFFSET];
   \   00000044   ....               LDI     R18, LOW((??m_aucRtuDiscreteDataArray + 112))
   \   00000046   ....               LDI     R19, HIGH((??m_aucRtuDiscreteDataArray + 112))
   \   00000048   01F8               MOVW    R31:R30, R17:R16
   \   0000004A   8725               STD     Z+13, R18
   \   0000004C   8736               STD     Z+14, R19
    327          
    328              //     .
    329              xMemoryAllocationContext.uiUsedDiscreteOutputs = 0;
   \   0000004E   01F8               MOVW    R31:R30, R17:R16
   \   00000050   E020               LDI     R18, 0
   \   00000052   8B22               STD     Z+18, R18
    330              //      .
    331              xMemoryAllocationContext.pxDiscreteOutputControl = m_axDiscreteOutputControl;
   \   00000054   ....               LDI     R18, LOW(??m_axDiscreteOutputControl)
   \   00000056   ....               LDI     R19, (??m_axDiscreteOutputControl) >> 8
   \   00000058   01F8               MOVW    R31:R30, R17:R16
   \   0000005A   8B20               STD     Z+16, R18
   \   0000005C   8B31               STD     Z+17, R19
    332          
    333              //     .
    334              xMemoryAllocationContext.uiUsedDiscreteOutputDataBase = 0;
   \   0000005E   01F8               MOVW    R31:R30, R17:R16
   \   00000060   E020               LDI     R18, 0
   \   00000062   8B25               STD     Z+21, R18
    335              //        .
    336              xMemoryAllocationContext.pxDiscreteOutputDataBase = &m_xDiscreteOutputDataBase;
   \   00000064   ....               LDI     R18, LOW(??m_xDiscreteOutputDataBase)
   \   00000066   ....               LDI     R19, (??m_xDiscreteOutputDataBase) >> 8
   \   00000068   01F8               MOVW    R31:R30, R17:R16
   \   0000006A   8B23               STD     Z+19, R18
   \   0000006C   8B34               STD     Z+20, R19
    337          
    338              //     .
    339              xMemoryAllocationContext.uiUsedErrorAlarmDataArray = 0;
   \   0000006E   01F8               MOVW    R31:R30, R17:R16
   \   00000070   E020               LDI     R18, 0
   \   00000072   8F20               STD     Z+24, R18
    340              //      .
    341              xMemoryAllocationContext.puiErrorAlarmDataArray = m_auiErrorAlarmDataArray;
   \   00000074   ....               LDI     R18, LOW(??m_auiErrorAlarmDataArray)
   \   00000076   ....               LDI     R19, (??m_auiErrorAlarmDataArray) >> 8
   \   00000078   01F8               MOVW    R31:R30, R17:R16
   \   0000007A   8B26               STD     Z+22, R18
   \   0000007C   8B37               STD     Z+23, R19
    342          };
   \   0000007E   9508               RET
    343          
    344          //-----------------------------------------------------------------------------------------------------

   \                                 In  segment CODE, align 2, keep-with-next
    345          void CPss21::CreateDevices(void)
   \                     ??CreateDevices:
    346          {
   \   00000000   93AA               ST      -Y, R26
   \   00000002   938A               ST      -Y, R24
   \   00000004   9769               SBIW    R29:R28, 25
    347              TMemoryAllocationContext xMemoryAllocationContext;
    348              InitAllocationContext(xMemoryAllocationContext);
   \   00000006   018E               MOVW    R17:R16, R29:R28
   \   00000008   ....               RCALL   ??InitAllocationContext
    349          
    350              for (uint8_t i = 0;
   \   0000000A   E0A0               LDI     R26, 0
    351                      i < (m_xDeviceConfigSearch.uiModulesQuantity);
   \                     ??CreateDevices_1:
   \   0000000C   9100....           LDS     R16, ??m_xDeviceConfigSearch
   \   00000010   17A0               CP      R26, R16
   \   00000012   F008               BRCS    $+2+2
   \   00000014   C0A7               RJMP    ??CreateDevices_2
    352                      i++)
    353              {
    354                  CPlatform::WatchdogReset();
   \   00000016   ........           CALL    ??WatchdogReset
    355          
    356                  uint8_t uiType = m_xDeviceConfigSearch.axModulesContext[i].uiType;
   \   0000001A   2F0A               MOV     R16, R26
   \   0000001C   E010               LDI     R17, 0
   \   0000001E   0F00               LSL     R16
   \   00000020   1F11               ROL     R17
   \   00000022   01F8               MOVW    R31:R30, R17:R16
   \   00000024   ....               SUBI    R30, LOW((-(??m_xDeviceConfigSearch) & 0xFFFF))
   \   00000026   ....               SBCI    R31, (-(??m_xDeviceConfigSearch) & 0xFFFF) >> 8
   \   00000028   8181               LDD     R24, Z+1
    357                  switch (uiType)
   \   0000002A   2F08               MOV     R16, R24
   \   0000002C   5001               SUBI    R16, 1
   \   0000002E   F069               BREQ    ??CreateDevices_3
   \   00000030   950A               DEC     R16
   \   00000032   F409               BRNE    $+2+2
   \   00000034   C095               RJMP    ??CreateDevices_4
   \   00000036   950A               DEC     R16
   \   00000038   F409               BRNE    $+2+2
   \   0000003A   C04D               RJMP    ??CreateDevices_5
   \   0000003C   950A               DEC     R16
   \   0000003E   F409               BRNE    $+2+2
   \   00000040   C04A               RJMP    ??CreateDevices_5
   \   00000042   950A               DEC     R16
   \   00000044   F409               BRNE    $+2+2
   \   00000046   C08C               RJMP    ??CreateDevices_4
   \   00000048   C08B               RJMP    ??CreateDevices_4
    358                  {
    359                  case MODULE_TYPE_MVSN:
    360          //        case MODULE_TYPE_MVDI:
    361          //        case MODULE_TYPE_MVDS9:
    362                      if (m_xDeviceConfigSearch.uiDiscreteInputQuantity <
    363                              DISCRETE_INPUT_MODULE_MAX_NUMBER)
   \                     ??CreateDevices_3:
   \   0000004A   9100....           LDS     R16, (??m_xDeviceConfigSearch + 8)
   \   0000004E   3002               CPI     R16, 2
   \   00000050   F008               BRCS    $+2+2
   \   00000052   C086               RJMP    ??CreateDevices_4
    364                      {
    365          //            m_apxDevices[i] = new CMvsn21;
    366          //            m_apxDevices[i] -> m_pxDriver = new CMvsn21Driver(uiType);
    367                          m_apxDrivers[i] = new CMvsn21Driver(uiType);
   \   00000054   E10A               LDI     R16, 26
   \   00000056   E010               LDI     R17, 0
   \   00000058   ........           CALL    `??operator new`
   \   0000005C   2F20               MOV     R18, R16
   \   0000005E   2B21               OR      R18, R17
   \   00000060   F021               BREQ    ??CreateDevices_6
   \   00000062   2F28               MOV     R18, R24
   \   00000064   ........           CALL    ??CMvsn21Driver
   \   00000068   C002               RJMP    ??CreateDevices_7
   \                     ??CreateDevices_6:
   \   0000006A   E000               LDI     R16, 0
   \   0000006C   E010               LDI     R17, 0
   \                     ??CreateDevices_7:
   \   0000006E   2F2A               MOV     R18, R26
   \   00000070   E030               LDI     R19, 0
   \   00000072   0F22               LSL     R18
   \   00000074   1F33               ROL     R19
   \   00000076   01F9               MOVW    R31:R30, R19:R18
   \   00000078   ....               SUBI    R30, LOW((-(??m_apxDrivers) & 0xFFFF))
   \   0000007A   ....               SBCI    R31, (-(??m_apxDrivers) & 0xFFFF) >> 8
   \   0000007C   8300               ST      Z, R16
   \   0000007E   8311               STD     Z+1, R17
    368                          xMemoryAllocationContext.uiAddress = m_xDeviceConfigSearch.axModulesContext[i].uiAddress;
   \   00000080   2F0A               MOV     R16, R26
   \   00000082   E010               LDI     R17, 0
   \   00000084   0F00               LSL     R16
   \   00000086   1F11               ROL     R17
   \   00000088   01F8               MOVW    R31:R30, R17:R16
   \   0000008A   ....               SUBI    R30, LOW((-(??m_xDeviceConfigSearch) & 0xFFFF))
   \   0000008C   ....               SBCI    R31, (-(??m_xDeviceConfigSearch) & 0xFFFF) >> 8
   \   0000008E   8102               LDD     R16, Z+2
   \   00000090   8308               ST      Y, R16
    369          //            m_apxDevices[i] -> m_pxDriver -> Allocate(xMemoryAllocationContext);
    370                          m_apxDrivers[i] -> Allocate(xMemoryAllocationContext);
   \   00000092   019E               MOVW    R19:R18, R29:R28
   \   00000094   2F0A               MOV     R16, R26
   \   00000096   E010               LDI     R17, 0
   \   00000098   0F00               LSL     R16
   \   0000009A   1F11               ROL     R17
   \   0000009C   01F8               MOVW    R31:R30, R17:R16
   \   0000009E   ....               SUBI    R30, LOW((-(??m_apxDrivers) & 0xFFFF))
   \   000000A0   ....               SBCI    R31, (-(??m_apxDrivers) & 0xFFFF) >> 8
   \   000000A2   8100               LD      R16, Z
   \   000000A4   8111               LDD     R17, Z+1
   \   000000A6   2F4A               MOV     R20, R26
   \   000000A8   E050               LDI     R21, 0
   \   000000AA   0F44               LSL     R20
   \   000000AC   1F55               ROL     R21
   \   000000AE   01FA               MOVW    R31:R30, R21:R20
   \   000000B0   ....               SUBI    R30, LOW((-(??m_apxDrivers) & 0xFFFF))
   \   000000B2   ....               SBCI    R31, (-(??m_apxDrivers) & 0xFFFF) >> 8
   \   000000B4   8140               LD      R20, Z
   \   000000B6   8151               LDD     R21, Z+1
   \   000000B8   01FA               MOVW    R31:R30, R21:R20
   \   000000BA   8541               LDD     R20, Z+9
   \   000000BC   8552               LDD     R21, Z+10
   \   000000BE   01FA               MOVW    R31:R30, R21:R20
   \   000000C0   9145               LPM     R20, Z+
   \   000000C2   9154               LPM     R21, Z
   \   000000C4   9731               SBIW    R31:R30, 1
   \   000000C6   01FA               MOVW    R31:R30, R21:R20
   \   000000C8   9509               ICALL
    371                          m_xDeviceConfigSearch.uiDiscreteInputQuantity += 1;
   \   000000CA   9100....           LDS     R16, (??m_xDeviceConfigSearch + 8)
   \   000000CE   9503               INC     R16
   \   000000D0   9300....           STS     (??m_xDeviceConfigSearch + 8), R16
    372                      }
    373                      break;
   \   000000D4   C045               RJMP    ??CreateDevices_4
    374          
    375                  case MODULE_TYPE_MVDO5:
    376                      break;
    377          
    378                  case MODULE_TYPE_MR53:
    379                  case MODULE_TYPE_MR54:
    380                      if (m_xDeviceConfigSearch.uiDiscreteOutputQuantity <
    381                              DISCRETE_OUTPUT_MODULE_MAX_NUMBER)
   \                     ??CreateDevices_5:
   \   000000D6   9100....           LDS     R16, (??m_xDeviceConfigSearch + 7)
   \   000000DA   2300               TST     R16
   \   000000DC   F009               BREQ    $+2+2
   \   000000DE   C040               RJMP    ??CreateDevices_4
    382                      {
    383          //            m_apxDevices[i] = new CModuleMrXX;
    384          //            m_apxDevices[i] -> m_pxDriver = new CModuleMrXXDriver(uiType);
    385                          m_apxDrivers[i] = new CModuleMrXXDriver(uiType);
   \   000000E0   E10E               LDI     R16, 30
   \   000000E2   E010               LDI     R17, 0
   \   000000E4   ........           CALL    `??operator new`
   \   000000E8   2F20               MOV     R18, R16
   \   000000EA   2B21               OR      R18, R17
   \   000000EC   F021               BREQ    ??CreateDevices_8
   \   000000EE   2F28               MOV     R18, R24
   \   000000F0   ........           CALL    ??CModuleMrXXDriver
   \   000000F4   C002               RJMP    ??CreateDevices_9
   \                     ??CreateDevices_8:
   \   000000F6   E000               LDI     R16, 0
   \   000000F8   E010               LDI     R17, 0
   \                     ??CreateDevices_9:
   \   000000FA   2F2A               MOV     R18, R26
   \   000000FC   E030               LDI     R19, 0
   \   000000FE   0F22               LSL     R18
   \   00000100   1F33               ROL     R19
   \   00000102   01F9               MOVW    R31:R30, R19:R18
   \   00000104   ....               SUBI    R30, LOW((-(??m_apxDrivers) & 0xFFFF))
   \   00000106   ....               SBCI    R31, (-(??m_apxDrivers) & 0xFFFF) >> 8
   \   00000108   8300               ST      Z, R16
   \   0000010A   8311               STD     Z+1, R17
    386                          xMemoryAllocationContext.uiAddress = m_xDeviceConfigSearch.axModulesContext[i].uiAddress;
   \   0000010C   2F0A               MOV     R16, R26
   \   0000010E   E010               LDI     R17, 0
   \   00000110   0F00               LSL     R16
   \   00000112   1F11               ROL     R17
   \   00000114   01F8               MOVW    R31:R30, R17:R16
   \   00000116   ....               SUBI    R30, LOW((-(??m_xDeviceConfigSearch) & 0xFFFF))
   \   00000118   ....               SBCI    R31, (-(??m_xDeviceConfigSearch) & 0xFFFF) >> 8
   \   0000011A   8102               LDD     R16, Z+2
   \   0000011C   8308               ST      Y, R16
    387          //            m_apxDevices[i] -> m_pxDriver -> Allocate(xMemoryAllocationContext);
    388                          m_apxDrivers[i] -> Allocate(xMemoryAllocationContext);
   \   0000011E   019E               MOVW    R19:R18, R29:R28
   \   00000120   2F0A               MOV     R16, R26
   \   00000122   E010               LDI     R17, 0
   \   00000124   0F00               LSL     R16
   \   00000126   1F11               ROL     R17
   \   00000128   01F8               MOVW    R31:R30, R17:R16
   \   0000012A   ....               SUBI    R30, LOW((-(??m_apxDrivers) & 0xFFFF))
   \   0000012C   ....               SBCI    R31, (-(??m_apxDrivers) & 0xFFFF) >> 8
   \   0000012E   8100               LD      R16, Z
   \   00000130   8111               LDD     R17, Z+1
   \   00000132   2F4A               MOV     R20, R26
   \   00000134   E050               LDI     R21, 0
   \   00000136   0F44               LSL     R20
   \   00000138   1F55               ROL     R21
   \   0000013A   01FA               MOVW    R31:R30, R21:R20
   \   0000013C   ....               SUBI    R30, LOW((-(??m_apxDrivers) & 0xFFFF))
   \   0000013E   ....               SBCI    R31, (-(??m_apxDrivers) & 0xFFFF) >> 8
   \   00000140   8140               LD      R20, Z
   \   00000142   8151               LDD     R21, Z+1
   \   00000144   01FA               MOVW    R31:R30, R21:R20
   \   00000146   8541               LDD     R20, Z+9
   \   00000148   8552               LDD     R21, Z+10
   \   0000014A   01FA               MOVW    R31:R30, R21:R20
   \   0000014C   9145               LPM     R20, Z+
   \   0000014E   9154               LPM     R21, Z
   \   00000150   9731               SBIW    R31:R30, 1
   \   00000152   01FA               MOVW    R31:R30, R21:R20
   \   00000154   9509               ICALL
    389                          m_xDeviceConfigSearch.uiDiscreteOutputQuantity += 1;
   \   00000156   9100....           LDS     R16, (??m_xDeviceConfigSearch + 7)
   \   0000015A   9503               INC     R16
   \   0000015C   9300....           STS     (??m_xDeviceConfigSearch + 7), R16
    390                      }
    391                      break;
    392          
    393                  case MODULE_TYPE_MVI:
    394                      break;
    395          
    396                  default:
    397                      break;
    398                  }
    399              }
   \                     ??CreateDevices_4:
   \   00000160   95A3               INC     R26
   \   00000162   CF54               RJMP    ??CreateDevices_1
    400          };
   \                     ??CreateDevices_2:
   \   00000164   9669               ADIW    R29:R28, 25
   \   00000166   9189               LD      R24, Y+
   \   00000168   91A9               LD      R26, Y+
   \   0000016A   9508               RET
    401          
    402          //-----------------------------------------------------------------------------------------------------

   \                                 In  segment CODE, align 2, keep-with-next
    403          void CPss21::DestroyDevices(uint8_t uiLength)
   \                     ??DestroyDevices:
    404          {
    405              for (uint16_t i = 0; i < uiLength; i++)
   \   00000000   E0E0               LDI     R30, 0
   \   00000002   E0F0               LDI     R31, 0
   \                     ??DestroyDevices_1:
   \   00000004   E010               LDI     R17, 0
   \   00000006   17E0               CP      R30, R16
   \   00000008   07F1               CPC     R31, R17
   \   0000000A   F410               BRCC    ??DestroyDevices_2
   \   0000000C   9631               ADIW    R31:R30, 1
   \   0000000E   CFFA               RJMP    ??DestroyDevices_1
    406              {
    407          //        delete m_apxDevices[i];
    408          //        delete m_apxDrivers[i];
    409              }
    410          };
   \                     ??DestroyDevices_2:
   \   00000010   9508               RET
    411          
    412          //-----------------------------------------------------------------------------------------------------

   \                                 In  segment CODE, align 2, keep-with-next
    413          uint16_t CPss21::ReportType(uint8_t *puiDestination, uint16_t uiLength)
   \                     ??ReportType:
    414          {
   \   00000000   ........           CALL    ?PROLOGUE6_L09
   \   00000004                      REQUIRE ?Register_R4_is_cg_reg
   \   00000004                      REQUIRE ?Register_R5_is_cg_reg
   \   00000004   0128               MOVW    R5:R4, R17:R16
   \   00000006   01C9               MOVW    R25:R24, R19:R18
    415              memset(m_auiSpiTxBuffer, 0, 6);
   \   00000008   E046               LDI     R20, 6
   \   0000000A   E050               LDI     R21, 0
   \   0000000C   E020               LDI     R18, 0
   \   0000000E   E030               LDI     R19, 0
   \   00000010   ....               LDI     R16, LOW(??m_auiSpiTxBuffer)
   \   00000012   ....               LDI     R17, (??m_auiSpiTxBuffer) >> 8
   \   00000014   ........           CALL    memset
    416              uint8_t uiLengthLocal = 0;
   \   00000018   E0A0               LDI     R26, 0
    417              m_auiSpiTxBuffer[uiLengthLocal++] = GET_MODULE_TYPE_COMMAND;
   \   0000001A   E0B0               LDI     R27, 0
   \   0000001C   01FD               MOVW    R31:R30, R27:R26
   \   0000001E   ....               SUBI    R30, LOW((-(??m_auiSpiTxBuffer) & 0xFFFF))
   \   00000020   ....               SBCI    R31, (-(??m_auiSpiTxBuffer) & 0xFFFF) >> 8
   \   00000022   E901               LDI     R16, 145
   \   00000024   8300               ST      Z, R16
   \   00000026   95A3               INC     R26
    418              m_auiSpiTxBuffer[uiLengthLocal++] = 0;
   \   00000028   E0B0               LDI     R27, 0
   \   0000002A   01FD               MOVW    R31:R30, R27:R26
   \   0000002C   ....               SUBI    R30, LOW((-(??m_auiSpiTxBuffer) & 0xFFFF))
   \   0000002E   ....               SBCI    R31, (-(??m_auiSpiTxBuffer) & 0xFFFF) >> 8
   \   00000030   E000               LDI     R16, 0
   \   00000032   8300               ST      Z, R16
   \   00000034   95A3               INC     R26
    419              m_auiSpiTxBuffer[uiLengthLocal++] = 0;
   \   00000036   E0B0               LDI     R27, 0
   \   00000038   01FD               MOVW    R31:R30, R27:R26
   \   0000003A   ....               SUBI    R30, LOW((-(??m_auiSpiTxBuffer) & 0xFFFF))
   \   0000003C   ....               SBCI    R31, (-(??m_auiSpiTxBuffer) & 0xFFFF) >> 8
   \   0000003E   E000               LDI     R16, 0
   \   00000040   8300               ST      Z, R16
   \   00000042   95A3               INC     R26
    420              m_auiSpiTxBuffer[uiLengthLocal++] = 0;
   \   00000044   E0B0               LDI     R27, 0
   \   00000046   01FD               MOVW    R31:R30, R27:R26
   \   00000048   ....               SUBI    R30, LOW((-(??m_auiSpiTxBuffer) & 0xFFFF))
   \   0000004A   ....               SBCI    R31, (-(??m_auiSpiTxBuffer) & 0xFFFF) >> 8
   \   0000004C   E000               LDI     R16, 0
   \   0000004E   8300               ST      Z, R16
   \   00000050   95A3               INC     R26
    421              m_auiSpiTxBuffer[uiLengthLocal++] = 0;
   \   00000052   E0B0               LDI     R27, 0
   \   00000054   01FD               MOVW    R31:R30, R27:R26
   \   00000056   ....               SUBI    R30, LOW((-(??m_auiSpiTxBuffer) & 0xFFFF))
   \   00000058   ....               SBCI    R31, (-(??m_auiSpiTxBuffer) & 0xFFFF) >> 8
   \   0000005A   E000               LDI     R16, 0
   \   0000005C   8300               ST      Z, R16
   \   0000005E   95A3               INC     R26
    422          
    423              ConnectDevice(0);
   \   00000060   E000               LDI     R16, 0
   \   00000062   ....               RCALL   ??ConnectDevice
    424              delay_us(500);
   \   00000064   E60A               LDI     R16, 106
   \   00000066   E013               LDI     R17, 3
   \   00000068   5001               SUBI    R16, 1
   \   0000006A   4010               SBCI    R17, 0
   \   0000006C   F7E9               BRNE    $-4
   \   0000006E   C000               RJMP    $+2
   \   00000070   0000               NOP
    425              CSpi::Exchange(m_auiSpiRxBuffer,
    426                             m_auiSpiTxBuffer,
    427                             uiLengthLocal);
   \   00000072   2F4A               MOV     R20, R26
   \   00000074   E050               LDI     R21, 0
   \   00000076   ....               LDI     R18, LOW(??m_auiSpiTxBuffer)
   \   00000078   ....               LDI     R19, (??m_auiSpiTxBuffer) >> 8
   \   0000007A   ....               LDI     R16, LOW(??m_auiSpiRxBuffer)
   \   0000007C   ....               LDI     R17, (??m_auiSpiRxBuffer) >> 8
   \   0000007E   ........           CALL    ??Exchange
    428              DisconnectDevice();
   \   00000082   ....               RCALL   ??DisconnectDevice
    429          
    430              return 1;
   \   00000084   E001               LDI     R16, 1
   \   00000086   E010               LDI     R17, 0
   \   00000088   E0E6               LDI     R30, 6
   \   0000008A   ........           JMP     ?EPILOGUE_B6_L09
    431          }
    432          
    433          //-----------------------------------------------------------------------------------------------------

   \                                 In  segment CODE, align 2, keep-with-next
    434          void CPss21::SetBytesFromBits(uint8_t *uiDestination,
   \                     ??SetBytesFromBits:
    435                                        uint8_t *uiSource,
    436                                        uint16_t uiLength)
    437          {
   \   00000000   ........           CALL    ?PROLOGUE4_L09
   \   00000004   01B8               MOVW    R23:R22, R17:R16
   \   00000006   011A               MOVW    R3:R2, R21:R20
    438              int16_t shift = 0;
   \   00000008   E080               LDI     R24, 0
   \   0000000A   E090               LDI     R25, 0
    439          
    440              for (int16_t i = 0; i < uiLength; i++)
   \   0000000C   E0A0               LDI     R26, 0
   \   0000000E   E0B0               LDI     R27, 0
   \                     ??SetBytesFromBits_1:
   \   00000010   15A2               CP      R26, R2
   \   00000012   05B3               CPC     R27, R3
   \   00000014   F508               BRCC    ??SetBytesFromBits_2
    441              {
    442                  uiDestination[i] = uiSource[(i) / 8] & (1 << shift) ? 1 : 0;
   \   00000016   E048               LDI     R20, 8
   \   00000018   E050               LDI     R21, 0
   \   0000001A   018D               MOVW    R17:R16, R27:R26
   \   0000001C   ........           CALL    ?SS_DIVMOD_L02
   \   00000020   01F9               MOVW    R31:R30, R19:R18
   \   00000022   0FE0               ADD     R30, R16
   \   00000024   1FF1               ADC     R31, R17
   \   00000026   8150               LD      R21, Z
   \   00000028   2F48               MOV     R20, R24
   \   0000002A   E001               LDI     R16, 1
   \   0000002C   E010               LDI     R17, 0
   \   0000002E   ........           CALL    ?S_SHL_L02
   \   00000032   2350               AND     R21, R16
   \   00000034   2355               TST     R21
   \   00000036   F011               BREQ    ??SetBytesFromBits_3
   \   00000038   E001               LDI     R16, 1
   \   0000003A   C001               RJMP    ??SetBytesFromBits_4
   \                     ??SetBytesFromBits_3:
   \   0000003C   E000               LDI     R16, 0
   \                     ??SetBytesFromBits_4:
   \   0000003E   01FB               MOVW    R31:R30, R23:R22
   \   00000040   0FEA               ADD     R30, R26
   \   00000042   1FFB               ADC     R31, R27
   \   00000044   8300               ST      Z, R16
    443                  /* gcc doesn't like: shift = (++shift) % 8; */
    444                  shift++;
   \   00000046   9601               ADIW    R25:R24, 1
    445                  shift %= 8;
   \   00000048   E048               LDI     R20, 8
   \   0000004A   E050               LDI     R21, 0
   \   0000004C   018C               MOVW    R17:R16, R25:R24
   \   0000004E   ........           CALL    ?SS_DIVMOD_L02
   \   00000052   01CA               MOVW    R25:R24, R21:R20
    446              }
   \   00000054   9611               ADIW    R27:R26, 1
   \   00000056   CFDC               RJMP    ??SetBytesFromBits_1
    447          }
   \                     ??SetBytesFromBits_2:
   \   00000058   E0E4               LDI     R30, 4
   \   0000005A   ........           JMP     ?EPILOGUE_B4_L09
    448          
    449          //-----------------------------------------------------------------------------------------------------

   \                                 In  segment CODE, align 2, keep-with-next
    450          void CPss21::ModbusDeviceControl(uint8_t* puiData, uint16_t uiLength, uint16_t uiAddress)
   \                     ??ModbusDeviceControl:
    451          {
   \   00000000   ........           CALL    ?PROLOGUE6_L09
   \   00000004                      REQUIRE ?Register_R4_is_cg_reg
   \   00000004                      REQUIRE ?Register_R5_is_cg_reg
   \   00000004   01D8               MOVW    R27:R26, R17:R16
   \   00000006   0129               MOVW    R5:R4, R19:R18
   \   00000008   01CA               MOVW    R25:R24, R21:R20
    452              //  - ""?
    453              if (uiAddress == MODBUS_RECEIPT_ADDRESS)
   \   0000000A   2F08               MOV     R16, R24
   \   0000000C   2B09               OR      R16, R25
   \   0000000E   F459               BRNE    ??ModbusDeviceControl_2
    454              {
    455                  if (*puiData)
   \   00000010   910C               LD      R16, X
   \   00000012   2300               TST     R16
   \   00000014   F159               BREQ    ??ModbusDeviceControl_3
    456                  {
    457                      CPss21::SetModbusReceipt(1);
   \   00000016   E001               LDI     R16, 1
   \   00000018   ........           CALL    ??SetModbusReceipt_1
    458                      SetDiscreteSignalsReceipt(1);
   \   0000001C   E001               LDI     R16, 1
   \   0000001E   ........           CALL    ??SetDiscreteSignalsReceipt
    459                      SendToDevicesModbusReceipt();
   \   00000022   ....               RCALL   ??SendToDevicesModbusReceipt
   \   00000024   C023               RJMP    ??ModbusDeviceControl_3
    460                  }
    461              }
    462              //  - ""?
    463              else if (uiAddress == MODBUS_RESET_ADDRESS)
   \                     ??ModbusDeviceControl_2:
   \   00000026   3081               CPI     R24, 1
   \   00000028   E000               LDI     R16, 0
   \   0000002A   0790               CPC     R25, R16
   \   0000002C   F459               BRNE    ??ModbusDeviceControl_4
    464              {
    465                  if (*puiData)
   \   0000002E   910C               LD      R16, X
   \   00000030   2300               TST     R16
   \   00000032   F0E1               BREQ    ??ModbusDeviceControl_3
    466                  {
    467                      CPss21::SetModbusReset(1);
   \   00000034   E001               LDI     R16, 1
   \   00000036   ........           CALL    ??SetModbusReset_1
    468                      SetDiscreteSignalsReset(1);
   \   0000003A   E001               LDI     R16, 1
   \   0000003C   ........           CALL    ??SetDiscreteSignalsReset
    469                      SendToDevicesModbusReset();
   \   00000040   ....               RCALL   ??SendToDevicesModbusReset
   \   00000042   C014               RJMP    ??ModbusDeviceControl_3
    470                  }
    471              }
    472              //    ?
    473              else if ((uiAddress >= ALARM_WINDOWS_BIT_ARRAY_OFFSET) &&
    474                       (uiAddress < (ALARM_WINDOWS_BIT_ARRAY_OFFSET +
    475                                     ALARM_WINDOWS_ARRAY_LENGTH)))
   \                     ??ModbusDeviceControl_4:
   \   00000044   3480               CPI     R24, 64
   \   00000046   E000               LDI     R16, 0
   \   00000048   0790               CPC     R25, R16
   \   0000004A   F080               BRCS    ??ModbusDeviceControl_3
   \   0000004C   3780               CPI     R24, 112
   \   0000004E   E000               LDI     R16, 0
   \   00000050   0790               CPC     R25, R16
   \   00000052   F460               BRCC    ??ModbusDeviceControl_3
    476              {
    477                  SetBytesFromBits(&m_aucRtuDiscreteDataArray[uiAddress],
    478                                   puiData,
    479                                   uiLength);
   \   00000054   01A2               MOVW    R21:R20, R5:R4
   \   00000056   019D               MOVW    R19:R18, R27:R26
   \   00000058   ....               LDI     R16, LOW(??m_aucRtuDiscreteDataArray)
   \   0000005A   ....               LDI     R17, (??m_aucRtuDiscreteDataArray) >> 8
   \   0000005C   0F08               ADD     R16, R24
   \   0000005E   1F19               ADC     R17, R25
   \   00000060   ....               RCALL   ??SetBytesFromBits
    480                  //      .
    481                  m_xModbusRtuLinkControl.SetFsmEvent(CModbusRtuLinkControl::LINK_SESSION_HAPPENED_FSM_EVENT);
   \   00000062   E021               LDI     R18, 1
   \   00000064   ....               LDI     R16, LOW(??m_xModbusRtuLinkControl)
   \   00000066   ....               LDI     R17, (??m_xModbusRtuLinkControl) >> 8
   \   00000068   ........           CALL    ??SetFsmEvent
    482              }
    483          ////    //    ?
    484          //    else if ((uiAddress >= DISCRETE_INPUTS_BIT_ARRAY_OFFSET) &&//debag//
    485          //             (uiAddress < (ALARM_WINDOWS_BIT_ARRAY_OFFSET +
    486          //                           ALARM_WINDOWS_ARRAY_LENGTH)))
    487          //    {
    488          //        SetBytesFromBits(&m_aucRtuDiscreteDataArray[uiAddress],
    489          //                         puiData,
    490          //                         uiLength);
    491          //        //      .
    492          //        m_xModbusRtuLinkControl.SetFsmEvent(CModbusRtuLinkControl::LINK_SESSION_HAPPENED_FSM_EVENT);
    493          //    }
    494          }
   \                     ??ModbusDeviceControl_3:
   \   0000006C   E0E6               LDI     R30, 6
   \   0000006E   ........           JMP     ?EPILOGUE_B6_L09
    495          
    496          //-----------------------------------------------------------------------------------------------------

   \                                 In  segment CODE, align 2, keep-with-next
    497          void CPss21::ModbusDeviceControl(uint8_t uiData, uint16_t uiAddress)
   \                     ??ModbusDeviceControl_1:
    498          {
   \   00000000   939A               ST      -Y, R25
   \   00000002   938A               ST      -Y, R24
   \   00000004   9721               SBIW    R29:R28, 1
   \   00000006   8308               ST      Y, R16
   \   00000008   01C9               MOVW    R25:R24, R19:R18
    499              ModbusDeviceControl(&uiData, 1, uiAddress);
   \   0000000A   01AC               MOVW    R21:R20, R25:R24
   \   0000000C   E021               LDI     R18, 1
   \   0000000E   E030               LDI     R19, 0
   \   00000010   018E               MOVW    R17:R16, R29:R28
   \   00000012   ....               RCALL   ??ModbusDeviceControl
    500          }
   \   00000014   9621               ADIW    R29:R28, 1
   \   00000016   9189               LD      R24, Y+
   \   00000018   9199               LD      R25, Y+
   \   0000001A   9508               RET
    501          
    502          //-----------------------------------------------------------------------------------------------------

   \                                 In  segment CODE, align 2, keep-with-next
    503          bool CPss21::ModbusRtuLinkControlIsOn(void)
   \                     ??ModbusRtuLinkControlIsOn:
    504          {
    505              if (m_xDeviceConfiguration.MBTimeout != 0)
   \   00000000   9100....           LDS     R16, (??m_xDeviceConfiguration + 5)
   \   00000004   2300               TST     R16
   \   00000006   F011               BREQ    ??ModbusRtuLinkControlIsOn_1
    506              {
    507                  return true;
   \   00000008   E001               LDI     R16, 1
   \   0000000A   9508               RET
    508              }
    509              else
    510              {
    511                  return false;
   \                     ??ModbusRtuLinkControlIsOn_1:
   \   0000000C   E000               LDI     R16, 0
   \   0000000E   9508               RET
    512              }
    513          }
    514          
    515          //-----------------------------------------------------------------------------------------------------

   \                                 In  segment CODE, align 2, keep-with-next
    516          uint16_t CPss21::GetTimeoutModbusRtuLinkControl(void)
   \                     ??GetTimeoutModbusRtuLinkControl:
    517          {
    518              return (m_xDeviceConfiguration.MBTimeout * 1000);
   \   00000000   9100....           LDS     R16, (??m_xDeviceConfiguration + 5)
   \   00000004   E010               LDI     R17, 0
   \   00000006   EE48               LDI     R20, 232
   \   00000008   E053               LDI     R21, 3
   \   0000000A   ........           CALL    ?S_EC_MUL_L02
   \   0000000E   9508               RET
    519          }
    520          
    521          //-----------------------------------------------------------------------------------------------------

   \                                 In  segment CODE, align 2, keep-with-next
    522          bool CPss21::ModbusRtuLinkControlInProgress(void)
   \                     ??ModbusRtuLinkControlInProgress:
    523          {
    524              if (m_xDeviceState.ModbusRtuLinkControlInProgress)
   \   00000000   ....               LDI     R30, LOW(??m_xDeviceState)
   \   00000002   ....               LDI     R31, (??m_xDeviceState) >> 8
   \   00000004   8100               LD      R16, Z
   \   00000006   FF00               SBRS    R16, 0
   \   00000008   C002               RJMP    ??ModbusRtuLinkControlInProgress_1
    525              {
    526                  return true;
   \   0000000A   E001               LDI     R16, 1
   \   0000000C   9508               RET
    527              }
    528              else
    529              {
    530                  return false;
   \                     ??ModbusRtuLinkControlInProgress_1:
   \   0000000E   E000               LDI     R16, 0
   \   00000010   9508               RET
    531              }
    532          }
    533          
    534          //-----------------------------------------------------------------------------------------------------

   \                                 In  segment CODE, align 2, keep-with-next
    535          void CPss21::SetModeModbusRtuLinkControlInProgress(bool bData)
   \                     ??SetModeModbusRtuLinkControlInProgress:
    536          {
   \   00000000   938A               ST      -Y, R24
   \   00000002   2F80               MOV     R24, R16
    537              m_xDeviceState.ModbusRtuLinkControlInProgress = bData;
   \   00000004   ....               LDI     R30, LOW(??m_xDeviceState)
   \   00000006   ....               LDI     R31, (??m_xDeviceState) >> 8
   \   00000008   FB80               BST     R24, 0
   \   0000000A   8100               LD      R16, Z
   \   0000000C   F900               BLD     R16, 0
   \   0000000E   8300               ST      Z, R16
    538              //   .
    539              CDataBase::WriteBlock(reinterpret_cast<uint8_t*>(&m_xDeviceState),
    540                                    TDataBase::DEVICE_STATE);
   \   00000010   E02A               LDI     R18, 10
   \   00000012   ....               LDI     R16, LOW(??m_xDeviceState)
   \   00000014   ....               LDI     R17, (??m_xDeviceState) >> 8
   \   00000016   ........           CALL    ??WriteBlock
    541              //      .
    542              //   .
    543              CDataBase::SignatureCreate();
   \   0000001A   ........           CALL    ??SignatureCreate
    544          }
   \   0000001E   9189               LD      R24, Y+
   \   00000020   9508               RET
    545          
    546          //-----------------------------------------------------------------------------------------------------

   \                                 In  segment CODE, align 2, keep-with-next
    547          void CPss21::SendToDevicesReceipt(void)
   \                     ??SendToDevicesReceipt:
    548          {
   \   00000000   938A               ST      -Y, R24
    549              for (uint8_t i = 0;
   \   00000002   E080               LDI     R24, 0
    550                      i < (m_xDeviceConfigSearch.uiModulesQuantity);
   \                     ??SendToDevicesReceipt_1:
   \   00000004   9100....           LDS     R16, ??m_xDeviceConfigSearch
   \   00000008   1780               CP      R24, R16
   \   0000000A   F470               BRCC    ??SendToDevicesReceipt_2
    551                      i++)
    552              {
    553                  m_apxDrivers[i] -> SetReceipt(1);
   \   0000000C   E021               LDI     R18, 1
   \   0000000E   2F08               MOV     R16, R24
   \   00000010   E010               LDI     R17, 0
   \   00000012   0F00               LSL     R16
   \   00000014   1F11               ROL     R17
   \   00000016   01F8               MOVW    R31:R30, R17:R16
   \   00000018   ....               SUBI    R30, LOW((-(??m_apxDrivers) & 0xFFFF))
   \   0000001A   ....               SBCI    R31, (-(??m_apxDrivers) & 0xFFFF) >> 8
   \   0000001C   8100               LD      R16, Z
   \   0000001E   8111               LDD     R17, Z+1
   \   00000020   ........           CALL    ??SetReceipt
    554              }
   \   00000024   9583               INC     R24
   \   00000026   CFEE               RJMP    ??SendToDevicesReceipt_1
    555          
    556              //     .
    557              m_xModbusRtuLinkControl.SetFsmEvent(CModbusRtuLinkControl::RECEIPT_HAPPENED_FSM_EVENT);
   \                     ??SendToDevicesReceipt_2:
   \   00000028   E022               LDI     R18, 2
   \   0000002A   ....               LDI     R16, LOW(??m_xModbusRtuLinkControl)
   \   0000002C   ....               LDI     R17, (??m_xModbusRtuLinkControl) >> 8
   \   0000002E   ........           CALL    ??SetFsmEvent
    558          }
   \   00000032   9189               LD      R24, Y+
   \   00000034   9508               RET
    559          
    560          //-----------------------------------------------------------------------------------------------------

   \                                 In  segment CODE, align 2, keep-with-next
    561          void CPss21::SendToDevicesReset(void)
   \                     ??SendToDevicesReset:
    562          {
   \   00000000   938A               ST      -Y, R24
    563              for (uint8_t i = 0;
   \   00000002   E080               LDI     R24, 0
    564                      i < (m_xDeviceConfigSearch.uiModulesQuantity);
   \                     ??SendToDevicesReset_1:
   \   00000004   9100....           LDS     R16, ??m_xDeviceConfigSearch
   \   00000008   1780               CP      R24, R16
   \   0000000A   F470               BRCC    ??SendToDevicesReset_2
    565                      i++)
    566              {
    567                  m_apxDrivers[i] -> SetReset(1);
   \   0000000C   E021               LDI     R18, 1
   \   0000000E   2F08               MOV     R16, R24
   \   00000010   E010               LDI     R17, 0
   \   00000012   0F00               LSL     R16
   \   00000014   1F11               ROL     R17
   \   00000016   01F8               MOVW    R31:R30, R17:R16
   \   00000018   ....               SUBI    R30, LOW((-(??m_apxDrivers) & 0xFFFF))
   \   0000001A   ....               SBCI    R31, (-(??m_apxDrivers) & 0xFFFF) >> 8
   \   0000001C   8100               LD      R16, Z
   \   0000001E   8111               LDD     R17, Z+1
   \   00000020   ........           CALL    ??SetReset
    568              }
   \   00000024   9583               INC     R24
   \   00000026   CFEE               RJMP    ??SendToDevicesReset_1
    569          }
   \                     ??SendToDevicesReset_2:
   \   00000028   9189               LD      R24, Y+
   \   0000002A   9508               RET
    570          
    571          //-----------------------------------------------------------------------------------------------------

   \                                 In  segment CODE, align 2, keep-with-next
    572          void CPss21::SendToDevicesModbusReceipt(void)
   \                     ??SendToDevicesModbusReceipt:
    573          {
   \   00000000   938A               ST      -Y, R24
    574              for (uint8_t i = 0;
   \   00000002   E080               LDI     R24, 0
    575                      i < (m_xDeviceConfigSearch.uiModulesQuantity);
   \                     ??SendToDevicesModbusReceipt_1:
   \   00000004   9100....           LDS     R16, ??m_xDeviceConfigSearch
   \   00000008   1780               CP      R24, R16
   \   0000000A   F470               BRCC    ??SendToDevicesModbusReceipt_2
    576                      i++)
    577              {
    578                  m_apxDrivers[i] -> SetModbusReceipt(1);
   \   0000000C   E021               LDI     R18, 1
   \   0000000E   2F08               MOV     R16, R24
   \   00000010   E010               LDI     R17, 0
   \   00000012   0F00               LSL     R16
   \   00000014   1F11               ROL     R17
   \   00000016   01F8               MOVW    R31:R30, R17:R16
   \   00000018   ....               SUBI    R30, LOW((-(??m_apxDrivers) & 0xFFFF))
   \   0000001A   ....               SBCI    R31, (-(??m_apxDrivers) & 0xFFFF) >> 8
   \   0000001C   8100               LD      R16, Z
   \   0000001E   8111               LDD     R17, Z+1
   \   00000020   ........           CALL    ??SetModbusReceipt
    579              }
   \   00000024   9583               INC     R24
   \   00000026   CFEE               RJMP    ??SendToDevicesModbusReceipt_1
    580          
    581              //     .
    582              m_xModbusRtuLinkControl.SetFsmEvent(CModbusRtuLinkControl::RECEIPT_HAPPENED_FSM_EVENT);
   \                     ??SendToDevicesModbusReceipt_2:
   \   00000028   E022               LDI     R18, 2
   \   0000002A   ....               LDI     R16, LOW(??m_xModbusRtuLinkControl)
   \   0000002C   ....               LDI     R17, (??m_xModbusRtuLinkControl) >> 8
   \   0000002E   ........           CALL    ??SetFsmEvent
    583          }
   \   00000032   9189               LD      R24, Y+
   \   00000034   9508               RET
    584          
    585          //-----------------------------------------------------------------------------------------------------

   \                                 In  segment CODE, align 2, keep-with-next
    586          void CPss21::SendToDevicesModbusReset(void)
   \                     ??SendToDevicesModbusReset:
    587          {
   \   00000000   938A               ST      -Y, R24
    588              for (uint8_t i = 0;
   \   00000002   E080               LDI     R24, 0
    589                      i < (m_xDeviceConfigSearch.uiModulesQuantity);
   \                     ??SendToDevicesModbusReset_1:
   \   00000004   9100....           LDS     R16, ??m_xDeviceConfigSearch
   \   00000008   1780               CP      R24, R16
   \   0000000A   F470               BRCC    ??SendToDevicesModbusReset_2
    590                      i++)
    591              {
    592                  m_apxDrivers[i] -> SetModbusReset(1);
   \   0000000C   E021               LDI     R18, 1
   \   0000000E   2F08               MOV     R16, R24
   \   00000010   E010               LDI     R17, 0
   \   00000012   0F00               LSL     R16
   \   00000014   1F11               ROL     R17
   \   00000016   01F8               MOVW    R31:R30, R17:R16
   \   00000018   ....               SUBI    R30, LOW((-(??m_apxDrivers) & 0xFFFF))
   \   0000001A   ....               SBCI    R31, (-(??m_apxDrivers) & 0xFFFF) >> 8
   \   0000001C   8100               LD      R16, Z
   \   0000001E   8111               LDD     R17, Z+1
   \   00000020   ........           CALL    ??SetModbusReset
    593              }
   \   00000024   9583               INC     R24
   \   00000026   CFEE               RJMP    ??SendToDevicesModbusReset_1
    594          }
   \                     ??SendToDevicesModbusReset_2:
   \   00000028   9189               LD      R24, Y+
   \   0000002A   9508               RET
    595          
    596          //-----------------------------------------------------------------------------------------------------

   \                                 In  segment CODE, align 2, keep-with-next
    597          void CPss21::KeyStateProcessing(void)
   \                     ??KeyStateProcessing:
    598          {
   \   00000000   938A               ST      -Y, R24
    599          //    m_xIsReceiptButtonPressed.Fsm();
    600          
    601          //    m_xReceiptKey.Fsm();
    602          //    m_xResetKey.Fsm();
    603          //    m_xCheckKey.Fsm();
    604          //    m_xExternalKey.Fsm();
    605          
    606          //    if (m_xIsReceiptButtonPressed.IsSolved())
    607          //    {
    608          //        SetPanelReceipt(1);
    609          //        SetDiscreteSignalsReceipt(1);
    610          //        SendToDevicesReceipt();
    611          //        m_xBuzzerNotifyerControl.AlarmSet(BEEP_SIGNAL);
    612          //    }
    613              if (m_xReceiptKey.KeyEventHappened(CMultiFunctionKey::KEY_EVENT_PRESSED_PUSH))
   \   00000002   E022               LDI     R18, 2
   \   00000004   ....               LDI     R16, LOW(??m_xReceiptKey)
   \   00000006   ....               LDI     R17, (??m_xReceiptKey) >> 8
   \   00000008   ........           CALL    ??KeyEventHappened
   \   0000000C   2300               TST     R16
   \   0000000E   F061               BREQ    ??KeyStateProcessing_1
    614              {
    615                  SetPanelReceipt(1);
   \   00000010   E001               LDI     R16, 1
   \   00000012   ........           CALL    ??SetPanelReceipt
    616                  SetDiscreteSignalsReceipt(1);
   \   00000016   E001               LDI     R16, 1
   \   00000018   ........           CALL    ??SetDiscreteSignalsReceipt
    617                  SendToDevicesReceipt();
   \   0000001C   ....               RCALL   ??SendToDevicesReceipt
    618                  m_xBuzzerNotifyerControl.AlarmSet(BEEP_SIGNAL);
   \   0000001E   E028               LDI     R18, 8
   \   00000020   ....               LDI     R16, LOW(??m_xBuzzerNotifyerControl)
   \   00000022   ....               LDI     R17, (??m_xBuzzerNotifyerControl) >> 8
   \   00000024   ........           CALL    ??AlarmSet
    619              }
    620          
    621          //    if (m_xReceiptKey.KeyEventHappened(CMultiFunctionKey::KEY_EVENT_UNPRESSED))
    622          //    {
    623              if (m_xCheckKey.KeyEventHappened(CMultiFunctionKey::KEY_EVENT_PRESSED_PUSH))
   \                     ??KeyStateProcessing_1:
   \   00000028   E022               LDI     R18, 2
   \   0000002A   ....               LDI     R16, LOW(??m_xCheckKey)
   \   0000002C   ....               LDI     R17, (??m_xCheckKey) >> 8
   \   0000002E   ........           CALL    ??KeyEventHappened
   \   00000032   2300               TST     R16
   \   00000034   F041               BREQ    ??KeyStateProcessing_2
    624              {
    625                  //   .
    626                  SetFsmState(TEST_START);
   \   00000036   E00B               LDI     R16, 11
   \   00000038   ........           CALL    ??SetFsmState_1
    627                  m_xBuzzerNotifyerControl.AlarmSet(BEEP_SIGNAL);
   \   0000003C   E028               LDI     R18, 8
   \   0000003E   ....               LDI     R16, LOW(??m_xBuzzerNotifyerControl)
   \   00000040   ....               LDI     R17, (??m_xBuzzerNotifyerControl) >> 8
   \   00000042   ........           CALL    ??AlarmSet
    628              }
    629          //    }
    630          
    631              if (m_xResetKey.KeyEventHappened(CMultiFunctionKey::KEY_EVENT_PRESSED_PUSH))
   \                     ??KeyStateProcessing_2:
   \   00000046   E022               LDI     R18, 2
   \   00000048   ....               LDI     R16, LOW(??m_xResetKey)
   \   0000004A   ....               LDI     R17, (??m_xResetKey) >> 8
   \   0000004C   ........           CALL    ??KeyEventHappened
   \   00000050   2300               TST     R16
   \   00000052   F061               BREQ    ??KeyStateProcessing_3
    632              {
    633                  SetPanelReset(1);
   \   00000054   E001               LDI     R16, 1
   \   00000056   ........           CALL    ??SetPanelReset
    634                  SetDiscreteSignalsReset(1);
   \   0000005A   E001               LDI     R16, 1
   \   0000005C   ........           CALL    ??SetDiscreteSignalsReset
    635                  SendToDevicesReset();
   \   00000060   ....               RCALL   ??SendToDevicesReset
    636                  m_xBuzzerNotifyerControl.AlarmSet(BEEP_SIGNAL);
   \   00000062   E028               LDI     R18, 8
   \   00000064   ....               LDI     R16, LOW(??m_xBuzzerNotifyerControl)
   \   00000066   ....               LDI     R17, (??m_xBuzzerNotifyerControl) >> 8
   \   00000068   ........           CALL    ??AlarmSet
    637              }
    638          
    639          //    if (m_xCheckKey.KeyEventHappened(CMultiFunctionKey::KEY_EVENT_PRESSED_HOLD))
    640          //    {
    641          //        //      .
    642          //        SetFsmState(MAP_CREATE_START);
    643          //        m_xBuzzerNotifyerControl.AlarmSet(BEEP_SIGNAL);
    644          //    }
    645          //
    646          //    if (m_xCheckKey.KeyEventHappened(CMultiFunctionKey::KEY_EVENT_PRESSED_PUSH))
    647          //    {
    648          //        if (GetFsmState() == MAP_CREATE_ON)
    649          //        {
    650          //            //  .
    651          //            SetFsmState(MAP_CREATE_NEXT_WINDOW);
    652          //            m_xBuzzerNotifyerControl.AlarmSet(BEEP_SIGNAL);
    653          //        }
    654          //    }
    655          
    656          
    657              //    -  ?
    658              if(m_xDeviceConfiguration.ExtUnsetOnly)
   \                     ??KeyStateProcessing_3:
   \   0000006C   ....               LDI     R30, LOW(??m_xDeviceConfiguration)
   \   0000006E   ....               LDI     R31, (??m_xDeviceConfiguration) >> 8
   \   00000070   8103               LDD     R16, Z+3
   \   00000072   FF02               SBRS    R16, 2
   \   00000074   C023               RJMP    ??KeyStateProcessing_4
    659              {
    660                  if (m_xExternalKey.KeyEventHappened(CMultiFunctionKey::KEY_EVENT_PRESSED_RECEIPT))
   \   00000076   E022               LDI     R18, 2
   \   00000078   ....               LDI     R16, LOW(??m_xExternalKey)
   \   0000007A   ....               LDI     R17, (??m_xExternalKey) >> 8
   \   0000007C   ........           CALL    ??KeyEventHappened
   \   00000080   2300               TST     R16
   \   00000082   F061               BREQ    ??KeyStateProcessing_5
    661                  {
    662                      SetExternalReset(1);
   \   00000084   E001               LDI     R16, 1
   \   00000086   ........           CALL    ??SetExternalReset
    663                      SetDiscreteSignalsReset(1);
   \   0000008A   E001               LDI     R16, 1
   \   0000008C   ........           CALL    ??SetDiscreteSignalsReset
    664                      SendToDevicesReset();
   \   00000090   ....               RCALL   ??SendToDevicesReset
    665                      m_xBuzzerNotifyerControl.AlarmSet(BEEP_SIGNAL);
   \   00000092   E028               LDI     R18, 8
   \   00000094   ....               LDI     R16, LOW(??m_xBuzzerNotifyerControl)
   \   00000096   ....               LDI     R17, (??m_xBuzzerNotifyerControl) >> 8
   \   00000098   ........           CALL    ??AlarmSet
    666                  }
    667          
    668                  if (m_xExternalKey.KeyEventHappened(CMultiFunctionKey::KEY_EVENT_PRESSED_CHECK))
   \                     ??KeyStateProcessing_5:
   \   0000009C   E024               LDI     R18, 4
   \   0000009E   ....               LDI     R16, LOW(??m_xExternalKey)
   \   000000A0   ....               LDI     R17, (??m_xExternalKey) >> 8
   \   000000A2   ........           CALL    ??KeyEventHappened
   \   000000A6   2300               TST     R16
   \   000000A8   F1F1               BREQ    ??KeyStateProcessing_6
    669                  {
    670                      //   .
    671                      SetFsmState(TEST_START);
   \   000000AA   E00B               LDI     R16, 11
   \   000000AC   ........           CALL    ??SetFsmState_1
    672                      m_xBuzzerNotifyerControl.AlarmSet(BEEP_SIGNAL);
   \   000000B0   E028               LDI     R18, 8
   \   000000B2   ....               LDI     R16, LOW(??m_xBuzzerNotifyerControl)
   \   000000B4   ....               LDI     R17, (??m_xBuzzerNotifyerControl) >> 8
   \   000000B6   ........           CALL    ??AlarmSet
   \   000000BA   C035               RJMP    ??KeyStateProcessing_6
    673                  }
    674              }
    675              else
    676              {
    677                  if (m_xExternalKey.KeyEventHappened(CMultiFunctionKey::KEY_EVENT_PRESSED_RECEIPT))
   \                     ??KeyStateProcessing_4:
   \   000000BC   E022               LDI     R18, 2
   \   000000BE   ....               LDI     R16, LOW(??m_xExternalKey)
   \   000000C0   ....               LDI     R17, (??m_xExternalKey) >> 8
   \   000000C2   ........           CALL    ??KeyEventHappened
   \   000000C6   2300               TST     R16
   \   000000C8   F061               BREQ    ??KeyStateProcessing_7
    678                  {
    679                      SetExternalReceipt(1);
   \   000000CA   E001               LDI     R16, 1
   \   000000CC   ........           CALL    ??SetExternalReceipt
    680                      SetDiscreteSignalsReceipt(1);
   \   000000D0   E001               LDI     R16, 1
   \   000000D2   ........           CALL    ??SetDiscreteSignalsReceipt
    681                      SendToDevicesReceipt();
   \   000000D6   ....               RCALL   ??SendToDevicesReceipt
    682                      m_xBuzzerNotifyerControl.AlarmSet(BEEP_SIGNAL);
   \   000000D8   E028               LDI     R18, 8
   \   000000DA   ....               LDI     R16, LOW(??m_xBuzzerNotifyerControl)
   \   000000DC   ....               LDI     R17, (??m_xBuzzerNotifyerControl) >> 8
   \   000000DE   ........           CALL    ??AlarmSet
    683                  }
    684          
    685                  if (m_xExternalKey.KeyEventHappened(CMultiFunctionKey::KEY_EVENT_PRESSED_RESET))
   \                     ??KeyStateProcessing_7:
   \   000000E2   E023               LDI     R18, 3
   \   000000E4   ....               LDI     R16, LOW(??m_xExternalKey)
   \   000000E6   ....               LDI     R17, (??m_xExternalKey) >> 8
   \   000000E8   ........           CALL    ??KeyEventHappened
   \   000000EC   2300               TST     R16
   \   000000EE   F061               BREQ    ??KeyStateProcessing_8
    686                  {
    687                      SetExternalReset(1);
   \   000000F0   E001               LDI     R16, 1
   \   000000F2   ........           CALL    ??SetExternalReset
    688                      SetDiscreteSignalsReset(1);
   \   000000F6   E001               LDI     R16, 1
   \   000000F8   ........           CALL    ??SetDiscreteSignalsReset
    689                      SendToDevicesReset();
   \   000000FC   ....               RCALL   ??SendToDevicesReset
    690                      m_xBuzzerNotifyerControl.AlarmSet(BEEP_SIGNAL);
   \   000000FE   E028               LDI     R18, 8
   \   00000100   ....               LDI     R16, LOW(??m_xBuzzerNotifyerControl)
   \   00000102   ....               LDI     R17, (??m_xBuzzerNotifyerControl) >> 8
   \   00000104   ........           CALL    ??AlarmSet
    691                  }
    692          
    693                  if (m_xExternalKey.KeyEventHappened(CMultiFunctionKey::KEY_EVENT_PRESSED_CHECK))
   \                     ??KeyStateProcessing_8:
   \   00000108   E024               LDI     R18, 4
   \   0000010A   ....               LDI     R16, LOW(??m_xExternalKey)
   \   0000010C   ....               LDI     R17, (??m_xExternalKey) >> 8
   \   0000010E   ........           CALL    ??KeyEventHappened
   \   00000112   2300               TST     R16
   \   00000114   F041               BREQ    ??KeyStateProcessing_6
    694                  {
    695                      //   .
    696                      SetFsmState(TEST_START);
   \   00000116   E00B               LDI     R16, 11
   \   00000118   ........           CALL    ??SetFsmState_1
    697                      m_xBuzzerNotifyerControl.AlarmSet(BEEP_SIGNAL);
   \   0000011C   E028               LDI     R18, 8
   \   0000011E   ....               LDI     R16, LOW(??m_xBuzzerNotifyerControl)
   \   00000120   ....               LDI     R17, (??m_xBuzzerNotifyerControl) >> 8
   \   00000122   ........           CALL    ??AlarmSet
    698                  }
    699              }
    700          
    701              //  ""  ""   7 ?
    702              if (m_xEventUniteLogicAndOne.IsHappened((m_xReceiptKey.KeyEventHappened(CMultiFunctionKey::KEY_EVENT_PRESSED_SET_DEFAULT)),
    703                                                      (m_xCheckKey.KeyEventHappened(CMultiFunctionKey::KEY_EVENT_PRESSED_SET_DEFAULT))))
   \                     ??KeyStateProcessing_6:
   \   00000126   E025               LDI     R18, 5
   \   00000128   ....               LDI     R16, LOW(??m_xCheckKey)
   \   0000012A   ....               LDI     R17, (??m_xCheckKey) >> 8
   \   0000012C   ........           CALL    ??KeyEventHappened
   \   00000130   2F80               MOV     R24, R16
   \   00000132   E025               LDI     R18, 5
   \   00000134   ....               LDI     R16, LOW(??m_xReceiptKey)
   \   00000136   ....               LDI     R17, (??m_xReceiptKey) >> 8
   \   00000138   ........           CALL    ??KeyEventHappened
   \   0000013C   2F20               MOV     R18, R16
   \   0000013E   2F38               MOV     R19, R24
   \   00000140   ....               LDI     R16, LOW(??m_xEventUniteLogicAndOne)
   \   00000142   ....               LDI     R17, (??m_xEventUniteLogicAndOne) >> 8
   \   00000144   ........           CALL    ??IsHappened
   \   00000148   2300               TST     R16
   \   0000014A   F031               BREQ    ??KeyStateProcessing_9
    704              {
    705                  //   Modbus     .
    706                  CPss21::ModbusDefaultInit();
   \   0000014C   ....               RCALL   ??ModbusDefaultInit
    707                  m_xBuzzerNotifyerControl.AlarmSet(BEEP_SIGNAL);
   \   0000014E   E028               LDI     R18, 8
   \   00000150   ....               LDI     R16, LOW(??m_xBuzzerNotifyerControl)
   \   00000152   ....               LDI     R17, (??m_xBuzzerNotifyerControl) >> 8
   \   00000154   ........           CALL    ??AlarmSet
    708              }
    709          }
   \                     ??KeyStateProcessing_9:
   \   00000158   9189               LD      R24, Y+
   \   0000015A   9508               RET
    710          
    711          //-----------------------------------------------------------------------------------------------------

   \                                 In  segment CODE, align 2, keep-with-next
    712          void CPss21::ReceiptResetGlobalFlagsClear(void)
   \                     ??ReceiptResetGlobalFlagsClear:
    713          {
    714              SetPanelReceipt(0);
   \   00000000   E000               LDI     R16, 0
   \   00000002   ........           CALL    ??SetPanelReceipt
    715              SetExternalReceipt(0);
   \   00000006   E000               LDI     R16, 0
   \   00000008   ........           CALL    ??SetExternalReceipt
    716              SetModbusReceipt(0);
   \   0000000C   E000               LDI     R16, 0
   \   0000000E   ........           CALL    ??SetModbusReceipt_1
    717              SetPanelReset(0);
   \   00000012   E000               LDI     R16, 0
   \   00000014   ........           CALL    ??SetPanelReset
    718              SetExternalReset(0);
   \   00000018   E000               LDI     R16, 0
   \   0000001A   ........           CALL    ??SetExternalReset
    719              SetModbusReset(0);
   \   0000001E   E000               LDI     R16, 0
   \   00000020   ........           CALL    ??SetModbusReset_1
    720          }
   \   00000024   9508               RET
    721          
    722          //-----------------------------------------------------------------------------------------------------

   \                                 In  segment CODE, align 2, keep-with-next
    723          uint8_t CPss21::ModulesInteraction(uint8_t uiModuleIndex)
   \                     ??ModulesInteraction:
    724          {
   \   00000000   938A               ST      -Y, R24
   \   00000002   2F80               MOV     R24, R16
    725              if (uiModuleIndex < (m_xDeviceConfigSearch.uiModulesQuantity))
   \   00000004   9100....           LDS     R16, ??m_xDeviceConfigSearch
   \   00000008   1780               CP      R24, R16
   \   0000000A   F4F0               BRCC    ??ModulesInteraction_1
    726              {
    727                  m_apxDrivers[uiModuleIndex] -> DataExchange();
   \   0000000C   2F08               MOV     R16, R24
   \   0000000E   E010               LDI     R17, 0
   \   00000010   0F00               LSL     R16
   \   00000012   1F11               ROL     R17
   \   00000014   01F8               MOVW    R31:R30, R17:R16
   \   00000016   ....               SUBI    R30, LOW((-(??m_apxDrivers) & 0xFFFF))
   \   00000018   ....               SBCI    R31, (-(??m_apxDrivers) & 0xFFFF) >> 8
   \   0000001A   8100               LD      R16, Z
   \   0000001C   8111               LDD     R17, Z+1
   \   0000001E   2F28               MOV     R18, R24
   \   00000020   E030               LDI     R19, 0
   \   00000022   0F22               LSL     R18
   \   00000024   1F33               ROL     R19
   \   00000026   01F9               MOVW    R31:R30, R19:R18
   \   00000028   ....               SUBI    R30, LOW((-(??m_apxDrivers) & 0xFFFF))
   \   0000002A   ....               SBCI    R31, (-(??m_apxDrivers) & 0xFFFF) >> 8
   \   0000002C   8120               LD      R18, Z
   \   0000002E   8131               LDD     R19, Z+1
   \   00000030   01F9               MOVW    R31:R30, R19:R18
   \   00000032   8521               LDD     R18, Z+9
   \   00000034   8532               LDD     R19, Z+10
   \   00000036   01F9               MOVW    R31:R30, R19:R18
   \   00000038   9632               ADIW    R31:R30, 2
   \   0000003A   9125               LPM     R18, Z+
   \   0000003C   9134               LPM     R19, Z
   \   0000003E   9733               SBIW    R31:R30, 3
   \   00000040   01F9               MOVW    R31:R30, R19:R18
   \   00000042   9509               ICALL
    728                  return 0;
   \   00000044   E000               LDI     R16, 0
   \   00000046   C001               RJMP    ??ModulesInteraction_2
    729              }
    730              else
    731              {
    732                  return 1;
   \                     ??ModulesInteraction_1:
   \   00000048   E001               LDI     R16, 1
   \                     ??ModulesInteraction_2:
   \   0000004A   9189               LD      R24, Y+
   \   0000004C   9508               RET
    733              }
    734          };
    735          
    736          //-----------------------------------------------------------------------------------------------------

   \                                 In  segment CODE, align 2, keep-with-next
    737          void CPss21::ConfigurationInit(void)
   \                     ??ConfigurationInit:
    738          {
   \   00000000   ........           CALL    ?PROLOGUE6_L09
   \   00000004                      REQUIRE ?Register_R4_is_cg_reg
   \   00000004                      REQUIRE ?Register_R5_is_cg_reg
    739              uint8_t* puiTempBuffer = m_auiIntermediateBuff;
   \   00000004   ....               LDI     R26, LOW(??m_auiIntermediateBuff)
   \   00000006   ....               LDI     R27, (??m_auiIntermediateBuff) >> 8
    740              uint8_t* puiAlarmDfaInit = m_auiReceiveMessageBuff;
   \   00000008   ....               LDI     R24, LOW(??m_auiReceiveMessageBuff)
   \   0000000A   ....               LDI     R25, (??m_auiReceiveMessageBuff) >> 8
    741          
    742              memset(puiAlarmDfaInit, 0, DISCRETE_SIGNALS_NUMBER);
   \   0000000C   E640               LDI     R20, 96
   \   0000000E   E050               LDI     R21, 0
   \   00000010   E020               LDI     R18, 0
   \   00000012   E030               LDI     R19, 0
   \   00000014   018C               MOVW    R17:R16, R25:R24
   \   00000016   ........           CALL    memset
    743          
    744              //   .
    745              //       - " ".
    746              CDataBase::ReadBlock(puiTempBuffer, TDataBase::DEV_CONFIG);
   \   0000001A   E020               LDI     R18, 0
   \   0000001C   018D               MOVW    R17:R16, R27:R26
   \   0000001E   ........           CALL    ??ReadBlock
    747              memcpy(reinterpret_cast<uint8_t*>(&m_xDeviceConfiguration),
    748                     puiTempBuffer,
    749                     sizeof(struct TDevConfig));
   \   00000022   E144               LDI     R20, 20
   \   00000024   E050               LDI     R21, 0
   \   00000026   019D               MOVW    R19:R18, R27:R26
   \   00000028   ....               LDI     R16, LOW(??m_xDeviceConfiguration)
   \   0000002A   ....               LDI     R17, (??m_xDeviceConfiguration) >> 8
   \   0000002C   ........           CALL    memcpy
    750          
    751              //    ModBus.
    752              //       - "  ModBus".
    753              CDataBase::ReadBlock(puiTempBuffer, TDataBase::MODBUS_SET);
   \   00000030   E021               LDI     R18, 1
   \   00000032   018D               MOVW    R17:R16, R27:R26
   \   00000034   ........           CALL    ??ReadBlock
    754              memcpy(reinterpret_cast<uint8_t*>(&m_xModbusSettings),
    755                     puiTempBuffer,
    756                     sizeof(struct TMBusSetting));
   \   00000038   E047               LDI     R20, 7
   \   0000003A   E050               LDI     R21, 0
   \   0000003C   019D               MOVW    R19:R18, R27:R26
   \   0000003E   ....               LDI     R16, LOW(??m_xModbusSettings)
   \   00000040   ....               LDI     R17, (??m_xModbusSettings) >> 8
   \   00000042   ........           CALL    memcpy
    757          
    758              //       - "  ".
    759              CDataBase::ReadBlock(puiTempBuffer, TDataBase::OUT_BASE);
   \   00000046   E025               LDI     R18, 5
   \   00000048   018D               MOVW    R17:R16, R27:R26
   \   0000004A   ........           CALL    ??ReadBlock
    760              memcpy(reinterpret_cast<uint8_t*>(&m_xDiscreteOutputDataBase),
    761                     puiTempBuffer,
    762                     sizeof(struct TOutputData));
   \   0000004E   E148               LDI     R20, 24
   \   00000050   E050               LDI     R21, 0
   \   00000052   019D               MOVW    R19:R18, R27:R26
   \   00000054   ....               LDI     R16, LOW(??m_xDiscreteOutputDataBase)
   \   00000056   ....               LDI     R17, (??m_xDiscreteOutputDataBase) >> 8
   \   00000058   ........           CALL    memcpy
    763          
    764              //       .
    765              //       - "     ".
    766              CDataBase::ReadBlock(puiTempBuffer, TDataBase::ACTIVITY_LEVEL);
   \   0000005C   E022               LDI     R18, 2
   \   0000005E   018D               MOVW    R17:R16, R27:R26
   \   00000060   ........           CALL    ??ReadBlock
    767              for (uint8_t i = 0;
   \   00000064   E020               LDI     R18, 0
    768                      i < DISCRETE_INPUTS_NUMBER;
   \                     ??ConfigurationInit_1:
   \   00000066   3320               CPI     R18, 48
   \   00000068   F508               BRCC    ??ConfigurationInit_2
    769                  )
    770              {
    771                  uint8_t uiData = *puiTempBuffer;
   \   0000006A   915C               LD      R21, X
    772                  for (uint8_t j = 0;
   \   0000006C   E030               LDI     R19, 0
    773                          j < 8;
   \                     ??ConfigurationInit_3:
   \   0000006E   3038               CPI     R19, 8
   \   00000070   F4D8               BRCC    ??ConfigurationInit_4
    774                          j++)
    775                  {
    776                      //        .
    777                      if (((uiData >> j) & 0x01))
   \   00000072   2F05               MOV     R16, R21
   \   00000074   E010               LDI     R17, 0
   \   00000076   2F43               MOV     R20, R19
   \   00000078   ........           CALL    ?SS_SHR_L02
   \   0000007C   7001               ANDI    R16, 0x01
   \   0000007E   2300               TST     R16
   \   00000080   F081               BREQ    ??ConfigurationInit_5
    778                      {
    779                          puiAlarmDfaInit[i] |= 0x80;
   \   00000082   2F02               MOV     R16, R18
   \   00000084   E010               LDI     R17, 0
   \   00000086   01FC               MOVW    R31:R30, R25:R24
   \   00000088   0FE0               ADD     R30, R16
   \   0000008A   1FF1               ADC     R31, R17
   \   0000008C   8100               LD      R16, Z
   \   0000008E   6800               ORI     R16, 0x80
   \   00000090   8300               ST      Z, R16
    780                          puiAlarmDfaInit[i] |= 0x40;
   \   00000092   2F02               MOV     R16, R18
   \   00000094   E010               LDI     R17, 0
   \   00000096   01FC               MOVW    R31:R30, R25:R24
   \   00000098   0FE0               ADD     R30, R16
   \   0000009A   1FF1               ADC     R31, R17
   \   0000009C   8100               LD      R16, Z
   \   0000009E   6400               ORI     R16, 0x40
   \   000000A0   8300               ST      Z, R16
    781                      }
    782          
    783                      i++;
   \                     ??ConfigurationInit_5:
   \   000000A2   9523               INC     R18
    784                  }
   \   000000A4   9533               INC     R19
   \   000000A6   CFE3               RJMP    ??ConfigurationInit_3
    785                  puiTempBuffer++;
   \                     ??ConfigurationInit_4:
   \   000000A8   9611               ADIW    R27:R26, 1
   \   000000AA   CFDD               RJMP    ??ConfigurationInit_1
    786              }
    787          
    788          //    //       namur.
    789          //    //       - "     namur".
    790          //    CDataBase::ReadBlock(puiTempBuffer, TDataBase::NAMUR_INPUTS);
    791          //    for (uint8_t i = 0;
    792          //            i < DISCRETE_INPUTS_NUMBER;
    793          //        )
    794          //    {
    795          //        uint8_t uiData = *puiTempBuffer;
    796          //        for (uint8_t j = 0;
    797          //                j < 8;
    798          //                j++)
    799          //        {
    800          //            //       namur.
    801          //            if (((uiData >> j) & 0x01))
    802          //            {
    803          //                puiAlarmDfaInit[i] |= 0x40;
    804          //            }
    805          //
    806          //            i++;
    807          //        }
    808          //        puiTempBuffer++;
    809          //    }
    810          
    811              puiTempBuffer = m_auiIntermediateBuff;
   \                     ??ConfigurationInit_2:
   \   000000AC   ....               LDI     R16, LOW(??m_auiIntermediateBuff)
   \   000000AE   ....               LDI     R17, (??m_auiIntermediateBuff) >> 8
   \   000000B0   01D8               MOVW    R27:R26, R17:R16
    812              //      .
    813              //       - "        ".
    814              CDataBase::ReadBlock(puiTempBuffer, TDataBase::ALARM_WINDOW_INDEX);
   \   000000B2   E023               LDI     R18, 3
   \   000000B4   018D               MOVW    R17:R16, R27:R26
   \   000000B6   ........           CALL    ??ReadBlock
    815              for (uint8_t i = 0;
   \   000000BA   E000               LDI     R16, 0
    816                      i < DISCRETE_SIGNALS_NUMBER;
   \                     ??ConfigurationInit_6:
   \   000000BC   3600               CPI     R16, 96
   \   000000BE   F480               BRCC    ??ConfigurationInit_7
    817                      i++)
    818              {
    819                  //       .
    820                  puiAlarmDfaInit[i] |= (puiTempBuffer[i] & ~(0xC0));
   \   000000C0   E010               LDI     R17, 0
   \   000000C2   01FD               MOVW    R31:R30, R27:R26
   \   000000C4   0FE0               ADD     R30, R16
   \   000000C6   1FF1               ADC     R31, R17
   \   000000C8   8110               LD      R17, Z
   \   000000CA   731F               ANDI    R17, 0x3F
   \   000000CC   2F20               MOV     R18, R16
   \   000000CE   E030               LDI     R19, 0
   \   000000D0   01FC               MOVW    R31:R30, R25:R24
   \   000000D2   0FE2               ADD     R30, R18
   \   000000D4   1FF3               ADC     R31, R19
   \   000000D6   8120               LD      R18, Z
   \   000000D8   2B21               OR      R18, R17
   \   000000DA   8320               ST      Z, R18
    821              }
   \   000000DC   9503               INC     R16
   \   000000DE   CFEE               RJMP    ??ConfigurationInit_6
    822          
    823              //       - "    ".
    824              CDataBase::ReadBlock(puiTempBuffer, TDataBase::ALARM_TYPE);
   \                     ??ConfigurationInit_7:
   \   000000E0   E024               LDI     R18, 4
   \   000000E2   018D               MOVW    R17:R16, R27:R26
   \   000000E4   ........           CALL    ??ReadBlock
    825              for (uint8_t i = 0;
   \   000000E8   E020               LDI     R18, 0
    826                      i < DISCRETE_SIGNALS_NUMBER;
   \                     ??ConfigurationInit_8:
   \   000000EA   3620               CPI     R18, 96
   \   000000EC   F528               BRCC    ??ConfigurationInit_9
    827                      i++)
    828              {
    829                  uint8_t uiWindowIndex = (puiAlarmDfaInit[i] & ~(0xC0));
   \   000000EE   E030               LDI     R19, 0
   \   000000F0   01FC               MOVW    R31:R30, R25:R24
   \   000000F2   0FE2               ADD     R30, R18
   \   000000F4   1FF3               ADC     R31, R19
   \   000000F6   8100               LD      R16, Z
   \   000000F8   730F               ANDI    R16, 0x3F
    830                  //      ?
    831                  if (uiWindowIndex < ALARM_WINDOWS_NUMBER)
   \   000000FA   3300               CPI     R16, 48
   \   000000FC   F4A0               BRCC    ??ConfigurationInit_10
    832                  {
    833                      //    ,   .
    834                      //       .
    835                      //      namur.
    836                      puiAlarmDfaInit[i] &= 0xC0;
   \   000000FE   E030               LDI     R19, 0
   \   00000100   01FC               MOVW    R31:R30, R25:R24
   \   00000102   0FE2               ADD     R30, R18
   \   00000104   1FF3               ADC     R31, R19
   \   00000106   8110               LD      R17, Z
   \   00000108   7C10               ANDI    R17, 0xC0
   \   0000010A   8310               ST      Z, R17
    837                      //      .
    838                      puiAlarmDfaInit[i] |= puiTempBuffer[uiWindowIndex];
   \   0000010C   E010               LDI     R17, 0
   \   0000010E   01FD               MOVW    R31:R30, R27:R26
   \   00000110   0FE0               ADD     R30, R16
   \   00000112   1FF1               ADC     R31, R17
   \   00000114   8100               LD      R16, Z
   \   00000116   E030               LDI     R19, 0
   \   00000118   01FC               MOVW    R31:R30, R25:R24
   \   0000011A   0FE2               ADD     R30, R18
   \   0000011C   1FF3               ADC     R31, R19
   \   0000011E   8110               LD      R17, Z
   \   00000120   2B10               OR      R17, R16
   \   00000122   8310               ST      Z, R17
   \   00000124   C007               RJMP    ??ConfigurationInit_11
    839                  }
    840                  else
    841                  {
    842                      //    ,   .
    843                      //       .
    844                      //      namur.
    845                      puiAlarmDfaInit[i] &= 0xC0;
   \                     ??ConfigurationInit_10:
   \   00000126   E030               LDI     R19, 0
   \   00000128   01FC               MOVW    R31:R30, R25:R24
   \   0000012A   0FE2               ADD     R30, R18
   \   0000012C   1FF3               ADC     R31, R19
   \   0000012E   8110               LD      R17, Z
   \   00000130   7C10               ANDI    R17, 0xC0
   \   00000132   8310               ST      Z, R17
    846                  }
    847              }
   \                     ??ConfigurationInit_11:
   \   00000134   9523               INC     R18
   \   00000136   CFD9               RJMP    ??ConfigurationInit_8
    848          
    849              //       .
    850              for (uint8_t i = 0;
   \                     ??ConfigurationInit_9:
   \   00000138   2444               CLR     R4
    851                      i < DISCRETE_SIGNALS_NUMBER;
   \                     ??ConfigurationInit_12:
   \   0000013A   E600               LDI     R16, 96
   \   0000013C   1640               CP      R4, R16
   \   0000013E   F008               BRCS    $+2+2
   \   00000140   C117               RJMP    ??ConfigurationInit_13
    852                      i++)
    853              {
    854                  //       ?
    855                  switch (puiAlarmDfaInit[i] & 0x03)
   \   00000142   2455               CLR     R5
   \   00000144   01FC               MOVW    R31:R30, R25:R24
   \   00000146   0DE4               ADD     R30, R4
   \   00000148   1DF5               ADC     R31, R5
   \   0000014A   8100               LD      R16, Z
   \   0000014C   E010               LDI     R17, 0
   \   0000014E   7003               ANDI    R16, 0x03
   \   00000150   7010               ANDI    R17, 0x00
   \   00000152   5000               SUBI    R16, 0
   \   00000154   F031               BREQ    ??ConfigurationInit_14
   \   00000156   950A               DEC     R16
   \   00000158   F0D1               BREQ    ??ConfigurationInit_15
   \   0000015A   5002               SUBI    R16, 2
   \   0000015C   F409               BRNE    $+2+2
   \   0000015E   C084               RJMP    ??ConfigurationInit_16
   \   00000160   C0F0               RJMP    ??ConfigurationInit_17
    856                  {
    857                  case NORMAL:
    858                      m_apxAlarmDfa[i] = new CNormalAlarmDfa;
   \                     ??ConfigurationInit_14:
   \   00000162   E007               LDI     R16, 7
   \   00000164   E010               LDI     R17, 0
   \   00000166   ........           CALL    `??operator new`
   \   0000016A   2F20               MOV     R18, R16
   \   0000016C   2B21               OR      R18, R17
   \   0000016E   F019               BREQ    ??ConfigurationInit_18
   \   00000170   ........           CALL    ??CNormalAlarmDfa
   \   00000174   C002               RJMP    ??ConfigurationInit_19
   \                     ??ConfigurationInit_18:
   \   00000176   E000               LDI     R16, 0
   \   00000178   E010               LDI     R17, 0
   \                     ??ConfigurationInit_19:
   \   0000017A   2D24               MOV     R18, R4
   \   0000017C   E030               LDI     R19, 0
   \   0000017E   0F22               LSL     R18
   \   00000180   1F33               ROL     R19
   \   00000182   01F9               MOVW    R31:R30, R19:R18
   \   00000184   ....               SUBI    R30, LOW((-(??m_apxAlarmDfa) & 0xFFFF))
   \   00000186   ....               SBCI    R31, (-(??m_apxAlarmDfa) & 0xFFFF) >> 8
   \   00000188   8300               ST      Z, R16
   \   0000018A   8311               STD     Z+1, R17
    859                      break;
   \   0000018C   C0EF               RJMP    ??ConfigurationInit_20
    860          
    861                  case INDICATION:
    862                      //       - ?
    863                      if (puiAlarmDfaInit[i] & 0x80)
   \                     ??ConfigurationInit_15:
   \   0000018E   2455               CLR     R5
   \   00000190   01FC               MOVW    R31:R30, R25:R24
   \   00000192   0DE4               ADD     R30, R4
   \   00000194   1DF5               ADC     R31, R5
   \   00000196   8100               LD      R16, Z
   \   00000198   FF07               SBRS    R16, 7
   \   0000019A   C033               RJMP    ??ConfigurationInit_21
    864                      {
    865          //                m_apxAlarmDfa[i] = new CIndicationAlarmHighLevelDfa;
    866                          //      namur - ?
    867                          if (puiAlarmDfaInit[i] & 0x40)
   \   0000019C   2455               CLR     R5
   \   0000019E   01FC               MOVW    R31:R30, R25:R24
   \   000001A0   0DE4               ADD     R30, R4
   \   000001A2   1DF5               ADC     R31, R5
   \   000001A4   8100               LD      R16, Z
   \   000001A6   FF06               SBRS    R16, 6
   \   000001A8   C016               RJMP    ??ConfigurationInit_22
    868                          {
    869                              m_apxAlarmDfa[i] = new CIndicationAlarmHighLevelNamurDfa;
   \   000001AA   E007               LDI     R16, 7
   \   000001AC   E010               LDI     R17, 0
   \   000001AE   ........           CALL    `??operator new`
   \   000001B2   2F20               MOV     R18, R16
   \   000001B4   2B21               OR      R18, R17
   \   000001B6   F019               BREQ    ??ConfigurationInit_23
   \   000001B8   ........           CALL    ??CIndicationAlarmHighLevelNamurDfa
   \   000001BC   C002               RJMP    ??ConfigurationInit_24
   \                     ??ConfigurationInit_23:
   \   000001BE   E000               LDI     R16, 0
   \   000001C0   E010               LDI     R17, 0
   \                     ??ConfigurationInit_24:
   \   000001C2   2D24               MOV     R18, R4
   \   000001C4   E030               LDI     R19, 0
   \   000001C6   0F22               LSL     R18
   \   000001C8   1F33               ROL     R19
   \   000001CA   01F9               MOVW    R31:R30, R19:R18
   \   000001CC   ....               SUBI    R30, LOW((-(??m_apxAlarmDfa) & 0xFFFF))
   \   000001CE   ....               SBCI    R31, (-(??m_apxAlarmDfa) & 0xFFFF) >> 8
   \   000001D0   8300               ST      Z, R16
   \   000001D2   8311               STD     Z+1, R17
   \   000001D4   C0CB               RJMP    ??ConfigurationInit_20
    870                          }
    871                          else
    872                          {
    873                              m_apxAlarmDfa[i] = new CIndicationAlarmHighLevelDfa;
   \                     ??ConfigurationInit_22:
   \   000001D6   E007               LDI     R16, 7
   \   000001D8   E010               LDI     R17, 0
   \   000001DA   ........           CALL    `??operator new`
   \   000001DE   2F20               MOV     R18, R16
   \   000001E0   2B21               OR      R18, R17
   \   000001E2   F019               BREQ    ??ConfigurationInit_25
   \   000001E4   ........           CALL    ??CIndicationAlarmHighLevelDfa
   \   000001E8   C002               RJMP    ??ConfigurationInit_26
   \                     ??ConfigurationInit_25:
   \   000001EA   E000               LDI     R16, 0
   \   000001EC   E010               LDI     R17, 0
   \                     ??ConfigurationInit_26:
   \   000001EE   2D24               MOV     R18, R4
   \   000001F0   E030               LDI     R19, 0
   \   000001F2   0F22               LSL     R18
   \   000001F4   1F33               ROL     R19
   \   000001F6   01F9               MOVW    R31:R30, R19:R18
   \   000001F8   ....               SUBI    R30, LOW((-(??m_apxAlarmDfa) & 0xFFFF))
   \   000001FA   ....               SBCI    R31, (-(??m_apxAlarmDfa) & 0xFFFF) >> 8
   \   000001FC   8300               ST      Z, R16
   \   000001FE   8311               STD     Z+1, R17
   \   00000200   C0B5               RJMP    ??ConfigurationInit_20
    874                          }
    875                      }
    876                      else
    877                      {
    878          //                m_apxAlarmDfa[i] = new CIndicationAlarmLowLevelDfa;
    879                          //      namur - ?
    880                          if (puiAlarmDfaInit[i] & 0x40)
   \                     ??ConfigurationInit_21:
   \   00000202   2455               CLR     R5
   \   00000204   01FC               MOVW    R31:R30, R25:R24
   \   00000206   0DE4               ADD     R30, R4
   \   00000208   1DF5               ADC     R31, R5
   \   0000020A   8100               LD      R16, Z
   \   0000020C   FF06               SBRS    R16, 6
   \   0000020E   C016               RJMP    ??ConfigurationInit_27
    881                          {
    882                              m_apxAlarmDfa[i] = new CIndicationAlarmLowLevelNamurDfa;
   \   00000210   E007               LDI     R16, 7
   \   00000212   E010               LDI     R17, 0
   \   00000214   ........           CALL    `??operator new`
   \   00000218   2F20               MOV     R18, R16
   \   0000021A   2B21               OR      R18, R17
   \   0000021C   F019               BREQ    ??ConfigurationInit_28
   \   0000021E   ........           CALL    ??CIndicationAlarmLowLevelNamurDfa
   \   00000222   C002               RJMP    ??ConfigurationInit_29
   \                     ??ConfigurationInit_28:
   \   00000224   E000               LDI     R16, 0
   \   00000226   E010               LDI     R17, 0
   \                     ??ConfigurationInit_29:
   \   00000228   2D24               MOV     R18, R4
   \   0000022A   E030               LDI     R19, 0
   \   0000022C   0F22               LSL     R18
   \   0000022E   1F33               ROL     R19
   \   00000230   01F9               MOVW    R31:R30, R19:R18
   \   00000232   ....               SUBI    R30, LOW((-(??m_apxAlarmDfa) & 0xFFFF))
   \   00000234   ....               SBCI    R31, (-(??m_apxAlarmDfa) & 0xFFFF) >> 8
   \   00000236   8300               ST      Z, R16
   \   00000238   8311               STD     Z+1, R17
   \   0000023A   C098               RJMP    ??ConfigurationInit_20
    883                          }
    884                          else
    885                          {
    886                              m_apxAlarmDfa[i] = new CIndicationAlarmLowLevelDfa;
   \                     ??ConfigurationInit_27:
   \   0000023C   E007               LDI     R16, 7
   \   0000023E   E010               LDI     R17, 0
   \   00000240   ........           CALL    `??operator new`
   \   00000244   2F20               MOV     R18, R16
   \   00000246   2B21               OR      R18, R17
   \   00000248   F019               BREQ    ??ConfigurationInit_30
   \   0000024A   ........           CALL    ??CIndicationAlarmLowLevelDfa
   \   0000024E   C002               RJMP    ??ConfigurationInit_31
   \                     ??ConfigurationInit_30:
   \   00000250   E000               LDI     R16, 0
   \   00000252   E010               LDI     R17, 0
   \                     ??ConfigurationInit_31:
   \   00000254   2D24               MOV     R18, R4
   \   00000256   E030               LDI     R19, 0
   \   00000258   0F22               LSL     R18
   \   0000025A   1F33               ROL     R19
   \   0000025C   01F9               MOVW    R31:R30, R19:R18
   \   0000025E   ....               SUBI    R30, LOW((-(??m_apxAlarmDfa) & 0xFFFF))
   \   00000260   ....               SBCI    R31, (-(??m_apxAlarmDfa) & 0xFFFF) >> 8
   \   00000262   8300               ST      Z, R16
   \   00000264   8311               STD     Z+1, R17
    887                          }
    888                      }
    889                      break;
   \   00000266   C082               RJMP    ??ConfigurationInit_20
    890          
    891                  case PREVENTIVE:
    892                      //       - ?
    893                      if (puiAlarmDfaInit[i] & 0x80)
   \                     ??ConfigurationInit_16:
   \   00000268   2455               CLR     R5
   \   0000026A   01FC               MOVW    R31:R30, R25:R24
   \   0000026C   0DE4               ADD     R30, R4
   \   0000026E   1DF5               ADC     R31, R5
   \   00000270   8100               LD      R16, Z
   \   00000272   FF07               SBRS    R16, 7
   \   00000274   C033               RJMP    ??ConfigurationInit_32
    894                      {
    895          //                m_apxAlarmDfa[i] = new CPreventiveAlarmHighLevelDfa;
    896                          //      namur - ?
    897                          if (puiAlarmDfaInit[i] & 0x40)
   \   00000276   2455               CLR     R5
   \   00000278   01FC               MOVW    R31:R30, R25:R24
   \   0000027A   0DE4               ADD     R30, R4
   \   0000027C   1DF5               ADC     R31, R5
   \   0000027E   8100               LD      R16, Z
   \   00000280   FF06               SBRS    R16, 6
   \   00000282   C016               RJMP    ??ConfigurationInit_33
    898                          {
    899                              m_apxAlarmDfa[i] = new CPreventiveAlarmHighLevelNamurDfa;
   \   00000284   E007               LDI     R16, 7
   \   00000286   E010               LDI     R17, 0
   \   00000288   ........           CALL    `??operator new`
   \   0000028C   2F20               MOV     R18, R16
   \   0000028E   2B21               OR      R18, R17
   \   00000290   F019               BREQ    ??ConfigurationInit_34
   \   00000292   ........           CALL    ??CPreventiveAlarmHighLevelNamurDfa
   \   00000296   C002               RJMP    ??ConfigurationInit_35
   \                     ??ConfigurationInit_34:
   \   00000298   E000               LDI     R16, 0
   \   0000029A   E010               LDI     R17, 0
   \                     ??ConfigurationInit_35:
   \   0000029C   2D24               MOV     R18, R4
   \   0000029E   E030               LDI     R19, 0
   \   000002A0   0F22               LSL     R18
   \   000002A2   1F33               ROL     R19
   \   000002A4   01F9               MOVW    R31:R30, R19:R18
   \   000002A6   ....               SUBI    R30, LOW((-(??m_apxAlarmDfa) & 0xFFFF))
   \   000002A8   ....               SBCI    R31, (-(??m_apxAlarmDfa) & 0xFFFF) >> 8
   \   000002AA   8300               ST      Z, R16
   \   000002AC   8311               STD     Z+1, R17
   \   000002AE   C05E               RJMP    ??ConfigurationInit_20
    900                          }
    901                          else
    902                          {
    903                              m_apxAlarmDfa[i] = new CPreventiveAlarmHighLevelDfa;
   \                     ??ConfigurationInit_33:
   \   000002B0   E007               LDI     R16, 7
   \   000002B2   E010               LDI     R17, 0
   \   000002B4   ........           CALL    `??operator new`
   \   000002B8   2F20               MOV     R18, R16
   \   000002BA   2B21               OR      R18, R17
   \   000002BC   F019               BREQ    ??ConfigurationInit_36
   \   000002BE   ........           CALL    ??CPreventiveAlarmHighLevelDfa
   \   000002C2   C002               RJMP    ??ConfigurationInit_37
   \                     ??ConfigurationInit_36:
   \   000002C4   E000               LDI     R16, 0
   \   000002C6   E010               LDI     R17, 0
   \                     ??ConfigurationInit_37:
   \   000002C8   2D24               MOV     R18, R4
   \   000002CA   E030               LDI     R19, 0
   \   000002CC   0F22               LSL     R18
   \   000002CE   1F33               ROL     R19
   \   000002D0   01F9               MOVW    R31:R30, R19:R18
   \   000002D2   ....               SUBI    R30, LOW((-(??m_apxAlarmDfa) & 0xFFFF))
   \   000002D4   ....               SBCI    R31, (-(??m_apxAlarmDfa) & 0xFFFF) >> 8
   \   000002D6   8300               ST      Z, R16
   \   000002D8   8311               STD     Z+1, R17
   \   000002DA   C048               RJMP    ??ConfigurationInit_20
    904                          }
    905                      }
    906                      else
    907                      {
    908          //                m_apxAlarmDfa[i] = new CPreventiveAlarmLowLevelDfa;
    909                          //      namur - ?
    910                          if (puiAlarmDfaInit[i] & 0x40)
   \                     ??ConfigurationInit_32:
   \   000002DC   2455               CLR     R5
   \   000002DE   01FC               MOVW    R31:R30, R25:R24
   \   000002E0   0DE4               ADD     R30, R4
   \   000002E2   1DF5               ADC     R31, R5
   \   000002E4   8100               LD      R16, Z
   \   000002E6   FF06               SBRS    R16, 6
   \   000002E8   C016               RJMP    ??ConfigurationInit_38
    911                          {
    912                              m_apxAlarmDfa[i] = new CPreventiveAlarmLowLevelNamurDfa;
   \   000002EA   E007               LDI     R16, 7
   \   000002EC   E010               LDI     R17, 0
   \   000002EE   ........           CALL    `??operator new`
   \   000002F2   2F20               MOV     R18, R16
   \   000002F4   2B21               OR      R18, R17
   \   000002F6   F019               BREQ    ??ConfigurationInit_39
   \   000002F8   ........           CALL    ??CPreventiveAlarmLowLevelNamurDfa
   \   000002FC   C002               RJMP    ??ConfigurationInit_40
   \                     ??ConfigurationInit_39:
   \   000002FE   E000               LDI     R16, 0
   \   00000300   E010               LDI     R17, 0
   \                     ??ConfigurationInit_40:
   \   00000302   2D24               MOV     R18, R4
   \   00000304   E030               LDI     R19, 0
   \   00000306   0F22               LSL     R18
   \   00000308   1F33               ROL     R19
   \   0000030A   01F9               MOVW    R31:R30, R19:R18
   \   0000030C   ....               SUBI    R30, LOW((-(??m_apxAlarmDfa) & 0xFFFF))
   \   0000030E   ....               SBCI    R31, (-(??m_apxAlarmDfa) & 0xFFFF) >> 8
   \   00000310   8300               ST      Z, R16
   \   00000312   8311               STD     Z+1, R17
   \   00000314   C02B               RJMP    ??ConfigurationInit_20
    913                          }
    914                          else
    915                          {
    916                              m_apxAlarmDfa[i] = new CPreventiveAlarmLowLevelDfa;
   \                     ??ConfigurationInit_38:
   \   00000316   E007               LDI     R16, 7
   \   00000318   E010               LDI     R17, 0
   \   0000031A   ........           CALL    `??operator new`
   \   0000031E   2F20               MOV     R18, R16
   \   00000320   2B21               OR      R18, R17
   \   00000322   F019               BREQ    ??ConfigurationInit_41
   \   00000324   ........           CALL    ??CPreventiveAlarmLowLevelDfa
   \   00000328   C002               RJMP    ??ConfigurationInit_42
   \                     ??ConfigurationInit_41:
   \   0000032A   E000               LDI     R16, 0
   \   0000032C   E010               LDI     R17, 0
   \                     ??ConfigurationInit_42:
   \   0000032E   2D24               MOV     R18, R4
   \   00000330   E030               LDI     R19, 0
   \   00000332   0F22               LSL     R18
   \   00000334   1F33               ROL     R19
   \   00000336   01F9               MOVW    R31:R30, R19:R18
   \   00000338   ....               SUBI    R30, LOW((-(??m_apxAlarmDfa) & 0xFFFF))
   \   0000033A   ....               SBCI    R31, (-(??m_apxAlarmDfa) & 0xFFFF) >> 8
   \   0000033C   8300               ST      Z, R16
   \   0000033E   8311               STD     Z+1, R17
    917                          }
    918                      }
    919                      break;
   \   00000340   C015               RJMP    ??ConfigurationInit_20
    920          
    921                  case EMERGENCY:
    922                      //       - ?
    923                      if (puiAlarmDfaInit[i] & 0x80)
    924                      {
    925          //                m_apxAlarmDfa[i] = new CEmergencyAlarmHighLevelDfa;
    926                          //      namur - ?
    927                          if (puiAlarmDfaInit[i] & 0x40)
    928                          {
    929                              m_apxAlarmDfa[i] = new CEmergencyAlarmHighLevelNamurDfa;
    930                          }
    931                          else
    932                          {
    933                              m_apxAlarmDfa[i] = new CEmergencyAlarmHighLevelDfa;
    934                          }
    935                      }
    936                      else
    937                      {
    938          //                m_apxAlarmDfa[i] = new CEmergencyAlarmLowLevelDfa;
    939                          //      namur - ?
    940                          if (puiAlarmDfaInit[i] & 0x40)
    941                          {
    942                              m_apxAlarmDfa[i] = new CEmergencyAlarmLowLevelNamurDfa;
    943                          }
    944                          else
    945                          {
    946                              m_apxAlarmDfa[i] = new CEmergencyAlarmLowLevelDfa;
    947                          }
    948                      }
    949                      break;
    950          
    951                  case IND_PREVENTIVE:
    952                      m_apxAlarmDfa[i] = new CNormalAlarmDfa;
    953                      break;
    954          
    955                  case IND_EMERGENCY:
    956                      m_apxAlarmDfa[i] = new CNormalAlarmDfa;
    957                      break;
    958          
    959                  default:
    960                      m_apxAlarmDfa[i] = new CNormalAlarmDfa;
   \                     ??ConfigurationInit_17:
   \   00000342   E007               LDI     R16, 7
   \   00000344   E010               LDI     R17, 0
   \   00000346   ........           CALL    `??operator new`
   \   0000034A   2F20               MOV     R18, R16
   \   0000034C   2B21               OR      R18, R17
   \   0000034E   F019               BREQ    ??ConfigurationInit_43
   \   00000350   ........           CALL    ??CNormalAlarmDfa
   \   00000354   C002               RJMP    ??ConfigurationInit_44
   \                     ??ConfigurationInit_43:
   \   00000356   E000               LDI     R16, 0
   \   00000358   E010               LDI     R17, 0
   \                     ??ConfigurationInit_44:
   \   0000035A   2D24               MOV     R18, R4
   \   0000035C   E030               LDI     R19, 0
   \   0000035E   0F22               LSL     R18
   \   00000360   1F33               ROL     R19
   \   00000362   01F9               MOVW    R31:R30, R19:R18
   \   00000364   ....               SUBI    R30, LOW((-(??m_apxAlarmDfa) & 0xFFFF))
   \   00000366   ....               SBCI    R31, (-(??m_apxAlarmDfa) & 0xFFFF) >> 8
   \   00000368   8300               ST      Z, R16
   \   0000036A   8311               STD     Z+1, R17
    961                      break;
    962                  }
    963              }
   \                     ??ConfigurationInit_20:
   \   0000036C   9443               INC     R4
   \   0000036E   CEE5               RJMP    ??ConfigurationInit_12
    964          
    965              //         .
    966              //       - "        ".
    967              CDataBase::ReadBlock(puiTempBuffer, TDataBase::ALARM_WINDOW_INDEX);
   \                     ??ConfigurationInit_13:
   \   00000370   E023               LDI     R18, 3
   \   00000372   018D               MOVW    R17:R16, R27:R26
   \   00000374   ........           CALL    ??ReadBlock
    968              for (uint8_t i = 0;
   \   00000378   2444               CLR     R4
    969                      i < DISCRETE_SIGNALS_NUMBER;
   \                     ??ConfigurationInit_45:
   \   0000037A   E600               LDI     R16, 96
   \   0000037C   1640               CP      R4, R16
   \   0000037E   F530               BRCC    ??ConfigurationInit_46
    970                      i++)
    971              {
    972                  //      ?
    973                  if (puiTempBuffer[i] < ALARM_WINDOWS_NUMBER)
   \   00000380   2455               CLR     R5
   \   00000382   01FD               MOVW    R31:R30, R27:R26
   \   00000384   0DE4               ADD     R30, R4
   \   00000386   1DF5               ADC     R31, R5
   \   00000388   8100               LD      R16, Z
   \   0000038A   3300               CPI     R16, 48
   \   0000038C   F488               BRCC    ??ConfigurationInit_47
    974                  {
    975                      //       .
    976                      m_apxAlarmDfa[i] ->
    977                      SetAlarmWindowIndex(puiTempBuffer[i]);
   \   0000038E   2455               CLR     R5
   \   00000390   01FD               MOVW    R31:R30, R27:R26
   \   00000392   0DE4               ADD     R30, R4
   \   00000394   1DF5               ADC     R31, R5
   \   00000396   8120               LD      R18, Z
   \   00000398   2D04               MOV     R16, R4
   \   0000039A   E010               LDI     R17, 0
   \   0000039C   0F00               LSL     R16
   \   0000039E   1F11               ROL     R17
   \   000003A0   01F8               MOVW    R31:R30, R17:R16
   \   000003A2   ....               SUBI    R30, LOW((-(??m_apxAlarmDfa) & 0xFFFF))
   \   000003A4   ....               SBCI    R31, (-(??m_apxAlarmDfa) & 0xFFFF) >> 8
   \   000003A6   8100               LD      R16, Z
   \   000003A8   8111               LDD     R17, Z+1
   \   000003AA   ........           CALL    ??SetAlarmWindowIndex
   \   000003AE   C00C               RJMP    ??ConfigurationInit_48
    978                  }
    979                  else
    980                  {
    981                      m_apxAlarmDfa[i] ->
    982                      SetAlarmWindowIndex(0);
   \                     ??ConfigurationInit_47:
   \   000003B0   E020               LDI     R18, 0
   \   000003B2   2D04               MOV     R16, R4
   \   000003B4   E010               LDI     R17, 0
   \   000003B6   0F00               LSL     R16
   \   000003B8   1F11               ROL     R17
   \   000003BA   01F8               MOVW    R31:R30, R17:R16
   \   000003BC   ....               SUBI    R30, LOW((-(??m_apxAlarmDfa) & 0xFFFF))
   \   000003BE   ....               SBCI    R31, (-(??m_apxAlarmDfa) & 0xFFFF) >> 8
   \   000003C0   8100               LD      R16, Z
   \   000003C2   8111               LDD     R17, Z+1
   \   000003C4   ........           CALL    ??SetAlarmWindowIndex
    983                  }
    984              }
   \                     ??ConfigurationInit_48:
   \   000003C8   9443               INC     R4
   \   000003CA   CFD7               RJMP    ??ConfigurationInit_45
    985          
    986              //       - " ,   ".
    987              CDataBase::ReadBlock(puiTempBuffer, TDataBase::RELAY);
   \                     ??ConfigurationInit_46:
   \   000003CC   E026               LDI     R18, 6
   \   000003CE   018D               MOVW    R17:R16, R27:R26
   \   000003D0   ........           CALL    ??ReadBlock
    988              //     .
    989              for (uint8_t i = 0;
   \   000003D4   2444               CLR     R4
    990                      i < DISCRETE_SIGNALS_NUMBER;
   \                     ??ConfigurationInit_49:
   \   000003D6   E600               LDI     R16, 96
   \   000003D8   1640               CP      R4, R16
   \   000003DA   F4A0               BRCC    ??ConfigurationInit_50
    991                      i++)
    992              {
    993                  *(m_apxAlarmDfa[i] -> GetLinkedDiscreteOutputsPointer()) = puiTempBuffer[i];
   \   000003DC   2D04               MOV     R16, R4
   \   000003DE   E010               LDI     R17, 0
   \   000003E0   0F00               LSL     R16
   \   000003E2   1F11               ROL     R17
   \   000003E4   01F8               MOVW    R31:R30, R17:R16
   \   000003E6   ....               SUBI    R30, LOW((-(??m_apxAlarmDfa) & 0xFFFF))
   \   000003E8   ....               SBCI    R31, (-(??m_apxAlarmDfa) & 0xFFFF) >> 8
   \   000003EA   8100               LD      R16, Z
   \   000003EC   8111               LDD     R17, Z+1
   \   000003EE   ........           CALL    ??GetLinkedDiscreteOutputsPointer
   \   000003F2   2455               CLR     R5
   \   000003F4   01FD               MOVW    R31:R30, R27:R26
   \   000003F6   0DE4               ADD     R30, R4
   \   000003F8   1DF5               ADC     R31, R5
   \   000003FA   8120               LD      R18, Z
   \   000003FC   01F8               MOVW    R31:R30, R17:R16
   \   000003FE   8320               ST      Z, R18
    994              };
   \   00000400   9443               INC     R4
   \   00000402   CFE9               RJMP    ??ConfigurationInit_49
    995          
    996              //       -   .
    997              for (uint8_t i = 0;
   \                     ??ConfigurationInit_50:
   \   00000404   2444               CLR     R4
    998                      i < DISCRETE_INPUTS_NUMBER;
   \                     ??ConfigurationInit_51:
   \   00000406   E300               LDI     R16, 48
   \   00000408   1640               CP      R4, R16
   \   0000040A   F470               BRCC    ??ConfigurationInit_52
    999                      i++)
   1000              {
   1001                  m_apxAlarmDfa[i] -> SetDiscreteStateIndex(i);
   \   0000040C   2D24               MOV     R18, R4
   \   0000040E   2D04               MOV     R16, R4
   \   00000410   E010               LDI     R17, 0
   \   00000412   0F00               LSL     R16
   \   00000414   1F11               ROL     R17
   \   00000416   01F8               MOVW    R31:R30, R17:R16
   \   00000418   ....               SUBI    R30, LOW((-(??m_apxAlarmDfa) & 0xFFFF))
   \   0000041A   ....               SBCI    R31, (-(??m_apxAlarmDfa) & 0xFFFF) >> 8
   \   0000041C   8100               LD      R16, Z
   \   0000041E   8111               LDD     R17, Z+1
   \   00000420   ........           CALL    ??SetDiscreteStateIndex
   1002              };
   \   00000424   9443               INC     R4
   \   00000426   CFEF               RJMP    ??ConfigurationInit_51
   1003              //       -  (coils Modbus).
   1004              for (uint8_t i = 0;
   \                     ??ConfigurationInit_52:
   \   00000428   2444               CLR     R4
   1005                      i < ALARM_WINDOWS_NUMBER;
   \                     ??ConfigurationInit_53:
   \   0000042A   E300               LDI     R16, 48
   \   0000042C   1640               CP      R4, R16
   \   0000042E   F478               BRCC    ??ConfigurationInit_54
   1006                      i++)
   1007              {
   1008                  m_apxAlarmDfa[DISCRETE_INPUTS_NUMBER + i] -> SetDiscreteStateIndex(DISCRETE_INPUTS_NUMBER + i);
   \   00000430   2D24               MOV     R18, R4
   \   00000432   5D20               SUBI    R18, 208
   \   00000434   2D04               MOV     R16, R4
   \   00000436   E010               LDI     R17, 0
   \   00000438   0F00               LSL     R16
   \   0000043A   1F11               ROL     R17
   \   0000043C   01F8               MOVW    R31:R30, R17:R16
   \   0000043E   ....               SUBI    R30, LOW((-(??m_apxAlarmDfa + 96) & 0xFFFF))
   \   00000440   ....               SBCI    R31, HIGH((-(??m_apxAlarmDfa + 96) & 0xFFFF))
   \   00000442   8100               LD      R16, Z
   \   00000444   8111               LDD     R17, Z+1
   \   00000446   ........           CALL    ??SetDiscreteStateIndex
   1009          //        m_apxAlarmDfa[DISCRETE_INPUTS_NUMBER + i] -> SetDiscreteStateIndex(i);
   1010              };
   \   0000044A   9443               INC     R4
   \   0000044C   CFEE               RJMP    ??ConfigurationInit_53
   1011          
   1012              //    .
   1013              //       - "    EEPROM".
   1014              CDataBase::ReadBlock(puiTempBuffer, TDataBase::DEVICE_STATE);
   \                     ??ConfigurationInit_54:
   \   0000044E   E02A               LDI     R18, 10
   \   00000450   018D               MOVW    R17:R16, R27:R26
   \   00000452   ........           CALL    ??ReadBlock
   1015              memcpy(reinterpret_cast<uint8_t*>(&m_xDeviceState),
   1016                     puiTempBuffer,
   1017                     sizeof(struct TDeviceState));
   \   00000456   E048               LDI     R20, 8
   \   00000458   E050               LDI     R21, 0
   \   0000045A   019D               MOVW    R19:R18, R27:R26
   \   0000045C   ....               LDI     R16, LOW(??m_xDeviceState)
   \   0000045E   ....               LDI     R17, (??m_xDeviceState) >> 8
   \   00000460   ........           CALL    memcpy
   1018          
   1019          //    //    .
   1020          //    uint8_t uiIndex = 0;
   1021          //
   1022          //    m_apxErrorAlarmDfa[uiIndex] = new CErrorAlarmDfa;
   1023          //    //        .
   1024          //    m_apxErrorAlarmDfa[uiIndex] -> SetAlarmWindowIndex(IMD_ERROR);
   1025          //    //     .
   1026          //    m_apxErrorAlarmDfa[uiIndex] -> SetDiscreteStateIndex(IMD_ERROR);
   1027          //    uiIndex++;
   1028          //
   1029          //    m_apxErrorAlarmDfa[uiIndex] = new CErrorAlarmDfa;
   1030          //    //        .
   1031          //    m_apxErrorAlarmDfa[uiIndex] -> SetAlarmWindowIndex(OMD_ERROR);
   1032          //    //     .
   1033          //    m_apxErrorAlarmDfa[uiIndex] -> SetDiscreteStateIndex(OMD_ERROR);
   1034          //    uiIndex++;
   1035          //
   1036          //    m_apxErrorAlarmDfa[uiIndex] = new CErrorAlarmDfa;
   1037          //    //        .
   1038          //    m_apxErrorAlarmDfa[uiIndex] -> SetAlarmWindowIndex(CFG_ERROR);
   1039          //    //     .
   1040          //    m_apxErrorAlarmDfa[uiIndex] -> SetDiscreteStateIndex(CFG_ERROR);
   1041          //    uiIndex++;
   1042          //
   1043          //    m_apxErrorAlarmDfa[uiIndex] = new CErrorAlarmDfa;
   1044          //    //        .
   1045          //    m_apxErrorAlarmDfa[uiIndex] -> SetAlarmWindowIndex(DB_ERROR);
   1046          //    //     .
   1047          //    m_apxErrorAlarmDfa[uiIndex] -> SetDiscreteStateIndex(DB_ERROR);
   1048          //    uiIndex++;
   1049          //
   1050          //    m_apxErrorAlarmDfa[uiIndex] = new CErrorAlarmDfa;
   1051          //    //        .
   1052          //    m_apxErrorAlarmDfa[uiIndex] -> SetAlarmWindowIndex(MBS_ERROR);
   1053          //    //     .
   1054          //    m_apxErrorAlarmDfa[uiIndex] -> SetDiscreteStateIndex(MBS_ERROR);
   1055          //    uiIndex++;
   1056          
   1057          //    //    .
   1058          //    for (uint8_t i = 0;
   1059          //            i < HANDLED_ERROR_NUMBER;
   1060          //            i++)
   1061          //    {
   1062          //        m_apxErrorAlarmDfa[i] = new CErrorAlarmDfa;
   1063          //        //        .
   1064          //        m_apxErrorAlarmDfa[i] -> SetAlarmWindowIndex(i);
   1065          //        //     .
   1066          //        m_apxErrorAlarmDfa[i] -> SetDiscreteStateIndex(i);
   1067          //    };
   1068          }
   \   00000464   E0E6               LDI     R30, 6
   \   00000466   ........           JMP     ?EPILOGUE_B6_L09
   1069          
   1070          //-----------------------------------------------------------------------------------------------------

   \                                 In  segment CODE, align 2, keep-with-next
   1071          void CPss21::DiscreteOutputControlClear(void)
   \                     ??DiscreteOutputControlClear:
   1072          {
   \   00000000   ........           CALL    ?PROLOGUE4_L09
   1073              //      ()   .
   1074              for (int j = 0;
   \   00000004   E0E0               LDI     R30, 0
   \   00000006   E0F0               LDI     R31, 0
   1075                      j < DISCRETE_OUTPUT_MODULE_MAX_NUMBER;
   \                     ??DiscreteOutputControlClear_1:
   \   00000008   30E1               CPI     R30, 1
   \   0000000A   E000               LDI     R16, 0
   \   0000000C   07F0               CPC     R31, R16
   \   0000000E   F534               BRGE    ??DiscreteOutputControlClear_2
   1076                      j++)
   1077              {
   1078                  //   .
   1079                  for (int k = 0;
   \   00000010   E080               LDI     R24, 0
   \   00000012   E090               LDI     R25, 0
   1080                          k < MR_DISCRETE_OUTPUT_NUMBER;
   \                     ??DiscreteOutputControlClear_3:
   \   00000014   3088               CPI     R24, 8
   \   00000016   E000               LDI     R16, 0
   \   00000018   0790               CPC     R25, R16
   \   0000001A   F4F4               BRGE    ??DiscreteOutputControlClear_4
   1081                          k++)
   1082                  {
   1083                      //   -  .
   1084                      m_axDiscreteOutputControl[(j * MR_DISCRETE_OUTPUT_NUMBER) + k].uiNewActivation = 0;
   \   0000001C   018F               MOVW    R17:R16, R31:R30
   \   0000001E   E048               LDI     R20, 8
   \   00000020   E050               LDI     R21, 0
   \   00000022   ........           CALL    ?S_EC_MUL_L02
   \   00000026   0F08               ADD     R16, R24
   \   00000028   1F19               ADC     R17, R25
   \   0000002A   0F00               LSL     R16
   \   0000002C   1F11               ROL     R17
   \   0000002E   01D8               MOVW    R27:R26, R17:R16
   \   00000030   ....               SUBI    R26, LOW((-(??m_axDiscreteOutputControl) & 0xFFFF))
   \   00000032   ....               SBCI    R27, (-(??m_axDiscreteOutputControl) & 0xFFFF) >> 8
   \   00000034   E000               LDI     R16, 0
   \   00000036   930C               ST      X, R16
   1085                      //   -   .
   1086                      m_axDiscreteOutputControl[(j * MR_DISCRETE_OUTPUT_NUMBER) + k].uiRelayActivationRequest = 0;
   \   00000038   018F               MOVW    R17:R16, R31:R30
   \   0000003A   E048               LDI     R20, 8
   \   0000003C   E050               LDI     R21, 0
   \   0000003E   ........           CALL    ?S_EC_MUL_L02
   \   00000042   0F08               ADD     R16, R24
   \   00000044   1F19               ADC     R17, R25
   \   00000046   0F00               LSL     R16
   \   00000048   1F11               ROL     R17
   \   0000004A   01D8               MOVW    R27:R26, R17:R16
   \   0000004C   ....               SUBI    R26, LOW((-(??m_axDiscreteOutputControl + 1) & 0xFFFF))
   \   0000004E   ....               SBCI    R27, HIGH((-(??m_axDiscreteOutputControl + 1) & 0xFFFF))
   \   00000050   E000               LDI     R16, 0
   \   00000052   930C               ST      X, R16
   1087                  }
   \   00000054   9601               ADIW    R25:R24, 1
   \   00000056   CFDE               RJMP    ??DiscreteOutputControlClear_3
   1088              }
   \                     ??DiscreteOutputControlClear_4:
   \   00000058   9631               ADIW    R31:R30, 1
   \   0000005A   CFD6               RJMP    ??DiscreteOutputControlClear_1
   1089          }
   \                     ??DiscreteOutputControlClear_2:
   \   0000005C   E0E4               LDI     R30, 4
   \   0000005E   ........           JMP     ?EPILOGUE_B4_L09
   1090          
   1091          //-----------------------------------------------------------------------------------------------------

   \                                 In  segment CODE, align 2, keep-with-next
   1092          void CPss21::DiscreteOutputsSet(uint8_t *puiLinkedDiscreteOutputs, uint8_t uiNewViolation)
   \                     ??DiscreteOutputsSet:
   1093          {
   \   00000000   ........           CALL    ?PROLOGUE4_L09
   \   00000004   01B8               MOVW    R23:R22, R17:R16
   1094              //       ?
   1095              if (!uiNewViolation)
   \   00000006   2322               TST     R18
   \   00000008   F559               BRNE    ??DiscreteOutputsSet_1
   1096              {
   1097                  //   .
   1098                  //   -  ,   ,
   1099                  //       - .
   1100                  //   .
   1101                  for (int j = 0;
   \   0000000A   E080               LDI     R24, 0
   \   0000000C   E090               LDI     R25, 0
   1102                          j < DISCRETE_OUTPUT_MODULE_MAX_NUMBER;
   \                     ??DiscreteOutputsSet_2:
   \   0000000E   3081               CPI     R24, 1
   \   00000010   E000               LDI     R16, 0
   \   00000012   0790               CPC     R25, R16
   \   00000014   F00C               BRLT    $+2+2
   \   00000016   C05C               RJMP    ??DiscreteOutputsSet_3
   1103                          j++)
   1104                  {
   1105                      //   .
   1106                      for (int k = 0;
   \   00000018   E0A0               LDI     R26, 0
   \   0000001A   E0B0               LDI     R27, 0
   1107                              k < MR_DISCRETE_OUTPUT_NUMBER;
   \                     ??DiscreteOutputsSet_4:
   \   0000001C   30A8               CPI     R26, 8
   \   0000001E   E000               LDI     R16, 0
   \   00000020   07B0               CPC     R27, R16
   \   00000022   F4E4               BRGE    ??DiscreteOutputsSet_5
   1108                              k++)
   1109                      {
   1110                          //  - (j, k)  () ?
   1111                          if (puiLinkedDiscreteOutputs[j] & (0x01 << k))
   \   00000024   01FB               MOVW    R31:R30, R23:R22
   \   00000026   0FE8               ADD     R30, R24
   \   00000028   1FF9               ADC     R31, R25
   \   0000002A   8130               LD      R19, Z
   \   0000002C   2F4A               MOV     R20, R26
   \   0000002E   E001               LDI     R16, 1
   \   00000030   E010               LDI     R17, 0
   \   00000032   ........           CALL    ?S_SHL_L02
   \   00000036   2330               AND     R19, R16
   \   00000038   2333               TST     R19
   \   0000003A   F071               BREQ    ??DiscreteOutputsSet_6
   1112                          {
   1113                              //   -   .
   1114                              m_axDiscreteOutputControl[(j * MR_DISCRETE_OUTPUT_NUMBER) + k].uiRelayActivationRequest = 1;
   \   0000003C   018C               MOVW    R17:R16, R25:R24
   \   0000003E   E048               LDI     R20, 8
   \   00000040   E050               LDI     R21, 0
   \   00000042   ........           CALL    ?S_EC_MUL_L02
   \   00000046   0F0A               ADD     R16, R26
   \   00000048   1F1B               ADC     R17, R27
   \   0000004A   0F00               LSL     R16
   \   0000004C   1F11               ROL     R17
   \   0000004E   01F8               MOVW    R31:R30, R17:R16
   \   00000050   ....               SUBI    R30, LOW((-(??m_axDiscreteOutputControl) & 0xFFFF))
   \   00000052   ....               SBCI    R31, (-(??m_axDiscreteOutputControl) & 0xFFFF) >> 8
   \   00000054   E001               LDI     R16, 1
   \   00000056   8301               STD     Z+1, R16
   1115                          }
   1116                      }
   \                     ??DiscreteOutputsSet_6:
   \   00000058   9611               ADIW    R27:R26, 1
   \   0000005A   CFE0               RJMP    ??DiscreteOutputsSet_4
   1117                  }
   \                     ??DiscreteOutputsSet_5:
   \   0000005C   9601               ADIW    R25:R24, 1
   \   0000005E   CFD7               RJMP    ??DiscreteOutputsSet_2
   1118              }
   1119              else
   1120              {
   1121                  //  .
   1122                  //   -  ,   
   1123                  //      -  .
   1124                  //   -  ,   ,
   1125                  //       - .
   1126                  //   .
   1127                  for (int j = 0;
   \                     ??DiscreteOutputsSet_1:
   \   00000060   E080               LDI     R24, 0
   \   00000062   E090               LDI     R25, 0
   1128                          j < DISCRETE_OUTPUT_MODULE_MAX_NUMBER;
   \                     ??DiscreteOutputsSet_7:
   \   00000064   3081               CPI     R24, 1
   \   00000066   E000               LDI     R16, 0
   \   00000068   0790               CPC     R25, R16
   \   0000006A   F594               BRGE    ??DiscreteOutputsSet_3
   1129                          j++)
   1130                  {
   1131                      //   .
   1132                      for (int k = 0;
   \   0000006C   E0A0               LDI     R26, 0
   \   0000006E   E0B0               LDI     R27, 0
   1133                              k < MR_DISCRETE_OUTPUT_NUMBER;
   \                     ??DiscreteOutputsSet_8:
   \   00000070   30A8               CPI     R26, 8
   \   00000072   E000               LDI     R16, 0
   \   00000074   07B0               CPC     R27, R16
   \   00000076   F554               BRGE    ??DiscreteOutputsSet_9
   1134                              k++)
   1135                      {
   1136                          //  - (j, k)  () ?
   1137                          if (puiLinkedDiscreteOutputs[j] & (0x01 << k))
   \   00000078   01FB               MOVW    R31:R30, R23:R22
   \   0000007A   0FE8               ADD     R30, R24
   \   0000007C   1FF9               ADC     R31, R25
   \   0000007E   8130               LD      R19, Z
   \   00000080   2F4A               MOV     R20, R26
   \   00000082   E001               LDI     R16, 1
   \   00000084   E010               LDI     R17, 0
   \   00000086   ........           CALL    ?S_SHL_L02
   \   0000008A   2330               AND     R19, R16
   \   0000008C   2333               TST     R19
   \   0000008E   F0E1               BREQ    ??DiscreteOutputsSet_10
   1138                          {
   1139                              //   -  .
   1140                              m_axDiscreteOutputControl[(j * MR_DISCRETE_OUTPUT_NUMBER) + k].uiNewActivation = 1;
   \   00000090   018C               MOVW    R17:R16, R25:R24
   \   00000092   E048               LDI     R20, 8
   \   00000094   E050               LDI     R21, 0
   \   00000096   ........           CALL    ?S_EC_MUL_L02
   \   0000009A   0F0A               ADD     R16, R26
   \   0000009C   1F1B               ADC     R17, R27
   \   0000009E   0F00               LSL     R16
   \   000000A0   1F11               ROL     R17
   \   000000A2   01F8               MOVW    R31:R30, R17:R16
   \   000000A4   ....               SUBI    R30, LOW((-(??m_axDiscreteOutputControl) & 0xFFFF))
   \   000000A6   ....               SBCI    R31, (-(??m_axDiscreteOutputControl) & 0xFFFF) >> 8
   \   000000A8   E001               LDI     R16, 1
   \   000000AA   8300               ST      Z, R16
   1141                              //   -   .
   1142                              m_axDiscreteOutputControl[(j * MR_DISCRETE_OUTPUT_NUMBER) + k].uiRelayActivationRequest = 1;
   \   000000AC   018C               MOVW    R17:R16, R25:R24
   \   000000AE   E048               LDI     R20, 8
   \   000000B0   E050               LDI     R21, 0
   \   000000B2   ........           CALL    ?S_EC_MUL_L02
   \   000000B6   0F0A               ADD     R16, R26
   \   000000B8   1F1B               ADC     R17, R27
   \   000000BA   0F00               LSL     R16
   \   000000BC   1F11               ROL     R17
   \   000000BE   01F8               MOVW    R31:R30, R17:R16
   \   000000C0   ....               SUBI    R30, LOW((-(??m_axDiscreteOutputControl) & 0xFFFF))
   \   000000C2   ....               SBCI    R31, (-(??m_axDiscreteOutputControl) & 0xFFFF) >> 8
   \   000000C4   E001               LDI     R16, 1
   \   000000C6   8301               STD     Z+1, R16
   1143                          }
   1144                      }
   \                     ??DiscreteOutputsSet_10:
   \   000000C8   9611               ADIW    R27:R26, 1
   \   000000CA   CFD2               RJMP    ??DiscreteOutputsSet_8
   1145                  }
   \                     ??DiscreteOutputsSet_9:
   \   000000CC   9601               ADIW    R25:R24, 1
   \   000000CE   CFCA               RJMP    ??DiscreteOutputsSet_7
   1146              }
   1147          }
   \                     ??DiscreteOutputsSet_3:
   \   000000D0   E0E4               LDI     R30, 4
   \   000000D2   ........           JMP     ?EPILOGUE_B4_L09
   1148          
   1149          //-----------------------------------------------------------------------------------------------------

   \                                 In  segment CODE, align 2, keep-with-next
   1150          void CPss21::AlarmsProcessing(void)
   \                     ??AlarmsProcessing:
   1151          {
   \   00000000   93AA               ST      -Y, R26
   \   00000002   938A               ST      -Y, R24
   1152              uint8_t uiCurrentCommonAlarmType = NORMAL;
   \   00000004   E080               LDI     R24, 0
   1153          
   1154              //    .
   1155              for (uint8_t i = 0;
   \   00000006   E0A0               LDI     R26, 0
   1156                      i < DISCRETE_SIGNALS_NUMBER;
   \                     ??AlarmsProcessing_1:
   \   00000008   36A0               CPI     R26, 96
   \   0000000A   F5C8               BRCC    ??AlarmsProcessing_2
   1157                      i++)
   1158              {
   1159                  m_apxAlarmDfa[i] -> Fsm();
   \   0000000C   2F0A               MOV     R16, R26
   \   0000000E   E010               LDI     R17, 0
   \   00000010   0F00               LSL     R16
   \   00000012   1F11               ROL     R17
   \   00000014   01F8               MOVW    R31:R30, R17:R16
   \   00000016   ....               SUBI    R30, LOW((-(??m_apxAlarmDfa) & 0xFFFF))
   \   00000018   ....               SBCI    R31, (-(??m_apxAlarmDfa) & 0xFFFF) >> 8
   \   0000001A   8100               LD      R16, Z
   \   0000001C   8111               LDD     R17, Z+1
   \   0000001E   2F2A               MOV     R18, R26
   \   00000020   E030               LDI     R19, 0
   \   00000022   0F22               LSL     R18
   \   00000024   1F33               ROL     R19
   \   00000026   01F9               MOVW    R31:R30, R19:R18
   \   00000028   ....               SUBI    R30, LOW((-(??m_apxAlarmDfa) & 0xFFFF))
   \   0000002A   ....               SBCI    R31, (-(??m_apxAlarmDfa) & 0xFFFF) >> 8
   \   0000002C   8120               LD      R18, Z
   \   0000002E   8131               LDD     R19, Z+1
   \   00000030   01F9               MOVW    R31:R30, R19:R18
   \   00000032   8121               LDD     R18, Z+1
   \   00000034   8132               LDD     R19, Z+2
   \   00000036   01F9               MOVW    R31:R30, R19:R18
   \   00000038   9632               ADIW    R31:R30, 2
   \   0000003A   9125               LPM     R18, Z+
   \   0000003C   9134               LPM     R19, Z
   \   0000003E   9733               SBIW    R31:R30, 3
   \   00000040   01F9               MOVW    R31:R30, R19:R18
   \   00000042   9509               ICALL
   1160          
   1161                  //         ,
   1162                  //     ?
   1163                  if (uiCurrentCommonAlarmType < GetAlarmWindowType(m_apxAlarmDfa[i] -> GetAlarmWindowIndex()))
   \   00000044   2F0A               MOV     R16, R26
   \   00000046   E010               LDI     R17, 0
   \   00000048   0F00               LSL     R16
   \   0000004A   1F11               ROL     R17
   \   0000004C   01F8               MOVW    R31:R30, R17:R16
   \   0000004E   ....               SUBI    R30, LOW((-(??m_apxAlarmDfa) & 0xFFFF))
   \   00000050   ....               SBCI    R31, (-(??m_apxAlarmDfa) & 0xFFFF) >> 8
   \   00000052   8100               LD      R16, Z
   \   00000054   8111               LDD     R17, Z+1
   \   00000056   ........           CALL    ??GetAlarmWindowIndex
   \   0000005A   ....               RCALL   ??GetAlarmWindowType
   \   0000005C   1780               CP      R24, R16
   \   0000005E   F468               BRCC    ??AlarmsProcessing_3
   1164                  {
   1165                      //     .
   1166                      uiCurrentCommonAlarmType = GetAlarmWindowType(m_apxAlarmDfa[i] -> GetAlarmWindowIndex());
   \   00000060   2F0A               MOV     R16, R26
   \   00000062   E010               LDI     R17, 0
   \   00000064   0F00               LSL     R16
   \   00000066   1F11               ROL     R17
   \   00000068   01F8               MOVW    R31:R30, R17:R16
   \   0000006A   ....               SUBI    R30, LOW((-(??m_apxAlarmDfa) & 0xFFFF))
   \   0000006C   ....               SBCI    R31, (-(??m_apxAlarmDfa) & 0xFFFF) >> 8
   \   0000006E   8100               LD      R16, Z
   \   00000070   8111               LDD     R17, Z+1
   \   00000072   ........           CALL    ??GetAlarmWindowIndex
   \   00000076   ....               RCALL   ??GetAlarmWindowType
   \   00000078   2F80               MOV     R24, R16
   1167                  }
   1168              }
   \                     ??AlarmsProcessing_3:
   \   0000007A   95A3               INC     R26
   \   0000007C   CFC5               RJMP    ??AlarmsProcessing_1
   1169          
   1170              //    .
   1171              CPss21::AlarmTypeChange(uiCurrentCommonAlarmType);
   \                     ??AlarmsProcessing_2:
   \   0000007E   2F08               MOV     R16, R24
   \   00000080   ....               RCALL   ??AlarmTypeChange
   1172          }
   \   00000082   9189               LD      R24, Y+
   \   00000084   91A9               LD      R26, Y+
   \   00000086   9508               RET
   1173          
   1174          //-----------------------------------------------------------------------------------------------------

   \                                 In  segment CODE, align 2, keep-with-next
   1175          void CPss21::ErrorAlarmsProcessing(void)
   \                     ??ErrorAlarmsProcessing:
   1176          {
   \   00000000   938A               ST      -Y, R24
   1177              //    .
   1178              for (uint8_t i = 0;
   \   00000002   E080               LDI     R24, 0
   1179                      i < HANDLED_ERROR_NUMBER;
   \                     ??ErrorAlarmsProcessing_1:
   \   00000004   3082               CPI     R24, 2
   \   00000006   F4F0               BRCC    ??ErrorAlarmsProcessing_2
   1180                      i++)
   1181              {
   1182                  m_apxErrorAlarmDfa[i] -> Fsm();
   \   00000008   2F08               MOV     R16, R24
   \   0000000A   E010               LDI     R17, 0
   \   0000000C   0F00               LSL     R16
   \   0000000E   1F11               ROL     R17
   \   00000010   01F8               MOVW    R31:R30, R17:R16
   \   00000012   ....               SUBI    R30, LOW((-(??m_apxErrorAlarmDfa) & 0xFFFF))
   \   00000014   ....               SBCI    R31, (-(??m_apxErrorAlarmDfa) & 0xFFFF) >> 8
   \   00000016   8100               LD      R16, Z
   \   00000018   8111               LDD     R17, Z+1
   \   0000001A   2F28               MOV     R18, R24
   \   0000001C   E030               LDI     R19, 0
   \   0000001E   0F22               LSL     R18
   \   00000020   1F33               ROL     R19
   \   00000022   01F9               MOVW    R31:R30, R19:R18
   \   00000024   ....               SUBI    R30, LOW((-(??m_apxErrorAlarmDfa) & 0xFFFF))
   \   00000026   ....               SBCI    R31, (-(??m_apxErrorAlarmDfa) & 0xFFFF) >> 8
   \   00000028   8120               LD      R18, Z
   \   0000002A   8131               LDD     R19, Z+1
   \   0000002C   01F9               MOVW    R31:R30, R19:R18
   \   0000002E   8121               LDD     R18, Z+1
   \   00000030   8132               LDD     R19, Z+2
   \   00000032   01F9               MOVW    R31:R30, R19:R18
   \   00000034   9632               ADIW    R31:R30, 2
   \   00000036   9125               LPM     R18, Z+
   \   00000038   9134               LPM     R19, Z
   \   0000003A   9733               SBIW    R31:R30, 3
   \   0000003C   01F9               MOVW    R31:R30, R19:R18
   \   0000003E   9509               ICALL
   1183              }
   \   00000040   9583               INC     R24
   \   00000042   CFE0               RJMP    ??ErrorAlarmsProcessing_1
   1184          }
   \                     ??ErrorAlarmsProcessing_2:
   \   00000044   9189               LD      R24, Y+
   \   00000046   9508               RET
   1185          
   1186          //-----------------------------------------------------------------------------------------------------

   \                                 In  segment CODE, align 2, keep-with-next
   1187          void CPss21::SetDiscreteInputState(uint8_t uiIndex, uint8_t uiData)
   \                     ??SetDiscreteInputState:
   1188          {
   1189              if (uiIndex < DISCRETE_INPUTS_NUMBER)
   \   00000000   3300               CPI     R16, 48
   \   00000002   F438               BRCC    ??SetDiscreteInputState_1
   1190              {
   1191                  //     -   .
   1192                  m_aucRtuDiscreteDataArray[DISCRETE_INPUTS_BIT_ARRAY_OFFSET + uiIndex] = uiData;
   \   00000004   2F20               MOV     R18, R16
   \   00000006   E030               LDI     R19, 0
   \   00000008   01F9               MOVW    R31:R30, R19:R18
   \   0000000A   ....               SUBI    R30, LOW((-(??m_aucRtuDiscreteDataArray) & 0xFFFF))
   \   0000000C   ....               SBCI    R31, (-(??m_aucRtuDiscreteDataArray) & 0xFFFF) >> 8
   \   0000000E   8B10               STD     Z+16, R17
   \   00000010   9508               RET
   1193              }
   1194              else
   1195              {
   1196                  //     -  (coils Modbus).
   1197                  m_aucRtuDiscreteDataArray[ALARM_WINDOWS_BIT_ARRAY_OFFSET + (uiIndex - DISCRETE_INPUTS_NUMBER)] = uiData;
   \                     ??SetDiscreteInputState_1:
   \   00000012   2F20               MOV     R18, R16
   \   00000014   E030               LDI     R19, 0
   \   00000016   01F9               MOVW    R31:R30, R19:R18
   \   00000018   ....               SUBI    R30, LOW((-(??m_aucRtuDiscreteDataArray) & 0xFFFF))
   \   0000001A   ....               SBCI    R31, (-(??m_aucRtuDiscreteDataArray) & 0xFFFF) >> 8
   \   0000001C   8B10               STD     Z+16, R17
   1198              }
   1199          }
   \   0000001E   9508               RET
   1200          
   1201          //-----------------------------------------------------------------------------------------------------

   \                                 In  segment CODE, align 2, keep-with-next
   1202          uint8_t CPss21::GetDiscreteInputState(uint8_t uiIndex)
   \                     ??GetDiscreteInputState:
   1203          {
   1204          //    //       ?
   1205          //    if ((uiIndex >= 0) &&
   1206          //            (uiIndex < (DISCRETE_INPUTS_NUMBER + ALARM_WINDOWS_NUMBER)))
   1207          //    {
   1208          //        //     -   .
   1209          //        return m_aucRtuDiscreteDataArray[DISCRETE_INPUTS_BIT_ARRAY_OFFSET + uiIndex];
   1210          //    }
   1211          //    else
   1212          //    {
   1213          //        //     -   ,  0.
   1214          //        return m_aucRtuDiscreteDataArray[DISCRETE_INPUTS_BIT_ARRAY_OFFSET];
   1215          //    }
   1216          
   1217              if (uiIndex < DISCRETE_INPUTS_NUMBER)
   \   00000000   3300               CPI     R16, 48
   \   00000002   F430               BRCC    ??GetDiscreteInputState_1
   1218              {
   1219                  //     -   .
   1220                  return m_aucRtuDiscreteDataArray[DISCRETE_INPUTS_BIT_ARRAY_OFFSET + uiIndex];
   \   00000004   E010               LDI     R17, 0
   \   00000006   01F8               MOVW    R31:R30, R17:R16
   \   00000008   ....               SUBI    R30, LOW((-(??m_aucRtuDiscreteDataArray) & 0xFFFF))
   \   0000000A   ....               SBCI    R31, (-(??m_aucRtuDiscreteDataArray) & 0xFFFF) >> 8
   \   0000000C   8900               LDD     R16, Z+16
   \   0000000E   9508               RET
   1221              }
   1222              else
   1223              {
   1224                  //     -  (coils Modbus).
   1225                  return m_aucRtuDiscreteDataArray[ALARM_WINDOWS_BIT_ARRAY_OFFSET + (uiIndex - DISCRETE_INPUTS_NUMBER)];
   \                     ??GetDiscreteInputState_1:
   \   00000010   E010               LDI     R17, 0
   \   00000012   01F8               MOVW    R31:R30, R17:R16
   \   00000014   ....               SUBI    R30, LOW((-(??m_aucRtuDiscreteDataArray) & 0xFFFF))
   \   00000016   ....               SBCI    R31, (-(??m_aucRtuDiscreteDataArray) & 0xFFFF) >> 8
   \   00000018   8900               LDD     R16, Z+16
   \   0000001A   9508               RET
   1226              }
   1227          }
   1228          
   1229          //-----------------------------------------------------------------------------------------------------

   \                                 In  segment CODE, align 2, keep-with-next
   1230          uint8_t CPss21::GetDiscreteInputsBadState(uint8_t uiIndex)
   \                     ??GetDiscreteInputsBadState:
   1231          {
   1232              //     -  (coils Modbus).
   1233              return m_aucDiscreteInputsBadState[uiIndex];
   \   00000000   E010               LDI     R17, 0
   \   00000002   01F8               MOVW    R31:R30, R17:R16
   \   00000004   ....               SUBI    R30, LOW((-(??m_aucDiscreteInputsBadState) & 0xFFFF))
   \   00000006   ....               SBCI    R31, (-(??m_aucDiscreteInputsBadState) & 0xFFFF) >> 8
   \   00000008   8100               LD      R16, Z
   \   0000000A   9508               RET
   1234          }
   1235          
   1236          //-----------------------------------------------------------------------------------------------------

   \                                 In  segment CODE, align 2, keep-with-next
   1237          void CPss21::SetErrorAlarmState(uint8_t uiIndex, uint8_t uiData)
   \                     ??SetErrorAlarmState:
   1238          {
   1239              //    .
   1240              m_auiErrorAlarmDataArray[uiIndex] = uiData;
   \   00000000   2F20               MOV     R18, R16
   \   00000002   E030               LDI     R19, 0
   \   00000004   01F9               MOVW    R31:R30, R19:R18
   \   00000006   ....               SUBI    R30, LOW((-(??m_auiErrorAlarmDataArray) & 0xFFFF))
   \   00000008   ....               SBCI    R31, (-(??m_auiErrorAlarmDataArray) & 0xFFFF) >> 8
   \   0000000A   8310               ST      Z, R17
   1241          }
   \   0000000C   9508               RET
   1242          
   1243          //-----------------------------------------------------------------------------------------------------

   \                                 In  segment CODE, align 2, keep-with-next
   1244          uint8_t CPss21::GetErrorAlarmState(uint8_t uiIndex)
   \                     ??GetErrorAlarmState:
   1245          {
   1246              //    .
   1247              return m_auiErrorAlarmDataArray[uiIndex];
   \   00000000   E010               LDI     R17, 0
   \   00000002   01F8               MOVW    R31:R30, R17:R16
   \   00000004   ....               SUBI    R30, LOW((-(??m_auiErrorAlarmDataArray) & 0xFFFF))
   \   00000006   ....               SBCI    R31, (-(??m_auiErrorAlarmDataArray) & 0xFFFF) >> 8
   \   00000008   8100               LD      R16, Z
   \   0000000A   9508               RET
   1248          }
   1249          
   1250          //-----------------------------------------------------------------------------------------------------

   \                                 In  segment CODE, align 2, keep-with-next
   1251          void CPss21::AlarmTypeSet(uint8_t uiAlarmType)
   \                     ??AlarmTypeSet:
   1252          {
   \   00000000   938A               ST      -Y, R24
   \   00000002   2F80               MOV     R24, R16
   1253              m_xPreventiveAlarmWindowNotifyerControl.AlarmSet(uiAlarmType);
   \   00000004   2F28               MOV     R18, R24
   \   00000006   ....               LDI     R16, LOW(??m_xPreventiveAlarmWindowNotifyerControl)
   \   00000008   ....               LDI     R17, (??m_xPreventiveAlarmWindowNotifyerControl) >> 8
   \   0000000A   ........           CALL    ??AlarmSet_1
   1254              m_xEmergencyAlarmWindowNotifyerControl.AlarmSet(uiAlarmType);
   \   0000000E   2F28               MOV     R18, R24
   \   00000010   ....               LDI     R16, LOW(??m_xEmergencyAlarmWindowNotifyerControl)
   \   00000012   ....               LDI     R17, (??m_xEmergencyAlarmWindowNotifyerControl) >> 8
   \   00000014   ........           CALL    ??AlarmSet_2
   1255              m_xStatusLedNotifyerControl.AlarmSet(uiAlarmType);
   \   00000018   2F28               MOV     R18, R24
   \   0000001A   ....               LDI     R16, LOW(??m_xStatusLedNotifyerControl)
   \   0000001C   ....               LDI     R17, (??m_xStatusLedNotifyerControl) >> 8
   \   0000001E   ........           CALL    ??AlarmSet_3
   1256              m_xBuzzerNotifyerControl.AlarmSet(uiAlarmType);
   \   00000022   2F28               MOV     R18, R24
   \   00000024   ....               LDI     R16, LOW(??m_xBuzzerNotifyerControl)
   \   00000026   ....               LDI     R17, (??m_xBuzzerNotifyerControl) >> 8
   \   00000028   ........           CALL    ??AlarmSet
   1257          }
   \   0000002C   9189               LD      R24, Y+
   \   0000002E   9508               RET
   1258          
   1259          //-----------------------------------------------------------------------------------------------------

   \                                 In  segment CODE, align 2, keep-with-next
   1260          void CPss21::AlarmTypeChange(void)
   \                     ??AlarmTypeChange_1:
   1261          {
   1262              if (m_uiCommonAlarmType != m_uiCommonAlarmTypePrevious)
   \   00000000   9100....           LDS     R16, ??m_uiCommonAlarmType
   \   00000004   9110....           LDS     R17, ??m_uiCommonAlarmTypePrevious
   \   00000008   1701               CP      R16, R17
   \   0000000A   F039               BREQ    ??AlarmTypeChange_3
   1263              {
   1264                  m_uiCommonAlarmTypePrevious = m_uiCommonAlarmType;
   \   0000000C   9100....           LDS     R16, ??m_uiCommonAlarmType
   \   00000010   9300....           STS     ??m_uiCommonAlarmTypePrevious, R16
   1265                  AlarmTypeSet(m_uiCommonAlarmType);
   \   00000014   9100....           LDS     R16, ??m_uiCommonAlarmType
   \   00000018   ....               RCALL   ??AlarmTypeSet
   1266              }
   1267          }
   \                     ??AlarmTypeChange_3:
   \   0000001A   9508               RET
   1268          
   1269          //-----------------------------------------------------------------------------------------------------

   \                                 In  segment CODE, align 2, keep-with-next
   1270          void CPss21::AlarmTypeChange(uint8_t uiAlarmType)
   \                     ??AlarmTypeChange:
   1271          {
   \   00000000   938A               ST      -Y, R24
   \   00000002   2F80               MOV     R24, R16
   1272              if (uiAlarmType != m_uiCommonAlarmType)
   \   00000004   9100....           LDS     R16, ??m_uiCommonAlarmType
   \   00000008   1780               CP      R24, R16
   \   0000000A   F079               BREQ    ??AlarmTypeChange_2
   1273              {
   1274                  m_uiCommonAlarmType = uiAlarmType;
   \   0000000C   9380....           STS     ??m_uiCommonAlarmType, R24
   1275          
   1276                  if (m_uiCommonAlarmType != m_uiCommonAlarmTypePrevious)
   \   00000010   9100....           LDS     R16, ??m_uiCommonAlarmType
   \   00000014   9110....           LDS     R17, ??m_uiCommonAlarmTypePrevious
   \   00000018   1701               CP      R16, R17
   \   0000001A   F039               BREQ    ??AlarmTypeChange_2
   1277                  {
   1278                      m_uiCommonAlarmTypePrevious = m_uiCommonAlarmType;
   \   0000001C   9100....           LDS     R16, ??m_uiCommonAlarmType
   \   00000020   9300....           STS     ??m_uiCommonAlarmTypePrevious, R16
   1279                      AlarmTypeSet(m_uiCommonAlarmType);
   \   00000024   9100....           LDS     R16, ??m_uiCommonAlarmType
   \   00000028   ....               RCALL   ??AlarmTypeSet
   1280                  }
   1281              }
   1282          }
   \                     ??AlarmTypeChange_2:
   \   0000002A   9189               LD      R24, Y+
   \   0000002C   9508               RET
   1283          
   1284          //-----------------------------------------------------------------------------------------------------

   \                                 In  segment CODE, align 2, keep-with-next
   1285          void CPss21::AlarmTypeErrorChange(void)
   \                     ??AlarmTypeErrorChange:
   1286          {
   1287              if (m_uiCommonAlarmType != m_uiCommonAlarmTypePrevious)
   \   00000000   9100....           LDS     R16, ??m_uiCommonAlarmType
   \   00000004   9110....           LDS     R17, ??m_uiCommonAlarmTypePrevious
   \   00000008   1701               CP      R16, R17
   \   0000000A   F0C1               BREQ    ??AlarmTypeErrorChange_1
   1288              {
   1289                  m_uiCommonAlarmTypePrevious = m_uiCommonAlarmType;
   \   0000000C   9100....           LDS     R16, ??m_uiCommonAlarmType
   \   00000010   9300....           STS     ??m_uiCommonAlarmTypePrevious, R16
   1290          
   1291                  m_xPreventiveAlarmWindowNotifyerControl.AlarmSet(INDICATION);
   \   00000014   E021               LDI     R18, 1
   \   00000016   ....               LDI     R16, LOW(??m_xPreventiveAlarmWindowNotifyerControl)
   \   00000018   ....               LDI     R17, (??m_xPreventiveAlarmWindowNotifyerControl) >> 8
   \   0000001A   ........           CALL    ??AlarmSet_1
   1292                  m_xEmergencyAlarmWindowNotifyerControl.AlarmSet(INDICATION);
   \   0000001E   E021               LDI     R18, 1
   \   00000020   ....               LDI     R16, LOW(??m_xEmergencyAlarmWindowNotifyerControl)
   \   00000022   ....               LDI     R17, (??m_xEmergencyAlarmWindowNotifyerControl) >> 8
   \   00000024   ........           CALL    ??AlarmSet_2
   1293                  m_xStatusLedNotifyerControl.AlarmSet(ERROR);
   \   00000028   E027               LDI     R18, 7
   \   0000002A   ....               LDI     R16, LOW(??m_xStatusLedNotifyerControl)
   \   0000002C   ....               LDI     R17, (??m_xStatusLedNotifyerControl) >> 8
   \   0000002E   ........           CALL    ??AlarmSet_3
   1294                  m_xBuzzerNotifyerControl.AlarmSet(ERROR);
   \   00000032   E027               LDI     R18, 7
   \   00000034   ....               LDI     R16, LOW(??m_xBuzzerNotifyerControl)
   \   00000036   ....               LDI     R17, (??m_xBuzzerNotifyerControl) >> 8
   \   00000038   ........           CALL    ??AlarmSet
   1295              }
   1296          }
   \                     ??AlarmTypeErrorChange_1:
   \   0000003C   9508               RET
   1297          
   1298          //-----------------------------------------------------------------------------------------------------

   \                                 In  segment CODE, align 2, keep-with-next
   1299          void CPss21::AlarmTypeReceipt(void)
   \                     ??AlarmTypeReceipt:
   1300          {
   1301              m_uiCommonAlarmType = INDICATION;
   \   00000000   E001               LDI     R16, 1
   \   00000002   9300....           STS     ??m_uiCommonAlarmType, R16
   1302              m_uiCommonAlarmTypePrevious = INDICATION;
   \   00000006   E001               LDI     R16, 1
   \   00000008   9300....           STS     ??m_uiCommonAlarmTypePrevious, R16
   1303              AlarmTypeSet(INDICATION);
   \   0000000C   E001               LDI     R16, 1
   \   0000000E   ....               RCALL   ??AlarmTypeSet
   1304          }
   \   00000010   9508               RET
   1305          
   1306          //-----------------------------------------------------------------------------------------------------

   \                                 In  segment CODE, align 2, keep-with-next
   1307          void CPss21::AlarmTypeReset(void)
   \                     ??AlarmTypeReset:
   1308          {
   1309              m_uiCommonAlarmType = NORMAL;
   \   00000000   E000               LDI     R16, 0
   \   00000002   9300....           STS     ??m_uiCommonAlarmType, R16
   1310              m_uiCommonAlarmTypePrevious = NORMAL;
   \   00000006   E000               LDI     R16, 0
   \   00000008   9300....           STS     ??m_uiCommonAlarmTypePrevious, R16
   1311              AlarmTypeSet(NORMAL);
   \   0000000C   E000               LDI     R16, 0
   \   0000000E   ....               RCALL   ??AlarmTypeSet
   1312          }
   \   00000010   9508               RET
   1313          
   1314          //-----------------------------------------------------------------------------------------------------

   \                                 In  segment CODE, align 2, keep-with-next
   1315          void CPss21::NotifyersControlProcessing(void)
   \                     ??NotifyersControlProcessing:
   1316          {
   1317              m_xPreventiveAlarmWindowNotifyerControl.Fsm();
   \   00000000   ....               LDI     R16, LOW(??m_xPreventiveAlarmWindowNotifyerControl)
   \   00000002   ....               LDI     R17, (??m_xPreventiveAlarmWindowNotifyerControl) >> 8
   \   00000004   ........           CALL    ??Fsm
   1318              CPss21::m_xModbusRtuOne.Fsm();
   \   00000008   ....               LDI     R16, LOW(??m_xModbusRtuOne)
   \   0000000A   ....               LDI     R17, (??m_xModbusRtuOne) >> 8
   \   0000000C   ........           CALL    ??Fsm_1
   1319              m_xEmergencyAlarmWindowNotifyerControl.Fsm();
   \   00000010   ....               LDI     R16, LOW(??m_xEmergencyAlarmWindowNotifyerControl)
   \   00000012   ....               LDI     R17, (??m_xEmergencyAlarmWindowNotifyerControl) >> 8
   \   00000014   ........           CALL    ??Fsm
   1320              CPss21::m_xModbusRtuOne.Fsm();
   \   00000018   ....               LDI     R16, LOW(??m_xModbusRtuOne)
   \   0000001A   ....               LDI     R17, (??m_xModbusRtuOne) >> 8
   \   0000001C   ........           CALL    ??Fsm_1
   1321              m_xStatusLedNotifyerControl.Fsm();
   \   00000020   ....               LDI     R16, LOW(??m_xStatusLedNotifyerControl)
   \   00000022   ....               LDI     R17, (??m_xStatusLedNotifyerControl) >> 8
   \   00000024   ........           CALL    ??Fsm
   1322              CPss21::m_xModbusRtuOne.Fsm();
   \   00000028   ....               LDI     R16, LOW(??m_xModbusRtuOne)
   \   0000002A   ....               LDI     R17, (??m_xModbusRtuOne) >> 8
   \   0000002C   ........           CALL    ??Fsm_1
   1323              m_xBuzzerNotifyerControl.Fsm();
   \   00000030   ....               LDI     R16, LOW(??m_xBuzzerNotifyerControl)
   \   00000032   ....               LDI     R17, (??m_xBuzzerNotifyerControl) >> 8
   \   00000034   ........           CALL    ??Fsm
   1324          }
   \   00000038   9508               RET
   1325          
   1326          //-----------------------------------------------------------------------------------------------------

   \                                 In  segment CODE, align 2, keep-with-next
   1327          void CPss21::SetAlarmWindowType(uint8_t uiAlarmWindowIndex, uint8_t uiAlarmType)
   \                     ??SetAlarmWindowType:
   1328          {
   \   00000000   939A               ST      -Y, R25
   \   00000002   938A               ST      -Y, R24
   \   00000004   2F80               MOV     R24, R16
   \   00000006   2F91               MOV     R25, R17
   1329              GetAlarmWindowControlPointer(uiAlarmWindowIndex) -> SetAlarmType(uiAlarmType);
   \   00000008   2F08               MOV     R16, R24
   \   0000000A   ........           CALL    ??GetAlarmWindowControlPointer
   \   0000000E   2F29               MOV     R18, R25
   \   00000010   ........           CALL    ??SetAlarmType
   1330          }
   \   00000014   9189               LD      R24, Y+
   \   00000016   9199               LD      R25, Y+
   \   00000018   9508               RET
   1331          
   1332          //-----------------------------------------------------------------------------------------------------

   \                                 In  segment CODE, align 2, keep-with-next
   1333          uint8_t CPss21::GetAlarmWindowType(uint8_t uiAlarmWindowIndex)
   \                     ??GetAlarmWindowType:
   1334          {
   \   00000000   938A               ST      -Y, R24
   \   00000002   2F80               MOV     R24, R16
   1335              return (GetAlarmWindowControlPointer(uiAlarmWindowIndex) -> GetAlarmType());
   \   00000004   2F08               MOV     R16, R24
   \   00000006   ........           CALL    ??GetAlarmWindowControlPointer
   \   0000000A   ........           CALL    ??GetAlarmType
   \   0000000E   9189               LD      R24, Y+
   \   00000010   9508               RET
   1336          }
   1337          
   1338          //-----------------------------------------------------------------------------------------------------

   \                                 In  segment CODE, align 2, keep-with-next
   1339          void CPss21::SetAlarmWindowColor(uint8_t uiAlarmWindowIndex, uint8_t uiAlarmColor)
   \                     ??SetAlarmWindowColor:
   1340          {
   \   00000000   939A               ST      -Y, R25
   \   00000002   938A               ST      -Y, R24
   \   00000004   2F80               MOV     R24, R16
   \   00000006   2F91               MOV     R25, R17
   1341              GetAlarmWindowControlPointer(uiAlarmWindowIndex) -> SetAlarmColor(uiAlarmColor);
   \   00000008   2F08               MOV     R16, R24
   \   0000000A   ........           CALL    ??GetAlarmWindowControlPointer
   \   0000000E   2F29               MOV     R18, R25
   \   00000010   ........           CALL    ??SetAlarmColor
   1342          }
   \   00000014   9189               LD      R24, Y+
   \   00000016   9199               LD      R25, Y+
   \   00000018   9508               RET
   1343          
   1344          //-----------------------------------------------------------------------------------------------------

   \                                 In  segment CODE, align 2, keep-with-next
   1345          void CPss21::SaveContextNotifyerControl(void)
   \                     ??SaveContextNotifyerControl:
   1346          {
   \   00000000   938A               ST      -Y, R24
   1347          //    //      .
   1348          //    m_xPreventiveAlarmWindowNotifyerControl.SetSavedFsmState(m_xPreventiveAlarmWindowNotifyerControl.GetFsmState());
   1349          //    m_xEmergencyAlarmWindowNotifyerControl.SetSavedFsmState(m_xEmergencyAlarmWindowNotifyerControl.GetFsmState());
   1350          //    m_xStatusLedNotifyerControl.SetSavedFsmState(m_xStatusLedNotifyerControl.GetFsmState());
   1351          //    m_xBuzzerNotifyerControl.SetSavedFsmState(m_xBuzzerNotifyerControl.GetFsmState());
   1352          
   1353              //     -  .
   1354              for (uint8_t i = 0;
   \   00000002   E080               LDI     R24, 0
   1355                      i < ALARM_WINDOWS_NUMBER;
   \                     ??SaveContextNotifyerControl_1:
   \   00000004   3380               CPI     R24, 48
   \   00000006   F008               BRCS    $+2+2
   \   00000008   C053               RJMP    ??SaveContextNotifyerControl_2
   1356                      i++)
   1357              {
   1358                  m_axAlarmWindowControl[i].SetSavedAlarmType(m_axAlarmWindowControl[i].GetAlarmType());
   \   0000000A   2F08               MOV     R16, R24
   \   0000000C   E010               LDI     R17, 0
   \   0000000E   E048               LDI     R20, 8
   \   00000010   E050               LDI     R21, 0
   \   00000012   ........           CALL    ?S_EC_MUL_L02
   \   00000016   0198               MOVW    R19:R18, R17:R16
   \   00000018   ....               LDI     R16, LOW(??m_axAlarmWindowControl)
   \   0000001A   ....               LDI     R17, (??m_axAlarmWindowControl) >> 8
   \   0000001C   0F02               ADD     R16, R18
   \   0000001E   1F13               ADC     R17, R19
   \   00000020   ........           CALL    ??GetAlarmType
   \   00000024   2F20               MOV     R18, R16
   \   00000026   2F08               MOV     R16, R24
   \   00000028   E010               LDI     R17, 0
   \   0000002A   E048               LDI     R20, 8
   \   0000002C   E050               LDI     R21, 0
   \   0000002E   ........           CALL    ?S_EC_MUL_L02
   \   00000032   01A8               MOVW    R21:R20, R17:R16
   \   00000034   ....               LDI     R16, LOW(??m_axAlarmWindowControl)
   \   00000036   ....               LDI     R17, (??m_axAlarmWindowControl) >> 8
   \   00000038   0F04               ADD     R16, R20
   \   0000003A   1F15               ADC     R17, R21
   \   0000003C   ........           CALL    ??SetSavedAlarmType
   1359                  m_axAlarmWindowControl[i].SetSavedActivityState(m_axAlarmWindowControl[i].GetActivityState());
   \   00000040   2F08               MOV     R16, R24
   \   00000042   E010               LDI     R17, 0
   \   00000044   E048               LDI     R20, 8
   \   00000046   E050               LDI     R21, 0
   \   00000048   ........           CALL    ?S_EC_MUL_L02
   \   0000004C   0198               MOVW    R19:R18, R17:R16
   \   0000004E   ....               LDI     R16, LOW(??m_axAlarmWindowControl)
   \   00000050   ....               LDI     R17, (??m_axAlarmWindowControl) >> 8
   \   00000052   0F02               ADD     R16, R18
   \   00000054   1F13               ADC     R17, R19
   \   00000056   ........           CALL    ??GetActivityState
   \   0000005A   2F20               MOV     R18, R16
   \   0000005C   2F08               MOV     R16, R24
   \   0000005E   E010               LDI     R17, 0
   \   00000060   E048               LDI     R20, 8
   \   00000062   E050               LDI     R21, 0
   \   00000064   ........           CALL    ?S_EC_MUL_L02
   \   00000068   01A8               MOVW    R21:R20, R17:R16
   \   0000006A   ....               LDI     R16, LOW(??m_axAlarmWindowControl)
   \   0000006C   ....               LDI     R17, (??m_axAlarmWindowControl) >> 8
   \   0000006E   0F04               ADD     R16, R20
   \   00000070   1F15               ADC     R17, R21
   \   00000072   ........           CALL    ??SetSavedActivityState
   1360                  m_axAlarmWindowControl[i].SetSavedAlarmColor(m_axAlarmWindowControl[i].GetAlarmColor());
   \   00000076   2F08               MOV     R16, R24
   \   00000078   E010               LDI     R17, 0
   \   0000007A   E048               LDI     R20, 8
   \   0000007C   E050               LDI     R21, 0
   \   0000007E   ........           CALL    ?S_EC_MUL_L02
   \   00000082   0198               MOVW    R19:R18, R17:R16
   \   00000084   ....               LDI     R16, LOW(??m_axAlarmWindowControl)
   \   00000086   ....               LDI     R17, (??m_axAlarmWindowControl) >> 8
   \   00000088   0F02               ADD     R16, R18
   \   0000008A   1F13               ADC     R17, R19
   \   0000008C   ........           CALL    ??GetAlarmColor
   \   00000090   2F20               MOV     R18, R16
   \   00000092   2F08               MOV     R16, R24
   \   00000094   E010               LDI     R17, 0
   \   00000096   E048               LDI     R20, 8
   \   00000098   E050               LDI     R21, 0
   \   0000009A   ........           CALL    ?S_EC_MUL_L02
   \   0000009E   01A8               MOVW    R21:R20, R17:R16
   \   000000A0   ....               LDI     R16, LOW(??m_axAlarmWindowControl)
   \   000000A2   ....               LDI     R17, (??m_axAlarmWindowControl) >> 8
   \   000000A4   0F04               ADD     R16, R20
   \   000000A6   1F15               ADC     R17, R21
   \   000000A8   ........           CALL    ??SetSavedAlarmColor
   1361              };
   \   000000AC   9583               INC     R24
   \   000000AE   CFAA               RJMP    ??SaveContextNotifyerControl_1
   1362          }
   \                     ??SaveContextNotifyerControl_2:
   \   000000B0   9189               LD      R24, Y+
   \   000000B2   9508               RET
   1363          
   1364          //-----------------------------------------------------------------------------------------------------

   \                                 In  segment CODE, align 2, keep-with-next
   1365          void CPss21::RestoreContextNotifyerControl(void)
   \                     ??RestoreContextNotifyerControl:
   1366          {
   \   00000000   938A               ST      -Y, R24
   1367          //    //      .
   1368          //    m_xPreventiveAlarmWindowNotifyerControl.SetFsmState(m_xPreventiveAlarmWindowNotifyerControl.GetSavedFsmState());
   1369          //    m_xEmergencyAlarmWindowNotifyerControl.SetFsmState(m_xEmergencyAlarmWindowNotifyerControl.GetSavedFsmState());
   1370          //    m_xStatusLedNotifyerControl.SetFsmState(m_xStatusLedNotifyerControl.GetSavedFsmState());
   1371          //    m_xBuzzerNotifyerControl.SetFsmState(m_xBuzzerNotifyerControl.GetSavedFsmState());
   1372              AlarmTypeSet(GetCommonAlarmType());
   \   00000002   ........           CALL    ??GetCommonAlarmType
   \   00000006   ....               RCALL   ??AlarmTypeSet
   1373          
   1374              //     -  .
   1375              for (uint8_t i = 0;
   \   00000008   E080               LDI     R24, 0
   1376                      i < ALARM_WINDOWS_NUMBER;
   \                     ??RestoreContextNotifyerControl_1:
   \   0000000A   3380               CPI     R24, 48
   \   0000000C   F008               BRCS    $+2+2
   \   0000000E   C053               RJMP    ??RestoreContextNotifyerControl_2
   1377                      i++)
   1378              {
   1379                  m_axAlarmWindowControl[i].SetAlarmType(m_axAlarmWindowControl[i].GetSavedAlarmType());
   \   00000010   2F08               MOV     R16, R24
   \   00000012   E010               LDI     R17, 0
   \   00000014   E048               LDI     R20, 8
   \   00000016   E050               LDI     R21, 0
   \   00000018   ........           CALL    ?S_EC_MUL_L02
   \   0000001C   0198               MOVW    R19:R18, R17:R16
   \   0000001E   ....               LDI     R16, LOW(??m_axAlarmWindowControl)
   \   00000020   ....               LDI     R17, (??m_axAlarmWindowControl) >> 8
   \   00000022   0F02               ADD     R16, R18
   \   00000024   1F13               ADC     R17, R19
   \   00000026   ........           CALL    ??GetSavedAlarmType
   \   0000002A   2F20               MOV     R18, R16
   \   0000002C   2F08               MOV     R16, R24
   \   0000002E   E010               LDI     R17, 0
   \   00000030   E048               LDI     R20, 8
   \   00000032   E050               LDI     R21, 0
   \   00000034   ........           CALL    ?S_EC_MUL_L02
   \   00000038   01A8               MOVW    R21:R20, R17:R16
   \   0000003A   ....               LDI     R16, LOW(??m_axAlarmWindowControl)
   \   0000003C   ....               LDI     R17, (??m_axAlarmWindowControl) >> 8
   \   0000003E   0F04               ADD     R16, R20
   \   00000040   1F15               ADC     R17, R21
   \   00000042   ........           CALL    ??SetAlarmType
   1380                  m_axAlarmWindowControl[i].SetActivityState(m_axAlarmWindowControl[i].GetSavedActivityState());
   \   00000046   2F08               MOV     R16, R24
   \   00000048   E010               LDI     R17, 0
   \   0000004A   E048               LDI     R20, 8
   \   0000004C   E050               LDI     R21, 0
   \   0000004E   ........           CALL    ?S_EC_MUL_L02
   \   00000052   0198               MOVW    R19:R18, R17:R16
   \   00000054   ....               LDI     R16, LOW(??m_axAlarmWindowControl)
   \   00000056   ....               LDI     R17, (??m_axAlarmWindowControl) >> 8
   \   00000058   0F02               ADD     R16, R18
   \   0000005A   1F13               ADC     R17, R19
   \   0000005C   ........           CALL    ??GetSavedActivityState
   \   00000060   2F20               MOV     R18, R16
   \   00000062   2F08               MOV     R16, R24
   \   00000064   E010               LDI     R17, 0
   \   00000066   E048               LDI     R20, 8
   \   00000068   E050               LDI     R21, 0
   \   0000006A   ........           CALL    ?S_EC_MUL_L02
   \   0000006E   01A8               MOVW    R21:R20, R17:R16
   \   00000070   ....               LDI     R16, LOW(??m_axAlarmWindowControl)
   \   00000072   ....               LDI     R17, (??m_axAlarmWindowControl) >> 8
   \   00000074   0F04               ADD     R16, R20
   \   00000076   1F15               ADC     R17, R21
   \   00000078   ........           CALL    ??SetActivityState
   1381                  m_axAlarmWindowControl[i].SetAlarmColor(m_axAlarmWindowControl[i].GetSavedAlarmColor());
   \   0000007C   2F08               MOV     R16, R24
   \   0000007E   E010               LDI     R17, 0
   \   00000080   E048               LDI     R20, 8
   \   00000082   E050               LDI     R21, 0
   \   00000084   ........           CALL    ?S_EC_MUL_L02
   \   00000088   0198               MOVW    R19:R18, R17:R16
   \   0000008A   ....               LDI     R16, LOW(??m_axAlarmWindowControl)
   \   0000008C   ....               LDI     R17, (??m_axAlarmWindowControl) >> 8
   \   0000008E   0F02               ADD     R16, R18
   \   00000090   1F13               ADC     R17, R19
   \   00000092   ........           CALL    ??GetSavedAlarmColor
   \   00000096   2F20               MOV     R18, R16
   \   00000098   2F08               MOV     R16, R24
   \   0000009A   E010               LDI     R17, 0
   \   0000009C   E048               LDI     R20, 8
   \   0000009E   E050               LDI     R21, 0
   \   000000A0   ........           CALL    ?S_EC_MUL_L02
   \   000000A4   01A8               MOVW    R21:R20, R17:R16
   \   000000A6   ....               LDI     R16, LOW(??m_axAlarmWindowControl)
   \   000000A8   ....               LDI     R17, (??m_axAlarmWindowControl) >> 8
   \   000000AA   0F04               ADD     R16, R20
   \   000000AC   1F15               ADC     R17, R21
   \   000000AE   ........           CALL    ??SetAlarmColor
   1382              };
   \   000000B2   9583               INC     R24
   \   000000B4   CFAA               RJMP    ??RestoreContextNotifyerControl_1
   1383          }
   \                     ??RestoreContextNotifyerControl_2:
   \   000000B6   9189               LD      R24, Y+
   \   000000B8   9508               RET
   1384          
   1385          //-----------------------------------------------------------------------------------------------------

   \                                 In  segment CODE, align 2, keep-with-next
   1386          void CPss21::DiscreteSignalsProcessing(void)
   \                     ??DiscreteSignalsProcessing:
   1387          {
   1388              DiscreteOutputControlClear();
   \   00000000   ....               RCALL   ??DiscreteOutputControlClear
   1389              AlarmsProcessing();
   \   00000002   ....               RCALL   ??AlarmsProcessing
   1390          //    ErrorAlarmsProcessing();
   1391              SetDiscreteSignalsReceipt(0);
   \   00000004   E000               LDI     R16, 0
   \   00000006   ........           CALL    ??SetDiscreteSignalsReceipt
   1392              SetDiscreteSignalsReset(0);
   \   0000000A   E000               LDI     R16, 0
   \   0000000C   ........           CALL    ??SetDiscreteSignalsReset
   1393          }
   \   00000010   9508               RET
   1394          
   1395          //-----------------------------------------------------------------------------------------------------

   \                                 In  segment CODE, align 2, keep-with-next
   1396          void CPss21::BoardWindowsUpdate(void)
   \                     ??BoardWindowsUpdate:
   1397          {
   1398              CLightBoard::Set(m_axAlarmWindowControl);
   \   00000000   ....               LDI     R16, LOW(??m_axAlarmWindowControl)
   \   00000002   ....               LDI     R17, (??m_axAlarmWindowControl) >> 8
   \   00000004   ........           CALL    ??Set
   1399          }
   \   00000008   9508               RET
   1400          
   1401          //-----------------------------------------------------------------------------------------------------

   \                                 In  segment CODE, align 2, keep-with-next
   1402          void CPss21::ActiveAlarmWindowOn(uint8_t uiAlarmType)
   \                     ??ActiveAlarmWindowOn:
   1403          {
   \   00000000   939A               ST      -Y, R25
   \   00000002   938A               ST      -Y, R24
   \   00000004   2F90               MOV     R25, R16
   1404              for (uint8_t i = 0;
   \   00000006   E080               LDI     R24, 0
   1405                      i < ALARM_WINDOWS_NUMBER;
   \                     ??ActiveAlarmWindowOn_1:
   \   00000008   3380               CPI     R24, 48
   \   0000000A   F4F8               BRCC    ??ActiveAlarmWindowOn_2
   1406                      i++)
   1407              {
   1408                  //        ?
   1409                  if (m_axAlarmWindowControl[i].GetAlarmType() == uiAlarmType)
   \   0000000C   2F08               MOV     R16, R24
   \   0000000E   E010               LDI     R17, 0
   \   00000010   E048               LDI     R20, 8
   \   00000012   E050               LDI     R21, 0
   \   00000014   ........           CALL    ?S_EC_MUL_L02
   \   00000018   0198               MOVW    R19:R18, R17:R16
   \   0000001A   ....               LDI     R16, LOW(??m_axAlarmWindowControl)
   \   0000001C   ....               LDI     R17, (??m_axAlarmWindowControl) >> 8
   \   0000001E   0F02               ADD     R16, R18
   \   00000020   1F13               ADC     R17, R19
   \   00000022   ........           CALL    ??GetAlarmType
   \   00000026   1709               CP      R16, R25
   \   00000028   F471               BRNE    ??ActiveAlarmWindowOn_3
   1410                  {
   1411                      //   ,   .
   1412                      m_axAlarmWindowControl[i].SetActivityState(1);
   \   0000002A   E021               LDI     R18, 1
   \   0000002C   2F08               MOV     R16, R24
   \   0000002E   E010               LDI     R17, 0
   \   00000030   E048               LDI     R20, 8
   \   00000032   E050               LDI     R21, 0
   \   00000034   ........           CALL    ?S_EC_MUL_L02
   \   00000038   01A8               MOVW    R21:R20, R17:R16
   \   0000003A   ....               LDI     R16, LOW(??m_axAlarmWindowControl)
   \   0000003C   ....               LDI     R17, (??m_axAlarmWindowControl) >> 8
   \   0000003E   0F04               ADD     R16, R20
   \   00000040   1F15               ADC     R17, R21
   \   00000042   ........           CALL    ??SetActivityState
   1413                  }
   1414          
   1415          //        CPss21::m_aucRtuHoldingRegistersArray[i] = m_axAlarmWindowControl[i].GetActivityState();
   1416              };
   \                     ??ActiveAlarmWindowOn_3:
   \   00000046   9583               INC     R24
   \   00000048   CFDF               RJMP    ??ActiveAlarmWindowOn_1
   1417          
   1418              BoardWindowsUpdate();
   \                     ??ActiveAlarmWindowOn_2:
   \   0000004A   ........           CALL    ??BoardWindowsUpdate
   1419          }
   \   0000004E   9189               LD      R24, Y+
   \   00000050   9199               LD      R25, Y+
   \   00000052   9508               RET
   1420          
   1421          //-----------------------------------------------------------------------------------------------------

   \                                 In  segment CODE, align 2, keep-with-next
   1422          void CPss21::ActiveAlarmWindowOff(uint8_t uiAlarmType)
   \                     ??ActiveAlarmWindowOff:
   1423          {
   \   00000000   939A               ST      -Y, R25
   \   00000002   938A               ST      -Y, R24
   \   00000004   2F90               MOV     R25, R16
   1424              for (uint8_t i = 0;
   \   00000006   E080               LDI     R24, 0
   1425                      i < ALARM_WINDOWS_NUMBER;
   \                     ??ActiveAlarmWindowOff_1:
   \   00000008   3380               CPI     R24, 48
   \   0000000A   F5E8               BRCC    ??ActiveAlarmWindowOff_2
   1426                      i++)
   1427              {
   1428                  //        ?
   1429                  if (m_axAlarmWindowControl[i].GetAlarmType() == uiAlarmType)
   \   0000000C   2F08               MOV     R16, R24
   \   0000000E   E010               LDI     R17, 0
   \   00000010   E048               LDI     R20, 8
   \   00000012   E050               LDI     R21, 0
   \   00000014   ........           CALL    ?S_EC_MUL_L02
   \   00000018   0198               MOVW    R19:R18, R17:R16
   \   0000001A   ....               LDI     R16, LOW(??m_axAlarmWindowControl)
   \   0000001C   ....               LDI     R17, (??m_axAlarmWindowControl) >> 8
   \   0000001E   0F02               ADD     R16, R18
   \   00000020   1F13               ADC     R17, R19
   \   00000022   ........           CALL    ??GetAlarmType
   \   00000026   1709               CP      R16, R25
   \   00000028   F479               BRNE    ??ActiveAlarmWindowOff_3
   1430                  {
   1431                      //   ,    .
   1432                      m_axAlarmWindowControl[i].SetActivityState(0);
   \   0000002A   E020               LDI     R18, 0
   \   0000002C   2F08               MOV     R16, R24
   \   0000002E   E010               LDI     R17, 0
   \   00000030   E048               LDI     R20, 8
   \   00000032   E050               LDI     R21, 0
   \   00000034   ........           CALL    ?S_EC_MUL_L02
   \   00000038   01A8               MOVW    R21:R20, R17:R16
   \   0000003A   ....               LDI     R16, LOW(??m_axAlarmWindowControl)
   \   0000003C   ....               LDI     R17, (??m_axAlarmWindowControl) >> 8
   \   0000003E   0F04               ADD     R16, R20
   \   00000040   1F15               ADC     R17, R21
   \   00000042   ........           CALL    ??SetActivityState
   \   00000046   C01D               RJMP    ??ActiveAlarmWindowOff_4
   1433                  }
   1434                  else if (m_axAlarmWindowControl[i].GetAlarmType() == NORMAL)
   \                     ??ActiveAlarmWindowOff_3:
   \   00000048   2F08               MOV     R16, R24
   \   0000004A   E010               LDI     R17, 0
   \   0000004C   E048               LDI     R20, 8
   \   0000004E   E050               LDI     R21, 0
   \   00000050   ........           CALL    ?S_EC_MUL_L02
   \   00000054   0198               MOVW    R19:R18, R17:R16
   \   00000056   ....               LDI     R16, LOW(??m_axAlarmWindowControl)
   \   00000058   ....               LDI     R17, (??m_axAlarmWindowControl) >> 8
   \   0000005A   0F02               ADD     R16, R18
   \   0000005C   1F13               ADC     R17, R19
   \   0000005E   ........           CALL    ??GetAlarmType
   \   00000062   2300               TST     R16
   \   00000064   F471               BRNE    ??ActiveAlarmWindowOff_4
   1435                  {
   1436                      //   ,    .
   1437                      m_axAlarmWindowControl[i].SetActivityState(0);
   \   00000066   E020               LDI     R18, 0
   \   00000068   2F08               MOV     R16, R24
   \   0000006A   E010               LDI     R17, 0
   \   0000006C   E048               LDI     R20, 8
   \   0000006E   E050               LDI     R21, 0
   \   00000070   ........           CALL    ?S_EC_MUL_L02
   \   00000074   01A8               MOVW    R21:R20, R17:R16
   \   00000076   ....               LDI     R16, LOW(??m_axAlarmWindowControl)
   \   00000078   ....               LDI     R17, (??m_axAlarmWindowControl) >> 8
   \   0000007A   0F04               ADD     R16, R20
   \   0000007C   1F15               ADC     R17, R21
   \   0000007E   ........           CALL    ??SetActivityState
   1438                  }
   1439          
   1440          //        CPss21::m_aucRtuHoldingRegistersArray[i] = m_axAlarmWindowControl[i].GetActivityState();
   1441              };
   \                     ??ActiveAlarmWindowOff_4:
   \   00000082   9583               INC     R24
   \   00000084   CFC1               RJMP    ??ActiveAlarmWindowOff_1
   1442          
   1443              BoardWindowsUpdate();
   \                     ??ActiveAlarmWindowOff_2:
   \   00000086   ........           CALL    ??BoardWindowsUpdate
   1444          }
   \   0000008A   9189               LD      R24, Y+
   \   0000008C   9199               LD      R25, Y+
   \   0000008E   9508               RET
   1445          
   1446          //-----------------------------------------------------------------------------------------------------

   \                                 In  segment CODE, align 2, keep-with-next
   1447          void CPss21::AllAlarmWindowOn(uint8_t uiAlarmType)
   \                     ??AllAlarmWindowOn:
   1448          {
   \   00000000   939A               ST      -Y, R25
   \   00000002   938A               ST      -Y, R24
   \   00000004   2F90               MOV     R25, R16
   1449          //    CAlarmWindow axAlarmWindowControl[ALARM_WINDOWS_NUMBER];
   1450          
   1451              for (uint8_t i = 0;
   \   00000006   E080               LDI     R24, 0
   1452                      i < ALARM_WINDOWS_NUMBER;
   \                     ??AllAlarmWindowOn_1:
   \   00000008   3380               CPI     R24, 48
   \   0000000A   F560               BRCC    ??AllAlarmWindowOn_2
   1453                      i++)
   1454              {
   1455                  //   ,   .
   1456                  m_axAlarmWindowControl[i].SetAlarmType(uiAlarmType);
   \   0000000C   2F29               MOV     R18, R25
   \   0000000E   2F08               MOV     R16, R24
   \   00000010   E010               LDI     R17, 0
   \   00000012   E048               LDI     R20, 8
   \   00000014   E050               LDI     R21, 0
   \   00000016   ........           CALL    ?S_EC_MUL_L02
   \   0000001A   01A8               MOVW    R21:R20, R17:R16
   \   0000001C   ....               LDI     R16, LOW(??m_axAlarmWindowControl)
   \   0000001E   ....               LDI     R17, (??m_axAlarmWindowControl) >> 8
   \   00000020   0F04               ADD     R16, R20
   \   00000022   1F15               ADC     R17, R21
   \   00000024   ........           CALL    ??SetAlarmType
   1457                  //   ,   .
   1458                  m_axAlarmWindowControl[i].SetActivityState(1);
   \   00000028   E021               LDI     R18, 1
   \   0000002A   2F08               MOV     R16, R24
   \   0000002C   E010               LDI     R17, 0
   \   0000002E   E048               LDI     R20, 8
   \   00000030   E050               LDI     R21, 0
   \   00000032   ........           CALL    ?S_EC_MUL_L02
   \   00000036   01A8               MOVW    R21:R20, R17:R16
   \   00000038   ....               LDI     R16, LOW(??m_axAlarmWindowControl)
   \   0000003A   ....               LDI     R17, (??m_axAlarmWindowControl) >> 8
   \   0000003C   0F04               ADD     R16, R20
   \   0000003E   1F15               ADC     R17, R21
   \   00000040   ........           CALL    ??SetActivityState
   1459                  m_axAlarmWindowControl[i].SetAlarmColor(uiAlarmType);
   \   00000044   2F29               MOV     R18, R25
   \   00000046   2F08               MOV     R16, R24
   \   00000048   E010               LDI     R17, 0
   \   0000004A   E048               LDI     R20, 8
   \   0000004C   E050               LDI     R21, 0
   \   0000004E   ........           CALL    ?S_EC_MUL_L02
   \   00000052   01A8               MOVW    R21:R20, R17:R16
   \   00000054   ....               LDI     R16, LOW(??m_axAlarmWindowControl)
   \   00000056   ....               LDI     R17, (??m_axAlarmWindowControl) >> 8
   \   00000058   0F04               ADD     R16, R20
   \   0000005A   1F15               ADC     R17, R21
   \   0000005C   ........           CALL    ??SetAlarmColor
   1460              };
   \   00000060   9583               INC     R24
   \   00000062   CFD2               RJMP    ??AllAlarmWindowOn_1
   1461          
   1462              BoardWindowsUpdate();
   \                     ??AllAlarmWindowOn_2:
   \   00000064   ........           CALL    ??BoardWindowsUpdate
   1463          }
   \   00000068   9189               LD      R24, Y+
   \   0000006A   9199               LD      R25, Y+
   \   0000006C   9508               RET
   1464          
   1465          //-----------------------------------------------------------------------------------------------------

   \                                 In  segment CODE, align 2, keep-with-next
   1466          void CPss21::ErrorWindowOn(uint8_t uiIndex)
   \                     ??ErrorWindowOn:
   1467          {
   \   00000000   93AA               ST      -Y, R26
   \   00000002   938A               ST      -Y, R24
   \   00000004   2FA0               MOV     R26, R16
   1468              //    - .
   1469              for (uint8_t i = 0;
   \   00000006   E080               LDI     R24, 0
   1470                      i < ALARM_WINDOWS_NUMBER;
   \                     ??ErrorWindowOn_1:
   \   00000008   3380               CPI     R24, 48
   \   0000000A   F598               BRCC    ??ErrorWindowOn_2
   1471                      i++)
   1472              {
   1473                  if (m_auiErrorLedOn[i])
   \   0000000C   2FE8               MOV     R30, R24
   \   0000000E   E0F0               LDI     R31, 0
   \   00000010   ....               SUBI    R30, LOW((-(??m_auiErrorLedOn) & 0xFFFF))
   \   00000012   ....               SBCI    R31, (-(??m_auiErrorLedOn) & 0xFFFF) >> 8
   \   00000014   9104               LPM     R16, Z
   \   00000016   2300               TST     R16
   \   00000018   F151               BREQ    ??ErrorWindowOn_3
   1474                  {
   1475                      //   ,   .
   1476                      m_axAlarmWindowControl[i].SetAlarmType(INDICATION);
   \   0000001A   E021               LDI     R18, 1
   \   0000001C   2F08               MOV     R16, R24
   \   0000001E   E010               LDI     R17, 0
   \   00000020   E048               LDI     R20, 8
   \   00000022   E050               LDI     R21, 0
   \   00000024   ........           CALL    ?S_EC_MUL_L02
   \   00000028   01A8               MOVW    R21:R20, R17:R16
   \   0000002A   ....               LDI     R16, LOW(??m_axAlarmWindowControl)
   \   0000002C   ....               LDI     R17, (??m_axAlarmWindowControl) >> 8
   \   0000002E   0F04               ADD     R16, R20
   \   00000030   1F15               ADC     R17, R21
   \   00000032   ........           CALL    ??SetAlarmType
   1477                      m_axAlarmWindowControl[i].SetActivityState(1);
   \   00000036   E021               LDI     R18, 1
   \   00000038   2F08               MOV     R16, R24
   \   0000003A   E010               LDI     R17, 0
   \   0000003C   E048               LDI     R20, 8
   \   0000003E   E050               LDI     R21, 0
   \   00000040   ........           CALL    ?S_EC_MUL_L02
   \   00000044   01A8               MOVW    R21:R20, R17:R16
   \   00000046   ....               LDI     R16, LOW(??m_axAlarmWindowControl)
   \   00000048   ....               LDI     R17, (??m_axAlarmWindowControl) >> 8
   \   0000004A   0F04               ADD     R16, R20
   \   0000004C   1F15               ADC     R17, R21
   \   0000004E   ........           CALL    ??SetActivityState
   1478                      m_axAlarmWindowControl[i].SetAlarmColor(ERROR);
   \   00000052   E027               LDI     R18, 7
   \   00000054   2F08               MOV     R16, R24
   \   00000056   E010               LDI     R17, 0
   \   00000058   E048               LDI     R20, 8
   \   0000005A   E050               LDI     R21, 0
   \   0000005C   ........           CALL    ?S_EC_MUL_L02
   \   00000060   01A8               MOVW    R21:R20, R17:R16
   \   00000062   ....               LDI     R16, LOW(??m_axAlarmWindowControl)
   \   00000064   ....               LDI     R17, (??m_axAlarmWindowControl) >> 8
   \   00000066   0F04               ADD     R16, R20
   \   00000068   1F15               ADC     R17, R21
   \   0000006A   ........           CALL    ??SetAlarmColor
   1479                  }
   1480              };
   \                     ??ErrorWindowOn_3:
   \   0000006E   9583               INC     R24
   \   00000070   CFCB               RJMP    ??ErrorWindowOn_1
   1481          
   1482              if (uiIndex < ALARM_WINDOWS_NUMBER)
   \                     ??ErrorWindowOn_2:
   \   00000072   33A0               CPI     R26, 48
   \   00000074   F550               BRCC    ??ErrorWindowOn_4
   1483              {
   1484                  m_axAlarmWindowControl[uiIndex].SetAlarmType(NORMAL);
   \   00000076   E020               LDI     R18, 0
   \   00000078   2F0A               MOV     R16, R26
   \   0000007A   E010               LDI     R17, 0
   \   0000007C   E048               LDI     R20, 8
   \   0000007E   E050               LDI     R21, 0
   \   00000080   ........           CALL    ?S_EC_MUL_L02
   \   00000084   01A8               MOVW    R21:R20, R17:R16
   \   00000086   ....               LDI     R16, LOW(??m_axAlarmWindowControl)
   \   00000088   ....               LDI     R17, (??m_axAlarmWindowControl) >> 8
   \   0000008A   0F04               ADD     R16, R20
   \   0000008C   1F15               ADC     R17, R21
   \   0000008E   ........           CALL    ??SetAlarmType
   1485                  m_axAlarmWindowControl[uiIndex].SetActivityState(0);
   \   00000092   E020               LDI     R18, 0
   \   00000094   2F0A               MOV     R16, R26
   \   00000096   E010               LDI     R17, 0
   \   00000098   E048               LDI     R20, 8
   \   0000009A   E050               LDI     R21, 0
   \   0000009C   ........           CALL    ?S_EC_MUL_L02
   \   000000A0   01A8               MOVW    R21:R20, R17:R16
   \   000000A2   ....               LDI     R16, LOW(??m_axAlarmWindowControl)
   \   000000A4   ....               LDI     R17, (??m_axAlarmWindowControl) >> 8
   \   000000A6   0F04               ADD     R16, R20
   \   000000A8   1F15               ADC     R17, R21
   \   000000AA   ........           CALL    ??SetActivityState
   1486                  m_axAlarmWindowControl[uiIndex].SetAlarmColor(NORMAL);
   \   000000AE   E020               LDI     R18, 0
   \   000000B0   2F0A               MOV     R16, R26
   \   000000B2   E010               LDI     R17, 0
   \   000000B4   E048               LDI     R20, 8
   \   000000B6   E050               LDI     R21, 0
   \   000000B8   ........           CALL    ?S_EC_MUL_L02
   \   000000BC   01A8               MOVW    R21:R20, R17:R16
   \   000000BE   ....               LDI     R16, LOW(??m_axAlarmWindowControl)
   \   000000C0   ....               LDI     R17, (??m_axAlarmWindowControl) >> 8
   \   000000C2   0F04               ADD     R16, R20
   \   000000C4   1F15               ADC     R17, R21
   \   000000C6   ........           CALL    ??SetAlarmColor
   1487              }
   1488          
   1489              BoardWindowsUpdate();
   \                     ??ErrorWindowOn_4:
   \   000000CA   ........           CALL    ??BoardWindowsUpdate
   1490          }
   \   000000CE   9189               LD      R24, Y+
   \   000000D0   91A9               LD      R26, Y+
   \   000000D2   9508               RET
   1491          
   1492          //-----------------------------------------------------------------------------------------------------

   \                                 In  segment CODE, align 2, keep-with-next
   1493          void CPss21::AllAlarmWindowOff(void)
   \                     ??AllAlarmWindowOff:
   1494          {
   \   00000000   938A               ST      -Y, R24
   1495              for (uint8_t i = 0;
   \   00000002   E080               LDI     R24, 0
   1496                      i < ALARM_WINDOWS_NUMBER;
   \                     ??AllAlarmWindowOff_1:
   \   00000004   3380               CPI     R24, 48
   \   00000006   F4F0               BRCC    ??AllAlarmWindowOff_2
   1497                      i++)
   1498              {
   1499          //        CPss21::m_aucRtuHoldingRegistersArray[i + 4] = 0;
   1500                  //   ,    .
   1501                  m_axAlarmWindowControl[i].SetAlarmType(NORMAL);
   \   00000008   E020               LDI     R18, 0
   \   0000000A   2F08               MOV     R16, R24
   \   0000000C   E010               LDI     R17, 0
   \   0000000E   E048               LDI     R20, 8
   \   00000010   E050               LDI     R21, 0
   \   00000012   ........           CALL    ?S_EC_MUL_L02
   \   00000016   01A8               MOVW    R21:R20, R17:R16
   \   00000018   ....               LDI     R16, LOW(??m_axAlarmWindowControl)
   \   0000001A   ....               LDI     R17, (??m_axAlarmWindowControl) >> 8
   \   0000001C   0F04               ADD     R16, R20
   \   0000001E   1F15               ADC     R17, R21
   \   00000020   ........           CALL    ??SetAlarmType
   1502                  //   ,    .
   1503                  m_axAlarmWindowControl[i].SetActivityState(0);
   \   00000024   E020               LDI     R18, 0
   \   00000026   2F08               MOV     R16, R24
   \   00000028   E010               LDI     R17, 0
   \   0000002A   E048               LDI     R20, 8
   \   0000002C   E050               LDI     R21, 0
   \   0000002E   ........           CALL    ?S_EC_MUL_L02
   \   00000032   01A8               MOVW    R21:R20, R17:R16
   \   00000034   ....               LDI     R16, LOW(??m_axAlarmWindowControl)
   \   00000036   ....               LDI     R17, (??m_axAlarmWindowControl) >> 8
   \   00000038   0F04               ADD     R16, R20
   \   0000003A   1F15               ADC     R17, R21
   \   0000003C   ........           CALL    ??SetActivityState
   1504              };
   \   00000040   9583               INC     R24
   \   00000042   CFE0               RJMP    ??AllAlarmWindowOff_1
   1505          
   1506              BoardWindowsUpdate();
   \                     ??AllAlarmWindowOff_2:
   \   00000044   ....               RCALL   ??BoardWindowsUpdate
   1507          }
   \   00000046   9189               LD      R24, Y+
   \   00000048   9508               RET
   1508          
   1509          //-----------------------------------------------------------------------------------------------------

   \                                 In  segment CODE, align 2, keep-with-next
   1510          void CPss21::TestMainCycle(void)
   \                     ??TestMainCycle:
   1511          {
   1512              CPss21::m_xModbusRtuOne.Fsm();
   \   00000000   ....               LDI     R16, LOW(??m_xModbusRtuOne)
   \   00000002   ....               LDI     R17, (??m_xModbusRtuOne) >> 8
   \   00000004   ........           CALL    ??Fsm_1
   1513          
   1514              m_xTestModeNotifyerControl.Fsm();
   \   00000008   ....               LDI     R16, LOW(??m_xTestModeNotifyerControl)
   \   0000000A   ....               LDI     R17, (??m_xTestModeNotifyerControl) >> 8
   \   0000000C   ........           CALL    ??Fsm_2
   1515          //    NotifyersControlProcessing();
   1516          
   1517              CPss21::KeyStateProcessing();
   \   00000010   ....               RCALL   ??KeyStateProcessing
   1518          
   1519              //   - ""  ""?
   1520              if ((GetPanelReceipt()) ||
   1521                      (GetExternalReceipt()) ||
   1522                      (GetModbusReceipt()) ||
   1523                      (GetPanelReset()) ||
   1524                      (GetExternalReset()) ||
   1525                      (GetModbusReset()) ||
   1526                      //      ?
   1527                      (m_xTestModeNotifyerControl.GetFsmState() ==
   1528                       CNotifyerControl::IDDLE))
   \   00000012   ........           CALL    ??GetPanelReceipt
   \   00000016   2300               TST     R16
   \   00000018   F4D1               BRNE    ??TestMainCycle_1
   \   0000001A   ........           CALL    ??GetExternalReceipt
   \   0000001E   2300               TST     R16
   \   00000020   F4B1               BRNE    ??TestMainCycle_1
   \   00000022   ........           CALL    ??GetModbusReceipt
   \   00000026   2300               TST     R16
   \   00000028   F491               BRNE    ??TestMainCycle_1
   \   0000002A   ........           CALL    ??GetPanelReset
   \   0000002E   2300               TST     R16
   \   00000030   F471               BRNE    ??TestMainCycle_1
   \   00000032   ........           CALL    ??GetExternalReset
   \   00000036   2300               TST     R16
   \   00000038   F451               BRNE    ??TestMainCycle_1
   \   0000003A   ........           CALL    ??GetModbusReset
   \   0000003E   2300               TST     R16
   \   00000040   F431               BRNE    ??TestMainCycle_1
   \   00000042   ....               LDI     R16, LOW(??m_xTestModeNotifyerControl)
   \   00000044   ....               LDI     R17, (??m_xTestModeNotifyerControl) >> 8
   \   00000046   ........           CALL    ??GetFsmState
   \   0000004A   2300               TST     R16
   \   0000004C   F441               BRNE    ??TestMainCycle_2
   1529              {
   1530                  //       , 
   1531                  //     
   1532                  m_xTestModeNotifyerControl.SetFsmState(CNotifyerControl::STOP);
   \                     ??TestMainCycle_1:
   \   0000004E   E225               LDI     R18, 37
   \   00000050   ....               LDI     R16, LOW(??m_xTestModeNotifyerControl)
   \   00000052   ....               LDI     R17, (??m_xTestModeNotifyerControl) >> 8
   \   00000054   ........           CALL    ??SetFsmState
   1533                  SetFsmState(TEST_STOP);
   \   00000058   E00D               LDI     R16, 13
   \   0000005A   ........           CALL    ??SetFsmState_1
   1534              }
   1535              //    if (CPss21::m_xMainCycleTimer.IsOverflow())
   1536          //    {
   1537          //        SetFsmState(TEST_STOP);
   1538          //    }
   1539          
   1540          
   1541          
   1542              CPss21::ReceiptResetGlobalFlagsClear();
   \                     ??TestMainCycle_2:
   \   0000005E   ....               RCALL   ??ReceiptResetGlobalFlagsClear
   1543          
   1544              CPlatform::WatchdogReset();
   \   00000060   ........           CALL    ??WatchdogReset
   1545          }
   \   00000064   9508               RET
   1546          
   1547          //-----------------------------------------------------------------------------------------------------

   \                                 In  segment CODE, align 2, keep-with-next
   1548          void CPss21::ErrorMainCycle(void)
   \                     ??ErrorMainCycle:
   1549          {
   1550              CPss21::m_xModbusRtuOne.Fsm();
   \   00000000   ....               LDI     R16, LOW(??m_xModbusRtuOne)
   \   00000002   ....               LDI     R17, (??m_xModbusRtuOne) >> 8
   \   00000004   ........           CALL    ??Fsm_1
   1551          
   1552              CPss21::KeyStateProcessing();
   \   00000008   ....               RCALL   ??KeyStateProcessing
   1553          
   1554              //   - ""?
   1555              if ((GetPanelReceipt()) ||
   1556                      (GetExternalReceipt()) ||
   1557                      (GetModbusReceipt()))
   \   0000000A   ........           CALL    ??GetPanelReceipt
   \   0000000E   2300               TST     R16
   \   00000010   F441               BRNE    ??ErrorMainCycle_1
   \   00000012   ........           CALL    ??GetExternalReceipt
   \   00000016   2300               TST     R16
   \   00000018   F421               BRNE    ??ErrorMainCycle_1
   \   0000001A   ........           CALL    ??GetModbusReceipt
   \   0000001E   2300               TST     R16
   \   00000020   F051               BREQ    ??ErrorMainCycle_2
   1558              {
   1559          //        m_xPreventiveAlarmWindowNotifyerControl.AlarmSet(INDICATION);
   1560          //        m_xEmergencyAlarmWindowNotifyerControl.AlarmSet(INDICATION);
   1561                  m_xStatusLedNotifyerControl.AlarmSet(NORMAL);
   \                     ??ErrorMainCycle_1:
   \   00000022   E020               LDI     R18, 0
   \   00000024   ....               LDI     R16, LOW(??m_xStatusLedNotifyerControl)
   \   00000026   ....               LDI     R17, (??m_xStatusLedNotifyerControl) >> 8
   \   00000028   ........           CALL    ??AlarmSet_3
   1562                  m_xBuzzerNotifyerControl.AlarmSet(NORMAL);
   \   0000002C   E020               LDI     R18, 0
   \   0000002E   ....               LDI     R16, LOW(??m_xBuzzerNotifyerControl)
   \   00000030   ....               LDI     R17, (??m_xBuzzerNotifyerControl) >> 8
   \   00000032   ........           CALL    ??AlarmSet
   1563              }
   1564          
   1565              NotifyersControlProcessing();
   \                     ??ErrorMainCycle_2:
   \   00000036   ....               RCALL   ??NotifyersControlProcessing
   1566          
   1567              CPss21::ReceiptResetGlobalFlagsClear();
   \   00000038   ....               RCALL   ??ReceiptResetGlobalFlagsClear
   1568          
   1569              CPlatform::WatchdogReset();
   \   0000003A   ........           CALL    ??WatchdogReset
   1570          }
   \   0000003E   9508               RET
   1571          
   1572          //-----------------------------------------------------------------------------------------------------

   \                                 In  segment CODE, align 2, keep-with-next
   1573          void CPss21::LinkControlErrorMainCycle(void)
   \                     ??LinkControlErrorMainCycle:
   1574          {
   1575              CPss21::m_xModbusRtuOne.Fsm();
   \   00000000   ....               LDI     R16, LOW(??m_xModbusRtuOne)
   \   00000002   ....               LDI     R17, (??m_xModbusRtuOne) >> 8
   \   00000004   ........           CALL    ??Fsm_1
   1576              CPss21::m_xModbusRtuLinkControl.Fsm();
   \   00000008   ....               LDI     R16, LOW(??m_xModbusRtuLinkControl)
   \   0000000A   ....               LDI     R17, (??m_xModbusRtuLinkControl) >> 8
   \   0000000C   ........           CALL    ??Fsm_3
   1577          
   1578              CPss21::KeyStateProcessing();
   \   00000010   ....               RCALL   ??KeyStateProcessing
   1579          
   1580              NotifyersControlProcessing();
   \   00000012   ....               RCALL   ??NotifyersControlProcessing
   1581          
   1582              CPss21::ReceiptResetGlobalFlagsClear();
   \   00000014   ....               RCALL   ??ReceiptResetGlobalFlagsClear
   1583          
   1584              CDataStore::Fsm();
   \   00000016   ........           CALL    ??Fsm_4
   1585          
   1586              CPlatform::WatchdogReset();
   \   0000001A   ........           CALL    ??WatchdogReset
   1587          }
   \   0000001E   9508               RET

   \                                 In  segment NEAR_Z, align 1, keep-with-next, root
   \   00000000                      REQUIRE `?<Segment init: NEAR_Z>`
   1588          uint8_t uiMapTestCounter = 0;
   \                     uiMapTestCounter:
   \   00000000                      DS8 1
   1589          //-----------------------------------------------------------------------------------------------------

   \                                 In  segment CODE, align 2, keep-with-next
   1590          void CPss21::MainFsm(void)
   \                     ??MainFsm:
   1591          {
   1592              switch (GetFsmState())
   \   00000000   ........           CALL    ??GetFsmState_1
   \   00000004   ....               LDI     R30, LOW(`?<Jumptable for MainFsm>_0`)
   \   00000006   ....               LDI     R31, (`?<Jumptable for MainFsm>_0`) >> 16
   \   00000008   BFFB               OUT     0x3B, R31
   \   0000000A   ....               LDI     R31, HIGH(`?<Jumptable for MainFsm>_0`)
   \   0000000C   ........           JMP     ?CV_SWITCH_L06
   1593              {
   1594              case START:
   1595                  CPlatform::WatchdogEnable();
   \                     ??MainFsm_1:
   \   00000010   ........           CALL    ??WatchdogEnable
   1596                  CPlatform::Init();
   \   00000014   ........           CALL    ??Init_3
   1597                  CPss21::Init();
   \   00000018   ........           CALL    ??Init
   1598                  CBuzzer::Init();
   \   0000001C   ........           CALL    ??Init_4
   1599                  if (!(CDataBase::Check()))
   \   00000020   ........           CALL    ??Check
   \   00000024   2300               TST     R16
   \   00000026   F421               BRNE    ??MainFsm_2
   1600                  {
   1601                      SetFsmState(ERROR_START);
   \   00000028   E00E               LDI     R16, 14
   \   0000002A   ........           CALL    ??SetFsmState_1
   \   0000002E   9508               RET
   1602                  }
   1603                  else
   1604                  {
   1605                      CPss21::ConfigurationInit();
   \                     ??MainFsm_2:
   \   00000030   ....               RCALL   ??ConfigurationInit
   1606                      CPss21::ModbusInit();
   \   00000032   ........           CALL    ??ModbusInit
   1607                      CSpi::Init();
   \   00000036   ........           CALL    ??Init_5
   1608                      CPss21::AddressBusInit();
   \   0000003A   ........           CALL    ??AddressBusInit
   1609                      CPss21::SearchModules();
   \   0000003E   ........           CALL    ??SearchModules
   1610                      CPss21::CreateDevices();
   \   00000042   ........           CALL    ??CreateDevices
   1611          //            m_xBuzzerNotifyerControl.AlarmSet(BEEP_SIGNAL);
   1612                      SetFsmState(MAIN_CYCLE_START_WAITING);
   \   00000046   E002               LDI     R16, 2
   \   00000048   ........           CALL    ??SetFsmState_1
   1613                  }
   1614                  break;
   \   0000004C   9508               RET
   1615          
   1616              case RESTART:
   1617                  break;
   1618          
   1619              case MAIN_CYCLE_START_WAITING:
   1620                  CPss21::m_xModbusRtuOne.Fsm();
   \                     ??MainFsm_3:
   \   0000004E   ....               LDI     R16, LOW(??m_xModbusRtuOne)
   \   00000050   ....               LDI     R17, (??m_xModbusRtuOne) >> 8
   \   00000052   ........           CALL    ??Fsm_1
   1621          
   1622                  CPss21::KeyStateProcessing();
   \   00000056   ....               RCALL   ??KeyStateProcessing
   1623          
   1624                  NotifyersControlProcessing();
   \   00000058   ....               RCALL   ??NotifyersControlProcessing
   1625          
   1626                  CDataStore::Fsm();
   \   0000005A   ........           CALL    ??Fsm_4
   1627          
   1628                  if (CPss21::m_xMainCycleTimer.IsOverflow())
   \   0000005E   ....               LDI     R16, LOW(??m_xMainCycleTimer)
   \   00000060   ....               LDI     R17, (??m_xMainCycleTimer) >> 8
   \   00000062   ........           CALL    ??IsOverflow
   \   00000066   2300               TST     R16
   \   00000068   F061               BREQ    ??MainFsm_4
   1629                  {
   1630                      CPss21::m_xMainCycleTimer.Reset();
   \   0000006A   ....               LDI     R16, LOW(??m_xMainCycleTimer)
   \   0000006C   ....               LDI     R17, (??m_xMainCycleTimer) >> 8
   \   0000006E   ........           CALL    ??Reset
   1631                      CPlatform::WatchdogReset();
   \   00000072   ........           CALL    ??WatchdogReset
   1632                      SetModuleIndex(0);
   \   00000076   E000               LDI     R16, 0
   \   00000078   ........           CALL    ??SetModuleIndex
   1633                      SetFsmState(MAIN_CYCLE_MODULES_INTERACTION);
   \   0000007C   E003               LDI     R16, 3
   \   0000007E   ........           CALL    ??SetFsmState_1
   1634                  }
   1635          //            SetFsmState(MAIN_CYCLE_DISCRETE_SIGNALS_PROCESSING);
   1636          //
   1637          //        CPlatform::WatchdogReset();
   1638                  break;
   \                     ??MainFsm_4:
   \   00000082   9508               RET
   1639          
   1640              case MAIN_CYCLE_MODULES_INTERACTION:
   1641                  CPss21::m_xModbusRtuOne.Fsm();
   \                     ??MainFsm_5:
   \   00000084   ....               LDI     R16, LOW(??m_xModbusRtuOne)
   \   00000086   ....               LDI     R17, (??m_xModbusRtuOne) >> 8
   \   00000088   ........           CALL    ??Fsm_1
   1642                  CPss21::m_xModbusRtuLinkControl.Fsm();
   \   0000008C   ....               LDI     R16, LOW(??m_xModbusRtuLinkControl)
   \   0000008E   ....               LDI     R17, (??m_xModbusRtuLinkControl) >> 8
   \   00000090   ........           CALL    ??Fsm_3
   1643          
   1644                  CPss21::KeyStateProcessing();
   \   00000094   ....               RCALL   ??KeyStateProcessing
   1645          
   1646                  NotifyersControlProcessing();
   \   00000096   ....               RCALL   ??NotifyersControlProcessing
   1647          
   1648                  CDataStore::Fsm();
   \   00000098   ........           CALL    ??Fsm_4
   1649          
   1650                  if (CPss21::ModulesInteraction(GetModuleIndex()))
   \   0000009C   ........           CALL    ??GetModuleIndex
   \   000000A0   ....               RCALL   ??ModulesInteraction
   \   000000A2   2300               TST     R16
   \   000000A4   F021               BREQ    ??MainFsm_6
   1651                  {
   1652                      SetFsmState(MAIN_CYCLE_DISCRETE_SIGNALS_PROCESSING);
   \   000000A6   E004               LDI     R16, 4
   \   000000A8   ........           CALL    ??SetFsmState_1
   \   000000AC   C005               RJMP    ??MainFsm_7
   1653                  }
   1654                  else
   1655                  {
   1656                      SetModuleIndex(GetModuleIndex() + 1);
   \                     ??MainFsm_6:
   \   000000AE   ........           CALL    ??GetModuleIndex
   \   000000B2   9503               INC     R16
   \   000000B4   ........           CALL    ??SetModuleIndex
   1657                  }
   1658          
   1659                  switch (GetErrorCode())
   \                     ??MainFsm_7:
   \   000000B8   ........           CALL    ??GetErrorCode
   \   000000BC   5003               SUBI    R16, 3
   \   000000BE   F029               BREQ    ??MainFsm_8
   \   000000C0   950A               DEC     R16
   \   000000C2   F019               BREQ    ??MainFsm_8
   \   000000C4   950A               DEC     R16
   \   000000C6   F029               BREQ    ??MainFsm_9
   \   000000C8   9508               RET
   1660                  {
   1661          //        case IMD_ERROR:
   1662          //        case OMD_ERROR:
   1663                  case CFG_ERROR:
   1664                  case DB_ERROR:
   1665                      SetFsmState(ERROR_START);
   \                     ??MainFsm_8:
   \   000000CA   E00E               LDI     R16, 14
   \   000000CC   ........           CALL    ??SetFsmState_1
   1666                      break;
   \   000000D0   9508               RET
   1667          
   1668                  case MBS_ERROR:
   1669                      SetFsmState(LINK_CONTROL_ERROR_START);
   \                     ??MainFsm_9:
   \   000000D2   E100               LDI     R16, 16
   \   000000D4   ........           CALL    ??SetFsmState_1
   1670                      break;
   1671          
   1672                  default:
   1673                      break;
   1674                  }
   1675                  break;
   \   000000D8   9508               RET
   1676          
   1677              case MAIN_CYCLE_DISCRETE_SIGNALS_PROCESSING:
   1678                  CPss21::DiscreteSignalsProcessing();
   \                     ??MainFsm_10:
   \   000000DA   ....               RCALL   ??DiscreteSignalsProcessing
   1679                  SetFsmState(MAIN_CYCLE_END);
   \   000000DC   E005               LDI     R16, 5
   \   000000DE   ........           CALL    ??SetFsmState_1
   1680                  break;
   \   000000E2   9508               RET
   1681          
   1682              case MAIN_CYCLE_END:
   1683                  CPss21::ReceiptResetGlobalFlagsClear();
   \                     ??MainFsm_11:
   \   000000E4   ....               RCALL   ??ReceiptResetGlobalFlagsClear
   1684                  SetFsmState(MAIN_CYCLE_START_WAITING);
   \   000000E6   E002               LDI     R16, 2
   \   000000E8   ........           CALL    ??SetFsmState_1
   1685                  break;
   \   000000EC   9508               RET
   1686          
   1687          ////-----------------------------------------------------------------------------------------------------
   1688          //    case MAP_CREATE_START:
   1689          //        uiMapTestCounter = 0;
   1690          //        SetFsmState(MAP_CREATE_WINDOW_ON);
   1691          //
   1692          //        CPlatform::WatchdogReset();
   1693          //
   1694          //
   1695          ////        CPss21::AllAlarmWindowOff();
   1696          ////        for (uint8_t i = 0;
   1697          ////                i < 48;
   1698          ////                i++)
   1699          ////        {
   1700          ////            //   ,   .
   1701          ////            m_axAlarmWindowControl[uiMapTestCounter].SetAlarmType(INDICATION);
   1702          ////            //   ,   .
   1703          ////            m_axAlarmWindowControl[uiMapTestCounter].SetActivityState(1);
   1704          ////        };
   1705          ////        BoardWindowsUpdate();
   1706          ////        SetFsmState(MAP_CREATE_ALL_LED_ON);
   1707          ////        break;
   1708          //
   1709          ////    case MAP_CREATE_ALL_LED_ON:
   1710          ////
   1711          ////        CPlatform::WatchdogReset();
   1712          ////        break;
   1713          //
   1714          //    case MAP_CREATE_WINDOW_ON:
   1715          //        CPss21::m_aucRtuHoldingRegistersArray[0] = uiMapTestCounter;
   1716          //        if (uiMapTestCounter != 48)
   1717          //        {
   1718          //            CPss21::AllAlarmWindowOff();
   1719          //            //   ,   .
   1720          //            m_axAlarmWindowControl[uiMapTestCounter].SetAlarmType(INDICATION);
   1721          //            //   ,   .
   1722          //            m_axAlarmWindowControl[uiMapTestCounter].SetActivityState(1);
   1723          //
   1724          //            CPss21::m_aucRtuHoldingRegistersArray[0] = uiMapTestCounter;
   1725          //            BoardWindowsUpdate();
   1726          //            SetFsmState(MAP_CREATE_ON);
   1727          //        }
   1728          //        else
   1729          //        {
   1730          //            SetFsmState(MAP_CREATE_START);
   1731          //        }
   1732          //
   1733          //        CPss21::m_xMainCycleTimer.Set(MAIN_CYCLE_PERIOD_TIME);
   1734          //        CPlatform::WatchdogReset();
   1735          //        break;
   1736          //
   1737          //    case MAP_CREATE_ON:
   1738          //        TestMainCycle();
   1739          //
   1740          //
   1741          ////        if (CPss21::m_xMainCycleTimer.IsOverflow())
   1742          ////        {
   1743          ////            CPss21::m_xMainCycleTimer.Set(MAIN_CYCLE_PERIOD_TIME);
   1744          ////            SetFsmState(MAP_CREATE_NEXT_WINDOW);
   1745          ////        }
   1746          //        break;
   1747          //
   1748          //    case MAP_CREATE_NEXT_WINDOW:
   1749          //        uiMapTestCounter++;
   1750          //        SetFsmState(MAP_CREATE_WINDOW_ON);
   1751          //
   1752          //        CPlatform::WatchdogReset();
   1753          //        break;
   1754          
   1755          
   1756          //-----------------------------------------------------------------------------------------------------
   1757              case TEST_START:
   1758                  SaveContextNotifyerControl();
   \                     ??MainFsm_12:
   \   000000EE   ....               RCALL   ??SaveContextNotifyerControl
   1759          //        AlarmTypeSet(PREVENTIVE);
   1760          //        CPss21::AllAlarmWindowOn(PREVENTIVE);
   1761          //        CPss21::m_xMainCycleTimer.Set(TEST_ON_TIME());
   1762                  m_xTestModeNotifyerControl.SetFsmState(CNotifyerControl::INDICATION_SIGNAL_START);
   \   000000F0   E021               LDI     R18, 1
   \   000000F2   ....               LDI     R16, LOW(??m_xTestModeNotifyerControl)
   \   000000F4   ....               LDI     R17, (??m_xTestModeNotifyerControl) >> 8
   \   000000F6   ........           CALL    ??SetFsmState
   1763                  SetFsmState(TEST_ON);
   \   000000FA   E00C               LDI     R16, 12
   \   000000FC   ........           CALL    ??SetFsmState_1
   1764          
   1765                  CPlatform::WatchdogReset();
   \   00000100   ........           CALL    ??WatchdogReset
   1766                  break;
   \   00000104   9508               RET
   1767          
   1768              case TEST_ON:
   1769          //        if (CPss21::m_xMainCycleTimer.IsOverflow())
   1770          //        {
   1771          //            CPss21::AllAlarmWindowOff();
   1772          //            RestoreContextNotifyerControl();
   1773          //            CPss21::m_xMainCycleTimer.Set(MAIN_CYCLE_PERIOD_TIME);
   1774          //            SetFsmState(MAIN_CYCLE_START_WAITING);
   1775          //        }
   1776          
   1777                  TestMainCycle();
   \                     ??MainFsm_13:
   \   00000106   ....               RCALL   ??TestMainCycle
   1778                  break;
   \   00000108   9508               RET
   1779          
   1780              case TEST_STOP:
   1781                  CPss21::AllAlarmWindowOff();
   \                     ??MainFsm_14:
   \   0000010A   ........           CALL    ??AllAlarmWindowOff
   1782                  RestoreContextNotifyerControl();
   \   0000010E   ....               RCALL   ??RestoreContextNotifyerControl
   1783                  CPss21::m_xMainCycleTimer.Set(MAIN_CYCLE_PERIOD_TIME);
   \   00000110   E624               LDI     R18, 100
   \   00000112   E030               LDI     R19, 0
   \   00000114   ....               LDI     R16, LOW(??m_xMainCycleTimer)
   \   00000116   ....               LDI     R17, (??m_xMainCycleTimer) >> 8
   \   00000118   ........           CALL    ??Set_1
   1784                  SetFsmState(MAIN_CYCLE_START_WAITING);
   \   0000011C   E002               LDI     R16, 2
   \   0000011E   ........           CALL    ??SetFsmState_1
   1785                  break;
   \   00000122   9508               RET
   1786          
   1787          //-----------------------------------------------------------------------------------------------------
   1788              case ERROR_START:
   1789                  //   Modbus     .
   1790                  ModbusDefaultInit();
   \                     ??MainFsm_15:
   \   00000124   ........           CALL    ??ModbusDefaultInit
   1791                  ErrorWindowOn(GetErrorCode() - 1);
   \   00000128   ........           CALL    ??GetErrorCode
   \   0000012C   950A               DEC     R16
   \   0000012E   ....               RCALL   ??ErrorWindowOn
   1792                  SetErrorCode(0);
   \   00000130   E000               LDI     R16, 0
   \   00000132   ........           CALL    ??SetErrorCode
   1793          
   1794                  m_xPreventiveAlarmWindowNotifyerControl.AlarmSet(INDICATION);
   \   00000136   E021               LDI     R18, 1
   \   00000138   ....               LDI     R16, LOW(??m_xPreventiveAlarmWindowNotifyerControl)
   \   0000013A   ....               LDI     R17, (??m_xPreventiveAlarmWindowNotifyerControl) >> 8
   \   0000013C   ........           CALL    ??AlarmSet_1
   1795                  m_xEmergencyAlarmWindowNotifyerControl.AlarmSet(INDICATION);
   \   00000140   E021               LDI     R18, 1
   \   00000142   ....               LDI     R16, LOW(??m_xEmergencyAlarmWindowNotifyerControl)
   \   00000144   ....               LDI     R17, (??m_xEmergencyAlarmWindowNotifyerControl) >> 8
   \   00000146   ........           CALL    ??AlarmSet_2
   1796                  m_xStatusLedNotifyerControl.AlarmSet(ERROR);
   \   0000014A   E027               LDI     R18, 7
   \   0000014C   ....               LDI     R16, LOW(??m_xStatusLedNotifyerControl)
   \   0000014E   ....               LDI     R17, (??m_xStatusLedNotifyerControl) >> 8
   \   00000150   ........           CALL    ??AlarmSet_3
   1797                  m_xBuzzerNotifyerControl.AlarmSet(ERROR);
   \   00000154   E027               LDI     R18, 7
   \   00000156   ....               LDI     R16, LOW(??m_xBuzzerNotifyerControl)
   \   00000158   ....               LDI     R17, (??m_xBuzzerNotifyerControl) >> 8
   \   0000015A   ........           CALL    ??AlarmSet
   1798          
   1799                  SetFsmState(ERROR_ON);
   \   0000015E   E00F               LDI     R16, 15
   \   00000160   ........           CALL    ??SetFsmState_1
   1800          
   1801                  CPlatform::WatchdogReset();
   \   00000164   ........           CALL    ??WatchdogReset
   1802                  break;
   \   00000168   9508               RET
   1803          
   1804              case ERROR_ON:
   1805                  ErrorMainCycle();
   \                     ??MainFsm_16:
   \   0000016A   ....               RCALL   ??ErrorMainCycle
   1806                  break;
   \   0000016C   9508               RET
   1807          
   1808          //-----------------------------------------------------------------------------------------------------
   1809              case LINK_CONTROL_ERROR_START:
   1810                  SaveContextNotifyerControl();
   \                     ??MainFsm_17:
   \   0000016E   ....               RCALL   ??SaveContextNotifyerControl
   1811                  ErrorWindowOn(GetErrorCode() - 1);
   \   00000170   ........           CALL    ??GetErrorCode
   \   00000174   950A               DEC     R16
   \   00000176   ....               RCALL   ??ErrorWindowOn
   1812                  SetErrorCode(0);
   \   00000178   E000               LDI     R16, 0
   \   0000017A   ........           CALL    ??SetErrorCode
   1813          
   1814                  m_xPreventiveAlarmWindowNotifyerControl.AlarmSet(INDICATION);
   \   0000017E   E021               LDI     R18, 1
   \   00000180   ....               LDI     R16, LOW(??m_xPreventiveAlarmWindowNotifyerControl)
   \   00000182   ....               LDI     R17, (??m_xPreventiveAlarmWindowNotifyerControl) >> 8
   \   00000184   ........           CALL    ??AlarmSet_1
   1815                  m_xEmergencyAlarmWindowNotifyerControl.AlarmSet(INDICATION);
   \   00000188   E021               LDI     R18, 1
   \   0000018A   ....               LDI     R16, LOW(??m_xEmergencyAlarmWindowNotifyerControl)
   \   0000018C   ....               LDI     R17, (??m_xEmergencyAlarmWindowNotifyerControl) >> 8
   \   0000018E   ........           CALL    ??AlarmSet_2
   1816                  m_xStatusLedNotifyerControl.AlarmSet(ERROR);
   \   00000192   E027               LDI     R18, 7
   \   00000194   ....               LDI     R16, LOW(??m_xStatusLedNotifyerControl)
   \   00000196   ....               LDI     R17, (??m_xStatusLedNotifyerControl) >> 8
   \   00000198   ........           CALL    ??AlarmSet_3
   1817                  m_xBuzzerNotifyerControl.AlarmSet(ERROR);
   \   0000019C   E027               LDI     R18, 7
   \   0000019E   ....               LDI     R16, LOW(??m_xBuzzerNotifyerControl)
   \   000001A0   ....               LDI     R17, (??m_xBuzzerNotifyerControl) >> 8
   \   000001A2   ........           CALL    ??AlarmSet
   1818          
   1819                  CPlatform::WatchdogReset();
   \   000001A6   ........           CALL    ??WatchdogReset
   1820                  SetFsmState(LINK_CONTROL_ERROR_ON);
   \   000001AA   E101               LDI     R16, 17
   \   000001AC   ........           CALL    ??SetFsmState_1
   1821                  break;
   \   000001B0   9508               RET
   1822          
   1823              case LINK_CONTROL_ERROR_ON:
   1824                  LinkControlErrorMainCycle();
   \                     ??MainFsm_18:
   \   000001B2   ....               RCALL   ??LinkControlErrorMainCycle
   1825                  break;
   \   000001B4   9508               RET
   1826          
   1827              case LINK_CONTROL_ERROR_OFF:
   1828                  CPss21::AllAlarmWindowOff();
   \                     ??MainFsm_19:
   \   000001B6   ........           CALL    ??AllAlarmWindowOff
   1829                  RestoreContextNotifyerControl();
   \   000001BA   ....               RCALL   ??RestoreContextNotifyerControl
   1830                  CPss21::m_xMainCycleTimer.Set(MAIN_CYCLE_PERIOD_TIME);
   \   000001BC   E624               LDI     R18, 100
   \   000001BE   E030               LDI     R19, 0
   \   000001C0   ....               LDI     R16, LOW(??m_xMainCycleTimer)
   \   000001C2   ....               LDI     R17, (??m_xMainCycleTimer) >> 8
   \   000001C4   ........           CALL    ??Set_1
   1831          
   1832                  CPlatform::WatchdogReset();
   \   000001C8   ........           CALL    ??WatchdogReset
   1833                  SetFsmState(MAIN_CYCLE_START_WAITING);
   \   000001CC   E002               LDI     R16, 2
   \   000001CE   ........           CALL    ??SetFsmState_1
   1834                  break;
   \   000001D2   9508               RET
   1835          
   1836          //-----------------------------------------------------------------------------------------------------
   1837              case PROGRAMMING_START:
   1838                  CPss21::m_xModbusRtuOne.Fsm();
   \                     ??MainFsm_20:
   \   000001D4   ....               LDI     R16, LOW(??m_xModbusRtuOne)
   \   000001D6   ....               LDI     R17, (??m_xModbusRtuOne) >> 8
   \   000001D8   ........           CALL    ??Fsm_1
   1839                  //        
   1840                  //  "PROGRAMMING_TIME + WDTO_2S",    .
   1841                  CPss21::m_xMainCycleTimer.Set(PROGRAMMING_TIME);
   \   000001DC   EE28               LDI     R18, 232
   \   000001DE   E033               LDI     R19, 3
   \   000001E0   ....               LDI     R16, LOW(??m_xMainCycleTimer)
   \   000001E2   ....               LDI     R17, (??m_xMainCycleTimer) >> 8
   \   000001E4   ........           CALL    ??Set_1
   1842                  SetFsmState(PROGRAMMING_ON);
   \   000001E8   E104               LDI     R16, 20
   \   000001EA   ........           CALL    ??SetFsmState_1
   1843          
   1844                  CPlatform::WatchdogReset();
   \   000001EE   ........           CALL    ??WatchdogReset
   1845                  break;
   \   000001F2   9508               RET
   1846          
   1847              case PROGRAMMING_ON:
   1848                  CPss21::m_xModbusRtuOne.Fsm();
   \                     ??MainFsm_21:
   \   000001F4   ....               LDI     R16, LOW(??m_xModbusRtuOne)
   \   000001F6   ....               LDI     R17, (??m_xModbusRtuOne) >> 8
   \   000001F8   ........           CALL    ??Fsm_1
   1849          
   1850                  CDataStore::Fsm();
   \   000001FC   ........           CALL    ??Fsm_4
   1851          
   1852                  if (CPss21::m_xMainCycleTimer.IsOverflow())
   \   00000200   ....               LDI     R16, LOW(??m_xMainCycleTimer)
   \   00000202   ....               LDI     R17, (??m_xMainCycleTimer) >> 8
   \   00000204   ........           CALL    ??IsOverflow
   \   00000208   2300               TST     R16
   \   0000020A   F041               BREQ    ??MainFsm_22
   1853                  {
   1854                      m_xBuzzerNotifyerControl.AlarmSet(BEEP_SIGNAL);
   \   0000020C   E028               LDI     R18, 8
   \   0000020E   ....               LDI     R16, LOW(??m_xBuzzerNotifyerControl)
   \   00000210   ....               LDI     R17, (??m_xBuzzerNotifyerControl) >> 8
   \   00000212   ........           CALL    ??AlarmSet
   1855                      SetFsmState(REBOOT);
   \   00000216   E105               LDI     R16, 21
   \   00000218   ........           CALL    ??SetFsmState_1
   1856                  }
   1857          
   1858                  CPlatform::WatchdogReset();
   \                     ??MainFsm_22:
   \   0000021C   ........           CALL    ??WatchdogReset
   1859                  break;
   \   00000220   9508               RET
   1860          
   1861              case REBOOT:
   1862                  //  "WDTO_2S" - ,    .
   1863                  CPss21::m_xModbusRtuOne.Fsm();
   \                     ??MainFsm_23:
   \   00000222   ....               LDI     R16, LOW(??m_xModbusRtuOne)
   \   00000224   ....               LDI     R17, (??m_xModbusRtuOne) >> 8
   \   00000226   ........           CALL    ??Fsm_1
   1864          
   1865                  CDataStore::Fsm();
   \   0000022A   ........           CALL    ??Fsm_4
   1866                  break;
   1867          
   1868          //-----------------------------------------------------------------------------------------------------
   1869              default:
   1870                  break;
   1871              }
   1872          }
   \                     ??MainFsm_24:
   \   0000022E   9508               RET

   \                                 In  segment NEAR_ID, align 1, keep-with-next, root
   \                     `?<Initializer for >`:
   \   00000000   ............       DC16 ?_1, ??m_xUart1, `?<Unnamed 0>`/2

   \                                 In  segment NEAR_ID, align 1, keep-with-next, root
   \                     `?<Initializer for >_1`:
   \   00000000   ............       DC16 ?_3, ??m_xModbusRtuOne, `?<Unnamed 1>`/2

   \                                 In  segment NEAR_ID, align 1, keep-with-next, root
   \                     `?<Initializer for >_2`:
   \   00000000   ............       DC16 ?_5, ??m_xReceiptKey, `?<Unnamed 2>`/2

   \                                 In  segment NEAR_ID, align 1, keep-with-next, root
   \                     `?<Initializer for >_3`:
   \   00000000   ............       DC16 ?_7, ??m_xResetKey, `?<Unnamed 2>`/2

   \                                 In  segment NEAR_ID, align 1, keep-with-next, root
   \                     `?<Initializer for >_4`:
   \   00000000   ............       DC16 ?_9, ??m_xCheckKey, `?<Unnamed 2>`/2

   \                                 In  segment NEAR_ID, align 1, keep-with-next, root
   \                     `?<Initializer for >_5`:
   \   00000000   ............       DC16 ?_11, ??m_xExternalKey, `?<Unnamed 2>`/2

   \                                 In  segment NEAR_ID, align 1, keep-with-next, root
   \                     `?<Initializer for >_6`:
   \   00000000   ............       DC16 ?_13, ??m_xEventUniteLogicAndOne, `?<Unnamed 3>`/2

   \                                 In  segment NEAR_ID, align 1, keep-with-next, root
   \                     `?<Initializer for >_7`:
   \   00000000   ............       DC16 ?_15, ??m_xMainCycleTimer, `?<Unnamed 4>`/2

   \                                 In  segment NEAR_ID, align 1, keep-with-next, root
   \                     `?<Initializer for >_8`:
   \   00000000   ............       DC16 ?_17, ??m_xPreventiveAlarmWindowNotifyerControl, `?<Unnamed 5>`/2

   \                                 In  segment NEAR_ID, align 1, keep-with-next, root
   \                     `?<Initializer for >_9`:
   \   00000000   ............       DC16 ?_19, ??m_xEmergencyAlarmWindowNotifyerControl, `?<Unnamed 6>`/2

   \                                 In  segment NEAR_ID, align 1, keep-with-next, root
   \                     `?<Initializer for >_10`:
   \   00000000   ............       DC16 ?_21, ??m_xStatusLedNotifyerControl, `?<Unnamed 7>`/2

   \                                 In  segment NEAR_ID, align 1, keep-with-next, root
   \                     `?<Initializer for >_11`:
   \   00000000   ............       DC16 ?_23, ??m_xBuzzerNotifyerControl, `?<Unnamed 8>`/2

   \                                 In  segment NEAR_ID, align 1, keep-with-next, root
   \                     `?<Initializer for >_12`:
   \   00000000   ............       DC16 ?_25, ??m_xTestModeNotifyerControl, `?<Unnamed 9>`/2

   \                                 In  segment NEAR_ID, align 1, keep-with-next, root
   \                     `?<Initializer for >_13`:
   \   00000000   ............       DC16 ?_27, ??m_xModbusRtuLinkControl, `?<Unnamed 10>`/2

   \                                 In  segment NEAR_ID, align 1, keep-with-next, root
   \                     `?<Initializer for >_14`:
   \   00000000   ....0000....       DC16 ?_29, 0H, `?<Unnamed 11>`/2

   \                                 In  segment DIFUNCT, align 1, keep-with-next, root
   \   00000000                      REQUIRE ?call_ctors
   \   00000000   ....               DW      ??__sti__routine/2

   \                                 In  segment SWITCH, align 2, keep-with-next
   \                     `?<Jumptable for MainFsm>_0`:
   \   00000000   00                 DB      0
   \   00000001   00                 DB      0
   \   00000002   ....               DW      (??MainFsm_24) /2
   \   00000004   0016               DW      22
   \   00000006   ....               DW      (??MainFsm_1) /2
   \   00000008   ....               DW      (??MainFsm_24) /2
   \   0000000A   ....               DW      (??MainFsm_3) /2
   \   0000000C   ....               DW      (??MainFsm_5) /2
   \   0000000E   ....               DW      (??MainFsm_10) /2
   \   00000010   ....               DW      (??MainFsm_11) /2
   \   00000012   ....               DW      (??MainFsm_24) /2
   \   00000014   ....               DW      (??MainFsm_24) /2
   \   00000016   ....               DW      (??MainFsm_24) /2
   \   00000018   ....               DW      (??MainFsm_24) /2
   \   0000001A   ....               DW      (??MainFsm_24) /2
   \   0000001C   ....               DW      (??MainFsm_12) /2
   \   0000001E   ....               DW      (??MainFsm_13) /2
   \   00000020   ....               DW      (??MainFsm_14) /2
   \   00000022   ....               DW      (??MainFsm_15) /2
   \   00000024   ....               DW      (??MainFsm_16) /2
   \   00000026   ....               DW      (??MainFsm_17) /2
   \   00000028   ....               DW      (??MainFsm_18) /2
   \   0000002A   ....               DW      (??MainFsm_19) /2
   \   0000002C   ....               DW      (??MainFsm_20) /2
   \   0000002E   ....               DW      (??MainFsm_21) /2
   \   00000030   ....               DW      (??MainFsm_23) /2

   \                                 In  segment CODE, align 2, keep-with-next
   \                     `?<Unnamed 11>`:
   \   00000000   ....               LDI     R22, LOW(`?<Unnamed 12>`/2)
   \   00000002   ....               LDI     R23, (`?<Unnamed 12>`/2) >> 8
   \   00000004   E048               LDI     R20, 8
   \   00000006   E050               LDI     R21, 0
   \   00000008   E320               LDI     R18, 48
   \   0000000A   E030               LDI     R19, 0
   \   0000000C   ....               LDI     R16, LOW(??m_axAlarmWindowControl)
   \   0000000E   ....               LDI     R17, (??m_axAlarmWindowControl) >> 8
   \   00000010   ........           CALL    __near_vec_destroy
   \   00000014   9508               RET
   1873          

   Maximum stack usage in bytes:

   CSTACK RSTACK Function
   ------ ------ --------
      2      2   <Unnamed 0>
        2      2   -> CUart::~CUart()
      2      2   <Unnamed 10>
        2      2   -> CModbusRtuLinkControl::~CModbusRtuLinkControl()
      0      2   <Unnamed 11>
        0      2   -> __near_vec_destroy
      2      2   <Unnamed 12>
        2      2   -> CAlarmWindow::~CAlarmWindow()
      2      2   <Unnamed 1>
        2      2   -> CModbusRTU::~CModbusRTU()
      2      2   <Unnamed 2>
        2      2   -> CMultiFunctionKey::~CMultiFunctionKey()
      2      2   <Unnamed 3>
        2      2   -> CEventUniteLogicAnd::~CEventUniteLogicAnd()
      2      2   <Unnamed 4>
        2      2   -> CTimer::~CTimer()
      2      2   <Unnamed 5>
        2      2   -> CPreventiveAlarmWindowNotifyerControl::~CPreventiveAlarmWindowNotifyerControl()
      2      2   <Unnamed 6>
        2      2   -> CEmergencyAlarmWindowNotifyerControl::~CEmergencyAlarmWindowNotifyerControl()
      2      2   <Unnamed 7>
        2      2   -> CStatusLedNotifyerControl::~CStatusLedNotifyerControl()
      2      2   <Unnamed 8>
        2      2   -> CBuzzerNotifyerControl::~CBuzzerNotifyerControl()
      2      2   <Unnamed 9>
        2      2   -> CTestModeNotifyerControl::~CTestModeNotifyerControl()
      0      2   CAlarmDfa::GetAlarmWindowIndex()
      0      2   CAlarmDfa::GetLinkedDiscreteOutputsPointer()
      0      2   CAlarmDfa::SetAlarmWindowIndex(uint8_t)
      0      2   CAlarmDfa::SetDiscreteStateIndex(uint8_t)
      0      2   CAlarmWindow::GetActivityState()
      0      2   CAlarmWindow::GetAlarmColor()
      0      2   CAlarmWindow::GetAlarmType()
      0      2   CAlarmWindow::GetSavedActivityState()
      0      2   CAlarmWindow::GetSavedAlarmColor()
      0      2   CAlarmWindow::GetSavedAlarmType()
      0      2   CAlarmWindow::SetActivityState(uint8_t)
      0      2   CAlarmWindow::SetAlarmColor(uint8_t)
      0      2   CAlarmWindow::SetAlarmType(uint8_t)
      0      2   CAlarmWindow::SetSavedActivityState(uint8_t)
      0      2   CAlarmWindow::SetSavedAlarmColor(uint8_t)
      0      2   CAlarmWindow::SetSavedAlarmType(uint8_t)
      0      2   CDfa::SetFsmEvent(uint8_t)
      0      2   CDfaLite::GetFsmState()
      0      2   CDfaLite::SetFsmState(uint8_t)
      0      2   CDriver::SetModbusReceipt(uint8_t)
      0      2   CDriver::SetModbusReset(uint8_t)
      0      2   CDriver::SetReceipt(uint8_t)
      0      2   CDriver::SetReset(uint8_t)
      0      2   CPlatform::ExternalKeyState()
      0      2   CPlatform::KeyOneState()
      0      2   CPlatform::KeyThreeState()
      0      2   CPlatform::KeyTwoState()
      0      2   CPlatform::SpiSlaveSelectAddress0Off()
      0      2   CPlatform::SpiSlaveSelectAddress0On()
      0      2   CPlatform::SpiSlaveSelectAddress0SetPinOutput()
      0      2   CPlatform::SpiSlaveSelectAddress1Off()
      0      2   CPlatform::SpiSlaveSelectAddress1On()
      0      2   CPlatform::SpiSlaveSelectAddress1SetPinOutput()
      0      2   CPlatform::SpiSlaveSelectAddress2Off()
      0      2   CPlatform::SpiSlaveSelectAddress2On()
      0      2   CPlatform::SpiSlaveSelectAddress2SetPinOutput()
      0      2   CPlatform::SpiSlaveSelectAddress3Off()
      0      2   CPlatform::SpiSlaveSelectAddress3On()
      0      2   CPlatform::SpiSlaveSelectAddress3SetPinOutput()
      0      2   CPlatform::SpiSlaveSelectEnableOff()
      0      2   CPlatform::SpiSlaveSelectEnableOn()
      0      2   CPlatform::SpiSlaveSelectEnableSetPinOutput()
      0      2   CPlatform::WatchdogEnable()
      0      2   CPlatform::WatchdogReset()
      2      2   CPss21::ActiveAlarmWindowOff(uint8_t)
        2      2   -> CAlarmWindow::GetAlarmType()
        2      2   -> CAlarmWindow::SetActivityState(uint8_t)
        2      2   -> CPss21::BoardWindowsUpdate()
        2      2 ?S_EC_MUL_L02
      2      2   CPss21::ActiveAlarmWindowOn(uint8_t)
        2      2   -> CAlarmWindow::GetAlarmType()
        2      2   -> CAlarmWindow::SetActivityState(uint8_t)
        2      2   -> CPss21::BoardWindowsUpdate()
        2      2 ?S_EC_MUL_L02
      0      2   CPss21::AddressBusInit()
        0      2   -> CPlatform::SpiSlaveSelectAddress0On()
        0      2   -> CPlatform::SpiSlaveSelectAddress0SetPinOutput()
        0      2   -> CPlatform::SpiSlaveSelectAddress1On()
        0      2   -> CPlatform::SpiSlaveSelectAddress1SetPinOutput()
        0      2   -> CPlatform::SpiSlaveSelectAddress2On()
        0      2   -> CPlatform::SpiSlaveSelectAddress2SetPinOutput()
        0      2   -> CPlatform::SpiSlaveSelectAddress3On()
        0      2   -> CPlatform::SpiSlaveSelectAddress3SetPinOutput()
        0      2   -> CPlatform::SpiSlaveSelectEnableOff()
        0      2   -> CPlatform::SpiSlaveSelectEnableSetPinOutput()
      0      2   CPss21::AlarmTypeChange()
        0      2   -> CPss21::AlarmTypeSet(uint8_t)
      1      2   CPss21::AlarmTypeChange(uint8_t)
        1      2   -> CPss21::AlarmTypeSet(uint8_t)
      0      2   CPss21::AlarmTypeErrorChange()
        0      2   -> CBuzzerNotifyerControl::AlarmSet(uint8_t)
        0      2   -> CEmergencyAlarmWindowNotifyerControl::AlarmSet(uint8_t)
        0      2   -> CPreventiveAlarmWindowNotifyerControl::AlarmSet(uint8_t)
        0      2   -> CStatusLedNotifyerControl::AlarmSet(uint8_t)
      0      2   CPss21::AlarmTypeReceipt()
        0      2   -> CPss21::AlarmTypeSet(uint8_t)
      0      2   CPss21::AlarmTypeReset()
        0      2   -> CPss21::AlarmTypeSet(uint8_t)
      1      2   CPss21::AlarmTypeSet(uint8_t)
        1      2   -> CBuzzerNotifyerControl::AlarmSet(uint8_t)
        1      2   -> CEmergencyAlarmWindowNotifyerControl::AlarmSet(uint8_t)
        1      2   -> CPreventiveAlarmWindowNotifyerControl::AlarmSet(uint8_t)
        1      2   -> CStatusLedNotifyerControl::AlarmSet(uint8_t)
      2      2   CPss21::AlarmsProcessing()
        2      2   -- Indirect call
        2      2   -> CAlarmDfa::GetAlarmWindowIndex()
        2      2   -> CPss21::AlarmTypeChange(uint8_t)
        2      2   -> CPss21::GetAlarmWindowType(uint8_t)
      1      2   CPss21::AllAlarmWindowOff()
        1      2   -> CAlarmWindow::SetActivityState(uint8_t)
        1      2   -> CAlarmWindow::SetAlarmType(uint8_t)
        1      2   -> CPss21::BoardWindowsUpdate()
        1      2 ?S_EC_MUL_L02
      2      2   CPss21::AllAlarmWindowOn(uint8_t)
        2      2   -> CAlarmWindow::SetActivityState(uint8_t)
        2      2   -> CAlarmWindow::SetAlarmColor(uint8_t)
        2      2   -> CAlarmWindow::SetAlarmType(uint8_t)
        2      2   -> CPss21::BoardWindowsUpdate()
        2      2 ?S_EC_MUL_L02
      0      2   CPss21::BoardWindowsUpdate()
        0      2   -> CLightBoard::Set(CAlarmWindow *)
      6      2   CPss21::ConfigurationInit()
        6      2   -> CAlarmDfa::GetLinkedDiscreteOutputsPointer()
        6      2   -> CAlarmDfa::SetAlarmWindowIndex(uint8_t)
        6      2   -> CAlarmDfa::SetDiscreteStateIndex(uint8_t)
        6      2   -> CDataBase::ReadBlock(uint8_t *, uint8_t)
        6      2   -> CIndicationAlarmHighLevelDfa::CIndicationAlarmHighLevelDfa()
        6      2   -> CIndicationAlarmHighLevelNamurDfa::CIndicationAlarmHighLevelNamurDfa()
        6      2   -> CIndicationAlarmLowLevelDfa::CIndicationAlarmLowLevelDfa()
        6      2   -> CIndicationAlarmLowLevelNamurDfa::CIndicationAlarmLowLevelNamurDfa()
        6      2   -> CNormalAlarmDfa::CNormalAlarmDfa()
        6      2   -> CPreventiveAlarmHighLevelDfa::CPreventiveAlarmHighLevelDfa()
        6      2   -> CPreventiveAlarmHighLevelNamurDfa::CPreventiveAlarmHighLevelNamurDfa()
        6      2   -> CPreventiveAlarmLowLevelDfa::CPreventiveAlarmLowLevelDfa()
        6      2   -> CPreventiveAlarmLowLevelNamurDfa::CPreventiveAlarmLowLevelNamurDfa()
        6      2   -> memcpy
        6      2   -> memset
        6      2   -> operator new(unsigned int)
        6      2 ?SS_SHR_L02
      1      2   CPss21::ConnectDevice(uint8_t)
        1      2   -> CPlatform::SpiSlaveSelectAddress0Off()
        1      2   -> CPlatform::SpiSlaveSelectAddress0On()
        1      2   -> CPlatform::SpiSlaveSelectAddress1Off()
        1      2   -> CPlatform::SpiSlaveSelectAddress1On()
        1      2   -> CPlatform::SpiSlaveSelectAddress2Off()
        1      2   -> CPlatform::SpiSlaveSelectAddress2On()
        1      2   -> CPlatform::SpiSlaveSelectAddress3Off()
        1      2   -> CPlatform::SpiSlaveSelectAddress3On()
        1      2   -> CPlatform::SpiSlaveSelectEnableOn()
        1      2   -> CSpi::Enable()
     27      2   CPss21::CreateDevices()
       27      2   -- Indirect call
       27      2   -> CModuleMrXXDriver::CModuleMrXXDriver(uint8_t)
       27      2   -> CMvsn21Driver::CMvsn21Driver(uint8_t)
       27      2   -> CPlatform::WatchdogReset()
       27      2   -> CPss21::InitAllocationContext(TMemoryAllocationContext &)
       27      2   -> operator new(unsigned int)
      0      2   CPss21::DestroyDevices(uint8_t)
      0      2   CPss21::DisconnectDevice()
        0      2   -> CPlatform::SpiSlaveSelectAddress0Off()
        0      2   -> CPlatform::SpiSlaveSelectAddress1Off()
        0      2   -> CPlatform::SpiSlaveSelectAddress2Off()
        0      2   -> CPlatform::SpiSlaveSelectAddress3Off()
        0      2   -> CPlatform::SpiSlaveSelectEnableOff()
        0      2   -> CSpi::Disable()
      4      2   CPss21::DiscreteOutputControlClear()
        4      2 ?S_EC_MUL_L02
      4      2   CPss21::DiscreteOutputsSet(uint8_t *, uint8_t)
        4      2 ?S_EC_MUL_L02
        4      2 ?S_SHL_L02
      0      2   CPss21::DiscreteSignalsProcessing()
        0      2   -> CPss21::AlarmsProcessing()
        0      2   -> CPss21::DiscreteOutputControlClear()
        0      2   -> CPss21::SetDiscreteSignalsReceipt(uint8_t)
        0      2   -> CPss21::SetDiscreteSignalsReset(uint8_t)
      1      2   CPss21::ErrorAlarmsProcessing()
        1      2   -- Indirect call
      0      2   CPss21::ErrorMainCycle()
        0      2   -> CBuzzerNotifyerControl::AlarmSet(uint8_t)
        0      2   -> CModbusRTU::Fsm()
        0      2   -> CPlatform::WatchdogReset()
        0      2   -> CPss21::GetExternalReceipt()
        0      2   -> CPss21::GetModbusReceipt()
        0      2   -> CPss21::GetPanelReceipt()
        0      2   -> CPss21::KeyStateProcessing()
        0      2   -> CPss21::NotifyersControlProcessing()
        0      2   -> CPss21::ReceiptResetGlobalFlagsClear()
        0      2   -> CStatusLedNotifyerControl::AlarmSet(uint8_t)
      2      2   CPss21::ErrorWindowOn(uint8_t)
        2      2   -> CAlarmWindow::SetActivityState(uint8_t)
        2      2   -> CAlarmWindow::SetAlarmColor(uint8_t)
        2      2   -> CAlarmWindow::SetAlarmType(uint8_t)
        2      2   -> CPss21::BoardWindowsUpdate()
        2      2 ?S_EC_MUL_L02
      0      2   CPss21::GetAlarmWindowControlPointer(uint8_t)
        0      2 ?S_EC_MUL_L02
      1      2   CPss21::GetAlarmWindowType(uint8_t)
        1      2   -> CAlarmWindow::GetAlarmType()
        1      2   -> CPss21::GetAlarmWindowControlPointer(uint8_t)
      0      2   CPss21::GetCommonAlarmType()
      0      2   CPss21::GetDiscreteInputState(uint8_t)
      0      2   CPss21::GetDiscreteInputsBadState(uint8_t)
      0      2   CPss21::GetErrorAlarmState(uint8_t)
      0      2   CPss21::GetErrorCode()
      0      2   CPss21::GetExternalReceipt()
      0      2   CPss21::GetExternalReset()
      0      2   CPss21::GetFsmState()
      0      2   CPss21::GetModbusReceipt()
      0      2   CPss21::GetModbusReset()
      0      2   CPss21::GetModuleIndex()
      0      2   CPss21::GetPanelReceipt()
      0      2   CPss21::GetPanelReset()
      0      2   CPss21::GetTimeoutModbusRtuLinkControl()
        0      2 ?S_EC_MUL_L02
      0      2   CPss21::Init()
        0      2   -> CLightBoard::Init(CAlarmWindow *)
        0      2   -> CPss21::AllAlarmWindowOff()
        0      2   -> CPss21::SetErrorCode(uint8_t)
        0      2   -> memset
      0      2   CPss21::InitAllocationContext(TMemoryAllocationContext &)
      1      2   CPss21::KeyStateProcessing()
        1      2   -> CBuzzerNotifyerControl::AlarmSet(uint8_t)
        1      2   -> CEventUniteLogicAnd::IsHappened(uint8_t, uint8_t)
        1      2   -> CMultiFunctionKey::KeyEventHappened(uint8_t)
        1      2   -> CPss21::ModbusDefaultInit()
        1      2   -> CPss21::SendToDevicesReceipt()
        1      2   -> CPss21::SendToDevicesReset()
        1      2   -> CPss21::SetDiscreteSignalsReceipt(uint8_t)
        1      2   -> CPss21::SetDiscreteSignalsReset(uint8_t)
        1      2   -> CPss21::SetExternalReceipt(uint8_t)
        1      2   -> CPss21::SetExternalReset(uint8_t)
        1      2   -> CPss21::SetFsmState(uint8_t)
        1      2   -> CPss21::SetPanelReceipt(uint8_t)
        1      2   -> CPss21::SetPanelReset(uint8_t)
      0      2   CPss21::LinkControlErrorMainCycle()
        0      2   -> CDataStore::Fsm()
        0      2   -> CModbusRTU::Fsm()
        0      2   -> CModbusRtuLinkControl::Fsm()
        0      2   -> CPlatform::WatchdogReset()
        0      2   -> CPss21::KeyStateProcessing()
        0      2   -> CPss21::NotifyersControlProcessing()
        0      2   -> CPss21::ReceiptResetGlobalFlagsClear()
      0      2   CPss21::MainFsm()
        0      2   -> CBuzzer::Init()
        0      2   -> CBuzzerNotifyerControl::AlarmSet(uint8_t)
        0      2   -> CDataBase::Check()
        0      2   -> CDataStore::Fsm()
        0      2   -> CDfaLite::SetFsmState(uint8_t)
        0      2   -> CEmergencyAlarmWindowNotifyerControl::AlarmSet(uint8_t)
        0      2   -> CModbusRTU::Fsm()
        0      2   -> CModbusRtuLinkControl::Fsm()
        0      2   -> CPlatform::Init()
        0      2   -> CPlatform::WatchdogEnable()
        0      2   -> CPlatform::WatchdogReset()
        0      2   -> CPreventiveAlarmWindowNotifyerControl::AlarmSet(uint8_t)
        0      2   -> CPss21::AddressBusInit()
        0      2   -> CPss21::AllAlarmWindowOff()
        0      2   -> CPss21::ConfigurationInit()
        0      2   -> CPss21::CreateDevices()
        0      2   -> CPss21::DiscreteSignalsProcessing()
        0      2   -> CPss21::ErrorMainCycle()
        0      2   -> CPss21::ErrorWindowOn(uint8_t)
        0      2   -> CPss21::GetErrorCode()
        0      2   -> CPss21::GetFsmState()
        0      2   -> CPss21::GetModuleIndex()
        0      2   -> CPss21::Init()
        0      2   -> CPss21::KeyStateProcessing()
        0      2   -> CPss21::LinkControlErrorMainCycle()
        0      2   -> CPss21::ModbusDefaultInit()
        0      2   -> CPss21::ModbusInit()
        0      2   -> CPss21::ModulesInteraction(uint8_t)
        0      2   -> CPss21::NotifyersControlProcessing()
        0      2   -> CPss21::ReceiptResetGlobalFlagsClear()
        0      2   -> CPss21::RestoreContextNotifyerControl()
        0      2   -> CPss21::SaveContextNotifyerControl()
        0      2   -> CPss21::SearchModules()
        0      2   -> CPss21::SetErrorCode(uint8_t)
        0      2   -> CPss21::SetFsmState(uint8_t)
        0      2   -> CPss21::SetModuleIndex(uint8_t)
        0      2   -> CPss21::TestMainCycle()
        0      2   -> CSpi::Init()
        0      2   -> CStatusLedNotifyerControl::AlarmSet(uint8_t)
        0      2   -> CTimer::IsOverflow()
        0      2   -> CTimer::Reset()
        0      2   -> CTimer::Set(uint16_t)
        0      2 ?CV_SWITCH_L06
      0      2   CPss21::ModbusDefaultInit()
        0      2   -> CPss21::ModbusInit()
      6      2   CPss21::ModbusDeviceControl(uint8_t *, uint16_t, uint16_t)
        6      2   -> CDfa::SetFsmEvent(uint8_t)
        6      2   -> CPss21::SendToDevicesModbusReceipt()
        6      2   -> CPss21::SendToDevicesModbusReset()
        6      2   -> CPss21::SetBytesFromBits(uint8_t *, uint8_t *, uint16_t)
        6      2   -> CPss21::SetDiscreteSignalsReceipt(uint8_t)
        6      2   -> CPss21::SetDiscreteSignalsReset(uint8_t)
        6      2   -> CPss21::SetModbusReceipt(uint8_t)
        6      2   -> CPss21::SetModbusReset(uint8_t)
      3      2   CPss21::ModbusDeviceControl(uint8_t, uint16_t)
        3      2   -> CPss21::ModbusDeviceControl(uint8_t *, uint16_t, uint16_t)
     23      2   CPss21::ModbusInit()
        0      2   -> CDfaLite::SetFsmState(uint8_t)
        0      2   -> CModbus::SlaveSet(uint8_t)
        0      2   -> CModbusRTU::Init(CUart *, uint32_t, char, uint8_t, uint8_t, uint8_t *, uint8_t *, uint8_t *, uint8_t *, uint16_t *, uint16_t *, uint16_t, uint16_t, uint16_t, uint16_t)
       23      2 ?UL_DIVMOD_L03
       23      2 ?UL_SHR_L03
      0      2   CPss21::ModbusRtuLinkControlInProgress()
      0      2   CPss21::ModbusRtuLinkControlIsOn()
      1      2   CPss21::ModulesInteraction(uint8_t)
        1      2   -- Indirect call
      0      2   CPss21::NotifyersControlProcessing()
        0      2   -> CModbusRTU::Fsm()
        0      2   -> CNotifyerControl::Fsm()
      0      2   CPss21::ReceiptResetGlobalFlagsClear()
        0      2   -> CPss21::SetExternalReceipt(uint8_t)
        0      2   -> CPss21::SetExternalReset(uint8_t)
        0      2   -> CPss21::SetModbusReceipt(uint8_t)
        0      2   -> CPss21::SetModbusReset(uint8_t)
        0      2   -> CPss21::SetPanelReceipt(uint8_t)
        0      2   -> CPss21::SetPanelReset(uint8_t)
      6      2   CPss21::ReportType(uint8_t *, uint16_t)
        6      2   -> CPss21::ConnectDevice(uint8_t)
        6      2   -> CPss21::DisconnectDevice()
        6      2   -> CSpi::Exchange(uint8_t *, uint8_t *, uint16_t)
        6      2   -> memset
      1      2   CPss21::RestoreContextNotifyerControl()
        1      2   -> CAlarmWindow::GetSavedActivityState()
        1      2   -> CAlarmWindow::GetSavedAlarmColor()
        1      2   -> CAlarmWindow::GetSavedAlarmType()
        1      2   -> CAlarmWindow::SetActivityState(uint8_t)
        1      2   -> CAlarmWindow::SetAlarmColor(uint8_t)
        1      2   -> CAlarmWindow::SetAlarmType(uint8_t)
        1      2   -> CPss21::AlarmTypeSet(uint8_t)
        1      2   -> CPss21::GetCommonAlarmType()
        1      2 ?S_EC_MUL_L02
      1      2   CPss21::SaveContextNotifyerControl()
        1      2   -> CAlarmWindow::GetActivityState()
        1      2   -> CAlarmWindow::GetAlarmColor()
        1      2   -> CAlarmWindow::GetAlarmType()
        1      2   -> CAlarmWindow::SetSavedActivityState(uint8_t)
        1      2   -> CAlarmWindow::SetSavedAlarmColor(uint8_t)
        1      2   -> CAlarmWindow::SetSavedAlarmType(uint8_t)
        1      2 ?S_EC_MUL_L02
      2      2   CPss21::SearchModules()
        2      2   -> CPlatform::WatchdogReset()
        2      2   -> CPss21::ConnectDevice(uint8_t)
        2      2   -> CPss21::DisconnectDevice()
        2      2   -> CPss21::SetErrorCode(uint8_t)
        2      2   -> CSpi::Exchange(uint8_t *, uint8_t *, uint16_t)
        2      2   -> delay_ms(uint16_t)
        2      2   -> iCrcSummOneByteCompare(unsigned char *, unsigned int)
        2      2   -> memset
      1      2   CPss21::SendToDevicesModbusReceipt()
        1      2   -> CDfa::SetFsmEvent(uint8_t)
        1      2   -> CDriver::SetModbusReceipt(uint8_t)
      1      2   CPss21::SendToDevicesModbusReset()
        1      2   -> CDriver::SetModbusReset(uint8_t)
      1      2   CPss21::SendToDevicesReceipt()
        1      2   -> CDfa::SetFsmEvent(uint8_t)
        1      2   -> CDriver::SetReceipt(uint8_t)
      1      2   CPss21::SendToDevicesReset()
        1      2   -> CDriver::SetReset(uint8_t)
      2      2   CPss21::SetAlarmWindowColor(uint8_t, uint8_t)
        2      2   -> CAlarmWindow::SetAlarmColor(uint8_t)
        2      2   -> CPss21::GetAlarmWindowControlPointer(uint8_t)
      2      2   CPss21::SetAlarmWindowType(uint8_t, uint8_t)
        2      2   -> CAlarmWindow::SetAlarmType(uint8_t)
        2      2   -> CPss21::GetAlarmWindowControlPointer(uint8_t)
      4      2   CPss21::SetBytesFromBits(uint8_t *, uint8_t *, uint16_t)
        4      2 ?SS_DIVMOD_L02
        4      2 ?S_SHL_L02
      0      2   CPss21::SetDiscreteInputState(uint8_t, uint8_t)
      0      2   CPss21::SetDiscreteSignalsReceipt(uint8_t)
      0      2   CPss21::SetDiscreteSignalsReset(uint8_t)
      0      2   CPss21::SetErrorAlarmState(uint8_t, uint8_t)
      0      2   CPss21::SetErrorCode(uint8_t)
      0      2   CPss21::SetExternalReceipt(uint8_t)
      0      2   CPss21::SetExternalReset(uint8_t)
      0      2   CPss21::SetFsmState(uint8_t)
      0      2   CPss21::SetModbusReceipt(uint8_t)
      0      2   CPss21::SetModbusReset(uint8_t)
      1      2   CPss21::SetModeModbusRtuLinkControlInProgress(bool)
        1      2   -> CDataBase::SignatureCreate()
        1      2   -> CDataBase::WriteBlock(uint8_t *, uint8_t)
      0      2   CPss21::SetModuleIndex(uint8_t)
      0      2   CPss21::SetPanelReceipt(uint8_t)
      0      2   CPss21::SetPanelReset(uint8_t)
      0      2   CPss21::TestMainCycle()
        0      2   -> CDfaLite::GetFsmState()
        0      2   -> CDfaLite::SetFsmState(uint8_t)
        0      2   -> CModbusRTU::Fsm()
        0      2   -> CPlatform::WatchdogReset()
        0      2   -> CPss21::GetExternalReceipt()
        0      2   -> CPss21::GetExternalReset()
        0      2   -> CPss21::GetModbusReceipt()
        0      2   -> CPss21::GetModbusReset()
        0      2   -> CPss21::GetPanelReceipt()
        0      2   -> CPss21::GetPanelReset()
        0      2   -> CPss21::KeyStateProcessing()
        0      2   -> CPss21::ReceiptResetGlobalFlagsClear()
        0      2   -> CPss21::SetFsmState(uint8_t)
        0      2   -> CTestModeNotifyerControl::Fsm()
     12      2   __sti__routine()
        0      2   -> CBuzzerNotifyerControl::CBuzzerNotifyerControl()
        0      2   -> CEmergencyAlarmWindowNotifyerControl::CEmergencyAlarmWindowNotifyerControl()
        0      2   -> CEventUniteLogicAnd::CEventUniteLogicAnd(uint16_t)
        0      2   -> CModbusRTU::CModbusRTU()
        0      2   -> CModbusRtuLinkControl::CModbusRtuLinkControl()
        0      2   -> CMultiFunctionKey::CMultiFunctionKey(uint8_t (*)())
        0      2   -> CPreventiveAlarmWindowNotifyerControl::CPreventiveAlarmWindowNotifyerControl()
        0      2   -> CStatusLedNotifyerControl::CStatusLedNotifyerControl()
        0      2   -> CTestModeNotifyerControl::CTestModeNotifyerControl()
        0      2   -> CTimer::CTimer(uint16_t)
        0      2   -> CUart::CUart(uint8_t volatile *, uint8_t volatile *, uint8_t volatile *, uint8_t volatile *, uint8_t volatile *, uint8_t volatile *, uint8_t volatile *, uint8_t, uint8_t volatile *, uint8_t)
        0      2   -> __near_vec_construct
        0      2   -> __record_needed_destruction


   Segment part sizes:

   Bytes  Function/Label
   -----  --------------
       6  ?<Initializer for >
       6  ?<Initializer for >_1
       6  ?<Initializer for >_10
       6  ?<Initializer for >_11
       6  ?<Initializer for >_12
       6  ?<Initializer for >_13
       6  ?<Initializer for >_14
       6  ?<Initializer for >_2
       6  ?<Initializer for >_3
       6  ?<Initializer for >_4
       6  ?<Initializer for >_5
       6  ?<Initializer for >_6
       6  ?<Initializer for >_7
       6  ?<Initializer for >_8
       6  ?<Initializer for >_9
      50  ?<Jumptable for MainFsm>_0
      22  ?<Unnamed 0>
      22  ?<Unnamed 10>
      22  ?<Unnamed 11>
      22  ?<Unnamed 12>
      22  ?<Unnamed 1>
      22  ?<Unnamed 2>
      22  ?<Unnamed 3>
      22  ?<Unnamed 4>
      22  ?<Unnamed 5>
      22  ?<Unnamed 6>
      22  ?<Unnamed 7>
      22  ?<Unnamed 8>
      22  ?<Unnamed 9>
       6  CAlarmDfa::GetAlarmWindowIndex()
       6  CAlarmDfa::GetLinkedDiscreteOutputsPointer()
       6  CAlarmDfa::SetAlarmWindowIndex(uint8_t)
       6  CAlarmDfa::SetDiscreteStateIndex(uint8_t)
       6  CAlarmWindow::GetActivityState()
       6  CAlarmWindow::GetAlarmColor()
       6  CAlarmWindow::GetAlarmType()
       6  CAlarmWindow::GetSavedActivityState()
       6  CAlarmWindow::GetSavedAlarmColor()
       6  CAlarmWindow::GetSavedAlarmType()
       6  CAlarmWindow::SetActivityState(uint8_t)
       6  CAlarmWindow::SetAlarmColor(uint8_t)
       6  CAlarmWindow::SetAlarmType(uint8_t)
       6  CAlarmWindow::SetSavedActivityState(uint8_t)
       6  CAlarmWindow::SetSavedAlarmColor(uint8_t)
       6  CAlarmWindow::SetSavedAlarmType(uint8_t)
       6  CDfa::SetFsmEvent(uint8_t)
       6  CDfaLite::GetFsmState()
       6  CDfaLite::SetFsmState(uint8_t)
       6  CDriver::SetModbusReceipt(uint8_t)
       6  CDriver::SetModbusReset(uint8_t)
       6  CDriver::SetReceipt(uint8_t)
       6  CDriver::SetReset(uint8_t)
      12  CPlatform::ExternalKeyState()
      12  CPlatform::KeyOneState()
      12  CPlatform::KeyThreeState()
      12  CPlatform::KeyTwoState()
       4  CPlatform::SpiSlaveSelectAddress0Off()
       4  CPlatform::SpiSlaveSelectAddress0On()
       4  CPlatform::SpiSlaveSelectAddress0SetPinOutput()
       4  CPlatform::SpiSlaveSelectAddress1Off()
       4  CPlatform::SpiSlaveSelectAddress1On()
       4  CPlatform::SpiSlaveSelectAddress1SetPinOutput()
       4  CPlatform::SpiSlaveSelectAddress2Off()
       4  CPlatform::SpiSlaveSelectAddress2On()
       4  CPlatform::SpiSlaveSelectAddress2SetPinOutput()
       4  CPlatform::SpiSlaveSelectAddress3Off()
       4  CPlatform::SpiSlaveSelectAddress3On()
       4  CPlatform::SpiSlaveSelectAddress3SetPinOutput()
       4  CPlatform::SpiSlaveSelectEnableOff()
       4  CPlatform::SpiSlaveSelectEnableOn()
       4  CPlatform::SpiSlaveSelectEnableSetPinOutput()
      16  CPlatform::WatchdogEnable()
       4  CPlatform::WatchdogReset()
     144  CPss21::ActiveAlarmWindowOff(uint8_t)
      84  CPss21::ActiveAlarmWindowOn(uint8_t)
      42  CPss21::AddressBusInit()
      28  CPss21::AlarmTypeChange()
      46  CPss21::AlarmTypeChange(uint8_t)
      62  CPss21::AlarmTypeErrorChange()
      18  CPss21::AlarmTypeReceipt()
      18  CPss21::AlarmTypeReset()
      48  CPss21::AlarmTypeSet(uint8_t)
     136  CPss21::AlarmsProcessing()
      74  CPss21::AllAlarmWindowOff()
     110  CPss21::AllAlarmWindowOn(uint8_t)
      10  CPss21::BoardWindowsUpdate()
    1130  CPss21::ConfigurationInit()
      74  CPss21::ConnectDevice(uint8_t)
     364  CPss21::CreateDevices()
      18  CPss21::DestroyDevices(uint8_t)
      26  CPss21::DisconnectDevice()
      98  CPss21::DiscreteOutputControlClear()
     214  CPss21::DiscreteOutputsSet(uint8_t *, uint8_t)
      18  CPss21::DiscreteSignalsProcessing()
      72  CPss21::ErrorAlarmsProcessing()
      64  CPss21::ErrorMainCycle()
     212  CPss21::ErrorWindowOn(uint8_t)
      22  CPss21::GetAlarmWindowControlPointer(uint8_t)
      18  CPss21::GetAlarmWindowType(uint8_t)
       6  CPss21::GetCommonAlarmType()
      28  CPss21::GetDiscreteInputState(uint8_t)
      12  CPss21::GetDiscreteInputsBadState(uint8_t)
      12  CPss21::GetErrorAlarmState(uint8_t)
       6  CPss21::GetErrorCode()
       6  CPss21::GetExternalReceipt()
       6  CPss21::GetExternalReset()
       6  CPss21::GetFsmState()
       6  CPss21::GetModbusReceipt()
       6  CPss21::GetModbusReset()
       6  CPss21::GetModuleIndex()
       6  CPss21::GetPanelReceipt()
       6  CPss21::GetPanelReset()
      16  CPss21::GetTimeoutModbusRtuLinkControl()
      46  CPss21::Init()
     128  CPss21::InitAllocationContext(TMemoryAllocationContext &)
     348  CPss21::KeyStateProcessing()
      32  CPss21::LinkControlErrorMainCycle()
     560  CPss21::MainFsm()
      22  CPss21::ModbusDefaultInit()
     114  CPss21::ModbusDeviceControl(uint8_t *, uint16_t, uint16_t)
      28  CPss21::ModbusDeviceControl(uint8_t, uint16_t)
     192  CPss21::ModbusInit()
      18  CPss21::ModbusRtuLinkControlInProgress()
      16  CPss21::ModbusRtuLinkControlIsOn()
      78  CPss21::ModulesInteraction(uint8_t)
      58  CPss21::NotifyersControlProcessing()
      38  CPss21::ReceiptResetGlobalFlagsClear()
     142  CPss21::ReportType(uint8_t *, uint16_t)
     186  CPss21::RestoreContextNotifyerControl()
     180  CPss21::SaveContextNotifyerControl()
     240  CPss21::SearchModules()
      54  CPss21::SendToDevicesModbusReceipt()
      44  CPss21::SendToDevicesModbusReset()
      54  CPss21::SendToDevicesReceipt()
      44  CPss21::SendToDevicesReset()
      26  CPss21::SetAlarmWindowColor(uint8_t, uint8_t)
      26  CPss21::SetAlarmWindowType(uint8_t, uint8_t)
      94  CPss21::SetBytesFromBits(uint8_t *, uint8_t *, uint16_t)
      32  CPss21::SetDiscreteInputState(uint8_t, uint8_t)
       6  CPss21::SetDiscreteSignalsReceipt(uint8_t)
       6  CPss21::SetDiscreteSignalsReset(uint8_t)
      14  CPss21::SetErrorAlarmState(uint8_t, uint8_t)
       6  CPss21::SetErrorCode(uint8_t)
       6  CPss21::SetExternalReceipt(uint8_t)
       6  CPss21::SetExternalReset(uint8_t)
       6  CPss21::SetFsmState(uint8_t)
       6  CPss21::SetModbusReceipt(uint8_t)
       6  CPss21::SetModbusReset(uint8_t)
      34  CPss21::SetModeModbusRtuLinkControlInProgress(bool)
       6  CPss21::SetModuleIndex(uint8_t)
       6  CPss21::SetPanelReceipt(uint8_t)
       6  CPss21::SetPanelReset(uint8_t)
     102  CPss21::TestMainCycle()
     192  CPss21::m_apxAlarmDfa
       6  CPss21::m_apxDrivers
       4  CPss21::m_apxErrorAlarmDfa
      48  CPss21::m_aucDiscreteInputsBadState
     120  CPss21::m_aucRtuDiscreteDataArray
      16  CPss21::m_aucRtuHoldingRegistersArray
      16  CPss21::m_aucRtuInputRegistersArray
       2  CPss21::m_auiErrorAlarmDataArray
      48  CPss21::m_auiErrorLedOn
     256  CPss21::m_auiIntermediateBuff
     256  CPss21::m_auiReceiveMessageBuff
      64  CPss21::m_auiSpiRxBuffer
      64  CPss21::m_auiSpiTxBuffer
     384  CPss21::m_axAlarmWindowControl
      16  CPss21::m_axDiscreteOutputControl
       1  CPss21::m_uiCommonAlarmType
       1  CPss21::m_uiCommonAlarmTypePrevious
       1  CPss21::m_uiDiscreteSignalsReceipt
       1  CPss21::m_uiDiscreteSignalsReset
       1  CPss21::m_uiErrorCode
       1  CPss21::m_uiExternalReceipt
       1  CPss21::m_uiExternalReset
       1  CPss21::m_uiFsmState
       1  CPss21::m_uiModbusReceipt
       1  CPss21::m_uiModbusReset
       1  CPss21::m_uiModuleIndex
       1  CPss21::m_uiPanelReceipt
       1  CPss21::m_uiPanelReset
       1  CPss21::m_uiType
      12  CPss21::m_xBuzzerNotifyerControl
      15  CPss21::m_xCheckKey
       9  CPss21::m_xDeviceConfigSearch
      20  CPss21::m_xDeviceConfiguration
       8  CPss21::m_xDeviceState
      24  CPss21::m_xDiscreteOutputDataBase
      12  CPss21::m_xEmergencyAlarmWindowNotifyerControl
      14  CPss21::m_xEventUniteLogicAndOne
      15  CPss21::m_xExternalKey
       6  CPss21::m_xMainCycleTimer
      11  CPss21::m_xModbusRtuLinkControl
      49  CPss21::m_xModbusRtuOne
       7  CPss21::m_xModbusSettings
      12  CPss21::m_xPreventiveAlarmWindowNotifyerControl
      15  CPss21::m_xReceiptKey
      15  CPss21::m_xResetKey
      12  CPss21::m_xStatusLedNotifyerControl
      12  CPss21::m_xTestModeNotifyerControl
      47  CPss21::m_xUart1
       1  _A_ACSR
       2  _A_ADC
       1  _A_ADCSRA
       1  _A_ADMUX
       1  _A_ASSR
       1  _A_DDRA
       1  _A_DDRB
       1  _A_DDRC
       1  _A_DDRD
       1  _A_DDRE
       1  _A_DDRF
       1  _A_DDRG
       2  _A_EEAR
       1  _A_EECR
       1  _A_EEDR
       1  _A_EICRA
       1  _A_EICRB
       1  _A_EIFR
       1  _A_EIMSK
       1  _A_ETIFR
       1  _A_ETIMSK
       2  _A_ICR1
       2  _A_ICR3
       1  _A_MCUCR
       1  _A_MCUCSR
       1  _A_OCDR
       1  _A_OCR0
       2  _A_OCR1A
       2  _A_OCR1B
       2  _A_OCR1C
       1  _A_OCR2
       2  _A_OCR3A
       2  _A_OCR3B
       2  _A_OCR3C
       1  _A_OSCCAL
       1  _A_PINA
       1  _A_PINB
       1  _A_PINC
       1  _A_PIND
       1  _A_PINE
       1  _A_PINF
       1  _A_PING
       1  _A_PORTA
       1  _A_PORTB
       1  _A_PORTC
       1  _A_PORTD
       1  _A_PORTE
       1  _A_PORTF
       1  _A_PORTG
       1  _A_RAMPZ
       1  _A_SFIOR
       2  _A_SP
       1  _A_SPCR
       1  _A_SPDR
       1  _A_SPMCSR
       1  _A_SPSR
       1  _A_SREG
       1  _A_TCCR0
       1  _A_TCCR1A
       1  _A_TCCR1B
       1  _A_TCCR1C
       1  _A_TCCR2
       1  _A_TCCR3A
       1  _A_TCCR3B
       1  _A_TCCR3C
       1  _A_TCNT0
       2  _A_TCNT1
       1  _A_TCNT2
       2  _A_TCNT3
       1  _A_TIFR
       1  _A_TIMSK
       1  _A_TWAR
       1  _A_TWBR
       1  _A_TWCR
       1  _A_TWDR
       1  _A_TWSR
       1  _A_UBRR0H
       1  _A_UBRR0L
       1  _A_UBRR1H
       1  _A_UBRR1L
       1  _A_UCSR0A
       1  _A_UCSR0B
       1  _A_UCSR0C
       1  _A_UCSR1A
       1  _A_UCSR1B
       1  _A_UCSR1C
       1  _A_UDR0
       1  _A_UDR1
       1  _A_WDTCR
       1  _A_XDIV
       1  _A_XMCRA
       1  _A_XMCRB
     342  __sti__routine()
       1  uiMapTestCounter
     158  -- Other

 
   105 bytes in segment ABSOLUTE
 7 188 bytes in segment CODE
     2 bytes in segment DIFUNCT
    14 bytes in segment INITTAB
    70 bytes in segment NEAR_F
    90 bytes in segment NEAR_I
    90 bytes in segment NEAR_ID
 1 804 bytes in segment NEAR_Z
    50 bytes in segment SWITCH
 
 6 986 bytes of CODE memory (+ 428 bytes shared)
 1 894 bytes of DATA memory (+ 105 bytes shared)

Errors: none
Warnings: 7
