################################################################################
#                                                                              #
#      IAR Universal Linker V6.5.2.97                                          #
#                                                                              #
#           Link time     =  26/Oct/2023  16:00:50                             #
#           Target CPU    =  A90                                               #
#           List file     =  D:\Projects\CurrentProjects\CautoProjects\PSS48Co #
#                            lor\Debug\List\PSS48.map                          #
#           Output file 1 =  D:\Projects\CurrentProjects\CautoProjects\PSS48Co #
#                            lor\Debug\Exe\PSS48.hex                           #
#                            Format: intel-standard                            #
#           Output file 2 =  D:\Projects\CurrentProjects\CautoProjects\PSS48Co #
#                            lor\Debug\Exe\PSS48.d90                           #
#                            Format: ubrof8                                    #
#                            UBROF version 8.0.2                               #
#           Command line  =  -f C:\Users\Admin\AppData\Local\Temp\EW5662.tmp   #
#                            (D:\Projects\CurrentProjects\CautoProjects\PSS48C #
#                            olor\Debug\Obj\Alarm.r90                          #
#                            D:\Projects\CurrentProjects\CautoProjects\PSS48Co #
#                            lor\Debug\Obj\AlarmWindow.r90                     #
#                            D:\Projects\CurrentProjects\CautoProjects\PSS48Co #
#                            lor\Debug\Obj\Buzzer.r90                          #
#                            D:\Projects\CurrentProjects\CautoProjects\PSS48Co #
#                            lor\Debug\Obj\Crc.r90                             #
#                            D:\Projects\CurrentProjects\CautoProjects\PSS48Co #
#                            lor\Debug\Obj\DataBase.r90                        #
#                            D:\Projects\CurrentProjects\CautoProjects\PSS48Co #
#                            lor\Debug\Obj\DataStore.r90                       #
#                            D:\Projects\CurrentProjects\CautoProjects\PSS48Co #
#                            lor\Debug\Obj\Dfa.r90                             #
#                            D:\Projects\CurrentProjects\CautoProjects\PSS48Co #
#                            lor\Debug\Obj\DM134.r90                           #
#                            D:\Projects\CurrentProjects\CautoProjects\PSS48Co #
#                            lor\Debug\Obj\Dm163.r90                           #
#                            D:\Projects\CurrentProjects\CautoProjects\PSS48Co #
#                            lor\Debug\Obj\Event.r90                           #
#                            D:\Projects\CurrentProjects\CautoProjects\PSS48Co #
#                            lor\Debug\Obj\HammingCodes.r90                    #
#                            D:\Projects\CurrentProjects\CautoProjects\PSS48Co #
#                            lor\Debug\Obj\InputDevice.r90                     #
#                            D:\Projects\CurrentProjects\CautoProjects\PSS48Co #
#                            lor\Debug\Obj\LightBoard.r90                      #
#                            D:\Projects\CurrentProjects\CautoProjects\PSS48Co #
#                            lor\Debug\Obj\LinkControl.r90                     #
#                            D:\Projects\CurrentProjects\CautoProjects\PSS48Co #
#                            lor\Debug\Obj\main.r90                            #
#                            D:\Projects\CurrentProjects\CautoProjects\PSS48Co #
#                            lor\Debug\Obj\modbus.r90                          #
#                            D:\Projects\CurrentProjects\CautoProjects\PSS48Co #
#                            lor\Debug\Obj\ModbusRTU.r90                       #
#                            D:\Projects\CurrentProjects\CautoProjects\PSS48Co #
#                            lor\Debug\Obj\ModuleMrXX.r90                      #
#                            D:\Projects\CurrentProjects\CautoProjects\PSS48Co #
#                            lor\Debug\Obj\Mvsn21.r90                          #
#                            D:\Projects\CurrentProjects\CautoProjects\PSS48Co #
#                            lor\Debug\Obj\NotifyerControl.r90                 #
#                            D:\Projects\CurrentProjects\CautoProjects\PSS48Co #
#                            lor\Debug\Obj\Pixel.r90                           #
#                            D:\Projects\CurrentProjects\CautoProjects\PSS48Co #
#                            lor\Debug\Obj\Platform.r90                        #
#                            D:\Projects\CurrentProjects\CautoProjects\PSS48Co #
#                            lor\Debug\Obj\Pss21.r90                           #
#                            D:\Projects\CurrentProjects\CautoProjects\PSS48Co #
#                            lor\Debug\Obj\Timer.r90                           #
#                            -l                                                #
#                            D:\Projects\CurrentProjects\CautoProjects\PSS48Co #
#                            lor\Debug\List\PSS48.map                          #
#                            -xms                                              #
#                            "-IC:\Program Files (x86)\IAR Systems\Embedded Wo #
#                            rkbench 8.0\avr\LIB\"                             #
#                            -f                                                #
#                            "C:\Program Files (x86)\IAR Systems\Embedded Work #
#                            bench 8.0\avr\src\template\cfgm128a.xcl"          #
#                            (-D_..X_INTVEC_SIZE=8C -D_..X_FLASH_END=1FFFF     #
#                            -D_..X_FLASH_NEND=FFFF -D_..X_SRAM_BASE=100       #
#                            -D_..X_SRAM_TBASE=0 -D_..X_SRAM_TSIZE=0           #
#                            -D_..X_SRAM_END=10FF -D_..X_EEPROM_START=0        #
#                            -D_..X_EEPROM_END=FFF) -D_..X_HEAP_SIZE=0         #
#                            -D_..X_TINY_HEAP_SIZE=0                           #
#                            -D_..X_NEAR_HEAP_SIZE=400                         #
#                            -D_..X_FAR_HEAP_SIZE=0 -D_..X_HUGE_HEAP_SIZE=0    #
#                            -D_..X_CSTACK_SIZE=200 -D_..X_RSTACK_SIZE=40      #
#                            -D_..X_FLASH_CODE_END=1FFFF -f                    #
#                            "C:\Program Files (x86)\IAR Systems\Embedded Work #
#                            bench 8.0\avr\src\template\cfg3soim.xcl"          #
#                            (-ca90 -w29                                       #
#                            -Z(CODE)INTVEC=0-(_..X_INTVEC_SIZE-1)             #
#                            -Z(CODE)TINY_F=_..X_FLASH_BASE-FF                 #
#                            -Z(CODE)NEAR_F=_..X_FLASH_BASE-_..X_FLASH_NEND    #
#                            -Z(CODE)SWITCH=_..X_FLASH_BASE-_..X_FLASH_NEND    #
#                            -Z(CODE)DIFUNCT=_..X_FLASH_BASE-_..X_FLASH_NEND   #
#                            -Z(CODE)CODE=_..X_FLASH_BASE-_..X_FLASH_END       #
#                            -P(CODE)FAR_F=[_..X_FLASH_BASE-_..X_FLASH_END]/10 #
#                            000                                               #
#                            -Z(CODE)INITTAB=_..X_FLASH_BASE-_..X_FLASH_END    #
#                            -Z(CODE)HUGE_F=_..X_FLASH_BASE-_..X_FLASH_END     #
#                            -Z(CODE)TINY_ID=_..X_FLASH_BASE-_..X_FLASH_END    #
#                            -Z(CODE)NEAR_ID=_..X_FLASH_BASE-_..X_FLASH_END    #
#                            -Z(CODE)CHECKSUM#_..X_FLASH_END                   #
#                            -Z(DATA)TINY_I,TINY_Z,TINY_N=_..X_SRAM_TBASE:+_.. #
#                            X_SRAM_TSIZE                                      #
#                            -Z(DATA)CSTACK+_..X_CSTACK_SIZE=_..X_CSTACK_BASE- #
#                            _..X_CSTACK_END                                   #
#                            -Z(DATA)HEAP+_..X_HEAP_SIZE=_..X_SRAM_BASE-_..X_S #
#                            RAM_END                                           #
#                            -Z(DATA)IOSTREAM_N#_..X_SRAM_BASE-_..X_SRAM_END   #
#                            -Z(DATA)NEAR_HEAP+_..X_NEAR_HEAP_SIZE=_..X_SRAM_B #
#                            ASE-_..X_SRAM_END                                 #
#                            -Z(DATA)RSTACK+_..X_RSTACK_SIZE=_..X_RSTACK_BASE- #
#                            _..X_RSTACK_END                                   #
#                            -Z(DATA)NEAR_I,NEAR_Z,NEAR_N=_..X_SRAM_BASE-_..X_ #
#                            SRAM_END                                          #
#                            -Z(XDATA)EEPROM_I,EEPROM_N=_..X_EEPROM_START-_..X #
#                            _EEPROM_END)                                      #
#                            -D_..X_FLASH_BASE=_..X_INTVEC_SIZE -H1895         #
#                            -h(CODE)0-(_..X_INTVEC_SIZE-1)                    #
#                            -D_..X_EXT_SRAM_BASE=_..X_SRAM_END                #
#                            -D_..X_EXT_SRAM_SIZE=0                            #
#                            -D_..X_EXT_ROM_BASE=_..X_SRAM_END                 #
#                            -D_..X_EXT_ROM_SIZE=0                             #
#                            -D_..X_EXT_NV_BASE=_..X_SRAM_END                  #
#                            -D_..X_EXT_NV_SIZE=0                              #
#                            -D_..X_CSTACK_BASE=_..X_SRAM_BASE                 #
#                            -D_..X_CSTACK_END=_..X_SRAM_END                   #
#                            -D_..X_RSTACK_BASE=_..X_SRAM_BASE                 #
#                            -D_..X_RSTACK_END=_..X_SRAM_END                   #
#                            -Oubrof8=D:\Projects\CurrentProjects\CautoProject #
#                            s\PSS48Color\Debug\Exe\PSS48.d90                  #
#                            -s __program_start                                #
#                            "C:\Program Files (x86)\IAR Systems\Embedded Work #
#                            bench 8.0\avr\LIB\DLIB\dlAVR-3s-ec_mul-n.r90"     #
#                            -o                                                #
#                            D:\Projects\CurrentProjects\CautoProjects\PSS48Co #
#                            lor\Debug\Exe\PSS48.hex                           #
#                            -Fintel-standard)                                 #
#                                                                              #
#                           Copyright (C) 1987-2017 IAR Systems AB.            #
################################################################################





                ****************************************
                *                                      *
                *           CROSS REFERENCE            *
                *                                      *
                ****************************************

       Program entry at : CODE      00007B64  Relocatable, from module : ?C_STARTUP




                ****************************************
                *                                      *
                *            RUNTIME MODEL             *
                *                                      *
                ****************************************

  R10                        = REG
  R11                        = REG
  R12                        = REG
  R13                        = REG
  R14                        = REG
  R15                        = REG
  R4                         = REG
  R5                         = REG
  R6                         = REG
  R7                         = REG
  R8                         = REG
  R9                         = REG
  __64bit_doubles            = disabled
  __Heap_Handler             = Basic
  __SystemLibrary            = DLib
  __cpu                      = 3
  __cpu_name                 = ATmega128A
  __dlib_file_descriptor     = 0
  __dlib_full_locale_support = 0
  __enhanced_core            = enabled
  __has_elpm                 = true
  __memory_model             = 2
  __no_rampd                 = enabled
  __rt_version               = 3
  __tiny_avr                 = false
  __vtable_memory            = __nearflash

                ****************************************
                *                                      *
                *    AUTOMATIC SYMBOL REDIRECTIONS     *
                *                                      *
                ****************************************

                  There are no automatic symbol redirections.



                ****************************************
                *                                      *
                *              MODULE MAP              *
                *                                      *
                ****************************************


  DEFINED ABSOLUTE ENTRIES
  PROGRAM MODULE, NAME : ?ABS_ENTRY_MOD

Absolute parts
           ENTRY                   ADDRESS         REF BY
           =====                   =======         ======
           _..X_RSTACK_END         000010FF 
           _..X_RSTACK_BASE        00000100 
           _..X_CSTACK_END         000010FF 
           _..X_CSTACK_BASE        00000100 
           _..X_EXT_NV_SIZE        00000000 
           _..X_EXT_NV_BASE        000010FF 
           _..X_EXT_ROM_SIZE       00000000 
           _..X_EXT_ROM_BASE       000010FF 
           _..X_EXT_SRAM_SIZE      00000000 
           _..X_EXT_SRAM_BASE      000010FF 
           _..X_FLASH_BASE         0000008C 
           _..X_FLASH_CODE_END     0001FFFF 
           _..X_RSTACK_SIZE        00000040 
           _..X_CSTACK_SIZE        00000200 
           _..X_HUGE_HEAP_SIZE     00000000 
           _..X_FAR_HEAP_SIZE      00000000 
           _..X_NEAR_HEAP_SIZE     00000400 
           _..X_TINY_HEAP_SIZE     00000000 
           _..X_HEAP_SIZE          00000000 
           _..X_EEPROM_END         00000FFF 
           _..X_EEPROM_START       00000000 
           _..X_SRAM_END           000010FF 
           _..X_SRAM_TSIZE         00000000 
           _..X_SRAM_TBASE         00000000 
           _..X_SRAM_BASE          00000100 
           _..X_FLASH_NEND         0000FFFF 
           _..X_FLASH_END          0001FFFF 
           _..X_INTVEC_SIZE        0000008C 
    *************************************************************************

  FILE NAME : D:\Projects\CurrentProjects\CautoProjects\PSS48Color\Debug\Obj\Alarm.r90
  PROGRAM MODULE, NAME : Alarm

  SEGMENTS IN THE MODULE
  ======================
ABSOLUTE
  Relative segment, address: DATA 0000009D - 0000009D (0x1 bytes), align: 0
  Segment part 1. ROOT        Intra module refs:   __sti__routine() (Pss21)
           ENTRY                   ADDRESS         REF BY
           =====                   =======         ======
           _A_UCSR1C               0000009D 
           LOCAL                   ADDRESS         
           =====                   =======         
           UCSR1C                  0000009D 
    -------------------------------------------------------------------------
ABSOLUTE
  Relative segment, address: DATA 0000009C - 0000009C (0x1 bytes), align: 0
  Segment part 2. ROOT        Intra module refs:   __sti__routine() (Pss21)
           ENTRY                   ADDRESS         REF BY
           =====                   =======         ======
           _A_UDR1                 0000009C 
           LOCAL                   ADDRESS         
           =====                   =======         
           UDR1                    0000009C 
    -------------------------------------------------------------------------
ABSOLUTE
  Relative segment, address: DATA 0000009B - 0000009B (0x1 bytes), align: 0
  Segment part 3. ROOT        Intra module refs:   __sti__routine() (Pss21)
           ENTRY                   ADDRESS         REF BY
           =====                   =======         ======
           _A_UCSR1A               0000009B 
           LOCAL                   ADDRESS         
           =====                   =======         
           UCSR1A                  0000009B 
    -------------------------------------------------------------------------
ABSOLUTE
  Relative segment, address: DATA 0000009A - 0000009A (0x1 bytes), align: 0
  Segment part 4. ROOT        Intra module refs:   __sti__routine() (Pss21)
           ENTRY                   ADDRESS         REF BY
           =====                   =======         ======
           _A_UCSR1B               0000009A 
           LOCAL                   ADDRESS         
           =====                   =======         
           UCSR1B                  0000009A 
    -------------------------------------------------------------------------
ABSOLUTE
  Relative segment, address: DATA 00000099 - 00000099 (0x1 bytes), align: 0
  Segment part 5. ROOT        Intra module refs:   __sti__routine() (Pss21)
           ENTRY                   ADDRESS         REF BY
           =====                   =======         ======
           _A_UBRR1L               00000099 
           LOCAL                   ADDRESS         
           =====                   =======         
           UBRR1L                  00000099 
    -------------------------------------------------------------------------
ABSOLUTE
  Relative segment, address: DATA 00000098 - 00000098 (0x1 bytes), align: 0
  Segment part 6. ROOT        Intra module refs:   __sti__routine() (Pss21)
           ENTRY                   ADDRESS         REF BY
           =====                   =======         ======
           _A_UBRR1H               00000098 
           LOCAL                   ADDRESS         
           =====                   =======         
           UBRR1H                  00000098 
    -------------------------------------------------------------------------
ABSOLUTE
  Relative segment, address: DATA 00000095 - 00000095 (0x1 bytes), align: 0
  Segment part 7. ROOT 
           ENTRY                   ADDRESS         REF BY
           =====                   =======         ======
           _A_UCSR0C               00000095 
           LOCAL                   ADDRESS         
           =====                   =======         
           UCSR0C                  00000095 
    -------------------------------------------------------------------------
ABSOLUTE
  Relative segment, address: DATA 00000090 - 00000090 (0x1 bytes), align: 0
  Segment part 8. ROOT 
           ENTRY                   ADDRESS         REF BY
           =====                   =======         ======
           _A_UBRR0H               00000090 
           LOCAL                   ADDRESS         
           =====                   =======         
           UBRR0H                  00000090 
    -------------------------------------------------------------------------
ABSOLUTE
  Relative segment, address: DATA 0000008C - 0000008C (0x1 bytes), align: 0
  Segment part 9. ROOT 
           ENTRY                   ADDRESS         REF BY
           =====                   =======         ======
           _A_TCCR3C               0000008C 
           LOCAL                   ADDRESS         
           =====                   =======         
           TCCR3C                  0000008C 
    -------------------------------------------------------------------------
ABSOLUTE
  Relative segment, address: DATA 0000008B - 0000008B (0x1 bytes), align: 0
  Segment part 10. ROOT       Intra module refs:   CPlatform::BuzzerTimerFrequencySet(uint16_t) (Platform)
                                                   CPlatform::BuzzerTimerStop() (Platform)
           ENTRY                   ADDRESS         REF BY
           =====                   =======         ======
           _A_TCCR3A               0000008B 
           LOCAL                   ADDRESS         
           =====                   =======         
           TCCR3A                  0000008B 
    -------------------------------------------------------------------------
ABSOLUTE
  Relative segment, address: DATA 0000008A - 0000008A (0x1 bytes), align: 0
  Segment part 11. ROOT       Intra module refs:   CPlatform::BuzzerTimerFrequencySet(uint16_t) (Platform)
                                                   CPlatform::BuzzerTimerStop() (Platform)
           ENTRY                   ADDRESS         REF BY
           =====                   =======         ======
           _A_TCCR3B               0000008A 
           LOCAL                   ADDRESS         
           =====                   =======         
           TCCR3B                  0000008A 
    -------------------------------------------------------------------------
ABSOLUTE
  Relative segment, address: DATA 00000088 - 00000089 (0x2 bytes), align: 0
  Segment part 12. ROOT 
           ENTRY                   ADDRESS         REF BY
           =====                   =======         ======
           _A_TCNT3                00000088 
           LOCAL                   ADDRESS         
           =====                   =======         
           TCNT3                   00000088 
           TCNT3H                  00000089 
           TCNT3L                  00000088 
    -------------------------------------------------------------------------
ABSOLUTE
  Relative segment, address: DATA 00000086 - 00000087 (0x2 bytes), align: 0
  Segment part 13. ROOT       Intra module refs:   CPlatform::BuzzerTimerFrequencySet(uint16_t) (Platform)
           ENTRY                   ADDRESS         REF BY
           =====                   =======         ======
           _A_OCR3A                00000086 
           LOCAL                   ADDRESS         
           =====                   =======         
           OCR3A                   00000086 
           OCR3AH                  00000087 
           OCR3AL                  00000086 
    -------------------------------------------------------------------------
ABSOLUTE
  Relative segment, address: DATA 00000084 - 00000085 (0x2 bytes), align: 0
  Segment part 14. ROOT       Intra module refs:   CPlatform::BuzzerTimerFrequencySet(uint16_t) (Platform)
           ENTRY                   ADDRESS         REF BY
           =====                   =======         ======
           _A_OCR3B                00000084 
           LOCAL                   ADDRESS         
           =====                   =======         
           OCR3B                   00000084 
           OCR3BH                  00000085 
           OCR3BL                  00000084 
    -------------------------------------------------------------------------
ABSOLUTE
  Relative segment, address: DATA 00000082 - 00000083 (0x2 bytes), align: 0
  Segment part 15. ROOT       Intra module refs:   CPlatform::BuzzerTimerFrequencySet(uint16_t) (Platform)
           ENTRY                   ADDRESS         REF BY
           =====                   =======         ======
           _A_OCR3C                00000082 
           LOCAL                   ADDRESS         
           =====                   =======         
           OCR3C                   00000082 
           OCR3CH                  00000083 
           OCR3CL                  00000082 
    -------------------------------------------------------------------------
ABSOLUTE
  Relative segment, address: DATA 00000080 - 00000081 (0x2 bytes), align: 0
  Segment part 16. ROOT 
           ENTRY                   ADDRESS         REF BY
           =====                   =======         ======
           _A_ICR3                 00000080 
           LOCAL                   ADDRESS         
           =====                   =======         
           ICR3                    00000080 
           ICR3H                   00000081 
           ICR3L                   00000080 
    -------------------------------------------------------------------------
ABSOLUTE
  Relative segment, address: DATA 0000007D - 0000007D (0x1 bytes), align: 0
  Segment part 17. ROOT 
           ENTRY                   ADDRESS         REF BY
           =====                   =======         ======
           _A_ETIMSK               0000007D 
           LOCAL                   ADDRESS         
           =====                   =======         
           ETIMSK                  0000007D 
    -------------------------------------------------------------------------
ABSOLUTE
  Relative segment, address: DATA 0000007C - 0000007C (0x1 bytes), align: 0
  Segment part 18. ROOT 
           ENTRY                   ADDRESS         REF BY
           =====                   =======         ======
           _A_ETIFR                0000007C 
           LOCAL                   ADDRESS         
           =====                   =======         
           ETIFR                   0000007C 
    -------------------------------------------------------------------------
ABSOLUTE
  Relative segment, address: DATA 0000007A - 0000007A (0x1 bytes), align: 0
  Segment part 19. ROOT 
           ENTRY                   ADDRESS         REF BY
           =====                   =======         ======
           _A_TCCR1C               0000007A 
           LOCAL                   ADDRESS         
           =====                   =======         
           TCCR1C                  0000007A 
    -------------------------------------------------------------------------
ABSOLUTE
  Relative segment, address: DATA 00000078 - 00000079 (0x2 bytes), align: 0
  Segment part 20. ROOT 
           ENTRY                   ADDRESS         REF BY
           =====                   =======         ======
           _A_OCR1C                00000078 
           LOCAL                   ADDRESS         
           =====                   =======         
           OCR1C                   00000078 
           OCR1CH                  00000079 
           OCR1CL                  00000078 
    -------------------------------------------------------------------------
ABSOLUTE
  Relative segment, address: DATA 00000074 - 00000074 (0x1 bytes), align: 0
  Segment part 21. ROOT 
           ENTRY                   ADDRESS         REF BY
           =====                   =======         ======
           _A_TWCR                 00000074 
           LOCAL                   ADDRESS         
           =====                   =======         
           TWCR                    00000074 
    -------------------------------------------------------------------------
ABSOLUTE
  Relative segment, address: DATA 00000073 - 00000073 (0x1 bytes), align: 0
  Segment part 22. ROOT 
           ENTRY                   ADDRESS         REF BY
           =====                   =======         ======
           _A_TWDR                 00000073 
           LOCAL                   ADDRESS         
           =====                   =======         
           TWDR                    00000073 
    -------------------------------------------------------------------------
ABSOLUTE
  Relative segment, address: DATA 00000072 - 00000072 (0x1 bytes), align: 0
  Segment part 23. ROOT 
           ENTRY                   ADDRESS         REF BY
           =====                   =======         ======
           _A_TWAR                 00000072 
           LOCAL                   ADDRESS         
           =====                   =======         
           TWAR                    00000072 
    -------------------------------------------------------------------------
ABSOLUTE
  Relative segment, address: DATA 00000071 - 00000071 (0x1 bytes), align: 0
  Segment part 24. ROOT 
           ENTRY                   ADDRESS         REF BY
           =====                   =======         ======
           _A_TWSR                 00000071 
           LOCAL                   ADDRESS         
           =====                   =======         
           TWSR                    00000071 
    -------------------------------------------------------------------------
ABSOLUTE
  Relative segment, address: DATA 00000070 - 00000070 (0x1 bytes), align: 0
  Segment part 25. ROOT 
           ENTRY                   ADDRESS         REF BY
           =====                   =======         ======
           _A_TWBR                 00000070 
           LOCAL                   ADDRESS         
           =====                   =======         
           TWBR                    00000070 
    -------------------------------------------------------------------------
ABSOLUTE
  Relative segment, address: DATA 0000006F - 0000006F (0x1 bytes), align: 0
  Segment part 26. ROOT 
           ENTRY                   ADDRESS         REF BY
           =====                   =======         ======
           _A_OSCCAL               0000006F 
           LOCAL                   ADDRESS         
           =====                   =======         
           OSCCAL                  0000006F 
    -------------------------------------------------------------------------
ABSOLUTE
  Relative segment, address: DATA 0000006D - 0000006D (0x1 bytes), align: 0
  Segment part 27. ROOT 
           ENTRY                   ADDRESS         REF BY
           =====                   =======         ======
           _A_XMCRA                0000006D 
           LOCAL                   ADDRESS         
           =====                   =======         
           XMCRA                   0000006D 
    -------------------------------------------------------------------------
ABSOLUTE
  Relative segment, address: DATA 0000006C - 0000006C (0x1 bytes), align: 0
  Segment part 28. ROOT 
           ENTRY                   ADDRESS         REF BY
           =====                   =======         ======
           _A_XMCRB                0000006C 
           LOCAL                   ADDRESS         
           =====                   =======         
           XMCRB                   0000006C 
    -------------------------------------------------------------------------
ABSOLUTE
  Relative segment, address: DATA 0000006A - 0000006A (0x1 bytes), align: 0
  Segment part 29. ROOT 
           ENTRY                   ADDRESS         REF BY
           =====                   =======         ======
           _A_EICRA                0000006A 
           LOCAL                   ADDRESS         
           =====                   =======         
           EICRA                   0000006A 
    -------------------------------------------------------------------------
ABSOLUTE
  Relative segment, address: DATA 00000068 - 00000068 (0x1 bytes), align: 0
  Segment part 30. ROOT 
           ENTRY                   ADDRESS         REF BY
           =====                   =======         ======
           _A_SPMCSR               00000068 
           LOCAL                   ADDRESS         
           =====                   =======         
           SPMCSR                  00000068 
    -------------------------------------------------------------------------
ABSOLUTE
  Relative segment, address: DATA 00000065 - 00000065 (0x1 bytes), align: 0
  Segment part 31. ROOT 
           ENTRY                   ADDRESS         REF BY
           =====                   =======         ======
           _A_PORTG                00000065 
           LOCAL                   ADDRESS         
           =====                   =======         
           PORTG                   00000065 
    -------------------------------------------------------------------------
ABSOLUTE
  Relative segment, address: DATA 00000064 - 00000064 (0x1 bytes), align: 0
  Segment part 32. ROOT 
           ENTRY                   ADDRESS         REF BY
           =====                   =======         ======
           _A_DDRG                 00000064 
           LOCAL                   ADDRESS         
           =====                   =======         
           DDRG                    00000064 
    -------------------------------------------------------------------------
ABSOLUTE
  Relative segment, address: DATA 00000063 - 00000063 (0x1 bytes), align: 0
  Segment part 33. ROOT 
           ENTRY                   ADDRESS         REF BY
           =====                   =======         ======
           _A_PING                 00000063 
           LOCAL                   ADDRESS         
           =====                   =======         
           PING                    00000063 
    -------------------------------------------------------------------------
ABSOLUTE
  Relative segment, address: DATA 00000062 - 00000062 (0x1 bytes), align: 0
  Segment part 34. ROOT       Intra module refs:   CPins::ClearPinDCK() (Dm163)
                                                   CPins::ClearPinEN_B() (LightBoard)
                                                   CPins::ClearPinLAT_B() (Dm163)
                                                   CPins::ClearPinRST_B() (Dm163)
                                                   CPins::ClearPinSELBK() (Dm163)
                                                   CPins::ClearPinSIN() (Dm163)
                                                   CPins::SetPinDCK() (Dm163)
                                                   CPins::SetPinEN_B() (Dm163)
                                                   CPins::SetPinLAT_B() (LightBoard)
                                                   CPins::SetPinRST_B() (Dm163)
                                                   CPins::SetPinSELBK() (Dm163)
                                                   CPins::SetPinSIN() (Dm163)
           ENTRY                   ADDRESS         REF BY
           =====                   =======         ======
           _A_PORTF                00000062 
           LOCAL                   ADDRESS         
           =====                   =======         
           PORTF                   00000062 
    -------------------------------------------------------------------------
ABSOLUTE
  Relative segment, address: DATA 00000061 - 00000061 (0x1 bytes), align: 0
  Segment part 35. ROOT       Intra module refs:   CPins::SetPinOutputDCK() (Dm163)
                                                   CPins::SetPinOutputEN_B() (Dm163)
                                                   CPins::SetPinOutputLAT_B() (Dm163)
                                                   CPins::SetPinOutputRST_B() (Dm163)
                                                   CPins::SetPinOutputSELBK() (Dm163)
                                                   CPins::SetPinOutputSIN() (Dm163)
           ENTRY                   ADDRESS         REF BY
           =====                   =======         ======
           _A_DDRF                 00000061 
           LOCAL                   ADDRESS         
           =====                   =======         
           DDRF                    00000061 
    -------------------------------------------------------------------------
ABSOLUTE
  Relative segment, address: DATA 0000005F - 0000005F (0x1 bytes), align: 0
  Segment part 36. ROOT 
           ENTRY                   ADDRESS         REF BY
           =====                   =======         ======
           _A_SREG                 0000005F 
           LOCAL                   ADDRESS         
           =====                   =======         
           SREG                    0000005F 
    -------------------------------------------------------------------------
ABSOLUTE
  Relative segment, address: DATA 0000005D - 0000005E (0x2 bytes), align: 0
  Segment part 37. ROOT 
           ENTRY                   ADDRESS         REF BY
           =====                   =======         ======
           _A_SP                   0000005D 
           LOCAL                   ADDRESS         
           =====                   =======         
           SP                      0000005D 
           SPH                     0000005E 
           SPL                     0000005D 
    -------------------------------------------------------------------------
ABSOLUTE
  Relative segment, address: DATA 0000005C - 0000005C (0x1 bytes), align: 0
  Segment part 38. ROOT 
           ENTRY                   ADDRESS         REF BY
           =====                   =======         ======
           _A_XDIV                 0000005C 
           LOCAL                   ADDRESS         
           =====                   =======         
           XDIV                    0000005C 
    -------------------------------------------------------------------------
ABSOLUTE
  Relative segment, address: DATA 0000005B - 0000005B (0x1 bytes), align: 0
  Segment part 39. ROOT 
           ENTRY                   ADDRESS         REF BY
           =====                   =======         ======
           _A_RAMPZ                0000005B 
           LOCAL                   ADDRESS         
           =====                   =======         
           RAMPZ                   0000005B 
    -------------------------------------------------------------------------
ABSOLUTE
  Relative segment, address: DATA 0000005A - 0000005A (0x1 bytes), align: 0
  Segment part 40. ROOT 
           ENTRY                   ADDRESS         REF BY
           =====                   =======         ======
           _A_EICRB                0000005A 
           LOCAL                   ADDRESS         
           =====                   =======         
           EICRB                   0000005A 
    -------------------------------------------------------------------------
ABSOLUTE
  Relative segment, address: DATA 00000059 - 00000059 (0x1 bytes), align: 0
  Segment part 41. ROOT 
           ENTRY                   ADDRESS         REF BY
           =====                   =======         ======
           _A_EIMSK                00000059 
           LOCAL                   ADDRESS         
           =====                   =======         
           EIMSK                   00000059 
    -------------------------------------------------------------------------
ABSOLUTE
  Relative segment, address: DATA 00000058 - 00000058 (0x1 bytes), align: 0
  Segment part 42. ROOT 
           ENTRY                   ADDRESS         REF BY
           =====                   =======         ======
           _A_EIFR                 00000058 
           LOCAL                   ADDRESS         
           =====                   =======         
           EIFR                    00000058 
    -------------------------------------------------------------------------
ABSOLUTE
  Relative segment, address: DATA 00000057 - 00000057 (0x1 bytes), align: 0
  Segment part 43. ROOT       Intra module refs:   CPlatform::SystemTickInit() (Platform)
           ENTRY                   ADDRESS         REF BY
           =====                   =======         ======
           _A_TIMSK                00000057 
           LOCAL                   ADDRESS         
           =====                   =======         
           TIMSK                   00000057 
    -------------------------------------------------------------------------
ABSOLUTE
  Relative segment, address: DATA 00000056 - 00000056 (0x1 bytes), align: 0
  Segment part 44. ROOT 
           ENTRY                   ADDRESS         REF BY
           =====                   =======         ======
           _A_TIFR                 00000056 
           LOCAL                   ADDRESS         
           =====                   =======         
           TIFR                    00000056 
    -------------------------------------------------------------------------
ABSOLUTE
  Relative segment, address: DATA 00000055 - 00000055 (0x1 bytes), align: 0
  Segment part 45. ROOT 
           ENTRY                   ADDRESS         REF BY
           =====                   =======         ======
           _A_MCUCR                00000055 
           LOCAL                   ADDRESS         
           =====                   =======         
           MCUCR                   00000055 
    -------------------------------------------------------------------------
ABSOLUTE
  Relative segment, address: DATA 00000054 - 00000054 (0x1 bytes), align: 0
  Segment part 46. ROOT 
           ENTRY                   ADDRESS         REF BY
           =====                   =======         ======
           _A_MCUCSR               00000054 
           LOCAL                   ADDRESS         
           =====                   =======         
           MCUCSR                  00000054 
    -------------------------------------------------------------------------
ABSOLUTE
  Relative segment, address: DATA 00000053 - 00000053 (0x1 bytes), align: 0
  Segment part 47. ROOT       Intra module refs:   CDm163::SetFrequencyGCK() (Dm163)
           ENTRY                   ADDRESS         REF BY
           =====                   =======         ======
           _A_TCCR0                00000053 
           LOCAL                   ADDRESS         
           =====                   =======         
           TCCR0                   00000053 
    -------------------------------------------------------------------------
ABSOLUTE
  Relative segment, address: DATA 00000052 - 00000052 (0x1 bytes), align: 0
  Segment part 48. ROOT 
           ENTRY                   ADDRESS         REF BY
           =====                   =======         ======
           _A_TCNT0                00000052 
           LOCAL                   ADDRESS         
           =====                   =======         
           TCNT0                   00000052 
    -------------------------------------------------------------------------
ABSOLUTE
  Relative segment, address: DATA 00000051 - 00000051 (0x1 bytes), align: 0
  Segment part 49. ROOT       Intra module refs:   CDm163::SetFrequencyGCK() (Dm163)
           ENTRY                   ADDRESS         REF BY
           =====                   =======         ======
           _A_OCR0                 00000051 
           LOCAL                   ADDRESS         
           =====                   =======         
           OCR0                    00000051 
    -------------------------------------------------------------------------
ABSOLUTE
  Relative segment, address: DATA 00000050 - 00000050 (0x1 bytes), align: 0
  Segment part 50. ROOT 
           ENTRY                   ADDRESS         REF BY
           =====                   =======         ======
           _A_ASSR                 00000050 
           LOCAL                   ADDRESS         
           =====                   =======         
           ASSR                    00000050 
    -------------------------------------------------------------------------
ABSOLUTE
  Relative segment, address: DATA 0000004F - 0000004F (0x1 bytes), align: 0
  Segment part 51. ROOT 
           ENTRY                   ADDRESS         REF BY
           =====                   =======         ======
           _A_TCCR1A               0000004F 
           LOCAL                   ADDRESS         
           =====                   =======         
           TCCR1A                  0000004F 
    -------------------------------------------------------------------------
ABSOLUTE
  Relative segment, address: DATA 0000004E - 0000004E (0x1 bytes), align: 0
  Segment part 52. ROOT 
           ENTRY                   ADDRESS         REF BY
           =====                   =======         ======
           _A_TCCR1B               0000004E 
           LOCAL                   ADDRESS         
           =====                   =======         
           TCCR1B                  0000004E 
    -------------------------------------------------------------------------
ABSOLUTE
  Relative segment, address: DATA 0000004C - 0000004D (0x2 bytes), align: 0
  Segment part 53. ROOT 
           ENTRY                   ADDRESS         REF BY
           =====                   =======         ======
           _A_TCNT1                0000004C 
           LOCAL                   ADDRESS         
           =====                   =======         
           TCNT1                   0000004C 
           TCNT1H                  0000004D 
           TCNT1L                  0000004C 
    -------------------------------------------------------------------------
ABSOLUTE
  Relative segment, address: DATA 0000004A - 0000004B (0x2 bytes), align: 0
  Segment part 54. ROOT 
           ENTRY                   ADDRESS         REF BY
           =====                   =======         ======
           _A_OCR1A                0000004A 
           LOCAL                   ADDRESS         
           =====                   =======         
           OCR1A                   0000004A 
           OCR1AH                  0000004B 
           OCR1AL                  0000004A 
    -------------------------------------------------------------------------
ABSOLUTE
  Relative segment, address: DATA 00000048 - 00000049 (0x2 bytes), align: 0
  Segment part 55. ROOT 
           ENTRY                   ADDRESS         REF BY
           =====                   =======         ======
           _A_OCR1B                00000048 
           LOCAL                   ADDRESS         
           =====                   =======         
           OCR1B                   00000048 
           OCR1BH                  00000049 
           OCR1BL                  00000048 
    -------------------------------------------------------------------------
ABSOLUTE
  Relative segment, address: DATA 00000046 - 00000047 (0x2 bytes), align: 0
  Segment part 56. ROOT 
           ENTRY                   ADDRESS         REF BY
           =====                   =======         ======
           _A_ICR1                 00000046 
           LOCAL                   ADDRESS         
           =====                   =======         
           ICR1                    00000046 
           ICR1H                   00000047 
           ICR1L                   00000046 
    -------------------------------------------------------------------------
ABSOLUTE
  Relative segment, address: DATA 00000045 - 00000045 (0x1 bytes), align: 0
  Segment part 57. ROOT       Intra module refs:   CPlatform::SystemTickInit() (Platform)
           ENTRY                   ADDRESS         REF BY
           =====                   =======         ======
           _A_TCCR2                00000045 
           LOCAL                   ADDRESS         
           =====                   =======         
           TCCR2                   00000045 
    -------------------------------------------------------------------------
ABSOLUTE
  Relative segment, address: DATA 00000044 - 00000044 (0x1 bytes), align: 0
  Segment part 58. ROOT 
           ENTRY                   ADDRESS         REF BY
           =====                   =======         ======
           _A_TCNT2                00000044 
           LOCAL                   ADDRESS         
           =====                   =======         
           TCNT2                   00000044 
    -------------------------------------------------------------------------
ABSOLUTE
  Relative segment, address: DATA 00000043 - 00000043 (0x1 bytes), align: 0
  Segment part 59. ROOT       Intra module refs:   CPlatform::SystemTickInit() (Platform)
           ENTRY                   ADDRESS         REF BY
           =====                   =======         ======
           _A_OCR2                 00000043 
           LOCAL                   ADDRESS         
           =====                   =======         
           OCR2                    00000043 
    -------------------------------------------------------------------------
ABSOLUTE
  Relative segment, address: DATA 00000042 - 00000042 (0x1 bytes), align: 0
  Segment part 60. ROOT 
           ENTRY                   ADDRESS         REF BY
           =====                   =======         ======
           _A_OCDR                 00000042 
           LOCAL                   ADDRESS         
           =====                   =======         
           OCDR                    00000042 
    -------------------------------------------------------------------------
ABSOLUTE
  Relative segment, address: DATA 00000041 - 00000041 (0x1 bytes), align: 0
  Segment part 61. ROOT       Intra module refs:   CPlatform::WatchdogEnable() (Pss21)
           ENTRY                   ADDRESS         REF BY
           =====                   =======         ======
           _A_WDTCR                00000041 
           LOCAL                   ADDRESS         
           =====                   =======         
           WDTCR                   00000041 
    -------------------------------------------------------------------------
ABSOLUTE
  Relative segment, address: DATA 00000040 - 00000040 (0x1 bytes), align: 0
  Segment part 62. ROOT 
           ENTRY                   ADDRESS         REF BY
           =====                   =======         ======
           _A_SFIOR                00000040 
           LOCAL                   ADDRESS         
           =====                   =======         
           SFIOR                   00000040 
    -------------------------------------------------------------------------
ABSOLUTE
  Relative segment, address: DATA 0000003E - 0000003F (0x2 bytes), align: 0
  Segment part 63. ROOT       Intra module refs:   CEeprom::ReadByte(uint16_t) (Platform)
                                                   CEeprom::ReadyInterruptHandler() (Platform)
           ENTRY                   ADDRESS         REF BY
           =====                   =======         ======
           _A_EEAR                 0000003E 
           LOCAL                   ADDRESS         
           =====                   =======         
           EEAR                    0000003E 
           EEARH                   0000003F 
           EEARL                   0000003E 
    -------------------------------------------------------------------------
ABSOLUTE
  Relative segment, address: DATA 0000003D - 0000003D (0x1 bytes), align: 0
  Segment part 64. ROOT       Intra module refs:   CEeprom::ReadByte(uint16_t) (Platform)
                                                   CEeprom::ReadyInterruptHandler() (Platform)
           ENTRY                   ADDRESS         REF BY
           =====                   =======         ======
           _A_EEDR                 0000003D 
           LOCAL                   ADDRESS         
           =====                   =======         
           EEDR                    0000003D 
    -------------------------------------------------------------------------
ABSOLUTE
  Relative segment, address: DATA 0000003C - 0000003C (0x1 bytes), align: 0
  Segment part 65. ROOT       Intra module refs:   CEeprom::IsReadyToWrite() (DataStore)
                                                   CEeprom::ReadByte(uint16_t) (Platform)
                                                   CEeprom::ReadyInterruptDisaable() (Platform)
                                                   CEeprom::ReadyInterruptEnable() (DataStore)
                                                   CEeprom::ReadyInterruptHandler() (Platform)
           ENTRY                   ADDRESS         REF BY
           =====                   =======         ======
           _A_EECR                 0000003C 
           LOCAL                   ADDRESS         
           =====                   =======         
           EECR                    0000003C 
    -------------------------------------------------------------------------
ABSOLUTE
  Relative segment, address: DATA 0000003B - 0000003B (0x1 bytes), align: 0
  Segment part 66. ROOT       Intra module refs:   CPlatform::StatusLedOff() (NotifyerControl)
                                                   CPlatform::StatusLedOn() (NotifyerControl)
                                                   CPlatform::TxLedOff() (ModbusRTU)
                                                   CPlatform::TxLedOn() (ModbusRTU)
           ENTRY                   ADDRESS         REF BY
           =====                   =======         ======
           _A_PORTA                0000003B 
           LOCAL                   ADDRESS         
           =====                   =======         
           PORTA                   0000003B 
    -------------------------------------------------------------------------
ABSOLUTE
  Relative segment, address: DATA 0000003A - 0000003A (0x1 bytes), align: 0
  Segment part 67. ROOT       Intra module refs:   CPlatform::StatusLedSetPinOutput() (Platform)
                                                   CPlatform::TxLedSetPinOutput() (Platform)
           ENTRY                   ADDRESS         REF BY
           =====                   =======         ======
           _A_DDRA                 0000003A 
           LOCAL                   ADDRESS         
           =====                   =======         
           DDRA                    0000003A 
    -------------------------------------------------------------------------
ABSOLUTE
  Relative segment, address: DATA 00000039 - 00000039 (0x1 bytes), align: 0
  Segment part 68. ROOT 
           ENTRY                   ADDRESS         REF BY
           =====                   =======         ======
           _A_PINA                 00000039 
           LOCAL                   ADDRESS         
           =====                   =======         
           PINA                    00000039 
    -------------------------------------------------------------------------
ABSOLUTE
  Relative segment, address: DATA 00000038 - 00000038 (0x1 bytes), align: 0
  Segment part 69. ROOT       Intra module refs:   CPins::ClearPinGCK() (Dm163)
                                                   CSpi::Init() (Platform)
           ENTRY                   ADDRESS         REF BY
           =====                   =======         ======
           _A_PORTB                00000038 
           LOCAL                   ADDRESS         
           =====                   =======         
           PORTB                   00000038 
    -------------------------------------------------------------------------
ABSOLUTE
  Relative segment, address: DATA 00000037 - 00000037 (0x1 bytes), align: 0
  Segment part 70. ROOT       Intra module refs:   CPins::SetPinOutputGCK() (Dm163)
                                                   CSpi::Init() (Platform)
           ENTRY                   ADDRESS         REF BY
           =====                   =======         ======
           _A_DDRB                 00000037 
           LOCAL                   ADDRESS         
           =====                   =======         
           DDRB                    00000037 
    -------------------------------------------------------------------------
ABSOLUTE
  Relative segment, address: DATA 00000036 - 00000036 (0x1 bytes), align: 0
  Segment part 71. ROOT 
           ENTRY                   ADDRESS         REF BY
           =====                   =======         ======
           _A_PINB                 00000036 
           LOCAL                   ADDRESS         
           =====                   =======         
           PINB                    00000036 
    -------------------------------------------------------------------------
ABSOLUTE
  Relative segment, address: DATA 00000035 - 00000035 (0x1 bytes), align: 0
  Segment part 72. ROOT       Intra module refs:   __sti__routine() (Pss21)
           ENTRY                   ADDRESS         REF BY
           =====                   =======         ======
           _A_PORTC                00000035 
           LOCAL                   ADDRESS         
           =====                   =======         
           PORTC                   00000035 
    -------------------------------------------------------------------------
ABSOLUTE
  Relative segment, address: DATA 00000034 - 00000034 (0x1 bytes), align: 0
  Segment part 73. ROOT       Intra module refs:   CPlatform::ExternalKeySetPinInput() (Platform)
                                                   CPlatform::KeyOneSetPinInput() (Platform)
                                                   CPlatform::KeyThreeSetPinInput() (Platform)
                                                   CPlatform::KeyTwoSetPinInput() (Platform)
                                                   __sti__routine() (Pss21)
           ENTRY                   ADDRESS         REF BY
           =====                   =======         ======
           _A_DDRC                 00000034 
           LOCAL                   ADDRESS         
           =====                   =======         
           DDRC                    00000034 
    -------------------------------------------------------------------------
ABSOLUTE
  Relative segment, address: DATA 00000033 - 00000033 (0x1 bytes), align: 0
  Segment part 74. ROOT       Intra module refs:   CPlatform::ExternalKeyState() (Pss21)
                                                   CPlatform::KeyOneState() (Pss21)
                                                   CPlatform::KeyThreeState() (Pss21)
                                                   CPlatform::KeyTwoState() (Pss21)
           ENTRY                   ADDRESS         REF BY
           =====                   =======         ======
           _A_PINC                 00000033 
           LOCAL                   ADDRESS         
           =====                   =======         
           PINC                    00000033 
    -------------------------------------------------------------------------
ABSOLUTE
  Relative segment, address: DATA 00000032 - 00000032 (0x1 bytes), align: 0
  Segment part 75. ROOT       Intra module refs:   CPlatform::SpiSlaveSelectAddress0Off() (Pss21)
                                                   CPlatform::SpiSlaveSelectAddress0On() (Pss21)
                                                   CPlatform::SpiSlaveSelectAddress1Off() (Pss21)
                                                   CPlatform::SpiSlaveSelectAddress1On() (Pss21)
                                                   CPlatform::SpiSlaveSelectAddress2Off() (Pss21)
                                                   CPlatform::SpiSlaveSelectAddress2On() (Pss21)
                                                   CPlatform::SpiSlaveSelectAddress3Off() (Pss21)
                                                   CPlatform::SpiSlaveSelectAddress3On() (Pss21)
                                                   CPlatform::SpiSlaveSelectEnableOff() (Pss21)
                                                   CPlatform::SpiSlaveSelectEnableOn() (Pss21)
           ENTRY                   ADDRESS         REF BY
           =====                   =======         ======
           _A_PORTD                00000032 
           LOCAL                   ADDRESS         
           =====                   =======         
           PORTD                   00000032 
    -------------------------------------------------------------------------
ABSOLUTE
  Relative segment, address: DATA 00000031 - 00000031 (0x1 bytes), align: 0
  Segment part 76. ROOT       Intra module refs:   CPlatform::SpiSlaveSelectAddress0SetPinOutput() (Pss21)
                                                   CPlatform::SpiSlaveSelectAddress1SetPinOutput() (Pss21)
                                                   CPlatform::SpiSlaveSelectAddress2SetPinOutput() (Pss21)
                                                   CPlatform::SpiSlaveSelectAddress3SetPinOutput() (Pss21)
                                                   CPlatform::SpiSlaveSelectEnableSetPinOutput() (Pss21)
           ENTRY                   ADDRESS         REF BY
           =====                   =======         ======
           _A_DDRD                 00000031 
           LOCAL                   ADDRESS         
           =====                   =======         
           DDRD                    00000031 
    -------------------------------------------------------------------------
ABSOLUTE
  Relative segment, address: DATA 00000030 - 00000030 (0x1 bytes), align: 0
  Segment part 77. ROOT 
           ENTRY                   ADDRESS         REF BY
           =====                   =======         ======
           _A_PIND                 00000030 
           LOCAL                   ADDRESS         
           =====                   =======         
           PIND                    00000030 
    -------------------------------------------------------------------------
ABSOLUTE
  Relative segment, address: DATA 0000002F - 0000002F (0x1 bytes), align: 0
  Segment part 78. ROOT       Intra module refs:   CSpi::Exchange(uint8_t) (Platform)
           ENTRY                   ADDRESS         REF BY
           =====                   =======         ======
           _A_SPDR                 0000002F 
           LOCAL                   ADDRESS         
           =====                   =======         
           SPDR                    0000002F 
    -------------------------------------------------------------------------
ABSOLUTE
  Relative segment, address: DATA 0000002E - 0000002E (0x1 bytes), align: 0
  Segment part 79. ROOT       Intra module refs:   CSpi::Exchange(uint8_t) (Platform)
           ENTRY                   ADDRESS         REF BY
           =====                   =======         ======
           _A_SPSR                 0000002E 
           LOCAL                   ADDRESS         
           =====                   =======         
           SPSR                    0000002E 
    -------------------------------------------------------------------------
ABSOLUTE
  Relative segment, address: DATA 0000002D - 0000002D (0x1 bytes), align: 0
  Segment part 80. ROOT       Intra module refs:   CSpi::Disable() (Platform)
                                                   CSpi::Enable() (Platform)
                                                   CSpi::Init() (Platform)
           ENTRY                   ADDRESS         REF BY
           =====                   =======         ======
           _A_SPCR                 0000002D 
           LOCAL                   ADDRESS         
           =====                   =======         
           SPCR                    0000002D 
    -------------------------------------------------------------------------
ABSOLUTE
  Relative segment, address: DATA 0000002C - 0000002C (0x1 bytes), align: 0
  Segment part 81. ROOT 
           ENTRY                   ADDRESS         REF BY
           =====                   =======         ======
           _A_UDR0                 0000002C 
           LOCAL                   ADDRESS         
           =====                   =======         
           UDR0                    0000002C 
    -------------------------------------------------------------------------
ABSOLUTE
  Relative segment, address: DATA 0000002B - 0000002B (0x1 bytes), align: 0
  Segment part 82. ROOT 
           ENTRY                   ADDRESS         REF BY
           =====                   =======         ======
           _A_UCSR0A               0000002B 
           LOCAL                   ADDRESS         
           =====                   =======         
           UCSR0A                  0000002B 
    -------------------------------------------------------------------------
ABSOLUTE
  Relative segment, address: DATA 0000002A - 0000002A (0x1 bytes), align: 0
  Segment part 83. ROOT 
           ENTRY                   ADDRESS         REF BY
           =====                   =======         ======
           _A_UCSR0B               0000002A 
           LOCAL                   ADDRESS         
           =====                   =======         
           UCSR0B                  0000002A 
    -------------------------------------------------------------------------
ABSOLUTE
  Relative segment, address: DATA 00000029 - 00000029 (0x1 bytes), align: 0
  Segment part 84. ROOT 
           ENTRY                   ADDRESS         REF BY
           =====                   =======         ======
           _A_UBRR0L               00000029 
           LOCAL                   ADDRESS         
           =====                   =======         
           UBRR0L                  00000029 
    -------------------------------------------------------------------------
ABSOLUTE
  Relative segment, address: DATA 00000028 - 00000028 (0x1 bytes), align: 0
  Segment part 85. ROOT 
           ENTRY                   ADDRESS         REF BY
           =====                   =======         ======
           _A_ACSR                 00000028 
           LOCAL                   ADDRESS         
           =====                   =======         
           ACSR                    00000028 
    -------------------------------------------------------------------------
ABSOLUTE
  Relative segment, address: DATA 00000027 - 00000027 (0x1 bytes), align: 0
  Segment part 86. ROOT 
           ENTRY                   ADDRESS         REF BY
           =====                   =======         ======
           _A_ADMUX                00000027 
           LOCAL                   ADDRESS         
           =====                   =======         
           ADMUX                   00000027 
    -------------------------------------------------------------------------
ABSOLUTE
  Relative segment, address: DATA 00000026 - 00000026 (0x1 bytes), align: 0
  Segment part 87. ROOT 
           ENTRY                   ADDRESS         REF BY
           =====                   =======         ======
           _A_ADCSRA               00000026 
           LOCAL                   ADDRESS         
           =====                   =======         
           ADCSRA                  00000026 
    -------------------------------------------------------------------------
ABSOLUTE
  Relative segment, address: DATA 00000024 - 00000025 (0x2 bytes), align: 0
  Segment part 88. ROOT 
           ENTRY                   ADDRESS         REF BY
           =====                   =======         ======
           _A_ADC                  00000024 
           LOCAL                   ADDRESS         
           =====                   =======         
           ADC                     00000024 
           ADCH                    00000025 
           ADCL                    00000024 
    -------------------------------------------------------------------------
ABSOLUTE
  Relative segment, address: DATA 00000023 - 00000023 (0x1 bytes), align: 0
  Segment part 89. ROOT       Intra module refs:   CPlatform::BuzzerClockAOff() (Buzzer)
                                                   CPlatform::BuzzerClockAOn() (Buzzer)
                                                   CPlatform::BuzzerClockBOff() (Buzzer)
                                                   CPlatform::BuzzerClockBOn() (Buzzer)
           ENTRY                   ADDRESS         REF BY
           =====                   =======         ======
           _A_PORTE                00000023 
           LOCAL                   ADDRESS         
           =====                   =======         
           PORTE                   00000023 
    -------------------------------------------------------------------------
ABSOLUTE
  Relative segment, address: DATA 00000022 - 00000022 (0x1 bytes), align: 0
  Segment part 90. ROOT       Intra module refs:   CPlatform::BuzzerClockASetPinOutput() (Buzzer)
                                                   CPlatform::BuzzerClockBSetPinOutput() (Buzzer)
           ENTRY                   ADDRESS         REF BY
           =====                   =======         ======
           _A_DDRE                 00000022 
           LOCAL                   ADDRESS         
           =====                   =======         
           DDRE                    00000022 
    -------------------------------------------------------------------------
ABSOLUTE
  Relative segment, address: DATA 00000021 - 00000021 (0x1 bytes), align: 0
  Segment part 91. ROOT 
           ENTRY                   ADDRESS         REF BY
           =====                   =======         ======
           _A_PINE                 00000021 
           LOCAL                   ADDRESS         
           =====                   =======         
           PINE                    00000021 
    -------------------------------------------------------------------------
ABSOLUTE
  Relative segment, address: DATA 00000020 - 00000020 (0x1 bytes), align: 0
  Segment part 92. ROOT 
           ENTRY                   ADDRESS         REF BY
           =====                   =======         ======
           _A_PINF                 00000020 
           LOCAL                   ADDRESS         
           =====                   =======         
           PINF                    00000020 
    -------------------------------------------------------------------------
CODE
  Relative segment, address: CODE 000009D0 - 000009ED (0x1e bytes), align: 1
  Segment part 111.           Intra module refs:   CEmergencyAlarmHighLevelDfa::CEmergencyAlarmHighLevelDfa()
                                                   CEmergencyAlarmLowLevelDfa::CEmergencyAlarmLowLevelDfa()
                                                   CIndicationAlarmLowLevelDfa::CIndicationAlarmLowLevelDfa()
                                                   CNormalAlarmDfa::CNormalAlarmDfa()
                                                   CPreventiveAlarmHighLevelDfa::CPreventiveAlarmHighLevelDfa()
                                                   CPreventiveAlarmLowLevelDfa::CPreventiveAlarmLowLevelDfa()
           ENTRY                   ADDRESS         REF BY
           =====                   =======         ======
           CAlarmDfa::CAlarmDfa()
                                   000009D0 
               calls direct
    -------------------------------------------------------------------------
CODE
  Relative segment, address: CODE 000009EE - 00000A11 (0x24 bytes), align: 1
  Segment part 113.
           ENTRY                   ADDRESS         REF BY
           =====                   =======         ======
           CNormalAlarmDfa::CNormalAlarmDfa()
                                   000009EE        CPss21::ConfigurationInit() (Pss21)
               calls direct
    -------------------------------------------------------------------------
CODE
  Relative segment, address: CODE 00000A12 - 00000A35 (0x24 bytes), align: 1
  Segment part 115.
           ENTRY                   ADDRESS         REF BY
           =====                   =======         ======
           CPreventiveAlarmLowLevelDfa::CPreventiveAlarmLowLevelDfa()
                                   00000A12        CPss21::ConfigurationInit() (Pss21)
               calls direct
    -------------------------------------------------------------------------
CODE
  Relative segment, address: CODE 00000A36 - 00000A59 (0x24 bytes), align: 1
  Segment part 117.
           ENTRY                   ADDRESS         REF BY
           =====                   =======         ======
           CPreventiveAlarmHighLevelDfa::CPreventiveAlarmHighLevelDfa()
                                   00000A36        CPss21::ConfigurationInit() (Pss21)
               calls direct
    -------------------------------------------------------------------------
CODE
  Relative segment, address: CODE 00000A5A - 00000A7D (0x24 bytes), align: 1
  Segment part 119.
           ENTRY                   ADDRESS         REF BY
           =====                   =======         ======
           CEmergencyAlarmLowLevelDfa::CEmergencyAlarmLowLevelDfa()
                                   00000A5A        CPss21::ConfigurationInit() (Pss21)
               calls direct
    -------------------------------------------------------------------------
CODE
  Relative segment, address: CODE 00000A7E - 00000AA1 (0x24 bytes), align: 1
  Segment part 121.
           ENTRY                   ADDRESS         REF BY
           =====                   =======         ======
           CEmergencyAlarmHighLevelDfa::CEmergencyAlarmHighLevelDfa()
                                   00000A7E        CPss21::ConfigurationInit() (Pss21)
               calls direct
    -------------------------------------------------------------------------
CODE
  Relative segment, address: CODE 00000AA2 - 00000AC5 (0x24 bytes), align: 1
  Segment part 123.           Intra module refs:   CIndicationAlarmHighLevelDfa::CIndicationAlarmHighLevelDfa()
           ENTRY                   ADDRESS         REF BY
           =====                   =======         ======
           CIndicationAlarmLowLevelDfa::CIndicationAlarmLowLevelDfa()
                                   00000AA2        CPss21::ConfigurationInit() (Pss21)
               calls direct
    -------------------------------------------------------------------------
CODE
  Relative segment, address: CODE 00000AC6 - 00000AE9 (0x24 bytes), align: 1
  Segment part 125.
           ENTRY                   ADDRESS         REF BY
           =====                   =======         ======
           CIndicationAlarmHighLevelDfa::CIndicationAlarmHighLevelDfa()
                                   00000AC6        CPss21::ConfigurationInit() (Pss21)
               calls direct
    -------------------------------------------------------------------------
CODE
  Relative segment, address: CODE 00000AEA - 00000B11 (0x28 bytes), align: 1
  Segment part 129.           Intra module refs:   CAlarmDfa::__vtbl
                                                   CEmergencyAlarmHighLevelDfa::~CEmergencyAlarmHighLevelDfa()
                                                   CEmergencyAlarmLowLevelDfa::~CEmergencyAlarmLowLevelDfa()
                                                   CIndicationAlarmLowLevelDfa::~CIndicationAlarmLowLevelDfa()
                                                   CNormalAlarmDfa::~CNormalAlarmDfa()
                                                   CPreventiveAlarmHighLevelDfa::~CPreventiveAlarmHighLevelDfa()
                                                   CPreventiveAlarmLowLevelDfa::~CPreventiveAlarmLowLevelDfa()
           ENTRY                   ADDRESS         REF BY
           =====                   =======         ======
           CAlarmDfa::~CAlarmDfa()
                                   00000AEA 
               calls direct
    -------------------------------------------------------------------------
CODE
  Relative segment, address: CODE 00000B12 - 00000DBF (0x2ae bytes), align: 1
  Segment part 130.           Intra module refs:   CAlarmDfa::__vtbl
                                                   CEmergencyAlarmHighLevelDfa::__vtbl
                                                   CEmergencyAlarmLowLevelDfa::__vtbl
                                                   CNormalAlarmDfa::__vtbl
                                                   CPreventiveAlarmHighLevelDfa::__vtbl
                                                   CPreventiveAlarmLowLevelDfa::__vtbl
           ENTRY                   ADDRESS         REF BY
           =====                   =======         ======
           CAlarmDfa::Fsm()        00000B12 
               calls direct and indirect
    -------------------------------------------------------------------------
CODE
  Relative segment, address: CODE 00000DC0 - 00000DE5 (0x26 bytes), align: 1
  Segment part 131.           Intra module refs:   CNormalAlarmDfa::__vtbl
           ENTRY                   ADDRESS         REF BY
           =====                   =======         ======
           CNormalAlarmDfa::~CNormalAlarmDfa()
                                   00000DC0 
               calls direct
    -------------------------------------------------------------------------
CODE
  Relative segment, address: CODE 00000DE6 - 00000E0B (0x26 bytes), align: 1
  Segment part 132.           Intra module refs:   CPreventiveAlarmLowLevelDfa::__vtbl
           ENTRY                   ADDRESS         REF BY
           =====                   =======         ======
           CPreventiveAlarmLowLevelDfa::~CPreventiveAlarmLowLevelDfa()
                                   00000DE6 
               calls direct
    -------------------------------------------------------------------------
CODE
  Relative segment, address: CODE 00000E0C - 00000E31 (0x26 bytes), align: 1
  Segment part 133.           Intra module refs:   CPreventiveAlarmHighLevelDfa::__vtbl
           ENTRY                   ADDRESS         REF BY
           =====                   =======         ======
           CPreventiveAlarmHighLevelDfa::~CPreventiveAlarmHighLevelDfa()
                                   00000E0C 
               calls direct
    -------------------------------------------------------------------------
CODE
  Relative segment, address: CODE 00000E32 - 00000E57 (0x26 bytes), align: 1
  Segment part 134.           Intra module refs:   CEmergencyAlarmLowLevelDfa::__vtbl
           ENTRY                   ADDRESS         REF BY
           =====                   =======         ======
           CEmergencyAlarmLowLevelDfa::~CEmergencyAlarmLowLevelDfa()
                                   00000E32 
               calls direct
    -------------------------------------------------------------------------
CODE
  Relative segment, address: CODE 00000E58 - 00000E7D (0x26 bytes), align: 1
  Segment part 135.           Intra module refs:   CEmergencyAlarmHighLevelDfa::__vtbl
           ENTRY                   ADDRESS         REF BY
           =====                   =======         ======
           CEmergencyAlarmHighLevelDfa::~CEmergencyAlarmHighLevelDfa()
                                   00000E58 
               calls direct
    -------------------------------------------------------------------------
CODE
  Relative segment, address: CODE 00000E7E - 00000EA3 (0x26 bytes), align: 1
  Segment part 136.           Intra module refs:   CIndicationAlarmHighLevelDfa::~CIndicationAlarmHighLevelDfa()
                                                   CIndicationAlarmLowLevelDfa::__vtbl
           ENTRY                   ADDRESS         REF BY
           =====                   =======         ======
           CIndicationAlarmLowLevelDfa::~CIndicationAlarmLowLevelDfa()
                                   00000E7E 
               calls direct
    -------------------------------------------------------------------------
CODE
  Relative segment, address: CODE 00000EA4 - 00000FD3 (0x130 bytes), align: 1
  Segment part 137.           Intra module refs:   CIndicationAlarmHighLevelDfa::__vtbl
                                                   CIndicationAlarmLowLevelDfa::__vtbl
           ENTRY                   ADDRESS         REF BY
           =====                   =======         ======
           CIndicationAlarmLowLevelDfa::Fsm()
                                   00000EA4 
               calls direct and indirect
    -------------------------------------------------------------------------
CODE
  Relative segment, address: CODE 00000FD4 - 00000FF9 (0x26 bytes), align: 1
  Segment part 138.           Intra module refs:   CIndicationAlarmHighLevelDfa::__vtbl
           ENTRY                   ADDRESS         REF BY
           =====                   =======         ======
           CIndicationAlarmHighLevelDfa::~CIndicationAlarmHighLevelDfa()
                                   00000FD4 
               calls direct
    -------------------------------------------------------------------------
CODE
  Relative segment, address: CODE 00000FFA - 00001021 (0x28 bytes), align: 1
  Segment part 139.           Intra module refs:   CErrorAlarmDfa::__vtbl
           ENTRY                   ADDRESS         REF BY
           =====                   =======         ======
           CErrorAlarmDfa::~CErrorAlarmDfa()
                                   00000FFA 
               calls direct
    -------------------------------------------------------------------------
CODE
  Relative segment, address: CODE 00001022 - 0000115F (0x13e bytes), align: 1
  Segment part 140.           Intra module refs:   CErrorAlarmDfa::__vtbl
           ENTRY                   ADDRESS         REF BY
           =====                   =======         ======
           CErrorAlarmDfa::Fsm()   00001022 
               calls direct and indirect
    -------------------------------------------------------------------------
CODE
  Relative segment, address: CODE 00001160 - 00001165 (0x6 bytes), align: 1
  Segment part 141.           Intra module refs:   CAlarmDfa::Fsm()
                                                   CBuzzerNotifyerControl::AlarmSet(uint8_t) (NotifyerControl)
                                                   CBuzzerNotifyerControl::CBuzzerNotifyerControl() (NotifyerControl)
                                                   CBuzzerNotifyerControl::~CBuzzerNotifyerControl() (NotifyerControl)
                                                   CEmergencyAlarmHighLevelDfa::CEmergencyAlarmHighLevelDfa()
                                                   CEmergencyAlarmLowLevelDfa::CEmergencyAlarmLowLevelDfa()
                                                   CEmergencyAlarmWindowNotifyerControl::AlarmSet(uint8_t) (NotifyerControl)
                                                   CEmergencyAlarmWindowNotifyerControl::CEmergencyAlarmWindowNotifyerControl() (NotifyerControl)
                                                   CEmergencyAlarmWindowNotifyerControl::~CEmergencyAlarmWindowNotifyerControl() (NotifyerControl)
                                                   CErrorAlarmDfa::Fsm()
                                                   CEventUniteLogicAnd::CEventUniteLogicAnd(uint16_t) (Event)
                                                   CEventUniteLogicAnd::IsHappened(uint8_t, uint8_t) (Event)
                                                   CIndicationAlarmHighLevelDfa::CIndicationAlarmHighLevelDfa()
                                                   CIndicationAlarmLowLevelDfa::CIndicationAlarmLowLevelDfa()
                                                   CIndicationAlarmLowLevelDfa::Fsm()
                                                   CModbusRTU::Fsm() (ModbusRTU)
                                                   CModbusRtuLinkControl::CModbusRtuLinkControl() (LinkControl)
                                                   CModbusRtuLinkControl::Fsm() (LinkControl)
                                                   CModuleMrXXDriver::CModuleMrXXDriver(uint8_t) (ModuleMrXX)
                                                   CModuleMrXXDriver::DataExchange() (ModuleMrXX)
                                                   CModuleMrXXDriver::Exchange() (ModuleMrXX)
                                                   CMultiFunctionKey::CMultiFunctionKey(uint8_t (__version_3 *)()) (InputDevice)
                                                   CMultiFunctionKey::Fsm() (InputDevice)
                                                   CNormalAlarmDfa::CNormalAlarmDfa()
                                                   CNotifyerControl::CNotifyerControl() (NotifyerControl)
                                                   CNotifyerControl::Fsm() (NotifyerControl)
                                                   CPreventiveAlarmHighLevelDfa::CPreventiveAlarmHighLevelDfa()
                                                   CPreventiveAlarmLowLevelDfa::CPreventiveAlarmLowLevelDfa()
                                                   CPreventiveAlarmWindowNotifyerControl::AlarmSet(uint8_t) (NotifyerControl)
                                                   CPreventiveAlarmWindowNotifyerControl::CPreventiveAlarmWindowNotifyerControl() (NotifyerControl)
                                                   CPreventiveAlarmWindowNotifyerControl::~CPreventiveAlarmWindowNotifyerControl() (NotifyerControl)
                                                   CPss21::MainFsm() (Pss21)
                                                   CPss21::ModbusInit() (Pss21)
                                                   CPss21::TestMainCycle() (Pss21)
                                                   CStatusLedNotifyerControl::AlarmSet(uint8_t) (NotifyerControl)
                                                   CStatusLedNotifyerControl::CStatusLedNotifyerControl() (NotifyerControl)
                                                   CStatusLedNotifyerControl::~CStatusLedNotifyerControl() (NotifyerControl)
                                                   CTestModeNotifyerControl::CTestModeNotifyerControl() (NotifyerControl)
                                                   CTestModeNotifyerControl::Fsm() (NotifyerControl)
                                                   CTestModeNotifyerControl::~CTestModeNotifyerControl() (NotifyerControl)
           ENTRY                   ADDRESS         REF BY
           =====                   =======         ======
           CDfaLite::SetFsmState(uint8_t)
                                   00001160 
    -------------------------------------------------------------------------
CODE
  Relative segment, address: CODE 00001166 - 0000116B (0x6 bytes), align: 1
  Segment part 142.           Intra module refs:   CAlarmDfa::Fsm()
                                                   CBuzzerNotifyerControl::AlarmSet(uint8_t) (NotifyerControl)
                                                   CEmergencyAlarmWindowNotifyerControl::AlarmSet(uint8_t) (NotifyerControl)
                                                   CErrorAlarmDfa::Fsm()
                                                   CEventUniteLogicAnd::IsHappened(uint8_t, uint8_t) (Event)
                                                   CIndicationAlarmLowLevelDfa::Fsm()
                                                   CModbus::MessengerIsReady() (modbus)
                                                   CModbusRTU::Fsm() (ModbusRTU)
                                                   CModbusRtuLinkControl::Fsm() (LinkControl)
                                                   CModuleMrXXDriver::DataExchange() (ModuleMrXX)
                                                   CMultiFunctionKey::Fsm() (InputDevice)
                                                   CNotifyerControl::Fsm() (NotifyerControl)
                                                   CPreventiveAlarmWindowNotifyerControl::AlarmSet(uint8_t) (NotifyerControl)
                                                   CPss21::TestMainCycle() (Pss21)
                                                   CStatusLedNotifyerControl::AlarmSet(uint8_t) (NotifyerControl)
                                                   CTestModeNotifyerControl::Fsm() (NotifyerControl)
           ENTRY                   ADDRESS         REF BY
           =====                   =======         ======
           CDfaLite::GetFsmState()
                                   00001166 
    -------------------------------------------------------------------------
CODE
  Relative segment, address: CODE 0000116C - 00001171 (0x6 bytes), align: 1
  Segment part 143.           Intra module refs:   CIndicationAlarmLowLevelDfa::Fsm()
                                                   CPss21::ActiveAlarmWindowOff(uint8_t) (Pss21)
                                                   CPss21::ActiveAlarmWindowOn(uint8_t) (Pss21)
                                                   CPss21::AllAlarmWindowOff() (Pss21)
                                                   CPss21::AllAlarmWindowOn(uint8_t) (Pss21)
                                                   CPss21::ErrorWindowOn(uint8_t) (Pss21)
                                                   CPss21::RestoreContextNotifyerControl() (Pss21)
           ENTRY                   ADDRESS         REF BY
           =====                   =======         ======
           CAlarmWindow::SetActivityState(uint8_t)
                                   0000116C 
    -------------------------------------------------------------------------
CODE
  Relative segment, address: CODE 00001172 - 00001177 (0x6 bytes), align: 1
  Segment part 144.           Intra module refs:   CAlarmDfa::__vtbl
           ENTRY                   ADDRESS         REF BY
           =====                   =======         ======
           CAlarmDfa::ALARM_TYPE()
                                   00001172 
    -------------------------------------------------------------------------
CODE
  Relative segment, address: CODE 00001178 - 0000117D (0x6 bytes), align: 1
  Segment part 145.           Intra module refs:   CAlarmDfa::__vtbl
           ENTRY                   ADDRESS         REF BY
           =====                   =======         ======
           CAlarmDfa::ACTIVE_LEVEL()
                                   00001178 
    -------------------------------------------------------------------------
CODE
  Relative segment, address: CODE 0000117E - 00001183 (0x6 bytes), align: 1
  Segment part 146.           Intra module refs:   CAlarmDfa::Fsm()
                                                   CIndicationAlarmLowLevelDfa::Fsm()
           ENTRY                   ADDRESS         REF BY
           =====                   =======         ======
           CAlarmDfa::GetDiscreteStateIndex()
                                   0000117E 
    -------------------------------------------------------------------------
CODE
  Relative segment, address: CODE 00001184 - 00001189 (0x6 bytes), align: 1
  Segment part 147.           Intra module refs:   CAlarmDfa::Fsm()
                                                   CIndicationAlarmLowLevelDfa::Fsm()
           ENTRY                   ADDRESS         REF BY
           =====                   =======         ======
           CAlarmDfa::GetAlarmWindowIndex()
                                   00001184 
    -------------------------------------------------------------------------
CODE
  Relative segment, address: CODE 0000118A - 0000118F (0x6 bytes), align: 1
  Segment part 148.           Intra module refs:   CAlarmDfa::Fsm()
                                                   CIndicationAlarmLowLevelDfa::Fsm()
                                                   CPss21::ConfigurationInit() (Pss21)
           ENTRY                   ADDRESS         REF BY
           =====                   =======         ======
           CAlarmDfa::GetLinkedDiscreteOutputsPointer()
                                   0000118A 
    -------------------------------------------------------------------------
CODE
  Relative segment, address: CODE 00001190 - 00001195 (0x6 bytes), align: 1
  Segment part 149.           Intra module refs:   CNormalAlarmDfa::__vtbl
           ENTRY                   ADDRESS         REF BY
           =====                   =======         ======
           CNormalAlarmDfa::ALARM_TYPE()
                                   00001190 
    -------------------------------------------------------------------------
CODE
  Relative segment, address: CODE 00001196 - 0000119B (0x6 bytes), align: 1
  Segment part 150.           Intra module refs:   CNormalAlarmDfa::__vtbl
           ENTRY                   ADDRESS         REF BY
           =====                   =======         ======
           CNormalAlarmDfa::ACTIVE_LEVEL()
                                   00001196 
    -------------------------------------------------------------------------
CODE
  Relative segment, address: CODE 0000119C - 000011A1 (0x6 bytes), align: 1
  Segment part 151.           Intra module refs:   CPreventiveAlarmLowLevelDfa::__vtbl
           ENTRY                   ADDRESS         REF BY
           =====                   =======         ======
           CPreventiveAlarmLowLevelDfa::ALARM_TYPE()
                                   0000119C 
    -------------------------------------------------------------------------
CODE
  Relative segment, address: CODE 000011A2 - 000011A7 (0x6 bytes), align: 1
  Segment part 152.           Intra module refs:   CPreventiveAlarmLowLevelDfa::__vtbl
           ENTRY                   ADDRESS         REF BY
           =====                   =======         ======
           CPreventiveAlarmLowLevelDfa::ACTIVE_LEVEL()
                                   000011A2 
    -------------------------------------------------------------------------
CODE
  Relative segment, address: CODE 000011A8 - 000011AD (0x6 bytes), align: 1
  Segment part 153.           Intra module refs:   CPreventiveAlarmHighLevelDfa::__vtbl
           ENTRY                   ADDRESS         REF BY
           =====                   =======         ======
           CPreventiveAlarmHighLevelDfa::ALARM_TYPE()
                                   000011A8 
    -------------------------------------------------------------------------
CODE
  Relative segment, address: CODE 000011AE - 000011B3 (0x6 bytes), align: 1
  Segment part 154.           Intra module refs:   CPreventiveAlarmHighLevelDfa::__vtbl
           ENTRY                   ADDRESS         REF BY
           =====                   =======         ======
           CPreventiveAlarmHighLevelDfa::ACTIVE_LEVEL()
                                   000011AE 
    -------------------------------------------------------------------------
CODE
  Relative segment, address: CODE 000011B4 - 000011B9 (0x6 bytes), align: 1
  Segment part 155.           Intra module refs:   CEmergencyAlarmLowLevelDfa::__vtbl
           ENTRY                   ADDRESS         REF BY
           =====                   =======         ======
           CEmergencyAlarmLowLevelDfa::ALARM_TYPE()
                                   000011B4 
    -------------------------------------------------------------------------
CODE
  Relative segment, address: CODE 000011BA - 000011BF (0x6 bytes), align: 1
  Segment part 156.           Intra module refs:   CEmergencyAlarmLowLevelDfa::__vtbl
           ENTRY                   ADDRESS         REF BY
           =====                   =======         ======
           CEmergencyAlarmLowLevelDfa::ACTIVE_LEVEL()
                                   000011BA 
    -------------------------------------------------------------------------
CODE
  Relative segment, address: CODE 000011C0 - 000011C5 (0x6 bytes), align: 1
  Segment part 157.           Intra module refs:   CEmergencyAlarmHighLevelDfa::__vtbl
           ENTRY                   ADDRESS         REF BY
           =====                   =======         ======
           CEmergencyAlarmHighLevelDfa::ALARM_TYPE()
                                   000011C0 
    -------------------------------------------------------------------------
CODE
  Relative segment, address: CODE 000011C6 - 000011CB (0x6 bytes), align: 1
  Segment part 158.           Intra module refs:   CEmergencyAlarmHighLevelDfa::__vtbl
           ENTRY                   ADDRESS         REF BY
           =====                   =======         ======
           CEmergencyAlarmHighLevelDfa::ACTIVE_LEVEL()
                                   000011C6 
    -------------------------------------------------------------------------
CODE
  Relative segment, address: CODE 000011CC - 000011D1 (0x6 bytes), align: 1
  Segment part 159.           Intra module refs:   CIndicationAlarmLowLevelDfa::__vtbl
           ENTRY                   ADDRESS         REF BY
           =====                   =======         ======
           CIndicationAlarmLowLevelDfa::ALARM_TYPE()
                                   000011CC 
    -------------------------------------------------------------------------
CODE
  Relative segment, address: CODE 000011D2 - 000011D7 (0x6 bytes), align: 1
  Segment part 160.           Intra module refs:   CIndicationAlarmLowLevelDfa::__vtbl
           ENTRY                   ADDRESS         REF BY
           =====                   =======         ======
           CIndicationAlarmLowLevelDfa::ACTIVE_LEVEL()
                                   000011D2 
    -------------------------------------------------------------------------
CODE
  Relative segment, address: CODE 000011D8 - 000011DD (0x6 bytes), align: 1
  Segment part 161.           Intra module refs:   CIndicationAlarmHighLevelDfa::__vtbl
           ENTRY                   ADDRESS         REF BY
           =====                   =======         ======
           CIndicationAlarmHighLevelDfa::ALARM_TYPE()
                                   000011D8 
    -------------------------------------------------------------------------
CODE
  Relative segment, address: CODE 000011DE - 000011E3 (0x6 bytes), align: 1
  Segment part 162.           Intra module refs:   CIndicationAlarmHighLevelDfa::__vtbl
           ENTRY                   ADDRESS         REF BY
           =====                   =======         ======
           CIndicationAlarmHighLevelDfa::ACTIVE_LEVEL()
                                   000011DE 
    -------------------------------------------------------------------------
CODE
  Relative segment, address: CODE 000011E4 - 000011E9 (0x6 bytes), align: 1
  Segment part 163.           Intra module refs:   CErrorAlarmDfa::__vtbl
           ENTRY                   ADDRESS         REF BY
           =====                   =======         ======
           CErrorAlarmDfa::ALARM_TYPE()
                                   000011E4 
    -------------------------------------------------------------------------
CODE
  Relative segment, address: CODE 000011EA - 000011EF (0x6 bytes), align: 1
  Segment part 164.           Intra module refs:   CErrorAlarmDfa::__vtbl
           ENTRY                   ADDRESS         REF BY
           =====                   =======         ======
           CErrorAlarmDfa::ACTIVE_LEVEL()
                                   000011EA 
    -------------------------------------------------------------------------
CODE
  Relative segment, address: CODE 000011F0 - 000011F5 (0x6 bytes), align: 1
  Segment part 165.           Intra module refs:   CErrorAlarmDfa::Fsm()
           ENTRY                   ADDRESS         REF BY
           =====                   =======         ======
           CErrorAlarmDfa::GetDiscreteStateIndex()
                                   000011F0 
    -------------------------------------------------------------------------
CODE
  Relative segment, address: CODE 000011F6 - 000011FB (0x6 bytes), align: 1
  Segment part 166.           Intra module refs:   CErrorAlarmDfa::Fsm()
           ENTRY                   ADDRESS         REF BY
           =====                   =======         ======
           CErrorAlarmDfa::GetAlarmWindowIndex()
                                   000011F6 
    -------------------------------------------------------------------------
CODE
  Relative segment, address: CODE 000011FC - 00001201 (0x6 bytes), align: 1
  Segment part 167.           Intra module refs:   CAlarmDfa::Fsm()
                                                   CErrorAlarmDfa::Fsm()
           ENTRY                   ADDRESS         REF BY
           =====                   =======         ======
           CPss21::GetDiscreteSignalsReceipt()
                                   000011FC 
    -------------------------------------------------------------------------
CODE
  Relative segment, address: CODE 00001202 - 00001207 (0x6 bytes), align: 1
  Segment part 168.           Intra module refs:   CAlarmDfa::Fsm()
           ENTRY                   ADDRESS         REF BY
           =====                   =======         ======
           CPss21::GetDiscreteSignalsReset()
                                   00001202 
    -------------------------------------------------------------------------
CODE
  Relative segment, address: CODE 00001208 - 0000120D (0x6 bytes), align: 1
  Segment part 169.           Intra module refs:   CAlarmDfa::Fsm()
                                                   CErrorAlarmDfa::Fsm()
           ENTRY                   ADDRESS         REF BY
           =====                   =======         ======
           CPss21::SetCommonAlarmType(uint8_t)
                                   00001208 
    -------------------------------------------------------------------------
CODE
  Relative segment, address: CODE 0000120E - 00001213 (0x6 bytes), align: 1
  Segment part 170.           Intra module refs:   CAlarmDfa::Fsm()
                                                   CErrorAlarmDfa::Fsm()
                                                   CPss21::RestoreContextNotifyerControl() (Pss21)
           ENTRY                   ADDRESS         REF BY
           =====                   =======         ======
           CPss21::GetCommonAlarmType()
                                   0000120E 
    -------------------------------------------------------------------------
CODE
  Relative segment, address: CODE 00001214 - 00001229 (0x16 bytes), align: 1
  Segment part 171.           Intra module refs:   CIndicationAlarmLowLevelDfa::Fsm()
                                                   CPss21::SetAlarmWindowColor(uint8_t, uint8_t) (Pss21)
                                                   CPss21::SetAlarmWindowType(uint8_t, uint8_t) (Pss21)
           ENTRY                   ADDRESS         REF BY
           =====                   =======         ======
           CPss21::GetAlarmWindowControlPointer(uint8_t)
                                   00001214 
               calls direct
    -------------------------------------------------------------------------
ABSOLUTE
  Relative segment, address: DATA 0000001C, align: 0
  Segment part 93. ROOT 
           ENTRY                   ADDRESS         REF BY
           =====                   =======         ======
           __?EECR                 0000001C 
    -------------------------------------------------------------------------
ABSOLUTE
  Relative segment, address: DATA 0000001D, align: 0
  Segment part 94. ROOT 
           ENTRY                   ADDRESS         REF BY
           =====                   =======         ======
           __?EEDR                 0000001D 
    -------------------------------------------------------------------------
ABSOLUTE
  Relative segment, address: DATA 0000001E, align: 0
  Segment part 95. ROOT 
           ENTRY                   ADDRESS         REF BY
           =====                   =======         ======
           __?EEARL                0000001E 
    -------------------------------------------------------------------------
ABSOLUTE
  Relative segment, address: DATA 0000001F, align: 0
  Segment part 96. ROOT 
           ENTRY                   ADDRESS         REF BY
           =====                   =======         ======
           __?EEARH                0000001F 
    -------------------------------------------------------------------------
NEAR_F
  Relative segment, address: CODE 0000008C - 0000008F (0x4 bytes), align: 0
  Segment part 99. ROOT 
           LOCAL                   ADDRESS         
           =====                   =======         
           CDriver::__vtbl         0000008C 
    -------------------------------------------------------------------------
NEAR_F
  Relative segment, address: CODE 00000090 - 00000097 (0x8 bytes), align: 0
  Segment part 100. ROOT      Intra module refs:   CAlarmDfa::CAlarmDfa()
           ENTRY                   ADDRESS         REF BY
           =====                   =======         ======
           CAlarmDfa::__vtbl       00000090 
    -------------------------------------------------------------------------
NEAR_F
  Relative segment, address: CODE 00000098 - 0000009F (0x8 bytes), align: 0
  Segment part 101. ROOT      Intra module refs:   CNormalAlarmDfa::CNormalAlarmDfa()
           ENTRY                   ADDRESS         REF BY
           =====                   =======         ======
           CNormalAlarmDfa::__vtbl
                                   00000098 
    -------------------------------------------------------------------------
NEAR_F
  Relative segment, address: CODE 000000A0 - 000000A7 (0x8 bytes), align: 0
  Segment part 102. ROOT      Intra module refs:   CPreventiveAlarmLowLevelDfa::CPreventiveAlarmLowLevelDfa()
           ENTRY                   ADDRESS         REF BY
           =====                   =======         ======
           CPreventiveAlarmLowLevelDfa::__vtbl
                                   000000A0 
    -------------------------------------------------------------------------
NEAR_F
  Relative segment, address: CODE 000000A8 - 000000AF (0x8 bytes), align: 0
  Segment part 103. ROOT      Intra module refs:   CPreventiveAlarmHighLevelDfa::CPreventiveAlarmHighLevelDfa()
           ENTRY                   ADDRESS         REF BY
           =====                   =======         ======
           CPreventiveAlarmHighLevelDfa::__vtbl
                                   000000A8 
    -------------------------------------------------------------------------
NEAR_F
  Relative segment, address: CODE 000000B0 - 000000B7 (0x8 bytes), align: 0
  Segment part 104. ROOT      Intra module refs:   CEmergencyAlarmLowLevelDfa::CEmergencyAlarmLowLevelDfa()
           ENTRY                   ADDRESS         REF BY
           =====                   =======         ======
           CEmergencyAlarmLowLevelDfa::__vtbl
                                   000000B0 
    -------------------------------------------------------------------------
NEAR_F
  Relative segment, address: CODE 000000B8 - 000000BF (0x8 bytes), align: 0
  Segment part 105. ROOT      Intra module refs:   CEmergencyAlarmHighLevelDfa::CEmergencyAlarmHighLevelDfa()
           ENTRY                   ADDRESS         REF BY
           =====                   =======         ======
           CEmergencyAlarmHighLevelDfa::__vtbl
                                   000000B8 
    -------------------------------------------------------------------------
NEAR_F
  Relative segment, address: CODE 000000C0 - 000000C7 (0x8 bytes), align: 0
  Segment part 106. ROOT      Intra module refs:   CIndicationAlarmLowLevelDfa::CIndicationAlarmLowLevelDfa()
           ENTRY                   ADDRESS         REF BY
           =====                   =======         ======
           CIndicationAlarmLowLevelDfa::__vtbl
                                   000000C0 
    -------------------------------------------------------------------------
NEAR_F
  Relative segment, address: CODE 000000C8 - 000000CF (0x8 bytes), align: 0
  Segment part 107. ROOT      Intra module refs:   CIndicationAlarmHighLevelDfa::CIndicationAlarmHighLevelDfa()
           ENTRY                   ADDRESS         REF BY
           =====                   =======         ======
           CIndicationAlarmHighLevelDfa::__vtbl
                                   000000C8 
    -------------------------------------------------------------------------
NEAR_F
  Relative segment, address: CODE 000000D0 - 000000D7 (0x8 bytes), align: 0
  Segment part 108. ROOT 
           ENTRY                   ADDRESS         REF BY
           =====                   =======         ======
           CErrorAlarmDfa::__vtbl
                                   000000D0 
    -------------------------------------------------------------------------
NEAR_F
  Relative segment, address: CODE 000000D8 - 000000DF (0x8 bytes), align: 0
  Segment part 109. ROOT 
           LOCAL                   ADDRESS         
           =====                   =======         
           CTaskInterface::__vtbl
                                   000000D8 
    -------------------------------------------------------------------------
NEAR_F
  Relative segment, address: CODE 000000E0 - 000000E9 (0xa bytes), align: 0
  Segment part 110. ROOT 
           LOCAL                   ADDRESS         
           =====                   =======         
           CIsRegularButtonPressedInterface::__vtbl
                                   000000E0 

    *************************************************************************

  FILE NAME : D:\Projects\CurrentProjects\CautoProjects\PSS48Color\Debug\Obj\AlarmWindow.r90
  PROGRAM MODULE, NAME : AlarmWindow

  SEGMENTS IN THE MODULE
  ======================
CODE
  Relative segment, address: CODE 0000122A - 00001253 (0x2a bytes), align: 1
  Segment part 100.
           ENTRY                   ADDRESS         REF BY
           =====                   =======         ======
           CAlarmWindow::CAlarmWindow()
                                   0000122A        __sti__routine() (Pss21)
    -------------------------------------------------------------------------
CODE
  Relative segment, address: CODE 00001254 - 0000126F (0x1c bytes), align: 1
  Segment part 102.           Intra module refs:   CAlarmWindow::__vtbl
           ENTRY                   ADDRESS         REF BY
           =====                   =======         ======
           CAlarmWindow::~CAlarmWindow()
                                   00001254        <Unnamed 12> (Pss21)
               calls direct
    -------------------------------------------------------------------------
NEAR_F
  Relative segment, address: CODE 000000EA - 000000EB (0x2 bytes), align: 0
  Segment part 99. ROOT       Intra module refs:   CAlarmWindow::CAlarmWindow()
           ENTRY                   ADDRESS         REF BY
           =====                   =======         ======
           CAlarmWindow::__vtbl    000000EA 

    *************************************************************************

  FILE NAME : D:\Projects\CurrentProjects\CautoProjects\PSS48Color\Debug\Obj\Buzzer.r90
  PROGRAM MODULE, NAME : Buzzer

  SEGMENTS IN THE MODULE
  ======================
CODE
  Relative segment, address: CODE 00001270 - 0000128B (0x1c bytes), align: 1
  Segment part 102.           Intra module refs:   CBuzzer::__vtbl
           ENTRY                   ADDRESS         REF BY
           =====                   =======         ======
           CBuzzer::~CBuzzer()     00001270 
               calls direct
    -------------------------------------------------------------------------
CODE
  Relative segment, address: CODE 0000128C - 0000129D (0x12 bytes), align: 1
  Segment part 103.
           ENTRY                   ADDRESS         REF BY
           =====                   =======         ======
           CBuzzer::Init()         0000128C        CPss21::MainFsm() (Pss21)
               calls direct
    -------------------------------------------------------------------------
CODE
  Relative segment, address: CODE 0000129E - 000012AF (0x12 bytes), align: 1
  Segment part 104.
           ENTRY                   ADDRESS         REF BY
           =====                   =======         ======
           CBuzzer::LowOn()        0000129E        CBuzzerNotifyerControl::NotifyerPreventiveOn() (NotifyerControl)
                                                   CTestModeNotifyerControl::NotifyerEmergencyOn() (NotifyerControl)
                                                   CTestModeNotifyerControl::NotifyerIndicationOn() (NotifyerControl)
                                                   CTestModeNotifyerControl::NotifyerNormalOn() (NotifyerControl)
                                                   CTestModeNotifyerControl::NotifyerPreventiveOn() (NotifyerControl)
               calls direct
    -------------------------------------------------------------------------
CODE
  Relative segment, address: CODE 000012B0 - 000012C1 (0x12 bytes), align: 1
  Segment part 105.
           ENTRY                   ADDRESS         REF BY
           =====                   =======         ======
           CBuzzer::HighOn()       000012B0        CBuzzerNotifyerControl::NotifyerEmergencyOn() (NotifyerControl)
               calls direct
    -------------------------------------------------------------------------
CODE
  Relative segment, address: CODE 000012C2 - 000012CF (0xe bytes), align: 1
  Segment part 106.
           ENTRY                   ADDRESS         REF BY
           =====                   =======         ======
           CBuzzer::Off()          000012C2        CBuzzerNotifyerControl::NotifyerIndicationOn() (NotifyerControl)
                                                   CBuzzerNotifyerControl::NotifyerNormalOn() (NotifyerControl)
                                                   CBuzzerNotifyerControl::NotifyerOff() (NotifyerControl)
                                                   CTestModeNotifyerControl::NotifyerOff() (NotifyerControl)
               calls direct
    -------------------------------------------------------------------------
CODE
  Relative segment, address: CODE 000012D0 - 000012D3 (0x4 bytes), align: 1
  Segment part 107.           Intra module refs:   CBuzzer::Init()
           ENTRY                   ADDRESS         REF BY
           =====                   =======         ======
           CPlatform::BuzzerClockASetPinOutput()
                                   000012D0 
    -------------------------------------------------------------------------
CODE
  Relative segment, address: CODE 000012D4 - 000012D7 (0x4 bytes), align: 1
  Segment part 108.           Intra module refs:   CBuzzer::HighOn()
                                                   CBuzzer::LowOn()
           ENTRY                   ADDRESS         REF BY
           =====                   =======         ======
           CPlatform::BuzzerClockAOn()
                                   000012D4 
    -------------------------------------------------------------------------
CODE
  Relative segment, address: CODE 000012D8 - 000012DB (0x4 bytes), align: 1
  Segment part 109.           Intra module refs:   CBuzzer::Init()
                                                   CBuzzer::Off()
           ENTRY                   ADDRESS         REF BY
           =====                   =======         ======
           CPlatform::BuzzerClockAOff()
                                   000012D8 
    -------------------------------------------------------------------------
CODE
  Relative segment, address: CODE 000012DC - 000012DF (0x4 bytes), align: 1
  Segment part 110.           Intra module refs:   CBuzzer::Init()
           ENTRY                   ADDRESS         REF BY
           =====                   =======         ======
           CPlatform::BuzzerClockBSetPinOutput()
                                   000012DC 
    -------------------------------------------------------------------------
CODE
  Relative segment, address: CODE 000012E0 - 000012E3 (0x4 bytes), align: 1
  Segment part 111.           Intra module refs:   CBuzzer::HighOn()
                                                   CBuzzer::LowOn()
           ENTRY                   ADDRESS         REF BY
           =====                   =======         ======
           CPlatform::BuzzerClockBOn()
                                   000012E0 
    -------------------------------------------------------------------------
CODE
  Relative segment, address: CODE 000012E4 - 000012E7 (0x4 bytes), align: 1
  Segment part 112.           Intra module refs:   CBuzzer::Init()
                                                   CBuzzer::Off()
           ENTRY                   ADDRESS         REF BY
           =====                   =======         ======
           CPlatform::BuzzerClockBOff()
                                   000012E4 
    -------------------------------------------------------------------------
NEAR_F
  Relative segment, address: CODE 000000EC - 000000ED (0x2 bytes), align: 0
  Segment part 99. ROOT 
           ENTRY                   ADDRESS         REF BY
           =====                   =======         ======
           CBuzzer::__vtbl         000000EC 

    *************************************************************************

  FILE NAME : D:\Projects\CurrentProjects\CautoProjects\PSS48Color\Debug\Obj\Crc.r90
  PROGRAM MODULE, NAME : Crc

  SEGMENTS IN THE MODULE
  ======================
NEAR_F
  Relative segment, address: CODE 000000EE - 000002ED (0x200 bytes), align: 0
  Segment part 7. ROOT        Intra module refs:   usCrc16(unsigned char const *, uint16_t)
           LOCAL                   ADDRESS         
           =====                   =======         
           usCRCTable              000000EE 
    -------------------------------------------------------------------------
CODE
  Relative segment, address: CODE 000012E8 - 00001327 (0x40 bytes), align: 1
  Segment part 8.
           ENTRY                   ADDRESS         REF BY
           =====                   =======         ======
           usCrc16(unsigned char const *, uint16_t)
                                   000012E8        CDataStore::CrcOfBlocksCrcCheck() (DataStore)
                                                   CDataStore::CrcOfBlocksCrcCreate() (DataStore)
                                                   CDataStore::ReadBlock(uint8_t *, uint8_t) (DataStore)
                                                   CDataStore::Write(uint8_t *, uint16_t, uint8_t) (DataStore)
                                                   CFlash::ReadBlock(uint8_t *, uint8_t) (Platform)
                                                   CModbusRTU::FrameCheck(uint8_t *, uint16_t) (ModbusRTU)
                                                   CModbusRTU::Tail(uint8_t *, uint16_t) (ModbusRTU)
    -------------------------------------------------------------------------
CODE
  Relative segment, address: CODE 00001328 - 00001343 (0x1c bytes), align: 1
  Segment part 9.
           ENTRY                   ADDRESS         REF BY
           =====                   =======         ======
           usCrcSummTwoByteCalculation(unsigned char *, unsigned int)
                                   00001328        CModuleMrXXDriver::Exchange() (ModuleMrXX)
                                                   CModuleMrXXDriver::WriteDataBase() (ModuleMrXX)
    -------------------------------------------------------------------------
CODE
  Relative segment, address: CODE 00001344 - 0000138B (0x48 bytes), align: 1
  Segment part 10.
           ENTRY                   ADDRESS         REF BY
           =====                   =======         ======
           iCrcSummTwoByteCompare(unsigned char *, unsigned int)
                                   00001344        CModuleMrXXDriver::Exchange() (ModuleMrXX)
    -------------------------------------------------------------------------
CODE
  Relative segment, address: CODE 0000138C - 000013B1 (0x26 bytes), align: 1
  Segment part 12.
           ENTRY                   ADDRESS         REF BY
           =====                   =======         ======
           iCrcSummOneByteCompare(unsigned char *, unsigned int)
                                   0000138C        CMvsn21Driver::DataExchange() (Mvsn21)
                                                   CPss21::SearchModules() (Pss21)

    *************************************************************************

  FILE NAME : D:\Projects\CurrentProjects\CautoProjects\PSS48Color\Debug\Obj\DataBase.r90
  PROGRAM MODULE, NAME : DataBase

  SEGMENTS IN THE MODULE
  ======================
CODE
  Relative segment, address: CODE 000013B2 - 000013B5 (0x4 bytes), align: 1
  Segment part 102.           Intra module refs:   CDataBase::RestoreDefault()
                                                   CDataStore::Check() (DataStore)
                                                   CPss21::CreateDevices() (Pss21)
                                                   CPss21::ErrorMainCycle() (Pss21)
                                                   CPss21::LinkControlErrorMainCycle() (Pss21)
                                                   CPss21::MainFsm() (Pss21)
                                                   CPss21::SearchModules() (Pss21)
                                                   CPss21::TestMainCycle() (Pss21)
                                                   CSpi::Exchange(uint8_t) (Platform)
           ENTRY                   ADDRESS         REF BY
           =====                   =======         ======
           CPlatform::WatchdogReset()
                                   000013B2 
    -------------------------------------------------------------------------
CODE
  Relative segment, address: CODE 000013B6 - 000013CB (0x16 bytes), align: 1
  Segment part 103.           Intra module refs:   CDataBase::GetBlockLength(uint8_t)
           ENTRY                   ADDRESS         REF BY
           =====                   =======         ======
           CDataStore::GetBlockLength(uint8_t)
                                   000013B6 
               calls direct
    -------------------------------------------------------------------------
CODE
  Relative segment, address: CODE 000013CC - 000013D1 (0x6 bytes), align: 1
  Segment part 104.           Intra module refs:   CDataBase::RestoreDefault()
                                                   CDataStore::Check() (DataStore)
                                                   CModbus::PollProgramming(uint8_t *, uint8_t *, uint16_t) (modbus)
                                                   CModbus::Programming(uint8_t *, uint8_t *, uint16_t) (modbus)
           ENTRY                   ADDRESS         REF BY
           =====                   =======         ======
           CDataStore::GetFsmEvent()
                                   000013CC 
    -------------------------------------------------------------------------
CODE
  Relative segment, address: CODE 000013D2 - 000013D5 (0x4 bytes), align: 1
  Segment part 105.           Intra module refs:   CDataBase::GetBlockLength(uint8_t)
                                                   CDataBase::RestoreDefault()
                                                   CModbus::Programming(uint8_t *, uint8_t *, uint16_t) (modbus)
           ENTRY                   ADDRESS         REF BY
           =====                   =======         ======
           CDataBase::GetBlocksNumber()
                                   000013D2 
    -------------------------------------------------------------------------
CODE
  Relative segment, address: CODE 000013D6 - 000013DB (0x6 bytes), align: 1
  Segment part 106.           Intra module refs:   CDataBase::Check()
                                                   CDataStore::ReadBlock(uint8_t *, uint8_t) (DataStore)
                                                   CFlash::ReadBlock(uint8_t *, uint8_t) (Platform)
                                                   CModbusRtuLinkControl::Fsm() (LinkControl)
                                                   CPss21::Init() (Pss21)
                                                   CPss21::MainFsm() (Pss21)
                                                   CPss21::SearchModules() (Pss21)
           ENTRY                   ADDRESS         REF BY
           =====                   =======         ======
           CPss21::SetErrorCode(uint8_t)
                                   000013D6 
    -------------------------------------------------------------------------
CODE
  Relative segment, address: CODE 000013DC - 00001479 (0x9e bytes), align: 1
  Segment part 107.           Intra module refs:   CDataBase::Check()
           ENTRY                   ADDRESS         REF BY
           =====                   =======         ======
           CDataBase::RestoreDefault()
                                   000013DC 
               calls direct
    -------------------------------------------------------------------------
CODE
  Relative segment, address: CODE 0000147A - 0000147F (0x6 bytes), align: 1
  Segment part 108.           Intra module refs:   CDataBase::Check()
           ENTRY                   ADDRESS         REF BY
           =====                   =======         ======
           CDataBase::IntegrityCheck()
                                   0000147A 
               calls direct
    -------------------------------------------------------------------------
CODE
  Relative segment, address: CODE 00001480 - 00001485 (0x6 bytes), align: 1
  Segment part 109.
           ENTRY                   ADDRESS         REF BY
           =====                   =======         ======
           CDataBase::SignatureCreate()
                                   00001480        CModbus::Programming(uint8_t *, uint8_t *, uint16_t) (modbus)
                                                   CPss21::SetModeModbusRtuLinkControlInProgress(bool) (Pss21)
               calls direct
    -------------------------------------------------------------------------
CODE
  Relative segment, address: CODE 00001486 - 0000148B (0x6 bytes), align: 1
  Segment part 110.           Intra module refs:   CDataBase::Check()
           ENTRY                   ADDRESS         REF BY
           =====                   =======         ======
           CDataBase::SignatureCheck()
                                   00001486 
               calls direct
    -------------------------------------------------------------------------
CODE
  Relative segment, address: CODE 0000148C - 000014CB (0x40 bytes), align: 1
  Segment part 111.
           ENTRY                   ADDRESS         REF BY
           =====                   =======         ======
           CDataBase::Check()      0000148C        CPss21::MainFsm() (Pss21)
               calls direct
    -------------------------------------------------------------------------
CODE
  Relative segment, address: CODE 000014CC - 000014E3 (0x18 bytes), align: 1
  Segment part 112.
           ENTRY                   ADDRESS         REF BY
           =====                   =======         ======
           CDataBase::ReadBlock(uint8_t *, uint8_t)
                                   000014CC        CModbus::Programming(uint8_t *, uint8_t *, uint16_t) (modbus)
                                                   CPss21::ConfigurationInit() (Pss21)
               calls direct
    -------------------------------------------------------------------------
CODE
  Relative segment, address: CODE 000014E4 - 00001503 (0x20 bytes), align: 1
  Segment part 113.           Intra module refs:   CDataBase::WriteBlock(uint8_t *, uint8_t)
           ENTRY                   ADDRESS         REF BY
           =====                   =======         ======
           CDataBase::GetBlockLength(uint8_t)
                                   000014E4        CModbus::Programming(uint8_t *, uint8_t *, uint16_t) (modbus)
               calls direct
    -------------------------------------------------------------------------
CODE
  Relative segment, address: CODE 00001504 - 00001523 (0x20 bytes), align: 1
  Segment part 114.
           ENTRY                   ADDRESS         REF BY
           =====                   =======         ======
           CDataBase::WriteBlock(uint8_t *, uint8_t)
                                   00001504        CModbus::Programming(uint8_t *, uint8_t *, uint16_t) (modbus)
                                                   CPss21::SetModeModbusRtuLinkControlInProgress(bool) (Pss21)
               calls direct
    -------------------------------------------------------------------------
NEAR_F
  Relative segment, address: CODE 000002EE - 000002F1 (0x4 bytes), align: 0
  Segment part 99. ROOT 
           LOCAL                   ADDRESS         
           =====                   =======         
           CDriver::__vtbl         000002EE 
    -------------------------------------------------------------------------
NEAR_F
  Relative segment, address: CODE 000002F2 - 000002F9 (0x8 bytes), align: 0
  Segment part 100. ROOT 
           LOCAL                   ADDRESS         
           =====                   =======         
           CTaskInterface::__vtbl
                                   000002F2 
    -------------------------------------------------------------------------
NEAR_F
  Relative segment, address: CODE 000002FA - 00000303 (0xa bytes), align: 0
  Segment part 101. ROOT 
           LOCAL                   ADDRESS         
           =====                   =======         
           CIsRegularButtonPressedInterface::__vtbl
                                   000002FA 

    *************************************************************************

  FILE NAME : D:\Projects\CurrentProjects\CautoProjects\PSS48Color\Debug\Obj\DataStore.r90
  PROGRAM MODULE, NAME : DataStore

  SEGMENTS IN THE MODULE
  ======================
NEAR_Z
  Relative segment, address: DATA 000007A0 - 00000803 (0x64 bytes), align: 0
  Segment part 102. ROOT      Intra module refs:   CDataStore::Check()
                                                   CDataStore::CompareCurrentWithStoredCrc()
                                                   CDataStore::CrcOfBlocksCrcCheck()
                                                   CDataStore::CrcOfBlocksCrcCreate()
                                                   CDataStore::Fsm()
                                                   CDataStore::Init()
                                                   CDataStore::ReadBlock(uint8_t *, uint8_t)
                                                   CDataStore::Write(uint8_t *, uint16_t, uint8_t)
           ENTRY                   ADDRESS         REF BY
           =====                   =======         ======
           CDataStore::m_xBlocksControlData
                                   000007A0        CDataStore::GetBlockLength(uint8_t) (DataBase)
    -------------------------------------------------------------------------
NEAR_Z
  Relative segment, address: DATA 00000804 - 0000081B (0x18 bytes), align: 0
  Segment part 104. ROOT      Intra module refs:   CDataStore::CompareCurrentWithStoredCrc()
                                                   CDataStore::ReadBlock(uint8_t *, uint8_t)
           ENTRY                   ADDRESS         REF BY
           =====                   =======         ======
           CDataStore::m_auiBlocksCurrentCrc
                                   00000804 
    -------------------------------------------------------------------------
NEAR_Z
  Relative segment, address: DATA 0000081C - 0000081D (0x2 bytes), align: 0
  Segment part 105. ROOT      Intra module refs:   CDataStore::Check()
                                                   CDataStore::Init()
                                                   CDataStore::Write(uint8_t *, uint16_t, uint8_t)
           ENTRY                   ADDRESS         REF BY
           =====                   =======         ======
           CDataStore::m_puiIntermediateBuff
                                   0000081C 
    -------------------------------------------------------------------------
NEAR_I
  Relative segment, address: DATA 00000740 - 00000745 (0x6 bytes), align: 0
  Segment part 107. ROOT      Intra module refs:   __sti__routine()
    -------------------------------------------------------------------------
CODE
  Relative segment, address: CODE 00001524 - 00001535 (0x12 bytes), align: 1
  Segment part 114.           Intra module refs:   Segment part 113
           LOCAL                   ADDRESS         
           =====                   =======         
           __sti__routine()        00001524 
               calls direct
    -------------------------------------------------------------------------
CODE
  Relative segment, address: CODE 00001536 - 0000154B (0x16 bytes), align: 1
  Segment part 115.           Intra module refs:   Segment part 108
           LOCAL                   ADDRESS         
           =====                   =======         
           <Unnamed 0>             00001536 
               calls direct
    -------------------------------------------------------------------------
NEAR_Z
  Relative segment, address: DATA 0000081E - 00000823 (0x6 bytes), align: 0
  Segment part 106. ROOT      Intra module refs:   CDataStore::GetTimerPointer()
                                                   Segment part 108
                                                   __sti__routine()
           ENTRY                   ADDRESS         REF BY
           =====                   =======         ======
           CDataStore::m_xTimer    0000081E 
    -------------------------------------------------------------------------
NEAR_Z
  Relative segment, address: DATA 00000824 - 00000825 (0x2 bytes), align: 0
  Segment part 110. ROOT      Intra module refs:   Segment part 108
    -------------------------------------------------------------------------
NEAR_Z
  Relative segment, address: DATA 00000826 - 00000826 (0x1 bytes), align: 0
  Segment part 111. ROOT      Intra module refs:   CDataStore::GetFsmState()
                                                   CDataStore::SetFsmState(uint8_t)
           ENTRY                   ADDRESS         REF BY
           =====                   =======         ======
           CDataStore::m_uiFsmState
                                   00000826 
    -------------------------------------------------------------------------
NEAR_Z
  Relative segment, address: DATA 00000827 - 00000827 (0x1 bytes), align: 0
  Segment part 112. ROOT      Intra module refs:   CDataStore::SetFsmEvent(uint8_t)
           ENTRY                   ADDRESS         REF BY
           =====                   =======         ======
           CDataStore::m_uiFsmEvent
                                   00000827        CDataStore::GetFsmEvent() (DataBase)
    -------------------------------------------------------------------------
CODE
  Relative segment, address: CODE 0000154C - 000015B7 (0x6c bytes), align: 1
  Segment part 116.           Intra module refs:   CDataStore::Check()
           ENTRY                   ADDRESS         REF BY
           =====                   =======         ======
           CDataStore::Init()      0000154C        CDataBase::RestoreDefault() (DataBase)
               calls direct
    -------------------------------------------------------------------------
CODE
  Relative segment, address: CODE 000015B8 - 000016C3 (0x10c bytes), align: 1
  Segment part 117.           Intra module refs:   CDataStore::Check()
           ENTRY                   ADDRESS         REF BY
           =====                   =======         ======
           CDataStore::ReadBlock(uint8_t *, uint8_t)
                                   000015B8        CDataBase::ReadBlock(uint8_t *, uint8_t) (DataBase)
               calls direct
    -------------------------------------------------------------------------
CODE
  Relative segment, address: CODE 000016C4 - 000017D9 (0x116 bytes), align: 1
  Segment part 118.           Intra module refs:   CDataStore::Fsm()
                                                   CDataStore::WriteBlock(uint8_t *, uint16_t, uint8_t)
           ENTRY                   ADDRESS         REF BY
           =====                   =======         ======
           CDataStore::Write(uint8_t *, uint16_t, uint8_t)
                                   000016C4 
               calls direct
    -------------------------------------------------------------------------
CODE
  Relative segment, address: CODE 000017DA - 0000181F (0x46 bytes), align: 1
  Segment part 119.           Intra module refs:   CDataStore::Check()
           ENTRY                   ADDRESS         REF BY
           =====                   =======         ======
           CDataStore::WriteBlock(uint8_t *, uint16_t, uint8_t)
                                   000017DA        CDataBase::RestoreDefault() (DataBase)
                                                   CDataBase::WriteBlock(uint8_t *, uint8_t) (DataBase)
               calls direct
    -------------------------------------------------------------------------
CODE
  Relative segment, address: CODE 00001820 - 00001869 (0x4a bytes), align: 1
  Segment part 120.
           ENTRY                   ADDRESS         REF BY
           =====                   =======         ======
           CDataStore::CompareCurrentWithStoredCrc()
                                   00001820        CDataBase::IntegrityCheck() (DataBase)
               calls direct
    -------------------------------------------------------------------------
CODE
  Relative segment, address: CODE 0000186A - 000018C1 (0x58 bytes), align: 1
  Segment part 121.
           ENTRY                   ADDRESS         REF BY
           =====                   =======         ======
           CDataStore::CrcOfBlocksCrcCreate()
                                   0000186A        CDataBase::SignatureCreate() (DataBase)
               calls direct
    -------------------------------------------------------------------------
CODE
  Relative segment, address: CODE 000018C2 - 00001925 (0x64 bytes), align: 1
  Segment part 122.
           ENTRY                   ADDRESS         REF BY
           =====                   =======         ======
           CDataStore::CrcOfBlocksCrcCheck()
                                   000018C2        CDataBase::SignatureCheck() (DataBase)
               calls direct
    -------------------------------------------------------------------------
CODE
  Relative segment, address: CODE 00001926 - 00001A61 (0x13c bytes), align: 1
  Segment part 123.           Intra module refs:   CDataStore::Check()
           ENTRY                   ADDRESS         REF BY
           =====                   =======         ======
           CDataStore::Fsm()       00001926        CDataBase::RestoreDefault() (DataBase)
                                                   CPss21::LinkControlErrorMainCycle() (Pss21)
                                                   CPss21::MainFsm() (Pss21)
               calls direct
    -------------------------------------------------------------------------
CODE
  Relative segment, address: CODE 00001A62 - 00001B2B (0xca bytes), align: 1
  Segment part 124.
           ENTRY                   ADDRESS         REF BY
           =====                   =======         ======
           CDataStore::Check()     00001A62        CDataBase::Check() (DataBase)
               calls direct
    -------------------------------------------------------------------------
CODE
  Relative segment, address: CODE 00001B2C - 00001B41 (0x16 bytes), align: 1
  Segment part 125.
           ENTRY                   ADDRESS         REF BY
           =====                   =======         ======
           CDataStore::ReadBlockFlash(uint8_t *, uint8_t)
                                   00001B2C        CDataBase::RestoreDefault() (DataBase)
               calls direct
    -------------------------------------------------------------------------
CODE
  Relative segment, address: CODE 00001B42 - 00001B45 (0x4 bytes), align: 1
  Segment part 126.           Intra module refs:   CEeprom::StartWrite()
           ENTRY                   ADDRESS         REF BY
           =====                   =======         ======
           CEeprom::ReadyInterruptEnable()
                                   00001B42 
    -------------------------------------------------------------------------
CODE
  Relative segment, address: CODE 00001B46 - 00001B51 (0xc bytes), align: 1
  Segment part 127.           Intra module refs:   CDataStore::Fsm()
           ENTRY                   ADDRESS         REF BY
           =====                   =======         ======
           CEeprom::IsReadyToWrite()
                                   00001B46 
    -------------------------------------------------------------------------
CODE
  Relative segment, address: CODE 00001B52 - 00001B57 (0x6 bytes), align: 1
  Segment part 128.           Intra module refs:   CEeprom::ReadyInterruptHandler() (Platform)
                                                   CEeprom::StartWrite()
           ENTRY                   ADDRESS         REF BY
           =====                   =======         ======
           CEeprom::SetBufferIsWrited(bool)
                                   00001B52 
    -------------------------------------------------------------------------
CODE
  Relative segment, address: CODE 00001B58 - 00001B5D (0x6 bytes), align: 1
  Segment part 129.           Intra module refs:   CDataStore::Fsm()
           ENTRY                   ADDRESS         REF BY
           =====                   =======         ======
           CEeprom::GetBufferIsWrited()
                                   00001B58 
    -------------------------------------------------------------------------
CODE
  Relative segment, address: CODE 00001B5E - 00001B69 (0xc bytes), align: 1
  Segment part 130.           Intra module refs:   CDataStore::Fsm()
           ENTRY                   ADDRESS         REF BY
           =====                   =======         ======
           CEeprom::StartWrite()   00001B5E 
               calls direct
    -------------------------------------------------------------------------
CODE
  Relative segment, address: CODE 00001B6A - 00001B6F (0x6 bytes), align: 1
  Segment part 133.           Intra module refs:   CDataStore::Fsm()
           ENTRY                   ADDRESS         REF BY
           =====                   =======         ======
           CDataStore::GetTimerPointer()
                                   00001B6A 
    -------------------------------------------------------------------------
CODE
  Relative segment, address: CODE 00001B70 - 00001B75 (0x6 bytes), align: 1
  Segment part 134.           Intra module refs:   CDataStore::Fsm()
                                                   CDataStore::Init()
                                                   CDataStore::WriteBlock(uint8_t *, uint16_t, uint8_t)
           ENTRY                   ADDRESS         REF BY
           =====                   =======         ======
           CDataStore::SetFsmState(uint8_t)
                                   00001B70 
    -------------------------------------------------------------------------
CODE
  Relative segment, address: CODE 00001B76 - 00001B7B (0x6 bytes), align: 1
  Segment part 135.           Intra module refs:   CDataStore::Fsm()
                                                   CDataStore::WriteBlock(uint8_t *, uint16_t, uint8_t)
           ENTRY                   ADDRESS         REF BY
           =====                   =======         ======
           CDataStore::GetFsmState()
                                   00001B76 
    -------------------------------------------------------------------------
CODE
  Relative segment, address: CODE 00001B7C - 00001B81 (0x6 bytes), align: 1
  Segment part 136.           Intra module refs:   CDataStore::Fsm()
                                                   CDataStore::WriteBlock(uint8_t *, uint16_t, uint8_t)
           ENTRY                   ADDRESS         REF BY
           =====                   =======         ======
           CDataStore::SetFsmEvent(uint8_t)
                                   00001B7C 
    -------------------------------------------------------------------------
CODE
  Relative segment, address: CODE 00001B82 - 00001B87 (0x6 bytes), align: 1
  Segment part 138.           Intra module refs:   CDataStore::Check()
           ENTRY                   ADDRESS         REF BY
           =====                   =======         ======
           CHammingCodes::SetErrorCode(uint8_t)
                                   00001B82 
    -------------------------------------------------------------------------
CODE
  Relative segment, address: CODE 00001B88 - 00001B8D (0x6 bytes), align: 1
  Segment part 139.           Intra module refs:   CDataStore::Check()
           ENTRY                   ADDRESS         REF BY
           =====                   =======         ======
           CHammingCodes::GetErrorCode()
                                   00001B88 
    -------------------------------------------------------------------------
INITTAB
  Relative segment, address: CODE 0000823A - 00008240 (0x7 bytes), align: 0
  Segment part 103.           Intra module refs:   CDataStore::m_auiBlocksCurrentCrc
                                                   CDataStore::m_puiIntermediateBuff
                                                   CDataStore::m_uiFsmEvent
                                                   CDataStore::m_uiFsmState
                                                   CDataStore::m_xBlocksControlData
                                                   CDataStore::m_xTimer
                                                   CEeprom::m_bBufferIsWrited (Platform)
                                                   CEeprom::m_nuiBufferByteCounter (Platform)
                                                   CEeprom::m_puiBuffer (Platform)
                                                   CEeprom::m_uiAddress (Platform)
                                                   CEeprom::m_uiLength (Platform)
                                                   CHammingCodes::m_uiErrorCode (HammingCodes)
                                                   CLightBoard::m_auiBoardLampsControl (LightBoard)
                                                   CPlatform::m_pxUart1 (Platform)
                                                   CPlatform::m_uiSystemTick (Platform)
                                                   CPlatform::m_uiWatchDogStepID (Platform)
                                                   CPss21::m_apxAlarmDfa (Pss21)
                                                   CPss21::m_apxDrivers (Pss21)
                                                   CPss21::m_apxErrorAlarmDfa (Pss21)
                                                   CPss21::m_aucRtuDiscreteDataArray (Pss21)
                                                   CPss21::m_aucRtuHoldingRegistersArray (Pss21)
                                                   CPss21::m_aucRtuInputRegistersArray (Pss21)
                                                   CPss21::m_auiErrorAlarmDataArray (Pss21)
                                                   CPss21::m_auiIntermediateBuff (Pss21)
                                                   CPss21::m_auiReceiveMessageBuff (Pss21)
                                                   CPss21::m_auiSpiRxBuffer (Pss21)
                                                   CPss21::m_auiSpiTxBuffer (Pss21)
                                                   CPss21::m_axAlarmWindowControl (Pss21)
                                                   CPss21::m_axDiscreteOutputControl (Pss21)
                                                   CPss21::m_uiCommonAlarmType (Pss21)
                                                   CPss21::m_uiCommonAlarmTypePrevious (Pss21)
                                                   CPss21::m_uiDiscreteSignalsReceipt (Pss21)
                                                   CPss21::m_uiDiscreteSignalsReset (Pss21)
                                                   CPss21::m_uiErrorCode (Pss21)
                                                   CPss21::m_uiExternalReceipt (Pss21)
                                                   CPss21::m_uiExternalReset (Pss21)
                                                   CPss21::m_uiFsmState (Pss21)
                                                   CPss21::m_uiModbusReceipt (Pss21)
                                                   CPss21::m_uiModbusReset (Pss21)
                                                   CPss21::m_uiModuleIndex (Pss21)
                                                   CPss21::m_uiPanelReceipt (Pss21)
                                                   CPss21::m_uiPanelReset (Pss21)
                                                   CPss21::m_uiType (Pss21)
                                                   CPss21::m_xBuzzerNotifyerControl (Pss21)
                                                   CPss21::m_xCheckKey (Pss21)
                                                   CPss21::m_xDeviceConfigSearch (Pss21)
                                                   CPss21::m_xDeviceConfiguration (Pss21)
                                                   CPss21::m_xDeviceState (Pss21)
                                                   CPss21::m_xDiscreteOutputDataBase (Pss21)
                                                   CPss21::m_xEmergencyAlarmWindowNotifyerControl (Pss21)
                                                   CPss21::m_xEventUniteLogicAndOne (Pss21)
                                                   CPss21::m_xExternalKey (Pss21)
                                                   CPss21::m_xMainCycleTimer (Pss21)
                                                   CPss21::m_xModbusRtuLinkControl (Pss21)
                                                   CPss21::m_xModbusRtuOne (Pss21)
                                                   CPss21::m_xModbusSettings (Pss21)
                                                   CPss21::m_xPreventiveAlarmWindowNotifyerControl (Pss21)
                                                   CPss21::m_xReceiptKey (Pss21)
                                                   CPss21::m_xResetKey (Pss21)
                                                   CPss21::m_xStatusLedNotifyerControl (Pss21)
                                                   CPss21::m_xTestModeNotifyerControl (Pss21)
                                                   CPss21::m_xUart1 (Pss21)
                                                   Segment part 110
                                                   Segment part 117 (Pss21)
                                                   Segment part 121 (Pss21)
                                                   Segment part 125 (Pss21)
                                                   Segment part 129 (Pss21)
                                                   Segment part 133 (Pss21)
                                                   Segment part 137 (Pss21)
                                                   Segment part 151 (Pss21)
                                                   Segment part 155 (Pss21)
                                                   Segment part 159 (Pss21)
                                                   Segment part 163 (Pss21)
                                                   Segment part 167 (Pss21)
                                                   Segment part 171 (Pss21)
                                                   Segment part 175 (Pss21)
                                                   Segment part 179 (Pss21)
                                                   Segment part 194 (Pss21)
                                                   Segment part 3 (?cppinit)
                                                   Segment part 3 (?xgetmemchunk)
                                                   __iar_New_hand (?new)
                                                   __near_Aldata (?xxmemxmalloc)
                                                   uiInterruptCounter (Platform)
                                                   uiMapTestCounter (Pss21)
           ENTRY                   ADDRESS         REF BY
           =====                   =======         ======
           ?<Segment init: NEAR_Z>
                                   0000823A 
    -------------------------------------------------------------------------
NEAR_ID
  Relative segment, address: CODE 00008248 - 0000824D (0x6 bytes), align: 0
  Segment part 108. ROOT      Intra module refs:   Segment part 107
    -------------------------------------------------------------------------
INITTAB
  Relative segment, address: CODE 00008241 - 00008247 (0x7 bytes), align: 0
  Segment part 109.           Intra module refs:   Segment part 107
                                                   Segment part 114 (Pss21)
                                                   Segment part 119 (Pss21)
                                                   Segment part 123 (Pss21)
                                                   Segment part 127 (Pss21)
                                                   Segment part 131 (Pss21)
                                                   Segment part 135 (Pss21)
                                                   Segment part 149 (Pss21)
                                                   Segment part 153 (Pss21)
                                                   Segment part 157 (Pss21)
                                                   Segment part 161 (Pss21)
                                                   Segment part 165 (Pss21)
                                                   Segment part 169 (Pss21)
                                                   Segment part 173 (Pss21)
                                                   Segment part 177 (Pss21)
                                                   Segment part 192 (Pss21)
           ENTRY                   ADDRESS         REF BY
           =====                   =======         ======
           ?<Segment init: NEAR_I>
                                   00008241 
    -------------------------------------------------------------------------
DIFUNCT
  Relative segment, address: CODE 000009CC - 000009CD (0x2 bytes), align: 0
  Segment part 113. ROOT 
    -------------------------------------------------------------------------
NEAR_F
  Relative segment, address: CODE 00000304 - 00000307 (0x4 bytes), align: 0
  Segment part 99. ROOT 
           LOCAL                   ADDRESS         
           =====                   =======         
           CDriver::__vtbl         00000304 
    -------------------------------------------------------------------------
NEAR_F
  Relative segment, address: CODE 00000308 - 0000030F (0x8 bytes), align: 0
  Segment part 100. ROOT 
           LOCAL                   ADDRESS         
           =====                   =======         
           CTaskInterface::__vtbl
                                   00000308 
    -------------------------------------------------------------------------
NEAR_F
  Relative segment, address: CODE 00000310 - 00000319 (0xa bytes), align: 0
  Segment part 101. ROOT 
           LOCAL                   ADDRESS         
           =====                   =======         
           CIsRegularButtonPressedInterface::__vtbl
                                   00000310 

    *************************************************************************

  FILE NAME : D:\Projects\CurrentProjects\CautoProjects\PSS48Color\Debug\Obj\Dfa.r90
  PROGRAM MODULE, NAME : Dfa

  SEGMENTS IN THE MODULE
  ======================
CODE
  Relative segment, address: CODE 00001B8E - 00001B9F (0x12 bytes), align: 1
  Segment part 104.           Intra module refs:   CDfa::CDfa()
           ENTRY                   ADDRESS         REF BY
           =====                   =======         ======
           CDfaLite::CDfaLite()    00001B8E        CAlarmDfa::CAlarmDfa() (Alarm)
    -------------------------------------------------------------------------
CODE
  Relative segment, address: CODE 00001BA0 - 00001BC3 (0x24 bytes), align: 1
  Segment part 106.
           ENTRY                   ADDRESS         REF BY
           =====                   =======         ======
           CDfa::CDfa()            00001BA0        CEvent::CEvent() (Event)
                                                   CLinkControl::CLinkControl() (LinkControl)
                                                   CModbus::CModbus() (modbus)
                                                   CModuleMrXXDriver::CModuleMrXXDriver(uint8_t) (ModuleMrXX)
                                                   CMultiFunctionKey::CMultiFunctionKey(uint8_t (__version_3 *)()) (InputDevice)
                                                   CMvsn21Driver::CMvsn21Driver(uint8_t) (Mvsn21)
                                                   CNotifyerControl::CNotifyerControl() (NotifyerControl)
               calls direct
    -------------------------------------------------------------------------
CODE
  Relative segment, address: CODE 00001BC4 - 00001BDF (0x1c bytes), align: 1
  Segment part 108.           Intra module refs:   CDfaLite::__vtbl
           ENTRY                   ADDRESS         REF BY
           =====                   =======         ======
           CDfaLite::~CDfaLite()   00001BC4        CAlarmDfa::~CAlarmDfa() (Alarm)
                                                   CErrorAlarmDfa::~CErrorAlarmDfa() (Alarm)
               calls direct
    -------------------------------------------------------------------------
CODE
  Relative segment, address: CODE 00001BE0 - 00001BE1 (0x2 bytes), align: 1
  Segment part 109.           Intra module refs:   CDfa::__vtbl
                                                   CDfaLite::__vtbl
           ENTRY                   ADDRESS         REF BY
           =====                   =======         ======
           CDfaLite::Fsm()         00001BE0        CEvent::__vtbl (Event)
                                                   CEventUniteLogicAnd::__vtbl (Event)
                                                   CLinkControl::__vtbl (LinkControl)
                                                   CModbus::__vtbl (modbus)
                                                   CModuleMrXXDriver::__vtbl_CDfa (ModuleMrXX)
                                                   CMvsn21Driver::__vtbl_CDfa (Mvsn21)
    -------------------------------------------------------------------------
CODE
  Relative segment, address: CODE 00001BE2 - 00001BFD (0x1c bytes), align: 1
  Segment part 110.           Intra module refs:   CDfa::__vtbl
           ENTRY                   ADDRESS         REF BY
           =====                   =======         ======
           CDfa::~CDfa()           00001BE2        CEvent::~CEvent() (Event)
                                                   CLinkControl::~CLinkControl() (LinkControl)
                                                   CModbus::~CModbus() (modbus)
                                                   CModuleMrXXDriver::~CModuleMrXXDriver() (ModuleMrXX)
                                                   CMultiFunctionKey::~CMultiFunctionKey() (InputDevice)
                                                   CMvsn21Driver::~CMvsn21Driver() (Mvsn21)
                                                   CNotifyerControl::~CNotifyerControl() (NotifyerControl)
               calls direct
    -------------------------------------------------------------------------
NEAR_F
  Relative segment, address: CODE 0000031A - 0000031D (0x4 bytes), align: 0
  Segment part 99. ROOT       Intra module refs:   CDfaLite::CDfaLite()
           ENTRY                   ADDRESS         REF BY
           =====                   =======         ======
           CDfaLite::__vtbl        0000031A 
    -------------------------------------------------------------------------
NEAR_F
  Relative segment, address: CODE 0000031E - 00000321 (0x4 bytes), align: 0
  Segment part 100. ROOT      Intra module refs:   CDfa::CDfa()
           ENTRY                   ADDRESS         REF BY
           =====                   =======         ======
           CDfa::__vtbl            0000031E 
    -------------------------------------------------------------------------
NEAR_F
  Relative segment, address: CODE 00000322 - 00000325 (0x4 bytes), align: 0
  Segment part 101. ROOT 
           LOCAL                   ADDRESS         
           =====                   =======         
           CDriver::__vtbl         00000322 
    -------------------------------------------------------------------------
NEAR_F
  Relative segment, address: CODE 00000326 - 0000032D (0x8 bytes), align: 0
  Segment part 102. ROOT 
           LOCAL                   ADDRESS         
           =====                   =======         
           CTaskInterface::__vtbl
                                   00000326 
    -------------------------------------------------------------------------
NEAR_F
  Relative segment, address: CODE 0000032E - 00000337 (0xa bytes), align: 0
  Segment part 103. ROOT 
           LOCAL                   ADDRESS         
           =====                   =======         
           CIsRegularButtonPressedInterface::__vtbl
                                   0000032E 

    *************************************************************************

  FILE NAME : D:\Projects\CurrentProjects\CautoProjects\PSS48Color\Debug\Obj\DM134.r90
  PROGRAM MODULE, NAME : DM134

  SEGMENTS IN THE MODULE
  ======================
NEAR_F
  Relative segment, address: CODE 00000338 - 0000033B (0x4 bytes), align: 0
  Segment part 99. ROOT 
           LOCAL                   ADDRESS         
           =====                   =======         
           CDriver::__vtbl         00000338 
    -------------------------------------------------------------------------
NEAR_F
  Relative segment, address: CODE 0000033C - 00000343 (0x8 bytes), align: 0
  Segment part 100. ROOT 
           LOCAL                   ADDRESS         
           =====                   =======         
           CTaskInterface::__vtbl
                                   0000033C 
    -------------------------------------------------------------------------
NEAR_F
  Relative segment, address: CODE 00000344 - 0000034D (0xa bytes), align: 0
  Segment part 101. ROOT 
           LOCAL                   ADDRESS         
           =====                   =======         
           CIsRegularButtonPressedInterface::__vtbl
                                   00000344 

    *************************************************************************

  FILE NAME : D:\Projects\CurrentProjects\CautoProjects\PSS48Color\Debug\Obj\Dm163.r90
  PROGRAM MODULE, NAME : Dm163

  SEGMENTS IN THE MODULE
  ======================
CODE
  Relative segment, address: CODE 00001BFE - 00001C09 (0xc bytes), align: 1
  Segment part 102.           Intra module refs:   CDm163::Init()
           ENTRY                   ADDRESS         REF BY
           =====                   =======         ======
           CPins::SetPinOutputSIN()
                                   00001BFE 
    -------------------------------------------------------------------------
CODE
  Relative segment, address: CODE 00001C0A - 00001C15 (0xc bytes), align: 1
  Segment part 103.           Intra module refs:   CDm163::SetBank0(uint8_t)
                                                   CDm163::SetBank1(uint8_t)
           ENTRY                   ADDRESS         REF BY
           =====                   =======         ======
           CPins::SetPinSIN()      00001C0A 
    -------------------------------------------------------------------------
CODE
  Relative segment, address: CODE 00001C16 - 00001C21 (0xc bytes), align: 1
  Segment part 104.           Intra module refs:   CDm163::Init()
                                                   CDm163::SetBank0(uint8_t)
                                                   CDm163::SetBank1(uint8_t)
           ENTRY                   ADDRESS         REF BY
           =====                   =======         ======
           CPins::ClearPinSIN()    00001C16 
    -------------------------------------------------------------------------
CODE
  Relative segment, address: CODE 00001C22 - 00001C2D (0xc bytes), align: 1
  Segment part 105.           Intra module refs:   CDm163::Init()
           ENTRY                   ADDRESS         REF BY
           =====                   =======         ======
           CPins::SetPinOutputRST_B()
                                   00001C22 
    -------------------------------------------------------------------------
CODE
  Relative segment, address: CODE 00001C2E - 00001C39 (0xc bytes), align: 1
  Segment part 106.           Intra module refs:   CDm163::Init()
                                                   CDm163::Reset()
           ENTRY                   ADDRESS         REF BY
           =====                   =======         ======
           CPins::SetPinRST_B()    00001C2E 
    -------------------------------------------------------------------------
CODE
  Relative segment, address: CODE 00001C3A - 00001C45 (0xc bytes), align: 1
  Segment part 107.           Intra module refs:   CDm163::Reset()
           ENTRY                   ADDRESS         REF BY
           =====                   =======         ======
           CPins::ClearPinRST_B()
                                   00001C3A 
    -------------------------------------------------------------------------
CODE
  Relative segment, address: CODE 00001C46 - 00001C51 (0xc bytes), align: 1
  Segment part 108.           Intra module refs:   CDm163::Init()
           ENTRY                   ADDRESS         REF BY
           =====                   =======         ======
           CPins::SetPinOutputDCK()
                                   00001C46 
    -------------------------------------------------------------------------
CODE
  Relative segment, address: CODE 00001C52 - 00001C5D (0xc bytes), align: 1
  Segment part 109.           Intra module refs:   CDm163::SetBank0(uint8_t)
                                                   CDm163::SetBank1(uint8_t)
           ENTRY                   ADDRESS         REF BY
           =====                   =======         ======
           CPins::SetPinDCK()      00001C52 
    -------------------------------------------------------------------------
CODE
  Relative segment, address: CODE 00001C5E - 00001C69 (0xc bytes), align: 1
  Segment part 110.           Intra module refs:   CDm163::Init()
                                                   CDm163::SetBank0(uint8_t)
                                                   CDm163::SetBank1(uint8_t)
           ENTRY                   ADDRESS         REF BY
           =====                   =======         ======
           CPins::ClearPinDCK()    00001C5E 
    -------------------------------------------------------------------------
CODE
  Relative segment, address: CODE 00001C6A - 00001C75 (0xc bytes), align: 1
  Segment part 111.           Intra module refs:   CDm163::Init()
           ENTRY                   ADDRESS         REF BY
           =====                   =======         ======
           CPins::SetPinOutputLAT_B()
                                   00001C6A 
    -------------------------------------------------------------------------
CODE
  Relative segment, address: CODE 00001C76 - 00001C81 (0xc bytes), align: 1
  Segment part 112.           Intra module refs:   CDm163::Init()
                                                   CLightBoard::Set(CAlarmWindow *) (LightBoard)
           ENTRY                   ADDRESS         REF BY
           =====                   =======         ======
           CPins::ClearPinLAT_B()
                                   00001C76 
    -------------------------------------------------------------------------
CODE
  Relative segment, address: CODE 00001C82 - 00001C85 (0x4 bytes), align: 1
  Segment part 113.           Intra module refs:   CDm163::Init()
                                                   CDm163::SetFrequencyGCK()
           ENTRY                   ADDRESS         REF BY
           =====                   =======         ======
           CPins::SetPinOutputGCK()
                                   00001C82 
    -------------------------------------------------------------------------
CODE
  Relative segment, address: CODE 00001C86 - 00001C89 (0x4 bytes), align: 1
  Segment part 114.           Intra module refs:   CDm163::Init()
           ENTRY                   ADDRESS         REF BY
           =====                   =======         ======
           CPins::ClearPinGCK()    00001C86 
    -------------------------------------------------------------------------
CODE
  Relative segment, address: CODE 00001C8A - 00001C95 (0xc bytes), align: 1
  Segment part 115.           Intra module refs:   CDm163::Init()
           ENTRY                   ADDRESS         REF BY
           =====                   =======         ======
           CPins::SetPinOutputSELBK()
                                   00001C8A 
    -------------------------------------------------------------------------
CODE
  Relative segment, address: CODE 00001C96 - 00001CA1 (0xc bytes), align: 1
  Segment part 116.           Intra module refs:   CDm163::SetBank1(uint8_t)
           ENTRY                   ADDRESS         REF BY
           =====                   =======         ======
           CPins::SetPinSELBK()    00001C96 
    -------------------------------------------------------------------------
CODE
  Relative segment, address: CODE 00001CA2 - 00001CAD (0xc bytes), align: 1
  Segment part 117.           Intra module refs:   CDm163::Init()
                                                   CDm163::SetBank0(uint8_t)
                                                   CDm163::SetBank1(uint8_t)
           ENTRY                   ADDRESS         REF BY
           =====                   =======         ======
           CPins::ClearPinSELBK()
                                   00001CA2 
    -------------------------------------------------------------------------
CODE
  Relative segment, address: CODE 00001CAE - 00001CB9 (0xc bytes), align: 1
  Segment part 118.           Intra module refs:   CDm163::Init()
           ENTRY                   ADDRESS         REF BY
           =====                   =======         ======
           CPins::SetPinOutputEN_B()
                                   00001CAE 
    -------------------------------------------------------------------------
CODE
  Relative segment, address: CODE 00001CBA - 00001CC5 (0xc bytes), align: 1
  Segment part 119.           Intra module refs:   CDm163::Init()
           ENTRY                   ADDRESS         REF BY
           =====                   =======         ======
           CPins::SetPinEN_B()     00001CBA 
    -------------------------------------------------------------------------
CODE
  Relative segment, address: CODE 00001CC6 - 00001CD3 (0xe bytes), align: 1
  Segment part 120.           Intra module refs:   CDm163::Init()
           ENTRY                   ADDRESS         REF BY
           =====                   =======         ======
           CDm163::SetFrequencyGCK()
                                   00001CC6 
               calls direct
    -------------------------------------------------------------------------
CODE
  Relative segment, address: CODE 00001CD4 - 00001CD9 (0x6 bytes), align: 1
  Segment part 121.           Intra module refs:   CDm163::Reset()
           ENTRY                   ADDRESS         REF BY
           =====                   =======         ======
           CDm163::PulseDelayRST_B()
                                   00001CD4 
    -------------------------------------------------------------------------
CODE
  Relative segment, address: CODE 00001CDA - 00001CDD (0x4 bytes), align: 1
  Segment part 122.           Intra module refs:   CDm163::SetBank0(uint8_t)
                                                   CDm163::SetBank1(uint8_t)
           ENTRY                   ADDRESS         REF BY
           =====                   =======         ======
           CDm163::PulseDelayDCK()
                                   00001CDA 
    -------------------------------------------------------------------------
CODE
  Relative segment, address: CODE 00001CDE - 00001D1B (0x3e bytes), align: 1
  Segment part 123.
           ENTRY                   ADDRESS         REF BY
           =====                   =======         ======
           CDm163::Init()          00001CDE        CLightBoard::Init(CAlarmWindow *) (LightBoard)
               calls direct
    -------------------------------------------------------------------------
CODE
  Relative segment, address: CODE 00001D1C - 00001D29 (0xe bytes), align: 1
  Segment part 124.
           ENTRY                   ADDRESS         REF BY
           =====                   =======         ======
           CDm163::Reset()         00001D1C        CLightBoard::Set(CAlarmWindow *) (LightBoard)
               calls direct
    -------------------------------------------------------------------------
CODE
  Relative segment, address: CODE 00001D2A - 00001D6F (0x46 bytes), align: 1
  Segment part 125.
           ENTRY                   ADDRESS         REF BY
           =====                   =======         ======
           CDm163::SetBank0(uint8_t)
                                   00001D2A        CPss48BoardPixel::SetCorrection(TPixelColorData __farflash *) (Pixel)
               calls direct
    -------------------------------------------------------------------------
CODE
  Relative segment, address: CODE 00001D70 - 00001DB5 (0x46 bytes), align: 1
  Segment part 126.
           ENTRY                   ADDRESS         REF BY
           =====                   =======         ======
           CDm163::SetBank1(uint8_t)
                                   00001D70        CPss48BoardPixel::SetData(TPixelColorData __farflash *) (Pixel)
               calls direct
    -------------------------------------------------------------------------
NEAR_F
  Relative segment, address: CODE 0000034E - 00000351 (0x4 bytes), align: 0
  Segment part 99. ROOT 
           LOCAL                   ADDRESS         
           =====                   =======         
           CDriver::__vtbl         0000034E 
    -------------------------------------------------------------------------
NEAR_F
  Relative segment, address: CODE 00000352 - 00000359 (0x8 bytes), align: 0
  Segment part 100. ROOT 
           LOCAL                   ADDRESS         
           =====                   =======         
           CTaskInterface::__vtbl
                                   00000352 
    -------------------------------------------------------------------------
NEAR_F
  Relative segment, address: CODE 0000035A - 00000363 (0xa bytes), align: 0
  Segment part 101. ROOT 
           LOCAL                   ADDRESS         
           =====                   =======         
           CIsRegularButtonPressedInterface::__vtbl
                                   0000035A 

    *************************************************************************

  FILE NAME : D:\Projects\CurrentProjects\CautoProjects\PSS48Color\Debug\Obj\Event.r90
  PROGRAM MODULE, NAME : Event

  SEGMENTS IN THE MODULE
  ======================
CODE
  Relative segment, address: CODE 00001DB6 - 00001DD3 (0x1e bytes), align: 1
  Segment part 9.             Intra module refs:   CEventUniteLogicAnd::CEventUniteLogicAnd(uint16_t)
           ENTRY                   ADDRESS         REF BY
           =====                   =======         ======
           CEvent::CEvent()        00001DB6 
               calls direct
    -------------------------------------------------------------------------
CODE
  Relative segment, address: CODE 00001DD4 - 00001E09 (0x36 bytes), align: 1
  Segment part 13.
           ENTRY                   ADDRESS         REF BY
           =====                   =======         ======
           CEventUniteLogicAnd::CEventUniteLogicAnd(uint16_t)
                                   00001DD4        __sti__routine() (Pss21)
               calls direct
    -------------------------------------------------------------------------
CODE
  Relative segment, address: CODE 00001E0A - 00001E31 (0x28 bytes), align: 1
  Segment part 15.            Intra module refs:   CEvent::__vtbl
                                                   CEventUniteLogicAnd::~CEventUniteLogicAnd()
           ENTRY                   ADDRESS         REF BY
           =====                   =======         ======
           CEvent::~CEvent()       00001E0A 
               calls direct
    -------------------------------------------------------------------------
CODE
  Relative segment, address: CODE 00001E32 - 00001E6F (0x3e bytes), align: 1
  Segment part 16.            Intra module refs:   CEventUniteLogicAnd::__vtbl
           ENTRY                   ADDRESS         REF BY
           =====                   =======         ======
           CEventUniteLogicAnd::~CEventUniteLogicAnd()
                                   00001E32        <Unnamed 3> (Pss21)
               calls direct
    -------------------------------------------------------------------------
CODE
  Relative segment, address: CODE 00001E70 - 00001F25 (0xb6 bytes), align: 1
  Segment part 17.
           ENTRY                   ADDRESS         REF BY
           =====                   =======         ======
           CEventUniteLogicAnd::IsHappened(uint8_t, uint8_t)
                                   00001E70        CPss21::KeyStateProcessing() (Pss21)
               calls direct
    -------------------------------------------------------------------------
NEAR_F
  Relative segment, address: CODE 00000364 - 00000367 (0x4 bytes), align: 0
  Segment part 7. ROOT        Intra module refs:   CEvent::CEvent()
           ENTRY                   ADDRESS         REF BY
           =====                   =======         ======
           CEvent::__vtbl          00000364 
    -------------------------------------------------------------------------
NEAR_F
  Relative segment, address: CODE 00000368 - 0000036B (0x4 bytes), align: 0
  Segment part 8. ROOT        Intra module refs:   CEventUniteLogicAnd::CEventUniteLogicAnd(uint16_t)
                                                   CEventUniteLogicAnd::~CEventUniteLogicAnd()
           ENTRY                   ADDRESS         REF BY
           =====                   =======         ======
           CEventUniteLogicAnd::__vtbl
                                   00000368 

    *************************************************************************

  FILE NAME : D:\Projects\CurrentProjects\CautoProjects\PSS48Color\Debug\Obj\HammingCodes.r90
  PROGRAM MODULE, NAME : HammingCodes

  SEGMENTS IN THE MODULE
  ======================
NEAR_Z
  Relative segment, address: DATA 00000828 - 00000828 (0x1 bytes), align: 0
  Segment part 7. ROOT        Intra module refs:   CHammingCodes::fixError(uint16_t, uint8_t)
           ENTRY                   ADDRESS         REF BY
           =====                   =======         ======
           CHammingCodes::m_uiErrorCode
                                   00000828        CHammingCodes::GetErrorCode() (DataStore)
                                                   CHammingCodes::SetErrorCode(uint8_t) (DataStore)
    -------------------------------------------------------------------------
CODE
  Relative segment, address: CODE 00001F26 - 00001F53 (0x2e bytes), align: 1
  Segment part 9.             Intra module refs:   CHammingCodes::enHamming(uint8_t)
           ENTRY                   ADDRESS         REF BY
           =====                   =======         ======
           CHammingCodes::getEvenParityforTx(uint8_t)
                                   00001F26 
               calls direct
    -------------------------------------------------------------------------
CODE
  Relative segment, address: CODE 00001F54 - 00001F7F (0x2c bytes), align: 1
  Segment part 10.            Intra module refs:   CHammingCodes::findHammingError(uint16_t)
           ENTRY                   ADDRESS         REF BY
           =====                   =======         ======
           CHammingCodes::getEvenParityforRx(uint16_t)
                                   00001F54 
               calls direct
    -------------------------------------------------------------------------
CODE
  Relative segment, address: CODE 00001F80 - 00001FE9 (0x6a bytes), align: 1
  Segment part 11.            Intra module refs:   CHammingCodes::BytesToHammingCodes(uint8_t *, uint8_t *, uint16_t)
           ENTRY                   ADDRESS         REF BY
           =====                   =======         ======
           CHammingCodes::enHamming(uint8_t)
                                   00001F80 
               calls direct
    -------------------------------------------------------------------------
CODE
  Relative segment, address: CODE 00001FEA - 00002067 (0x7e bytes), align: 1
  Segment part 12.            Intra module refs:   CHammingCodes::Recovery(uint16_t)
           ENTRY                   ADDRESS         REF BY
           =====                   =======         ======
           CHammingCodes::findHammingError(uint16_t)
                                   00001FEA 
               calls direct
    -------------------------------------------------------------------------
CODE
  Relative segment, address: CODE 00002068 - 00002089 (0x22 bytes), align: 1
  Segment part 13.            Intra module refs:   CHammingCodes::Recovery(uint16_t)
           ENTRY                   ADDRESS         REF BY
           =====                   =======         ======
           CHammingCodes::fixError(uint16_t, uint8_t)
                                   00002068 
               calls direct
    -------------------------------------------------------------------------
CODE
  Relative segment, address: CODE 0000208A - 000020B3 (0x2a bytes), align: 1
  Segment part 14.            Intra module refs:   CHammingCodes::Recovery(uint16_t)
           ENTRY                   ADDRESS         REF BY
           =====                   =======         ======
           CHammingCodes::deHamming(uint16_t)
                                   0000208A 
               calls direct
    -------------------------------------------------------------------------
CODE
  Relative segment, address: CODE 000020B4 - 000020C3 (0x10 bytes), align: 1
  Segment part 15.            Intra module refs:   CHammingCodes::HammingCodesToBytes(uint8_t *, uint8_t *, uint16_t)
           ENTRY                   ADDRESS         REF BY
           =====                   =======         ======
           CHammingCodes::Recovery(uint16_t)
                                   000020B4 
               calls direct
    -------------------------------------------------------------------------
CODE
  Relative segment, address: CODE 000020C4 - 000020D7 (0x14 bytes), align: 1
  Segment part 16.
           ENTRY                   ADDRESS         REF BY
           =====                   =======         ======
           CHammingCodes::CalculateEncodedDataLength(uint16_t)
                                   000020C4        CDataStore::Init() (DataStore)
    -------------------------------------------------------------------------
CODE
  Relative segment, address: CODE 000020D8 - 00002225 (0x14e bytes), align: 1
  Segment part 17.
           ENTRY                   ADDRESS         REF BY
           =====                   =======         ======
           CHammingCodes::BytesToHammingCodes(uint8_t *, uint8_t *, uint16_t)
                                   000020D8        CDataStore::Write(uint8_t *, uint16_t, uint8_t) (DataStore)
               calls direct
    -------------------------------------------------------------------------
CODE
  Relative segment, address: CODE 00002226 - 00002305 (0xe0 bytes), align: 1
  Segment part 18.
           ENTRY                   ADDRESS         REF BY
           =====                   =======         ======
           CHammingCodes::HammingCodesToBytes(uint8_t *, uint8_t *, uint16_t)
                                   00002226        CDataStore::ReadBlock(uint8_t *, uint8_t) (DataStore)
               calls direct

    *************************************************************************

  FILE NAME : D:\Projects\CurrentProjects\CautoProjects\PSS48Color\Debug\Obj\InputDevice.r90
  PROGRAM MODULE, NAME : InputDevice

  SEGMENTS IN THE MODULE
  ======================
CODE
  Relative segment, address: CODE 00002306 - 00002349 (0x44 bytes), align: 1
  Segment part 102.
           ENTRY                   ADDRESS         REF BY
           =====                   =======         ======
           CMultiFunctionKey::CMultiFunctionKey(uint8_t (__version_3 *)())
                                   00002306        __sti__routine() (Pss21)
               calls direct
    -------------------------------------------------------------------------
CODE
  Relative segment, address: CODE 0000234A - 00002389 (0x40 bytes), align: 1
  Segment part 104.           Intra module refs:   CMultiFunctionKey::__vtbl
           ENTRY                   ADDRESS         REF BY
           =====                   =======         ======
           CMultiFunctionKey::~CMultiFunctionKey()
                                   0000234A        <Unnamed 2> (Pss21)
               calls direct
    -------------------------------------------------------------------------
CODE
  Relative segment, address: CODE 0000238A - 000023A9 (0x20 bytes), align: 1
  Segment part 106.           Intra module refs:   CMultiFunctionKey::Fsm()
           ENTRY                   ADDRESS         REF BY
           =====                   =======         ======
           CMultiFunctionKey::EventHappened()
                                   0000238A 
               calls indirect
    -------------------------------------------------------------------------
CODE
  Relative segment, address: CODE 000023AA - 000023E7 (0x3e bytes), align: 1
  Segment part 107.
           ENTRY                   ADDRESS         REF BY
           =====                   =======         ======
           CMultiFunctionKey::KeyEventHappened(uint8_t)
                                   000023AA        CPss21::KeyStateProcessing() (Pss21)
               calls indirect
    -------------------------------------------------------------------------
CODE
  Relative segment, address: CODE 000023E8 - 000025A5 (0x1be bytes), align: 1
  Segment part 108.           Intra module refs:   CMultiFunctionKey::__vtbl
           ENTRY                   ADDRESS         REF BY
           =====                   =======         ======
           CMultiFunctionKey::Fsm()
                                   000023E8 
               calls direct
    -------------------------------------------------------------------------
CODE
  Relative segment, address: CODE 000025A6 - 000025AD (0x8 bytes), align: 1
  Segment part 111.           Intra module refs:   CMultiFunctionKey::Fsm()
           ENTRY                   ADDRESS         REF BY
           =====                   =======         ======
           CMultiFunctionKey::KEY_PRESSED_TIME_RECEIPT()
                                   000025A6 
    -------------------------------------------------------------------------
CODE
  Relative segment, address: CODE 000025AE - 000025B5 (0x8 bytes), align: 1
  Segment part 112.           Intra module refs:   CMultiFunctionKey::Fsm()
           ENTRY                   ADDRESS         REF BY
           =====                   =======         ======
           CMultiFunctionKey::KEY_PRESSED_TIME_RESET()
                                   000025AE 
    -------------------------------------------------------------------------
CODE
  Relative segment, address: CODE 000025B6 - 000025BD (0x8 bytes), align: 1
  Segment part 113.           Intra module refs:   CMultiFunctionKey::Fsm()
           ENTRY                   ADDRESS         REF BY
           =====                   =======         ======
           CMultiFunctionKey::KEY_PRESSED_TIME_CHECK()
                                   000025B6 
    -------------------------------------------------------------------------
CODE
  Relative segment, address: CODE 000025BE - 000025C5 (0x8 bytes), align: 1
  Segment part 114.           Intra module refs:   CMultiFunctionKey::Fsm()
           ENTRY                   ADDRESS         REF BY
           =====                   =======         ======
           CMultiFunctionKey::KEY_PRESSED_TIME_SET_DEFAULT()
                                   000025BE 
    -------------------------------------------------------------------------
CODE
  Relative segment, address: CODE 000025C6 - 000025CD (0x8 bytes), align: 1
  Segment part 115.           Intra module refs:   CMultiFunctionKey::Fsm()
           ENTRY                   ADDRESS         REF BY
           =====                   =======         ======
           CMultiFunctionKey::KEY_PRESSED_CHECK_REPEAT_TIME()
                                   000025C6 
    -------------------------------------------------------------------------
NEAR_F
  Relative segment, address: CODE 0000036C - 0000036F (0x4 bytes), align: 0
  Segment part 99. ROOT       Intra module refs:   CMultiFunctionKey::CMultiFunctionKey(uint8_t (__version_3 *)())
                                                   CMultiFunctionKey::~CMultiFunctionKey()
           ENTRY                   ADDRESS         REF BY
           =====                   =======         ======
           CMultiFunctionKey::__vtbl
                                   0000036C 

    *************************************************************************

  FILE NAME : D:\Projects\CurrentProjects\CautoProjects\PSS48Color\Debug\Obj\LightBoard.r90
  PROGRAM MODULE, NAME : LightBoard

  SEGMENTS IN THE MODULE
  ======================
CODE
  Relative segment, address: CODE 000025CE - 000025D3 (0x6 bytes), align: 1
  Segment part 112.           Intra module refs:   CLightBoard::Set(CAlarmWindow *)
                                                   CPss21::SaveContextNotifyerControl() (Pss21)
           ENTRY                   ADDRESS         REF BY
           =====                   =======         ======
           CAlarmWindow::GetActivityState()
                                   000025CE 
    -------------------------------------------------------------------------
CODE
  Relative segment, address: CODE 000025D4 - 000025D9 (0x6 bytes), align: 1
  Segment part 113.           Intra module refs:   CLightBoard::Set(CAlarmWindow *)
                                                   CPss21::SaveContextNotifyerControl() (Pss21)
           ENTRY                   ADDRESS         REF BY
           =====                   =======         ======
           CAlarmWindow::GetAlarmColor()
                                   000025D4 
    -------------------------------------------------------------------------
CODE
  Relative segment, address: CODE 000025DA - 000025E5 (0xc bytes), align: 1
  Segment part 114.           Intra module refs:   CLightBoard::Set(CAlarmWindow *)
           ENTRY                   ADDRESS         REF BY
           =====                   =======         ======
           CPins::SetPinLAT_B()    000025DA 
    -------------------------------------------------------------------------
CODE
  Relative segment, address: CODE 000025E6 - 000025F1 (0xc bytes), align: 1
  Segment part 116.           Intra module refs:   CLightBoard::Set(CAlarmWindow *)
           ENTRY                   ADDRESS         REF BY
           =====                   =======         ======
           CPins::ClearPinEN_B()   000025E6 
    -------------------------------------------------------------------------
CODE
  Relative segment, address: CODE 000025F2 - 000025F5 (0x4 bytes), align: 1
  Segment part 117.           Intra module refs:   CLightBoard::Set(CAlarmWindow *)
           ENTRY                   ADDRESS         REF BY
           =====                   =======         ======
           CDm163::PulseDelayLAT_B()
                                   000025F2 
    -------------------------------------------------------------------------
NEAR_Z
  Relative segment, address: DATA 00000829 - 00000868 (0x40 bytes), align: 0
  Segment part 102. ROOT 
           ENTRY                   ADDRESS         REF BY
           =====                   =======         ======
           CLightBoard::m_auiBoardLampsControl
                                   00000829 
    -------------------------------------------------------------------------
NEAR_F
  Relative segment, address: CODE 00000370 - 00000373 (0x4 bytes), align: 0
  Segment part 99. ROOT 
           LOCAL                   ADDRESS         
           =====                   =======         
           CDriver::__vtbl         00000370 
    -------------------------------------------------------------------------
NEAR_F
  Relative segment, address: CODE 00000374 - 0000037B (0x8 bytes), align: 0
  Segment part 100. ROOT 
           LOCAL                   ADDRESS         
           =====                   =======         
           CTaskInterface::__vtbl
                                   00000374 
    -------------------------------------------------------------------------
NEAR_F
  Relative segment, address: CODE 0000037C - 00000385 (0xa bytes), align: 0
  Segment part 101. ROOT 
           LOCAL                   ADDRESS         
           =====                   =======         
           CIsRegularButtonPressedInterface::__vtbl
                                   0000037C 
    -------------------------------------------------------------------------
NEAR_F
  Relative segment, address: CODE 00000386 - 000003B5 (0x30 bytes), align: 0
  Segment part 104. ROOT      Intra module refs:   CLightBoard::Set(CAlarmWindow *)
           ENTRY                   ADDRESS         REF BY
           =====                   =======         ======
           CLightBoard::m_auiLedMap
                                   00000386 
    -------------------------------------------------------------------------
NEAR_F
  Relative segment, address: CODE 000003B6 - 000003B8 (0x3 bytes), align: 0
  Segment part 105. ROOT      Intra module refs:   CLightBoard::Set(CAlarmWindow *)
           ENTRY                   ADDRESS         REF BY
           =====                   =======         ======
           CLightBoard::m_xPixelColorCorrectionData
                                   000003B6 
    -------------------------------------------------------------------------
NEAR_F
  Relative segment, address: CODE 000003B9 - 000003BB (0x3 bytes), align: 0
  Segment part 106. ROOT      Intra module refs:   CLightBoard::Set(CAlarmWindow *)
           ENTRY                   ADDRESS         REF BY
           =====                   =======         ======
           CLightBoard::m_xPixelColorBlack
                                   000003B9 
    -------------------------------------------------------------------------
NEAR_F
  Relative segment, address: CODE 000003BC - 000003BE (0x3 bytes), align: 0
  Segment part 107. ROOT      Intra module refs:   CLightBoard::Set(CAlarmWindow *)
           ENTRY                   ADDRESS         REF BY
           =====                   =======         ======
           CLightBoard::m_xPixelColorRed
                                   000003BC 
    -------------------------------------------------------------------------
NEAR_F
  Relative segment, address: CODE 000003BF - 000003C1 (0x3 bytes), align: 0
  Segment part 108. ROOT      Intra module refs:   CLightBoard::Set(CAlarmWindow *)
           ENTRY                   ADDRESS         REF BY
           =====                   =======         ======
           CLightBoard::m_xPixelColorGreen
                                   000003BF 
    -------------------------------------------------------------------------
NEAR_F
  Relative segment, address: CODE 000003C2 - 000003C4 (0x3 bytes), align: 0
  Segment part 109. ROOT 
           ENTRY                   ADDRESS         REF BY
           =====                   =======         ======
           CLightBoard::m_xPixelColorBlue
                                   000003C2 
    -------------------------------------------------------------------------
NEAR_F
  Relative segment, address: CODE 000003C5 - 000003C7 (0x3 bytes), align: 0
  Segment part 110. ROOT      Intra module refs:   CLightBoard::Set(CAlarmWindow *)
           ENTRY                   ADDRESS         REF BY
           =====                   =======         ======
           CLightBoard::m_xPixelColorYellow
                                   000003C5 
    -------------------------------------------------------------------------
NEAR_F
  Relative segment, address: CODE 000003C8 - 000003CA (0x3 bytes), align: 0
  Segment part 111. ROOT      Intra module refs:   CLightBoard::Set(CAlarmWindow *)
           ENTRY                   ADDRESS         REF BY
           =====                   =======         ======
           CLightBoard::m_xPixelColorWhite
                                   000003C8 
    -------------------------------------------------------------------------
CODE
  Relative segment, address: CODE 000025F6 - 00002605 (0x10 bytes), align: 1
  Segment part 118.
           ENTRY                   ADDRESS         REF BY
           =====                   =======         ======
           CLightBoard::Init(CAlarmWindow *)
                                   000025F6        CPss21::Init() (Pss21)
               calls direct
    -------------------------------------------------------------------------
CODE
  Relative segment, address: CODE 00002606 - 000026E1 (0xdc bytes), align: 1
  Segment part 119.
           ENTRY                   ADDRESS         REF BY
           =====                   =======         ======
           CLightBoard::Set(CAlarmWindow *)
                                   00002606        CPss21::BoardWindowsUpdate() (Pss21)
               calls direct

    *************************************************************************

  FILE NAME : D:\Projects\CurrentProjects\CautoProjects\PSS48Color\Debug\Obj\LinkControl.r90
  PROGRAM MODULE, NAME : LinkControl

  SEGMENTS IN THE MODULE
  ======================
CODE
  Relative segment, address: CODE 000026E2 - 00002709 (0x28 bytes), align: 1
  Segment part 104.           Intra module refs:   CModbusRtuLinkControl::CModbusRtuLinkControl()
           ENTRY                   ADDRESS         REF BY
           =====                   =======         ======
           CLinkControl::CLinkControl()
                                   000026E2 
               calls direct
    -------------------------------------------------------------------------
CODE
  Relative segment, address: CODE 0000270A - 00002735 (0x2c bytes), align: 1
  Segment part 106.
           ENTRY                   ADDRESS         REF BY
           =====                   =======         ======
           CModbusRtuLinkControl::CModbusRtuLinkControl()
                                   0000270A        __sti__routine() (Pss21)
               calls direct
    -------------------------------------------------------------------------
CODE
  Relative segment, address: CODE 00002736 - 00002775 (0x40 bytes), align: 1
  Segment part 108.           Intra module refs:   CLinkControl::__vtbl
                                                   CModbusRtuLinkControl::~CModbusRtuLinkControl()
           ENTRY                   ADDRESS         REF BY
           =====                   =======         ======
           CLinkControl::~CLinkControl()
                                   00002736 
               calls direct
    -------------------------------------------------------------------------
CODE
  Relative segment, address: CODE 00002776 - 0000279B (0x26 bytes), align: 1
  Segment part 109.           Intra module refs:   CModbusRtuLinkControl::__vtbl
           ENTRY                   ADDRESS         REF BY
           =====                   =======         ======
           CModbusRtuLinkControl::~CModbusRtuLinkControl()
                                   00002776        <Unnamed 10> (Pss21)
               calls direct
    -------------------------------------------------------------------------
CODE
  Relative segment, address: CODE 0000279C - 000028D5 (0x13a bytes), align: 1
  Segment part 110.           Intra module refs:   CModbusRtuLinkControl::__vtbl
           ENTRY                   ADDRESS         REF BY
           =====                   =======         ======
           CModbusRtuLinkControl::Fsm()
                                   0000279C        CPss21::LinkControlErrorMainCycle() (Pss21)
                                                   CPss21::MainFsm() (Pss21)
               calls direct
    -------------------------------------------------------------------------
CODE
  Relative segment, address: CODE 000028D6 - 000028DB (0x6 bytes), align: 1
  Segment part 112.           Intra module refs:   CModbusRtuLinkControl::CModbusRtuLinkControl()
                                                   CModbusRtuLinkControl::Fsm()
                                                   CPss21::ModbusDeviceControl(uint8_t *, uint16_t, uint16_t) (Pss21)
                                                   CPss21::SendToDevicesModbusReceipt() (Pss21)
                                                   CPss21::SendToDevicesReceipt() (Pss21)
           ENTRY                   ADDRESS         REF BY
           =====                   =======         ======
           CDfa::SetFsmEvent(uint8_t)
                                   000028D6 
    -------------------------------------------------------------------------
CODE
  Relative segment, address: CODE 000028DC - 000028E1 (0x6 bytes), align: 1
  Segment part 114.           Intra module refs:   CModbusRtuLinkControl::Fsm()
           ENTRY                   ADDRESS         REF BY
           =====                   =======         ======
           CDfa::GetFsmEvent()     000028DC 
    -------------------------------------------------------------------------
CODE
  Relative segment, address: CODE 000028E2 - 000028E7 (0x6 bytes), align: 1
  Segment part 115.           Intra module refs:   CModbusRtuLinkControl::Fsm()
           ENTRY                   ADDRESS         REF BY
           =====                   =======         ======
           CLinkControl::GetTimerPointer()
                                   000028E2 
    -------------------------------------------------------------------------
CODE
  Relative segment, address: CODE 000028E8 - 000028ED (0x6 bytes), align: 1
  Segment part 116.           Intra module refs:   CModbus::Programming(uint8_t *, uint8_t *, uint16_t) (modbus)
                                                   CModbusRtuLinkControl::Fsm()
                                                   CPss21::KeyStateProcessing() (Pss21)
                                                   CPss21::MainFsm() (Pss21)
                                                   CPss21::TestMainCycle() (Pss21)
                                                   main (main)
           ENTRY                   ADDRESS         REF BY
           =====                   =======         ======
           CPss21::SetFsmState(uint8_t)
                                   000028E8 
    -------------------------------------------------------------------------
NEAR_F
  Relative segment, address: CODE 000003CB - 000003CE (0x4 bytes), align: 0
  Segment part 99. ROOT       Intra module refs:   CLinkControl::CLinkControl()
                                                   CLinkControl::~CLinkControl()
           ENTRY                   ADDRESS         REF BY
           =====                   =======         ======
           CLinkControl::__vtbl    000003CB 
    -------------------------------------------------------------------------
NEAR_F
  Relative segment, address: CODE 000003CF - 000003D2 (0x4 bytes), align: 0
  Segment part 100. ROOT 
           LOCAL                   ADDRESS         
           =====                   =======         
           CDriver::__vtbl         000003CF 
    -------------------------------------------------------------------------
NEAR_F
  Relative segment, address: CODE 000003D3 - 000003DA (0x8 bytes), align: 0
  Segment part 101. ROOT 
           LOCAL                   ADDRESS         
           =====                   =======         
           CTaskInterface::__vtbl
                                   000003D3 
    -------------------------------------------------------------------------
NEAR_F
  Relative segment, address: CODE 000003DB - 000003E4 (0xa bytes), align: 0
  Segment part 102. ROOT 
           LOCAL                   ADDRESS         
           =====                   =======         
           CIsRegularButtonPressedInterface::__vtbl
                                   000003DB 
    -------------------------------------------------------------------------
NEAR_F
  Relative segment, address: CODE 000003E5 - 000003E8 (0x4 bytes), align: 0
  Segment part 103. ROOT      Intra module refs:   CModbusRtuLinkControl::CModbusRtuLinkControl()
           ENTRY                   ADDRESS         REF BY
           =====                   =======         ======
           CModbusRtuLinkControl::__vtbl
                                   000003E5 

    *************************************************************************

  FILE NAME : D:\Projects\CurrentProjects\CautoProjects\PSS48Color\Debug\Obj\main.r90
  PROGRAM MODULE, NAME : main

  SEGMENTS IN THE MODULE
  ======================
CODE
  Relative segment, address: CODE 000028EE - 000028F9 (0xc bytes), align: 1
  Segment part 103.
           ENTRY                   ADDRESS         REF BY
           =====                   =======         ======
           main                    000028EE        ?cstartup_call_main (?C_STARTUP)
               calls direct
    -------------------------------------------------------------------------
NEAR_F
  Relative segment, address: CODE 000003E9 - 000003EC (0x4 bytes), align: 0
  Segment part 99. ROOT 
           LOCAL                   ADDRESS         
           =====                   =======         
           CDriver::__vtbl         000003E9 
    -------------------------------------------------------------------------
NEAR_F
  Relative segment, address: CODE 000003ED - 000003F4 (0x8 bytes), align: 0
  Segment part 100. ROOT 
           LOCAL                   ADDRESS         
           =====                   =======         
           CTaskInterface::__vtbl
                                   000003ED 
    -------------------------------------------------------------------------
NEAR_F
  Relative segment, address: CODE 000003F5 - 000003FE (0xa bytes), align: 0
  Segment part 101. ROOT 
           LOCAL                   ADDRESS         
           =====                   =======         
           CIsRegularButtonPressedInterface::__vtbl
                                   000003F5 

    *************************************************************************

  FILE NAME : D:\Projects\CurrentProjects\CautoProjects\PSS48Color\Debug\Obj\modbus.r90
  PROGRAM MODULE, NAME : modbus

  SEGMENTS IN THE MODULE
  ======================
CODE
  Relative segment, address: CODE 000028FA - 00002917 (0x1e bytes), align: 1
  Segment part 103.
           ENTRY                   ADDRESS         REF BY
           =====                   =======         ======
           CModbus::CModbus()      000028FA        CModbusRTU::CModbusRTU() (ModbusRTU)
               calls direct
    -------------------------------------------------------------------------
CODE
  Relative segment, address: CODE 00002918 - 0000293F (0x28 bytes), align: 1
  Segment part 105.           Intra module refs:   CModbus::__vtbl
           ENTRY                   ADDRESS         REF BY
           =====                   =======         ======
           CModbus::~CModbus()     00002918        CModbusRTU::~CModbusRTU() (ModbusRTU)
               calls direct
    -------------------------------------------------------------------------
CODE
  Relative segment, address: CODE 00002940 - 00002945 (0x6 bytes), align: 1
  Segment part 106.
           ENTRY                   ADDRESS         REF BY
           =====                   =======         ======
           CModbus::SlaveSet(uint8_t)
                                   00002940        CPss21::ModbusInit() (Pss21)
    -------------------------------------------------------------------------
CODE
  Relative segment, address: CODE 00002946 - 00002961 (0x1c bytes), align: 1
  Segment part 107.           Intra module refs:   CModbus::__vtbl
           ENTRY                   ADDRESS         REF BY
           =====                   =======         ======
           CModbus::MessengerIsReady()
                                   00002946        CModbusRTU::__vtbl_CModbus (ModbusRTU)
               calls direct
    -------------------------------------------------------------------------
CODE
  Relative segment, address: CODE 00002962 - 000029A7 (0x46 bytes), align: 1
  Segment part 108.
           ENTRY                   ADDRESS         REF BY
           =====                   =======         ======
           CModbus::SendMessage(uint8_t *, uint16_t)
                                   00002962        CModbusRTU::Fsm() (ModbusRTU)
               calls indirect
    -------------------------------------------------------------------------
CODE
  Relative segment, address: CODE 000029A8 - 000029ED (0x46 bytes), align: 1
  Segment part 109.           Intra module refs:   CModbus::PollProgramming(uint8_t *, uint8_t *, uint16_t)
                                                   CModbus::Programming(uint8_t *, uint8_t *, uint16_t)
                                                   CModbus::ReadCoils(uint8_t *, uint8_t *, uint16_t)
                                                   CModbus::ReadDiscreteInputs(uint8_t *, uint8_t *, uint16_t)
                                                   CModbus::ReadHoldingRegisters(uint8_t *, uint8_t *, uint16_t)
                                                   CModbus::ReadInputRegisters(uint8_t *, uint8_t *, uint16_t)
                                                   CModbus::Reply(uint8_t *, uint8_t *, uint16_t)
                                                   CModbus::WriteMultipleCoils(uint8_t *, uint8_t *, uint16_t)
                                                   CModbus::WriteMultipleRegisters(uint8_t *, uint8_t *, uint16_t)
                                                   CModbus::WriteSingleCoil(uint8_t *, uint8_t *, uint16_t)
                                                   CModbus::WriteSingleRegister(uint8_t *, uint8_t *, uint16_t)
           ENTRY                   ADDRESS         REF BY
           =====                   =======         ======
           CModbus::ResponseException(uint8_t, uint8_t, uint8_t, uint8_t *)
                                   000029A8 
               calls indirect
    -------------------------------------------------------------------------
CODE
  Relative segment, address: CODE 000029EE - 00002A5D (0x70 bytes), align: 1
  Segment part 111.           Intra module refs:   CModbus::ReadCoils(uint8_t *, uint8_t *, uint16_t)
                                                   CModbus::ReadDiscreteInputs(uint8_t *, uint8_t *, uint16_t)
           ENTRY                   ADDRESS         REF BY
           =====                   =======         ======
           CModbus::ByteToBitPack(uint16_t, uint16_t, uint8_t *, uint8_t *, uint16_t)
                                   000029EE 
               calls direct
    -------------------------------------------------------------------------
CODE
  Relative segment, address: CODE 00002A5E - 00002B71 (0x114 bytes), align: 1
  Segment part 112.           Intra module refs:   CModbus::Reply(uint8_t *, uint8_t *, uint16_t)
           ENTRY                   ADDRESS         REF BY
           =====                   =======         ======
           CModbus::ReadCoils(uint8_t *, uint8_t *, uint16_t)
                                   00002A5E 
               calls direct and indirect
    -------------------------------------------------------------------------
CODE
  Relative segment, address: CODE 00002B72 - 00002C85 (0x114 bytes), align: 1
  Segment part 113.           Intra module refs:   CModbus::Reply(uint8_t *, uint8_t *, uint16_t)
           ENTRY                   ADDRESS         REF BY
           =====                   =======         ======
           CModbus::ReadDiscreteInputs(uint8_t *, uint8_t *, uint16_t)
                                   00002B72 
               calls direct and indirect
    -------------------------------------------------------------------------
CODE
  Relative segment, address: CODE 00002C86 - 00002DB7 (0x132 bytes), align: 1
  Segment part 114.           Intra module refs:   CModbus::Reply(uint8_t *, uint8_t *, uint16_t)
           ENTRY                   ADDRESS         REF BY
           =====                   =======         ======
           CModbus::ReadHoldingRegisters(uint8_t *, uint8_t *, uint16_t)
                                   00002C86 
               calls direct and indirect
    -------------------------------------------------------------------------
CODE
  Relative segment, address: CODE 00002DB8 - 00002EE9 (0x132 bytes), align: 1
  Segment part 115.           Intra module refs:   CModbus::Reply(uint8_t *, uint8_t *, uint16_t)
           ENTRY                   ADDRESS         REF BY
           =====                   =======         ======
           CModbus::ReadInputRegisters(uint8_t *, uint8_t *, uint16_t)
                                   00002DB8 
               calls direct and indirect
    -------------------------------------------------------------------------
CODE
  Relative segment, address: CODE 00002EEA - 00002FB7 (0xce bytes), align: 1
  Segment part 116.           Intra module refs:   CModbus::Reply(uint8_t *, uint8_t *, uint16_t)
           ENTRY                   ADDRESS         REF BY
           =====                   =======         ======
           CModbus::WriteSingleCoil(uint8_t *, uint8_t *, uint16_t)
                                   00002EEA 
               calls direct and indirect
    -------------------------------------------------------------------------
CODE
  Relative segment, address: CODE 00002FB8 - 00003061 (0xaa bytes), align: 1
  Segment part 117.           Intra module refs:   CModbus::Reply(uint8_t *, uint8_t *, uint16_t)
           ENTRY                   ADDRESS         REF BY
           =====                   =======         ======
           CModbus::WriteSingleRegister(uint8_t *, uint8_t *, uint16_t)
                                   00002FB8 
               calls direct and indirect
    -------------------------------------------------------------------------
CODE
  Relative segment, address: CODE 00003062 - 00003155 (0xf4 bytes), align: 1
  Segment part 118.           Intra module refs:   CModbus::Reply(uint8_t *, uint8_t *, uint16_t)
           ENTRY                   ADDRESS         REF BY
           =====                   =======         ======
           CModbus::WriteMultipleCoils(uint8_t *, uint8_t *, uint16_t)
                                   00003062 
               calls direct and indirect
    -------------------------------------------------------------------------
CODE
  Relative segment, address: CODE 00003156 - 00003281 (0x12c bytes), align: 1
  Segment part 119.           Intra module refs:   CModbus::Reply(uint8_t *, uint8_t *, uint16_t)
           ENTRY                   ADDRESS         REF BY
           =====                   =======         ======
           CModbus::WriteMultipleRegisters(uint8_t *, uint8_t *, uint16_t)
                                   00003156 
               calls direct and indirect
    -------------------------------------------------------------------------
CODE
  Relative segment, address: CODE 00003282 - 00003289 (0x8 bytes), align: 1
  Segment part 120.           Intra module refs:   CModbus::Reply(uint8_t *, uint8_t *, uint16_t)
           ENTRY                   ADDRESS         REF BY
           =====                   =======         ======
           CModbus::ReadExceptionStatus(uint8_t *, uint8_t *, uint16_t)
                                   00003282 
    -------------------------------------------------------------------------
CODE
  Relative segment, address: CODE 0000328A - 00003291 (0x8 bytes), align: 1
  Segment part 121.           Intra module refs:   CModbus::Reply(uint8_t *, uint8_t *, uint16_t)
           ENTRY                   ADDRESS         REF BY
           =====                   =======         ======
           CModbus::WriteAndReadRegisters(uint8_t *, uint8_t *, uint16_t)
                                   0000328A 
    -------------------------------------------------------------------------
CODE
  Relative segment, address: CODE 00003292 - 0000331D (0x8c bytes), align: 1
  Segment part 122.           Intra module refs:   CModbus::Reply(uint8_t *, uint8_t *, uint16_t)
           ENTRY                   ADDRESS         REF BY
           =====                   =======         ======
           CModbus::ReportSlaveID(uint8_t *, uint8_t *, uint16_t)
                                   00003292 
               calls indirect
    -------------------------------------------------------------------------
CODE
  Relative segment, address: CODE 0000331E - 000035D9 (0x2bc bytes), align: 1
  Segment part 123.           Intra module refs:   CModbus::Reply(uint8_t *, uint8_t *, uint16_t)
           ENTRY                   ADDRESS         REF BY
           =====                   =======         ======
           CModbus::Programming(uint8_t *, uint8_t *, uint16_t)
                                   0000331E 
               calls direct and indirect
    -------------------------------------------------------------------------
CODE
  Relative segment, address: CODE 000035DA - 00003665 (0x8c bytes), align: 1
  Segment part 124.           Intra module refs:   CModbus::Reply(uint8_t *, uint8_t *, uint16_t)
           ENTRY                   ADDRESS         REF BY
           =====                   =======         ======
           CModbus::PollProgramming(uint8_t *, uint8_t *, uint16_t)
                                   000035DA 
               calls direct and indirect
    -------------------------------------------------------------------------
CODE
  Relative segment, address: CODE 00003666 - 0000379F (0x13a bytes), align: 1
  Segment part 125.           Intra module refs:   Segment part 134
           ENTRY                   ADDRESS         REF BY
           =====                   =======         ======
           CModbus::Reply(uint8_t *, uint8_t *, uint16_t)
                                   00003666        CModbusRTU::Fsm() (ModbusRTU)
               calls direct and indirect
    -------------------------------------------------------------------------
CODE
  Relative segment, address: CODE 000037A0 - 000037A7 (0x8 bytes), align: 1
  Segment part 132.           Intra module refs:   CModbus::ReceiveMessage(uint8_t *, uint16_t)
           ENTRY                   ADDRESS         REF BY
           =====                   =======         ======
           CModbus::ReadDiscreteInputsReceive(uint8_t *, uint16_t)
                                   000037A0 
    -------------------------------------------------------------------------
CODE
  Relative segment, address: CODE 000037A8 - 00003869 (0xc2 bytes), align: 1
  Segment part 133.
           ENTRY                   ADDRESS         REF BY
           =====                   =======         ======
           CModbus::ReceiveMessage(uint8_t *, uint16_t)
                                   000037A8        CModbusRTU::Fsm() (ModbusRTU)
               calls direct and indirect
    -------------------------------------------------------------------------
CODE
  Relative segment, address: CODE 0000386A - 00003871 (0x8 bytes), align: 1
  Segment part 137.           Intra module refs:   CModbus::__vtbl
           ENTRY                   ADDRESS         REF BY
           =====                   =======         ======
           CModbus::HEADER_LENGTH()
                                   0000386A 
    -------------------------------------------------------------------------
CODE
  Relative segment, address: CODE 00003872 - 00003879 (0x8 bytes), align: 1
  Segment part 138.           Intra module refs:   CModbus::__vtbl
           ENTRY                   ADDRESS         REF BY
           =====                   =======         ======
           CModbus::CRC_LENGTH()   00003872 
    -------------------------------------------------------------------------
SWITCH
  Relative segment, address: CODE 000008A0 - 000008D3 (0x34 bytes), align: 1
  Segment part 134.           Intra module refs:   CModbus::Reply(uint8_t *, uint8_t *, uint16_t)
    -------------------------------------------------------------------------
NEAR_F
  Relative segment, address: CODE 000003FF - 00000410 (0x12 bytes), align: 0
  Segment part 99. ROOT       Intra module refs:   CModbus::CModbus()
           ENTRY                   ADDRESS         REF BY
           =====                   =======         ======
           CModbus::__vtbl         000003FF 
    -------------------------------------------------------------------------
NEAR_F
  Relative segment, address: CODE 00000411 - 00000414 (0x4 bytes), align: 0
  Segment part 100. ROOT 
           LOCAL                   ADDRESS         
           =====                   =======         
           CDriver::__vtbl         00000411 
    -------------------------------------------------------------------------
NEAR_F
  Relative segment, address: CODE 00000415 - 0000041C (0x8 bytes), align: 0
  Segment part 101. ROOT 
           LOCAL                   ADDRESS         
           =====                   =======         
           CTaskInterface::__vtbl
                                   00000415 
    -------------------------------------------------------------------------
NEAR_F
  Relative segment, address: CODE 0000041D - 00000426 (0xa bytes), align: 0
  Segment part 102. ROOT 
           LOCAL                   ADDRESS         
           =====                   =======         
           CIsRegularButtonPressedInterface::__vtbl
                                   0000041D 

    *************************************************************************

  FILE NAME : D:\Projects\CurrentProjects\CautoProjects\PSS48Color\Debug\Obj\ModbusRTU.r90
  PROGRAM MODULE, NAME : ModbusRTU

  SEGMENTS IN THE MODULE
  ======================
CODE
  Relative segment, address: CODE 0000387A - 000038DB (0x62 bytes), align: 1
  Segment part 102.
           ENTRY                   ADDRESS         REF BY
           =====                   =======         ======
           CModbusRTU::CModbusRTU()
                                   0000387A        __sti__routine() (Pss21)
               calls direct
    -------------------------------------------------------------------------
NEAR_F
  Relative segment, address: CODE 00000427 - 00000436 (0x10 bytes), align: 0
  Segment part 99. ROOT       Intra module refs:   CModbusRTU::CModbusRTU()
           ENTRY                   ADDRESS         REF BY
           =====                   =======         ======
           CModbusRTU::__vtbl      00000427 
    -------------------------------------------------------------------------
NEAR_F
  Relative segment, address: CODE 00000437 - 00000448 (0x12 bytes), align: 0
  Segment part 100. ROOT      Intra module refs:   CModbusRTU::CModbusRTU()::__vtbltbl
           ENTRY                   ADDRESS         REF BY
           =====                   =======         ======
           CModbusRTU::__vtbl_CModbus
                                   00000437 
    -------------------------------------------------------------------------
NEAR_F
  Relative segment, address: CODE 00000449 - 0000044A (0x2 bytes), align: 0
  Segment part 101. ROOT      Intra module refs:   CModbusRTU::CModbusRTU()
           LOCAL                   ADDRESS         
           =====                   =======         
           CModbusRTU::CModbusRTU()::__vtbltbl
                                   00000449 
    -------------------------------------------------------------------------
CODE
  Relative segment, address: CODE 000038DC - 0000390D (0x32 bytes), align: 1
  Segment part 104.           Intra module refs:   CModbusRTU::__vtbl
                                                   CModbusRTU::~CModbusRTU for CDfaLite/-15/()
           ENTRY                   ADDRESS         REF BY
           =====                   =======         ======
           CModbusRTU::~CModbusRTU()
                                   000038DC        <Unnamed 1> (Pss21)
               calls direct
    -------------------------------------------------------------------------
CODE
  Relative segment, address: CODE 0000390E - 00003913 (0x6 bytes), align: 1
  Segment part 105.           Intra module refs:   CModbusRTU::__vtbl_CModbus
           ENTRY                   ADDRESS         REF BY
           =====                   =======         ======
           CModbusRTU::~CModbusRTU for CDfaLite/-15/()
                                   0000390E 
               calls direct
    -------------------------------------------------------------------------
CODE
  Relative segment, address: CODE 00003914 - 00003AE3 (0x1d0 bytes), align: 1
  Segment part 106.
           ENTRY                   ADDRESS         REF BY
           =====                   =======         ======
           CModbusRTU::Init(CUart *, uint32_t, char, uint8_t, uint8_t, uint8_t *, uint8_t *, uint8_t *, uint8_t *, uint16_t *, uint16_t *, uint16_t, uint16_t, uint16_t, uint16_t)
                                   00003914        CPss21::ModbusInit() (Pss21)
               calls direct
    -------------------------------------------------------------------------
CODE
  Relative segment, address: CODE 00003AE4 - 00003AF9 (0x16 bytes), align: 1
  Segment part 107.           Intra module refs:   CModbusRTU::Fsm()
           ENTRY                   ADDRESS         REF BY
           =====                   =======         ======
           CModbusRTU::Reset()     00003AE4 
               calls direct
    -------------------------------------------------------------------------
CODE
  Relative segment, address: CODE 00003AFA - 00003B0F (0x16 bytes), align: 1
  Segment part 110.           Intra module refs:   CModbusRTU::Fsm()
           ENTRY                   ADDRESS         REF BY
           =====                   =======         ======
           CModbusRTU::ReceiveEnable()
                                   00003AFA 
               calls direct
    -------------------------------------------------------------------------
CODE
  Relative segment, address: CODE 00003B10 - 00003B25 (0x16 bytes), align: 1
  Segment part 111.           Intra module refs:   CModbusRTU::Fsm()
           ENTRY                   ADDRESS         REF BY
           =====                   =======         ======
           CModbusRTU::ReceiveDisable()
                                   00003B10 
               calls direct
    -------------------------------------------------------------------------
CODE
  Relative segment, address: CODE 00003B26 - 00003B3B (0x16 bytes), align: 1
  Segment part 112.           Intra module refs:   CModbusRTU::Fsm()
           ENTRY                   ADDRESS         REF BY
           =====                   =======         ======
           CModbusRTU::TransmitEnable()
                                   00003B26 
               calls direct
    -------------------------------------------------------------------------
CODE
  Relative segment, address: CODE 00003B3C - 00003B51 (0x16 bytes), align: 1
  Segment part 113.           Intra module refs:   CModbusRTU::Fsm()
           ENTRY                   ADDRESS         REF BY
           =====                   =======         ======
           CModbusRTU::TransmitDisable()
                                   00003B3C 
               calls direct
    -------------------------------------------------------------------------
CODE
  Relative segment, address: CODE 00003B52 - 00003B89 (0x38 bytes), align: 1
  Segment part 114.           Intra module refs:   CModbusRTU::Tail for CModbus/-15/(uint8_t *, uint16_t)
                                                   CModbusRTU::__vtbl
           ENTRY                   ADDRESS         REF BY
           =====                   =======         ======
           CModbusRTU::Tail(uint8_t *, uint16_t)
                                   00003B52 
               calls direct
    -------------------------------------------------------------------------
CODE
  Relative segment, address: CODE 00003B8A - 00003B8F (0x6 bytes), align: 1
  Segment part 115.           Intra module refs:   CModbusRTU::__vtbl_CModbus
           ENTRY                   ADDRESS         REF BY
           =====                   =======         ======
           CModbusRTU::Tail for CModbus/-15/(uint8_t *, uint16_t)
                                   00003B8A 
               calls direct
    -------------------------------------------------------------------------
CODE
  Relative segment, address: CODE 00003B90 - 00003BBD (0x2e bytes), align: 1
  Segment part 116.           Intra module refs:   CModbusRTU::RequestBasis for CModbus/-15/(uint8_t, uint8_t, uint16_t, uint16_t, uint8_t *)
                                                   CModbusRTU::__vtbl
           ENTRY                   ADDRESS         REF BY
           =====                   =======         ======
           CModbusRTU::RequestBasis(uint8_t, uint8_t, uint16_t, uint16_t, uint8_t *)
                                   00003B90 
    -------------------------------------------------------------------------
CODE
  Relative segment, address: CODE 00003BBE - 00003BC3 (0x6 bytes), align: 1
  Segment part 117.           Intra module refs:   CModbusRTU::__vtbl_CModbus
           ENTRY                   ADDRESS         REF BY
           =====                   =======         ======
           CModbusRTU::RequestBasis for CModbus/-15/(uint8_t, uint8_t, uint16_t, uint16_t, uint8_t *)
                                   00003BBE 
               calls direct
    -------------------------------------------------------------------------
CODE
  Relative segment, address: CODE 00003BC4 - 00003BD3 (0x10 bytes), align: 1
  Segment part 118.           Intra module refs:   CModbusRTU::ResponseBasis for CModbus/-15/(uint8_t, uint8_t, uint8_t *)
                                                   CModbusRTU::__vtbl
           ENTRY                   ADDRESS         REF BY
           =====                   =======         ======
           CModbusRTU::ResponseBasis(uint8_t, uint8_t, uint8_t *)
                                   00003BC4 
    -------------------------------------------------------------------------
CODE
  Relative segment, address: CODE 00003BD4 - 00003BD9 (0x6 bytes), align: 1
  Segment part 119.           Intra module refs:   CModbusRTU::__vtbl_CModbus
           ENTRY                   ADDRESS         REF BY
           =====                   =======         ======
           CModbusRTU::ResponseBasis for CModbus/-15/(uint8_t, uint8_t, uint8_t *)
                                   00003BD4 
               calls direct
    -------------------------------------------------------------------------
CODE
  Relative segment, address: CODE 00003BDA - 00003BF7 (0x1e bytes), align: 1
  Segment part 120.           Intra module refs:   CModbusRTU::Send for CModbus/-15/(uint8_t *, uint16_t)
                                                   CModbusRTU::__vtbl
           ENTRY                   ADDRESS         REF BY
           =====                   =======         ======
           CModbusRTU::Send(uint8_t *, uint16_t)
                                   00003BDA 
               calls direct
    -------------------------------------------------------------------------
CODE
  Relative segment, address: CODE 00003BF8 - 00003BFD (0x6 bytes), align: 1
  Segment part 121.           Intra module refs:   CModbusRTU::__vtbl_CModbus
           ENTRY                   ADDRESS         REF BY
           =====                   =======         ======
           CModbusRTU::Send for CModbus/-15/(uint8_t *, uint16_t)
                                   00003BF8 
               calls direct
    -------------------------------------------------------------------------
CODE
  Relative segment, address: CODE 00003BFE - 00003C13 (0x16 bytes), align: 1
  Segment part 122.           Intra module refs:   CModbusRTU::Fsm()
           ENTRY                   ADDRESS         REF BY
           =====                   =======         ======
           CModbusRTU::MessageIsSended()
                                   00003BFE 
               calls direct
    -------------------------------------------------------------------------
CODE
  Relative segment, address: CODE 00003C14 - 00003C29 (0x16 bytes), align: 1
  Segment part 123.           Intra module refs:   CModbusRTU::Fsm()
           ENTRY                   ADDRESS         REF BY
           =====                   =======         ======
           CModbusRTU::Select()    00003C14 
               calls direct
    -------------------------------------------------------------------------
CODE
  Relative segment, address: CODE 00003C2A - 00003C47 (0x1e bytes), align: 1
  Segment part 124.           Intra module refs:   CModbusRTU::Fsm()
           ENTRY                   ADDRESS         REF BY
           =====                   =======         ======
           CModbusRTU::Receive(uint8_t *, uint16_t)
                                   00003C2A 
               calls direct
    -------------------------------------------------------------------------
CODE
  Relative segment, address: CODE 00003C48 - 00003C75 (0x2e bytes), align: 1
  Segment part 129.           Intra module refs:   CModbusRTU::Fsm()
           ENTRY                   ADDRESS         REF BY
           =====                   =======         ======
           CModbusRTU::TimeIsOver(uint16_t)
                                   00003C48 
               calls direct
    -------------------------------------------------------------------------
CODE
  Relative segment, address: CODE 00003C76 - 00003C91 (0x1c bytes), align: 1
  Segment part 131.           Intra module refs:   CModbusRTU::Fsm()
           ENTRY                   ADDRESS         REF BY
           =====                   =======         ======
           CModbusRTU::GetSystemTime()
                                   00003C76 
               calls direct
    -------------------------------------------------------------------------
CODE
  Relative segment, address: CODE 00003C92 - 00003CEF (0x5e bytes), align: 1
  Segment part 133.           Intra module refs:   CModbusRTU::Fsm()
           ENTRY                   ADDRESS         REF BY
           =====                   =======         ======
           CModbusRTU::FrameCheck(uint8_t *, uint16_t)
                                   00003C92 
               calls direct
    -------------------------------------------------------------------------
CODE
  Relative segment, address: CODE 00003CF0 - 000041D9 (0x4ea bytes), align: 1
  Segment part 134.           Intra module refs:   CModbusRTU::Fsm for CDfaLite/-15/()
                                                   CModbusRTU::__vtbl
                                                   Segment part 136
           ENTRY                   ADDRESS         REF BY
           =====                   =======         ======
           CModbusRTU::Fsm()       00003CF0        CPss21::ErrorMainCycle() (Pss21)
                                                   CPss21::LinkControlErrorMainCycle() (Pss21)
                                                   CPss21::MainFsm() (Pss21)
                                                   CPss21::NotifyersControlProcessing() (Pss21)
                                                   CPss21::TestMainCycle() (Pss21)
               calls direct
    -------------------------------------------------------------------------
CODE
  Relative segment, address: CODE 000041DA - 000041DF (0x6 bytes), align: 1
  Segment part 135.           Intra module refs:   CModbusRTU::__vtbl_CModbus
           ENTRY                   ADDRESS         REF BY
           =====                   =======         ======
           CModbusRTU::Fsm for CDfaLite/-15/()
                                   000041DA 
               calls direct
    -------------------------------------------------------------------------
CODE
  Relative segment, address: CODE 000041E0 - 000041E7 (0x8 bytes), align: 1
  Segment part 137.           Intra module refs:   CModbusRTU::HEADER_LENGTH for CModbus/-15/()
                                                   CModbusRTU::__vtbl
           ENTRY                   ADDRESS         REF BY
           =====                   =======         ======
           CModbusRTU::HEADER_LENGTH()
                                   000041E0 
    -------------------------------------------------------------------------
CODE
  Relative segment, address: CODE 000041E8 - 000041EF (0x8 bytes), align: 1
  Segment part 138.           Intra module refs:   CModbusRTU::__vtbl_CModbus
           ENTRY                   ADDRESS         REF BY
           =====                   =======         ======
           CModbusRTU::HEADER_LENGTH for CModbus/-15/()
                                   000041E8 
               calls direct
    -------------------------------------------------------------------------
CODE
  Relative segment, address: CODE 000041F0 - 000041F7 (0x8 bytes), align: 1
  Segment part 139.           Intra module refs:   CModbusRTU::CRC_LENGTH for CModbus/-15/()
                                                   CModbusRTU::__vtbl
           ENTRY                   ADDRESS         REF BY
           =====                   =======         ======
           CModbusRTU::CRC_LENGTH()
                                   000041F0 
    -------------------------------------------------------------------------
CODE
  Relative segment, address: CODE 000041F8 - 000041FF (0x8 bytes), align: 1
  Segment part 140.           Intra module refs:   CModbusRTU::__vtbl_CModbus
           ENTRY                   ADDRESS         REF BY
           =====                   =======         ======
           CModbusRTU::CRC_LENGTH for CModbus/-15/()
                                   000041F8 
               calls direct
    -------------------------------------------------------------------------
CODE
  Relative segment, address: CODE 00004200 - 00004205 (0x6 bytes), align: 1
  Segment part 141.           Intra module refs:   CModbusRTU::Select()
           ENTRY                   ADDRESS         REF BY
           =====                   =======         ======
           CUart::ByteIsReceived()
                                   00004200 
    -------------------------------------------------------------------------
CODE
  Relative segment, address: CODE 00004206 - 0000420B (0x6 bytes), align: 1
  Segment part 142.           Intra module refs:   CModbusRTU::MessageIsSended()
           ENTRY                   ADDRESS         REF BY
           =====                   =======         ======
           CUart::FrameIsSended()
                                   00004206 
    -------------------------------------------------------------------------
CODE
  Relative segment, address: CODE 0000420C - 00004215 (0xa bytes), align: 1
  Segment part 144.           Intra module refs:   CModbusRTU::GetSystemTime()
                                                   CModbusRTU::TimeIsOver(uint16_t)
                                                   CTimer::CTimer(uint16_t) (Timer)
                                                   CTimer::IsOverflow() (Timer)
                                                   CTimer::Reset() (Timer)
                                                   CTimer::Set(uint16_t) (Timer)
           ENTRY                   ADDRESS         REF BY
           =====                   =======         ======
           CPlatform::GetSystemTick()
                                   0000420C 
    -------------------------------------------------------------------------
CODE
  Relative segment, address: CODE 00004216 - 00004219 (0x4 bytes), align: 1
  Segment part 145.           Intra module refs:   CModbusRTU::Fsm()
           ENTRY                   ADDRESS         REF BY
           =====                   =======         ======
           CPlatform::TxLedOn()    00004216 
    -------------------------------------------------------------------------
CODE
  Relative segment, address: CODE 0000421A - 0000421D (0x4 bytes), align: 1
  Segment part 146.           Intra module refs:   CModbusRTU::Fsm()
                                                   CPlatform::Init() (Platform)
           ENTRY                   ADDRESS         REF BY
           =====                   =======         ======
           CPlatform::TxLedOff()   0000421A 
    -------------------------------------------------------------------------
SWITCH
  Relative segment, address: CODE 000008D4 - 00000901 (0x2e bytes), align: 1
  Segment part 136.           Intra module refs:   CModbusRTU::Fsm()

    *************************************************************************

  FILE NAME : D:\Projects\CurrentProjects\CautoProjects\PSS48Color\Debug\Obj\ModuleMrXX.r90
  PROGRAM MODULE, NAME : ModuleMrXX

  SEGMENTS IN THE MODULE
  ======================
CODE
  Relative segment, address: CODE 0000421E - 00004259 (0x3c bytes), align: 1
  Segment part 105.
           ENTRY                   ADDRESS         REF BY
           =====                   =======         ======
           CModuleMrXXDriver::CModuleMrXXDriver(uint8_t)
                                   0000421E        CPss21::CreateDevices() (Pss21)
               calls direct
    -------------------------------------------------------------------------
CODE
  Relative segment, address: CODE 0000425A - 00004285 (0x2c bytes), align: 1
  Segment part 109.           Intra module refs:   CModuleMrXXDriver::__vtbl
                                                   CModuleMrXXDriver::~CModuleMrXXDriver for CDfaLite/-11/()
           ENTRY                   ADDRESS         REF BY
           =====                   =======         ======
           CModuleMrXXDriver::~CModuleMrXXDriver()
                                   0000425A 
               calls direct
    -------------------------------------------------------------------------
CODE
  Relative segment, address: CODE 00004286 - 0000428B (0x6 bytes), align: 1
  Segment part 110.           Intra module refs:   CModuleMrXXDriver::__vtbl_CDfa
           ENTRY                   ADDRESS         REF BY
           =====                   =======         ======
           CModuleMrXXDriver::~CModuleMrXXDriver for CDfaLite/-11/()
                                   00004286 
               calls direct
    -------------------------------------------------------------------------
CODE
  Relative segment, address: CODE 0000428C - 00004341 (0xb6 bytes), align: 1
  Segment part 111.           Intra module refs:   CModuleMrXXDriver::__vtbl
           ENTRY                   ADDRESS         REF BY
           =====                   =======         ======
           CModuleMrXXDriver::Allocate(TMemoryAllocationConext &)
                                   0000428C 
               calls direct
    -------------------------------------------------------------------------
CODE
  Relative segment, address: CODE 00004342 - 00004403 (0xc2 bytes), align: 1
  Segment part 112.           Intra module refs:   CModuleMrXXDriver::DataExchange()
           ENTRY                   ADDRESS         REF BY
           =====                   =======         ======
           CModuleMrXXDriver::WriteDataBase()
                                   00004342 
               calls direct
    -------------------------------------------------------------------------
CODE
  Relative segment, address: CODE 00004404 - 000046CD (0x2ca bytes), align: 1
  Segment part 113.           Intra module refs:   CModuleMrXXDriver::DataExchange()
           ENTRY                   ADDRESS         REF BY
           =====                   =======         ======
           CModuleMrXXDriver::Exchange()
                                   00004404 
               calls direct
    -------------------------------------------------------------------------
CODE
  Relative segment, address: CODE 000046CE - 00004709 (0x3c bytes), align: 1
  Segment part 114.           Intra module refs:   CModuleMrXXDriver::__vtbl
           ENTRY                   ADDRESS         REF BY
           =====                   =======         ======
           CModuleMrXXDriver::DataExchange()
                                   000046CE 
               calls direct
    -------------------------------------------------------------------------
CODE
  Relative segment, address: CODE 0000470A - 00004717 (0xe bytes), align: 1
  Segment part 115.           Intra module refs:   CModuleMrXXDriver::Exchange()
                                                   CMvsn21Driver::DataExchange() (Mvsn21)
           ENTRY                   ADDRESS         REF BY
           =====                   =======         ======
           CDriver::SetErrorAlarmData(uint8_t)
                                   0000470A 
    -------------------------------------------------------------------------
NEAR_F
  Relative segment, address: CODE 0000044B - 0000044E (0x4 bytes), align: 0
  Segment part 99. ROOT 
           LOCAL                   ADDRESS         
           =====                   =======         
           CDriver::__vtbl         0000044B 
    -------------------------------------------------------------------------
NEAR_F
  Relative segment, address: CODE 0000044F - 00000456 (0x8 bytes), align: 0
  Segment part 100. ROOT 
           LOCAL                   ADDRESS         
           =====                   =======         
           CTaskInterface::__vtbl
                                   0000044F 
    -------------------------------------------------------------------------
NEAR_F
  Relative segment, address: CODE 00000457 - 00000460 (0xa bytes), align: 0
  Segment part 101. ROOT 
           LOCAL                   ADDRESS         
           =====                   =======         
           CIsRegularButtonPressedInterface::__vtbl
                                   00000457 
    -------------------------------------------------------------------------
NEAR_F
  Relative segment, address: CODE 00000461 - 00000466 (0x6 bytes), align: 0
  Segment part 102. ROOT      Intra module refs:   CModuleMrXXDriver::CModuleMrXXDriver(uint8_t)
           ENTRY                   ADDRESS         REF BY
           =====                   =======         ======
           CModuleMrXXDriver::__vtbl
                                   00000461 
    -------------------------------------------------------------------------
NEAR_F
  Relative segment, address: CODE 00000467 - 0000046A (0x4 bytes), align: 0
  Segment part 103. ROOT      Intra module refs:   CModuleMrXXDriver::CModuleMrXXDriver(uint8_t)
           ENTRY                   ADDRESS         REF BY
           =====                   =======         ======
           CModuleMrXXDriver::__vtbl_CDfa
                                   00000467 

    *************************************************************************

  FILE NAME : D:\Projects\CurrentProjects\CautoProjects\PSS48Color\Debug\Obj\Mvsn21.r90
  PROGRAM MODULE, NAME : Mvsn21

  SEGMENTS IN THE MODULE
  ======================
CODE
  Relative segment, address: CODE 00004718 - 00004747 (0x30 bytes), align: 1
  Segment part 104.
           ENTRY                   ADDRESS         REF BY
           =====                   =======         ======
           CMvsn21Driver::CMvsn21Driver(uint8_t)
                                   00004718        CPss21::CreateDevices() (Pss21)
               calls direct
    -------------------------------------------------------------------------
CODE
  Relative segment, address: CODE 00004748 - 00004773 (0x2c bytes), align: 1
  Segment part 106.           Intra module refs:   CMvsn21Driver::__vtbl
                                                   CMvsn21Driver::~CMvsn21Driver for CDfaLite/-11/()
           ENTRY                   ADDRESS         REF BY
           =====                   =======         ======
           CMvsn21Driver::~CMvsn21Driver()
                                   00004748 
               calls direct
    -------------------------------------------------------------------------
CODE
  Relative segment, address: CODE 00004774 - 00004779 (0x6 bytes), align: 1
  Segment part 107.           Intra module refs:   CMvsn21Driver::__vtbl_CDfa
           ENTRY                   ADDRESS         REF BY
           =====                   =======         ======
           CMvsn21Driver::~CMvsn21Driver for CDfaLite/-11/()
                                   00004774 
               calls direct
    -------------------------------------------------------------------------
CODE
  Relative segment, address: CODE 0000477A - 000047DD (0x64 bytes), align: 1
  Segment part 108.           Intra module refs:   CMvsn21Driver::__vtbl
           ENTRY                   ADDRESS         REF BY
           =====                   =======         ======
           CMvsn21Driver::Allocate(TMemoryAllocationConext &)
                                   0000477A 
    -------------------------------------------------------------------------
CODE
  Relative segment, address: CODE 000047DE - 000048DD (0x100 bytes), align: 1
  Segment part 109.           Intra module refs:   CMvsn21Driver::__vtbl
           ENTRY                   ADDRESS         REF BY
           =====                   =======         ======
           CMvsn21Driver::DataExchange()
                                   000047DE 
               calls direct
    -------------------------------------------------------------------------
NEAR_F
  Relative segment, address: CODE 0000046B - 0000046E (0x4 bytes), align: 0
  Segment part 99. ROOT 
           LOCAL                   ADDRESS         
           =====                   =======         
           CDriver::__vtbl         0000046B 
    -------------------------------------------------------------------------
NEAR_F
  Relative segment, address: CODE 0000046F - 00000476 (0x8 bytes), align: 0
  Segment part 100. ROOT 
           LOCAL                   ADDRESS         
           =====                   =======         
           CTaskInterface::__vtbl
                                   0000046F 
    -------------------------------------------------------------------------
NEAR_F
  Relative segment, address: CODE 00000477 - 00000480 (0xa bytes), align: 0
  Segment part 101. ROOT 
           LOCAL                   ADDRESS         
           =====                   =======         
           CIsRegularButtonPressedInterface::__vtbl
                                   00000477 
    -------------------------------------------------------------------------
NEAR_F
  Relative segment, address: CODE 00000481 - 00000486 (0x6 bytes), align: 0
  Segment part 102. ROOT      Intra module refs:   CMvsn21Driver::CMvsn21Driver(uint8_t)
           ENTRY                   ADDRESS         REF BY
           =====                   =======         ======
           CMvsn21Driver::__vtbl   00000481 
    -------------------------------------------------------------------------
NEAR_F
  Relative segment, address: CODE 00000487 - 0000048A (0x4 bytes), align: 0
  Segment part 103. ROOT      Intra module refs:   CMvsn21Driver::CMvsn21Driver(uint8_t)
           ENTRY                   ADDRESS         REF BY
           =====                   =======         ======
           CMvsn21Driver::__vtbl_CDfa
                                   00000487 

    *************************************************************************

  FILE NAME : D:\Projects\CurrentProjects\CautoProjects\PSS48Color\Debug\Obj\NotifyerControl.r90
  PROGRAM MODULE, NAME : NotifyerControl

  SEGMENTS IN THE MODULE
  ======================
CODE
  Relative segment, address: CODE 000048DE - 000048E3 (0x6 bytes), align: 1
  Segment part 108.           Intra module refs:   CBuzzerNotifyerControl::AlarmSet(uint8_t)
                                                   CBuzzerNotifyerControl::CBuzzerNotifyerControl()
                                                   CEmergencyAlarmWindowNotifyerControl::AlarmSet(uint8_t)
                                                   CEmergencyAlarmWindowNotifyerControl::CEmergencyAlarmWindowNotifyerControl()
                                                   CNotifyerControl::CNotifyerControl()
                                                   CPreventiveAlarmWindowNotifyerControl::AlarmSet(uint8_t)
                                                   CPreventiveAlarmWindowNotifyerControl::CPreventiveAlarmWindowNotifyerControl()
                                                   CStatusLedNotifyerControl::AlarmSet(uint8_t)
                                                   CStatusLedNotifyerControl::CStatusLedNotifyerControl()
                                                   CTestModeNotifyerControl::CTestModeNotifyerControl()
           ENTRY                   ADDRESS         REF BY
           =====                   =======         ======
           CDfa::SetSavedFsmState(uint8_t)
                                   000048DE 
    -------------------------------------------------------------------------
CODE
  Relative segment, address: CODE 000048E4 - 0000491B (0x38 bytes), align: 1
  Segment part 110.           Intra module refs:   CBuzzerNotifyerControl::CBuzzerNotifyerControl()
                                                   CEmergencyAlarmWindowNotifyerControl::CEmergencyAlarmWindowNotifyerControl()
                                                   CPreventiveAlarmWindowNotifyerControl::CPreventiveAlarmWindowNotifyerControl()
                                                   CStatusLedNotifyerControl::CStatusLedNotifyerControl()
                                                   CTestModeNotifyerControl::CTestModeNotifyerControl()
           ENTRY                   ADDRESS         REF BY
           =====                   =======         ======
           CNotifyerControl::CNotifyerControl()
                                   000048E4 
               calls direct
    -------------------------------------------------------------------------
CODE
  Relative segment, address: CODE 0000491C - 00004947 (0x2c bytes), align: 1
  Segment part 112.
           ENTRY                   ADDRESS         REF BY
           =====                   =======         ======
           CPreventiveAlarmWindowNotifyerControl::CPreventiveAlarmWindowNotifyerControl()
                                   0000491C        __sti__routine() (Pss21)
               calls direct
    -------------------------------------------------------------------------
CODE
  Relative segment, address: CODE 00004948 - 00004973 (0x2c bytes), align: 1
  Segment part 114.
           ENTRY                   ADDRESS         REF BY
           =====                   =======         ======
           CEmergencyAlarmWindowNotifyerControl::CEmergencyAlarmWindowNotifyerControl()
                                   00004948        __sti__routine() (Pss21)
               calls direct
    -------------------------------------------------------------------------
CODE
  Relative segment, address: CODE 00004974 - 0000499F (0x2c bytes), align: 1
  Segment part 116.
           ENTRY                   ADDRESS         REF BY
           =====                   =======         ======
           CStatusLedNotifyerControl::CStatusLedNotifyerControl()
                                   00004974        __sti__routine() (Pss21)
               calls direct
    -------------------------------------------------------------------------
CODE
  Relative segment, address: CODE 000049A0 - 000049CB (0x2c bytes), align: 1
  Segment part 118.
           ENTRY                   ADDRESS         REF BY
           =====                   =======         ======
           CBuzzerNotifyerControl::CBuzzerNotifyerControl()
                                   000049A0        __sti__routine() (Pss21)
               calls direct
    -------------------------------------------------------------------------
CODE
  Relative segment, address: CODE 000049CC - 000049F7 (0x2c bytes), align: 1
  Segment part 120.
           ENTRY                   ADDRESS         REF BY
           =====                   =======         ======
           CTestModeNotifyerControl::CTestModeNotifyerControl()
                                   000049CC        __sti__routine() (Pss21)
               calls direct
    -------------------------------------------------------------------------
CODE
  Relative segment, address: CODE 000049F8 - 00004A37 (0x40 bytes), align: 1
  Segment part 122.           Intra module refs:   CBuzzerNotifyerControl::~CBuzzerNotifyerControl()
                                                   CEmergencyAlarmWindowNotifyerControl::~CEmergencyAlarmWindowNotifyerControl()
                                                   CNotifyerControl::__vtbl
                                                   CPreventiveAlarmWindowNotifyerControl::~CPreventiveAlarmWindowNotifyerControl()
                                                   CStatusLedNotifyerControl::~CStatusLedNotifyerControl()
                                                   CTestModeNotifyerControl::~CTestModeNotifyerControl()
           ENTRY                   ADDRESS         REF BY
           =====                   =======         ======
           CNotifyerControl::~CNotifyerControl()
                                   000049F8 
               calls direct
    -------------------------------------------------------------------------
CODE
  Relative segment, address: CODE 00004A38 - 00004F6B (0x534 bytes), align: 1
  Segment part 123.           Intra module refs:   CBuzzerNotifyerControl::__vtbl
                                                   CEmergencyAlarmWindowNotifyerControl::__vtbl
                                                   CNotifyerControl::__vtbl
                                                   CPreventiveAlarmWindowNotifyerControl::__vtbl
                                                   CStatusLedNotifyerControl::__vtbl
                                                   Segment part 160
           ENTRY                   ADDRESS         REF BY
           =====                   =======         ======
           CNotifyerControl::Fsm()
                                   00004A38        CPss21::NotifyersControlProcessing() (Pss21)
               calls direct and indirect
    -------------------------------------------------------------------------
CODE
  Relative segment, address: CODE 00004F6C - 00004F99 (0x2e bytes), align: 1
  Segment part 124.           Intra module refs:   CPreventiveAlarmWindowNotifyerControl::__vtbl
           ENTRY                   ADDRESS         REF BY
           =====                   =======         ======
           CPreventiveAlarmWindowNotifyerControl::~CPreventiveAlarmWindowNotifyerControl()
                                   00004F6C        <Unnamed 5> (Pss21)
               calls direct
    -------------------------------------------------------------------------
CODE
  Relative segment, address: CODE 00004F9A - 00004FE9 (0x50 bytes), align: 1
  Segment part 125.           Intra module refs:   CPreventiveAlarmWindowNotifyerControl::__vtbl
                                                   Segment part 161
           ENTRY                   ADDRESS         REF BY
           =====                   =======         ======
           CPreventiveAlarmWindowNotifyerControl::AlarmSet(uint8_t)
                                   00004F9A        CPss21::AlarmTypeErrorChange() (Pss21)
                                                   CPss21::AlarmTypeSet(uint8_t) (Pss21)
                                                   CPss21::MainFsm() (Pss21)
               calls direct
    -------------------------------------------------------------------------
CODE
  Relative segment, address: CODE 00004FEA - 00004FEB (0x2 bytes), align: 1
  Segment part 126.           Intra module refs:   CPreventiveAlarmWindowNotifyerControl::__vtbl
           ENTRY                   ADDRESS         REF BY
           =====                   =======         ======
           CPreventiveAlarmWindowNotifyerControl::NotifyerNormalOn()
                                   00004FEA 
    -------------------------------------------------------------------------
CODE
  Relative segment, address: CODE 00004FEC - 00004FFD (0x12 bytes), align: 1
  Segment part 127.           Intra module refs:   CPreventiveAlarmWindowNotifyerControl::__vtbl
           ENTRY                   ADDRESS         REF BY
           =====                   =======         ======
           CPreventiveAlarmWindowNotifyerControl::NotifyerIndicationOn()
                                   00004FEC 
               calls direct
    -------------------------------------------------------------------------
CODE
  Relative segment, address: CODE 00004FFE - 0000500F (0x12 bytes), align: 1
  Segment part 128.           Intra module refs:   CPreventiveAlarmWindowNotifyerControl::__vtbl
           ENTRY                   ADDRESS         REF BY
           =====                   =======         ======
           CPreventiveAlarmWindowNotifyerControl::NotifyerPreventiveOn()
                                   00004FFE 
               calls direct
    -------------------------------------------------------------------------
CODE
  Relative segment, address: CODE 00005010 - 00005011 (0x2 bytes), align: 1
  Segment part 129.           Intra module refs:   CPreventiveAlarmWindowNotifyerControl::__vtbl
           ENTRY                   ADDRESS         REF BY
           =====                   =======         ======
           CPreventiveAlarmWindowNotifyerControl::NotifyerEmergencyOn()
                                   00005010 
    -------------------------------------------------------------------------
CODE
  Relative segment, address: CODE 00005012 - 00005027 (0x16 bytes), align: 1
  Segment part 130.           Intra module refs:   CPreventiveAlarmWindowNotifyerControl::__vtbl
           ENTRY                   ADDRESS         REF BY
           =====                   =======         ======
           CPreventiveAlarmWindowNotifyerControl::NotifyerOff()
                                   00005012 
               calls direct
    -------------------------------------------------------------------------
CODE
  Relative segment, address: CODE 00005028 - 00005055 (0x2e bytes), align: 1
  Segment part 131.           Intra module refs:   CEmergencyAlarmWindowNotifyerControl::__vtbl
           ENTRY                   ADDRESS         REF BY
           =====                   =======         ======
           CEmergencyAlarmWindowNotifyerControl::~CEmergencyAlarmWindowNotifyerControl()
                                   00005028        <Unnamed 6> (Pss21)
               calls direct
    -------------------------------------------------------------------------
CODE
  Relative segment, address: CODE 00005056 - 000050A5 (0x50 bytes), align: 1
  Segment part 132.           Intra module refs:   CEmergencyAlarmWindowNotifyerControl::__vtbl
                                                   Segment part 162
           ENTRY                   ADDRESS         REF BY
           =====                   =======         ======
           CEmergencyAlarmWindowNotifyerControl::AlarmSet(uint8_t)
                                   00005056        CPss21::AlarmTypeErrorChange() (Pss21)
                                                   CPss21::AlarmTypeSet(uint8_t) (Pss21)
                                                   CPss21::MainFsm() (Pss21)
               calls direct
    -------------------------------------------------------------------------
CODE
  Relative segment, address: CODE 000050A6 - 000050A7 (0x2 bytes), align: 1
  Segment part 133.           Intra module refs:   CEmergencyAlarmWindowNotifyerControl::__vtbl
           ENTRY                   ADDRESS         REF BY
           =====                   =======         ======
           CEmergencyAlarmWindowNotifyerControl::NotifyerNormalOn()
                                   000050A6 
    -------------------------------------------------------------------------
CODE
  Relative segment, address: CODE 000050A8 - 000050B9 (0x12 bytes), align: 1
  Segment part 134.           Intra module refs:   CEmergencyAlarmWindowNotifyerControl::__vtbl
           ENTRY                   ADDRESS         REF BY
           =====                   =======         ======
           CEmergencyAlarmWindowNotifyerControl::NotifyerIndicationOn()
                                   000050A8 
               calls direct
    -------------------------------------------------------------------------
CODE
  Relative segment, address: CODE 000050BA - 000050BB (0x2 bytes), align: 1
  Segment part 135.           Intra module refs:   CEmergencyAlarmWindowNotifyerControl::__vtbl
           ENTRY                   ADDRESS         REF BY
           =====                   =======         ======
           CEmergencyAlarmWindowNotifyerControl::NotifyerPreventiveOn()
                                   000050BA 
    -------------------------------------------------------------------------
CODE
  Relative segment, address: CODE 000050BC - 000050CD (0x12 bytes), align: 1
  Segment part 136.           Intra module refs:   CEmergencyAlarmWindowNotifyerControl::__vtbl
           ENTRY                   ADDRESS         REF BY
           =====                   =======         ======
           CEmergencyAlarmWindowNotifyerControl::NotifyerEmergencyOn()
                                   000050BC 
               calls direct
    -------------------------------------------------------------------------
CODE
  Relative segment, address: CODE 000050CE - 000050E3 (0x16 bytes), align: 1
  Segment part 137.           Intra module refs:   CEmergencyAlarmWindowNotifyerControl::__vtbl
           ENTRY                   ADDRESS         REF BY
           =====                   =======         ======
           CEmergencyAlarmWindowNotifyerControl::NotifyerOff()
                                   000050CE 
               calls direct
    -------------------------------------------------------------------------
CODE
  Relative segment, address: CODE 000050E4 - 00005111 (0x2e bytes), align: 1
  Segment part 138.           Intra module refs:   CStatusLedNotifyerControl::__vtbl
           ENTRY                   ADDRESS         REF BY
           =====                   =======         ======
           CStatusLedNotifyerControl::~CStatusLedNotifyerControl()
                                   000050E4        <Unnamed 7> (Pss21)
               calls direct
    -------------------------------------------------------------------------
CODE
  Relative segment, address: CODE 00005112 - 0000516B (0x5a bytes), align: 1
  Segment part 139.           Intra module refs:   CStatusLedNotifyerControl::__vtbl
                                                   Segment part 163
           ENTRY                   ADDRESS         REF BY
           =====                   =======         ======
           CStatusLedNotifyerControl::AlarmSet(uint8_t)
                                   00005112        CPss21::AlarmTypeErrorChange() (Pss21)
                                                   CPss21::AlarmTypeSet(uint8_t) (Pss21)
                                                   CPss21::ErrorMainCycle() (Pss21)
                                                   CPss21::MainFsm() (Pss21)
               calls direct
    -------------------------------------------------------------------------
CODE
  Relative segment, address: CODE 0000516C - 0000517B (0x10 bytes), align: 1
  Segment part 140.           Intra module refs:   CStatusLedNotifyerControl::__vtbl
           ENTRY                   ADDRESS         REF BY
           =====                   =======         ======
           CStatusLedNotifyerControl::NotifyerNormalOn()
                                   0000516C 
               calls direct
    -------------------------------------------------------------------------
CODE
  Relative segment, address: CODE 0000517C - 0000517D (0x2 bytes), align: 1
  Segment part 141.           Intra module refs:   CStatusLedNotifyerControl::__vtbl
           ENTRY                   ADDRESS         REF BY
           =====                   =======         ======
           CStatusLedNotifyerControl::NotifyerIndicationOn()
                                   0000517C 
    -------------------------------------------------------------------------
CODE
  Relative segment, address: CODE 0000517E - 0000518D (0x10 bytes), align: 1
  Segment part 142.           Intra module refs:   CStatusLedNotifyerControl::__vtbl
           ENTRY                   ADDRESS         REF BY
           =====                   =======         ======
           CStatusLedNotifyerControl::NotifyerPreventiveOn()
                                   0000517E 
               calls direct
    -------------------------------------------------------------------------
CODE
  Relative segment, address: CODE 0000518E - 0000519D (0x10 bytes), align: 1
  Segment part 143.           Intra module refs:   CStatusLedNotifyerControl::__vtbl
           ENTRY                   ADDRESS         REF BY
           =====                   =======         ======
           CStatusLedNotifyerControl::NotifyerEmergencyOn()
                                   0000518E 
               calls direct
    -------------------------------------------------------------------------
CODE
  Relative segment, address: CODE 0000519E - 000051B1 (0x14 bytes), align: 1
  Segment part 144.           Intra module refs:   CStatusLedNotifyerControl::__vtbl
           ENTRY                   ADDRESS         REF BY
           =====                   =======         ======
           CStatusLedNotifyerControl::NotifyerOff()
                                   0000519E 
               calls direct
    -------------------------------------------------------------------------
CODE
  Relative segment, address: CODE 000051B2 - 000051DF (0x2e bytes), align: 1
  Segment part 145.           Intra module refs:   CBuzzerNotifyerControl::__vtbl
           ENTRY                   ADDRESS         REF BY
           =====                   =======         ======
           CBuzzerNotifyerControl::~CBuzzerNotifyerControl()
                                   000051B2        <Unnamed 8> (Pss21)
               calls direct
    -------------------------------------------------------------------------
CODE
  Relative segment, address: CODE 000051E0 - 00005243 (0x64 bytes), align: 1
  Segment part 146.           Intra module refs:   CBuzzerNotifyerControl::__vtbl
                                                   Segment part 164
           ENTRY                   ADDRESS         REF BY
           =====                   =======         ======
           CBuzzerNotifyerControl::AlarmSet(uint8_t)
                                   000051E0        CPss21::AlarmTypeErrorChange() (Pss21)
                                                   CPss21::AlarmTypeSet(uint8_t) (Pss21)
                                                   CPss21::ErrorMainCycle() (Pss21)
                                                   CPss21::KeyStateProcessing() (Pss21)
                                                   CPss21::MainFsm() (Pss21)
               calls direct
    -------------------------------------------------------------------------
CODE
  Relative segment, address: CODE 00005244 - 00005253 (0x10 bytes), align: 1
  Segment part 147.           Intra module refs:   CBuzzerNotifyerControl::__vtbl
           ENTRY                   ADDRESS         REF BY
           =====                   =======         ======
           CBuzzerNotifyerControl::NotifyerNormalOn()
                                   00005244 
               calls direct
    -------------------------------------------------------------------------
CODE
  Relative segment, address: CODE 00005254 - 00005263 (0x10 bytes), align: 1
  Segment part 148.           Intra module refs:   CBuzzerNotifyerControl::__vtbl
           ENTRY                   ADDRESS         REF BY
           =====                   =======         ======
           CBuzzerNotifyerControl::NotifyerIndicationOn()
                                   00005254 
               calls direct
    -------------------------------------------------------------------------
CODE
  Relative segment, address: CODE 00005264 - 00005273 (0x10 bytes), align: 1
  Segment part 149.           Intra module refs:   CBuzzerNotifyerControl::__vtbl
           ENTRY                   ADDRESS         REF BY
           =====                   =======         ======
           CBuzzerNotifyerControl::NotifyerPreventiveOn()
                                   00005264 
               calls direct
    -------------------------------------------------------------------------
CODE
  Relative segment, address: CODE 00005274 - 00005283 (0x10 bytes), align: 1
  Segment part 150.           Intra module refs:   CBuzzerNotifyerControl::__vtbl
           ENTRY                   ADDRESS         REF BY
           =====                   =======         ======
           CBuzzerNotifyerControl::NotifyerEmergencyOn()
                                   00005274 
               calls direct
    -------------------------------------------------------------------------
CODE
  Relative segment, address: CODE 00005284 - 00005297 (0x14 bytes), align: 1
  Segment part 151.           Intra module refs:   CBuzzerNotifyerControl::__vtbl
           ENTRY                   ADDRESS         REF BY
           =====                   =======         ======
           CBuzzerNotifyerControl::NotifyerOff()
                                   00005284 
               calls direct
    -------------------------------------------------------------------------
CODE
  Relative segment, address: CODE 00005298 - 000052C5 (0x2e bytes), align: 1
  Segment part 152.           Intra module refs:   CTestModeNotifyerControl::__vtbl
           ENTRY                   ADDRESS         REF BY
           =====                   =======         ======
           CTestModeNotifyerControl::~CTestModeNotifyerControl()
                                   00005298        <Unnamed 9> (Pss21)
               calls direct
    -------------------------------------------------------------------------
CODE
  Relative segment, address: CODE 000052C6 - 000052C7 (0x2 bytes), align: 1
  Segment part 153.           Intra module refs:   CTestModeNotifyerControl::__vtbl
           ENTRY                   ADDRESS         REF BY
           =====                   =======         ======
           CTestModeNotifyerControl::AlarmSet(uint8_t)
                                   000052C6 
    -------------------------------------------------------------------------
CODE
  Relative segment, address: CODE 000052C8 - 000052DD (0x16 bytes), align: 1
  Segment part 154.           Intra module refs:   CTestModeNotifyerControl::__vtbl
           ENTRY                   ADDRESS         REF BY
           =====                   =======         ======
           CTestModeNotifyerControl::NotifyerNormalOn()
                                   000052C8 
               calls direct
    -------------------------------------------------------------------------
CODE
  Relative segment, address: CODE 000052DE - 000052F3 (0x16 bytes), align: 1
  Segment part 155.           Intra module refs:   CTestModeNotifyerControl::__vtbl
           ENTRY                   ADDRESS         REF BY
           =====                   =======         ======
           CTestModeNotifyerControl::NotifyerIndicationOn()
                                   000052DE 
               calls direct
    -------------------------------------------------------------------------
CODE
  Relative segment, address: CODE 000052F4 - 00005309 (0x16 bytes), align: 1
  Segment part 156.           Intra module refs:   CTestModeNotifyerControl::__vtbl
           ENTRY                   ADDRESS         REF BY
           =====                   =======         ======
           CTestModeNotifyerControl::NotifyerPreventiveOn()
                                   000052F4 
               calls direct
    -------------------------------------------------------------------------
CODE
  Relative segment, address: CODE 0000530A - 0000531F (0x16 bytes), align: 1
  Segment part 157.           Intra module refs:   CTestModeNotifyerControl::__vtbl
           ENTRY                   ADDRESS         REF BY
           =====                   =======         ======
           CTestModeNotifyerControl::NotifyerEmergencyOn()
                                   0000530A 
               calls direct
    -------------------------------------------------------------------------
CODE
  Relative segment, address: CODE 00005320 - 00005337 (0x18 bytes), align: 1
  Segment part 158.           Intra module refs:   CTestModeNotifyerControl::__vtbl
           ENTRY                   ADDRESS         REF BY
           =====                   =======         ======
           CTestModeNotifyerControl::NotifyerOff()
                                   00005320 
               calls direct
    -------------------------------------------------------------------------
CODE
  Relative segment, address: CODE 00005338 - 000055A5 (0x26e bytes), align: 1
  Segment part 159.           Intra module refs:   CTestModeNotifyerControl::__vtbl
           ENTRY                   ADDRESS         REF BY
           =====                   =======         ======
           CTestModeNotifyerControl::Fsm()
                                   00005338        CPss21::TestMainCycle() (Pss21)
               calls direct and indirect
    -------------------------------------------------------------------------
CODE
  Relative segment, address: CODE 000055A6 - 000055AB (0x6 bytes), align: 1
  Segment part 166.           Intra module refs:   CNotifyerControl::Fsm()
           ENTRY                   ADDRESS         REF BY
           =====                   =======         ======
           CDfa::GetSavedFsmState()
                                   000055A6 
    -------------------------------------------------------------------------
CODE
  Relative segment, address: CODE 000055AC - 000055B3 (0x8 bytes), align: 1
  Segment part 167.           Intra module refs:   CBuzzerNotifyerControl::__vtbl
                                                   CNotifyerControl::__vtbl
                                                   CStatusLedNotifyerControl::__vtbl
           ENTRY                   ADDRESS         REF BY
           =====                   =======         ======
           CNotifyerControl::NORMAL_SIGNAL_ON_TIME()
                                   000055AC 
    -------------------------------------------------------------------------
CODE
  Relative segment, address: CODE 000055B4 - 000055BB (0x8 bytes), align: 1
  Segment part 168.           Intra module refs:   CBuzzerNotifyerControl::__vtbl
                                                   CNotifyerControl::__vtbl
                                                   CStatusLedNotifyerControl::__vtbl
           ENTRY                   ADDRESS         REF BY
           =====                   =======         ======
           CNotifyerControl::NORMAL_SIGNAL_OFF_TIME()
                                   000055B4 
    -------------------------------------------------------------------------
CODE
  Relative segment, address: CODE 000055BC - 000055C3 (0x8 bytes), align: 1
  Segment part 169.           Intra module refs:   CBuzzerNotifyerControl::__vtbl
                                                   CNotifyerControl::__vtbl
                                                   CStatusLedNotifyerControl::__vtbl
           ENTRY                   ADDRESS         REF BY
           =====                   =======         ======
           CNotifyerControl::WARNING_SIGNAL_ON_TIME()
                                   000055BC 
    -------------------------------------------------------------------------
CODE
  Relative segment, address: CODE 000055C4 - 000055CB (0x8 bytes), align: 1
  Segment part 170.           Intra module refs:   CBuzzerNotifyerControl::__vtbl
                                                   CNotifyerControl::__vtbl
                                                   CStatusLedNotifyerControl::__vtbl
           ENTRY                   ADDRESS         REF BY
           =====                   =======         ======
           CNotifyerControl::WARNING_SIGNAL_OFF_TIME()
                                   000055C4 
    -------------------------------------------------------------------------
CODE
  Relative segment, address: CODE 000055CC - 000055D3 (0x8 bytes), align: 1
  Segment part 171.           Intra module refs:   CBuzzerNotifyerControl::__vtbl
                                                   CNotifyerControl::__vtbl
                                                   CStatusLedNotifyerControl::__vtbl
           ENTRY                   ADDRESS         REF BY
           =====                   =======         ======
           CNotifyerControl::ALARM_SIGNAL_ON_TIME()
                                   000055CC 
    -------------------------------------------------------------------------
CODE
  Relative segment, address: CODE 000055D4 - 000055DB (0x8 bytes), align: 1
  Segment part 172.           Intra module refs:   CBuzzerNotifyerControl::__vtbl
                                                   CNotifyerControl::__vtbl
                                                   CStatusLedNotifyerControl::__vtbl
           ENTRY                   ADDRESS         REF BY
           =====                   =======         ======
           CNotifyerControl::ALARM_SIGNAL_OFF_TIME()
                                   000055D4 
    -------------------------------------------------------------------------
CODE
  Relative segment, address: CODE 000055DC - 000055E3 (0x8 bytes), align: 1
  Segment part 173.           Intra module refs:   CBuzzerNotifyerControl::__vtbl
                                                   CEmergencyAlarmWindowNotifyerControl::__vtbl
                                                   CNotifyerControl::__vtbl
                                                   CPreventiveAlarmWindowNotifyerControl::__vtbl
                                                   CStatusLedNotifyerControl::__vtbl
                                                   CTestModeNotifyerControl::__vtbl
           ENTRY                   ADDRESS         REF BY
           =====                   =======         ======
           CNotifyerControl::ERROR_SIGNAL_ON_TIME()
                                   000055DC 
    -------------------------------------------------------------------------
CODE
  Relative segment, address: CODE 000055E4 - 000055EB (0x8 bytes), align: 1
  Segment part 174.           Intra module refs:   CBuzzerNotifyerControl::__vtbl
                                                   CEmergencyAlarmWindowNotifyerControl::__vtbl
                                                   CNotifyerControl::__vtbl
                                                   CPreventiveAlarmWindowNotifyerControl::__vtbl
                                                   CStatusLedNotifyerControl::__vtbl
                                                   CTestModeNotifyerControl::__vtbl
           ENTRY                   ADDRESS         REF BY
           =====                   =======         ======
           CNotifyerControl::ERROR_SIGNAL_OFF_TIME()
                                   000055E4 
    -------------------------------------------------------------------------
CODE
  Relative segment, address: CODE 000055EC - 000055F3 (0x8 bytes), align: 1
  Segment part 175.           Intra module refs:   CBuzzerNotifyerControl::__vtbl
                                                   CEmergencyAlarmWindowNotifyerControl::__vtbl
                                                   CNotifyerControl::__vtbl
                                                   CPreventiveAlarmWindowNotifyerControl::__vtbl
                                                   CStatusLedNotifyerControl::__vtbl
                                                   CTestModeNotifyerControl::__vtbl
           ENTRY                   ADDRESS         REF BY
           =====                   =======         ======
           CNotifyerControl::ERROR_SIGNAL_PAUSE_TIME()
                                   000055EC 
    -------------------------------------------------------------------------
CODE
  Relative segment, address: CODE 000055F4 - 000055FB (0x8 bytes), align: 1
  Segment part 176.           Intra module refs:   CBuzzerNotifyerControl::__vtbl
                                                   CEmergencyAlarmWindowNotifyerControl::__vtbl
                                                   CNotifyerControl::__vtbl
                                                   CPreventiveAlarmWindowNotifyerControl::__vtbl
                                                   CStatusLedNotifyerControl::__vtbl
                                                   CTestModeNotifyerControl::__vtbl
           ENTRY                   ADDRESS         REF BY
           =====                   =======         ======
           CNotifyerControl::BEEP_SIGNAL_ON_TIME()
                                   000055F4 
    -------------------------------------------------------------------------
CODE
  Relative segment, address: CODE 000055FC - 00005603 (0x8 bytes), align: 1
  Segment part 177.           Intra module refs:   CPreventiveAlarmWindowNotifyerControl::__vtbl
           ENTRY                   ADDRESS         REF BY
           =====                   =======         ======
           CPreventiveAlarmWindowNotifyerControl::NORMAL_SIGNAL_ON_TIME()
                                   000055FC 
    -------------------------------------------------------------------------
CODE
  Relative segment, address: CODE 00005604 - 0000560B (0x8 bytes), align: 1
  Segment part 178.           Intra module refs:   CPreventiveAlarmWindowNotifyerControl::__vtbl
           ENTRY                   ADDRESS         REF BY
           =====                   =======         ======
           CPreventiveAlarmWindowNotifyerControl::NORMAL_SIGNAL_OFF_TIME()
                                   00005604 
    -------------------------------------------------------------------------
CODE
  Relative segment, address: CODE 0000560C - 00005613 (0x8 bytes), align: 1
  Segment part 179.           Intra module refs:   CPreventiveAlarmWindowNotifyerControl::__vtbl
           ENTRY                   ADDRESS         REF BY
           =====                   =======         ======
           CPreventiveAlarmWindowNotifyerControl::WARNING_SIGNAL_ON_TIME()
                                   0000560C 
    -------------------------------------------------------------------------
CODE
  Relative segment, address: CODE 00005614 - 0000561B (0x8 bytes), align: 1
  Segment part 180.           Intra module refs:   CPreventiveAlarmWindowNotifyerControl::__vtbl
           ENTRY                   ADDRESS         REF BY
           =====                   =======         ======
           CPreventiveAlarmWindowNotifyerControl::WARNING_SIGNAL_OFF_TIME()
                                   00005614 
    -------------------------------------------------------------------------
CODE
  Relative segment, address: CODE 0000561C - 00005623 (0x8 bytes), align: 1
  Segment part 181.           Intra module refs:   CPreventiveAlarmWindowNotifyerControl::__vtbl
           ENTRY                   ADDRESS         REF BY
           =====                   =======         ======
           CPreventiveAlarmWindowNotifyerControl::ALARM_SIGNAL_ON_TIME()
                                   0000561C 
    -------------------------------------------------------------------------
CODE
  Relative segment, address: CODE 00005624 - 0000562B (0x8 bytes), align: 1
  Segment part 182.           Intra module refs:   CPreventiveAlarmWindowNotifyerControl::__vtbl
           ENTRY                   ADDRESS         REF BY
           =====                   =======         ======
           CPreventiveAlarmWindowNotifyerControl::ALARM_SIGNAL_OFF_TIME()
                                   00005624 
    -------------------------------------------------------------------------
CODE
  Relative segment, address: CODE 0000562C - 00005633 (0x8 bytes), align: 1
  Segment part 183.           Intra module refs:   CEmergencyAlarmWindowNotifyerControl::__vtbl
           ENTRY                   ADDRESS         REF BY
           =====                   =======         ======
           CEmergencyAlarmWindowNotifyerControl::NORMAL_SIGNAL_ON_TIME()
                                   0000562C 
    -------------------------------------------------------------------------
CODE
  Relative segment, address: CODE 00005634 - 0000563B (0x8 bytes), align: 1
  Segment part 184.           Intra module refs:   CEmergencyAlarmWindowNotifyerControl::__vtbl
           ENTRY                   ADDRESS         REF BY
           =====                   =======         ======
           CEmergencyAlarmWindowNotifyerControl::NORMAL_SIGNAL_OFF_TIME()
                                   00005634 
    -------------------------------------------------------------------------
CODE
  Relative segment, address: CODE 0000563C - 00005643 (0x8 bytes), align: 1
  Segment part 185.           Intra module refs:   CEmergencyAlarmWindowNotifyerControl::__vtbl
           ENTRY                   ADDRESS         REF BY
           =====                   =======         ======
           CEmergencyAlarmWindowNotifyerControl::WARNING_SIGNAL_ON_TIME()
                                   0000563C 
    -------------------------------------------------------------------------
CODE
  Relative segment, address: CODE 00005644 - 0000564B (0x8 bytes), align: 1
  Segment part 186.           Intra module refs:   CEmergencyAlarmWindowNotifyerControl::__vtbl
           ENTRY                   ADDRESS         REF BY
           =====                   =======         ======
           CEmergencyAlarmWindowNotifyerControl::WARNING_SIGNAL_OFF_TIME()
                                   00005644 
    -------------------------------------------------------------------------
CODE
  Relative segment, address: CODE 0000564C - 00005653 (0x8 bytes), align: 1
  Segment part 187.           Intra module refs:   CEmergencyAlarmWindowNotifyerControl::__vtbl
           ENTRY                   ADDRESS         REF BY
           =====                   =======         ======
           CEmergencyAlarmWindowNotifyerControl::ALARM_SIGNAL_ON_TIME()
                                   0000564C 
    -------------------------------------------------------------------------
CODE
  Relative segment, address: CODE 00005654 - 0000565B (0x8 bytes), align: 1
  Segment part 188.           Intra module refs:   CEmergencyAlarmWindowNotifyerControl::__vtbl
           ENTRY                   ADDRESS         REF BY
           =====                   =======         ======
           CEmergencyAlarmWindowNotifyerControl::ALARM_SIGNAL_OFF_TIME()
                                   00005654 
    -------------------------------------------------------------------------
CODE
  Relative segment, address: CODE 0000565C - 00005663 (0x8 bytes), align: 1
  Segment part 189.           Intra module refs:   CTestModeNotifyerControl::__vtbl
           ENTRY                   ADDRESS         REF BY
           =====                   =======         ======
           CTestModeNotifyerControl::NORMAL_SIGNAL_ON_TIME()
                                   0000565C 
    -------------------------------------------------------------------------
CODE
  Relative segment, address: CODE 00005664 - 0000566B (0x8 bytes), align: 1
  Segment part 190.           Intra module refs:   CTestModeNotifyerControl::__vtbl
           ENTRY                   ADDRESS         REF BY
           =====                   =======         ======
           CTestModeNotifyerControl::NORMAL_SIGNAL_OFF_TIME()
                                   00005664 
    -------------------------------------------------------------------------
CODE
  Relative segment, address: CODE 0000566C - 00005673 (0x8 bytes), align: 1
  Segment part 191.           Intra module refs:   CTestModeNotifyerControl::__vtbl
           ENTRY                   ADDRESS         REF BY
           =====                   =======         ======
           CTestModeNotifyerControl::WARNING_SIGNAL_ON_TIME()
                                   0000566C 
    -------------------------------------------------------------------------
CODE
  Relative segment, address: CODE 00005674 - 0000567B (0x8 bytes), align: 1
  Segment part 192.           Intra module refs:   CTestModeNotifyerControl::__vtbl
           ENTRY                   ADDRESS         REF BY
           =====                   =======         ======
           CTestModeNotifyerControl::WARNING_SIGNAL_OFF_TIME()
                                   00005674 
    -------------------------------------------------------------------------
CODE
  Relative segment, address: CODE 0000567C - 00005683 (0x8 bytes), align: 1
  Segment part 193.           Intra module refs:   CTestModeNotifyerControl::__vtbl
           ENTRY                   ADDRESS         REF BY
           =====                   =======         ======
           CTestModeNotifyerControl::ALARM_SIGNAL_ON_TIME()
                                   0000567C 
    -------------------------------------------------------------------------
CODE
  Relative segment, address: CODE 00005684 - 0000568B (0x8 bytes), align: 1
  Segment part 194.           Intra module refs:   CTestModeNotifyerControl::__vtbl
           ENTRY                   ADDRESS         REF BY
           =====                   =======         ======
           CTestModeNotifyerControl::ALARM_SIGNAL_OFF_TIME()
                                   00005684 
    -------------------------------------------------------------------------
CODE
  Relative segment, address: CODE 0000568C - 0000568F (0x4 bytes), align: 1
  Segment part 195.           Intra module refs:   CStatusLedNotifyerControl::NotifyerEmergencyOn()
                                                   CStatusLedNotifyerControl::NotifyerNormalOn()
                                                   CStatusLedNotifyerControl::NotifyerPreventiveOn()
           ENTRY                   ADDRESS         REF BY
           =====                   =======         ======
           CPlatform::StatusLedOn()
                                   0000568C 
    -------------------------------------------------------------------------
CODE
  Relative segment, address: CODE 00005690 - 00005693 (0x4 bytes), align: 1
  Segment part 196.           Intra module refs:   CStatusLedNotifyerControl::NotifyerOff()
           ENTRY                   ADDRESS         REF BY
           =====                   =======         ======
           CPlatform::StatusLedOff()
                                   00005690 
    -------------------------------------------------------------------------
SWITCH
  Relative segment, address: CODE 00000902 - 00000941 (0x40 bytes), align: 1
  Segment part 160.           Intra module refs:   CNotifyerControl::Fsm()
    -------------------------------------------------------------------------
SWITCH
  Relative segment, address: CODE 00000942 - 00000957 (0x16 bytes), align: 1
  Segment part 161.           Intra module refs:   CPreventiveAlarmWindowNotifyerControl::AlarmSet(uint8_t)
    -------------------------------------------------------------------------
SWITCH
  Relative segment, address: CODE 00000958 - 0000096D (0x16 bytes), align: 1
  Segment part 162.           Intra module refs:   CEmergencyAlarmWindowNotifyerControl::AlarmSet(uint8_t)
    -------------------------------------------------------------------------
SWITCH
  Relative segment, address: CODE 0000096E - 00000983 (0x16 bytes), align: 1
  Segment part 163.           Intra module refs:   CStatusLedNotifyerControl::AlarmSet(uint8_t)
    -------------------------------------------------------------------------
SWITCH
  Relative segment, address: CODE 00000984 - 00000999 (0x16 bytes), align: 1
  Segment part 164.           Intra module refs:   CBuzzerNotifyerControl::AlarmSet(uint8_t)
    -------------------------------------------------------------------------
NEAR_F
  Relative segment, address: CODE 0000048B - 000004AE (0x24 bytes), align: 0
  Segment part 99. ROOT       Intra module refs:   CNotifyerControl::CNotifyerControl()
                                                   CNotifyerControl::~CNotifyerControl()
           ENTRY                   ADDRESS         REF BY
           =====                   =======         ======
           CNotifyerControl::__vtbl
                                   0000048B 
    -------------------------------------------------------------------------
NEAR_F
  Relative segment, address: CODE 000004AF - 000004D2 (0x24 bytes), align: 0
  Segment part 100. ROOT      Intra module refs:   CPreventiveAlarmWindowNotifyerControl::CPreventiveAlarmWindowNotifyerControl()
           ENTRY                   ADDRESS         REF BY
           =====                   =======         ======
           CPreventiveAlarmWindowNotifyerControl::__vtbl
                                   000004AF 
    -------------------------------------------------------------------------
NEAR_F
  Relative segment, address: CODE 000004D3 - 000004F6 (0x24 bytes), align: 0
  Segment part 101. ROOT      Intra module refs:   CEmergencyAlarmWindowNotifyerControl::CEmergencyAlarmWindowNotifyerControl()
           ENTRY                   ADDRESS         REF BY
           =====                   =======         ======
           CEmergencyAlarmWindowNotifyerControl::__vtbl
                                   000004D3 
    -------------------------------------------------------------------------
NEAR_F
  Relative segment, address: CODE 000004F7 - 0000051A (0x24 bytes), align: 0
  Segment part 102. ROOT      Intra module refs:   CTestModeNotifyerControl::CTestModeNotifyerControl()
           ENTRY                   ADDRESS         REF BY
           =====                   =======         ======
           CTestModeNotifyerControl::__vtbl
                                   000004F7 
    -------------------------------------------------------------------------
NEAR_F
  Relative segment, address: CODE 0000051B - 0000051E (0x4 bytes), align: 0
  Segment part 103. ROOT 
           LOCAL                   ADDRESS         
           =====                   =======         
           CDriver::__vtbl         0000051B 
    -------------------------------------------------------------------------
NEAR_F
  Relative segment, address: CODE 0000051F - 00000526 (0x8 bytes), align: 0
  Segment part 104. ROOT 
           LOCAL                   ADDRESS         
           =====                   =======         
           CTaskInterface::__vtbl
                                   0000051F 
    -------------------------------------------------------------------------
NEAR_F
  Relative segment, address: CODE 00000527 - 00000530 (0xa bytes), align: 0
  Segment part 105. ROOT 
           LOCAL                   ADDRESS         
           =====                   =======         
           CIsRegularButtonPressedInterface::__vtbl
                                   00000527 
    -------------------------------------------------------------------------
NEAR_F
  Relative segment, address: CODE 00000531 - 00000554 (0x24 bytes), align: 0
  Segment part 106. ROOT      Intra module refs:   CStatusLedNotifyerControl::CStatusLedNotifyerControl()
           ENTRY                   ADDRESS         REF BY
           =====                   =======         ======
           CStatusLedNotifyerControl::__vtbl
                                   00000531 
    -------------------------------------------------------------------------
NEAR_F
  Relative segment, address: CODE 00000555 - 00000578 (0x24 bytes), align: 0
  Segment part 107. ROOT      Intra module refs:   CBuzzerNotifyerControl::CBuzzerNotifyerControl()
           ENTRY                   ADDRESS         REF BY
           =====                   =======         ======
           CBuzzerNotifyerControl::__vtbl
                                   00000555 

    *************************************************************************

  FILE NAME : D:\Projects\CurrentProjects\CautoProjects\PSS48Color\Debug\Obj\Pixel.r90
  PROGRAM MODULE, NAME : Pixel

  SEGMENTS IN THE MODULE
  ======================
CODE
  Relative segment, address: CODE 00005694 - 000056CD (0x3a bytes), align: 1
  Segment part 99.
           ENTRY                   ADDRESS         REF BY
           =====                   =======         ======
           CPss48BoardPixel::SetCorrection(TPixelColorData __farflash *)
                                   00005694        CLightBoard::Set(CAlarmWindow *) (LightBoard)
               calls direct
    -------------------------------------------------------------------------
CODE
  Relative segment, address: CODE 000056CE - 00005707 (0x3a bytes), align: 1
  Segment part 100.
           ENTRY                   ADDRESS         REF BY
           =====                   =======         ======
           CPss48BoardPixel::SetData(TPixelColorData __farflash *)
                                   000056CE        CLightBoard::Set(CAlarmWindow *) (LightBoard)
               calls direct

    *************************************************************************

  FILE NAME : D:\Projects\CurrentProjects\CautoProjects\PSS48Color\Debug\Obj\Platform.r90
  PROGRAM MODULE, NAME : Platform

  SEGMENTS IN THE MODULE
  ======================
CODE
  Relative segment, address: CODE 00005708 - 000057BF (0xb8 bytes), align: 1
  Segment part 125.
           ENTRY                   ADDRESS         REF BY
           =====                   =======         ======
           CUart::CUart(uint8_t volatile *, uint8_t volatile *, uint8_t volatile *, uint8_t volatile *, uint8_t volatile *, uint8_t volatile *, uint8_t volatile *, uint8_t, uint8_t volatile *, uint8_t)
                                   00005708        __sti__routine() (Pss21)
               calls direct
    -------------------------------------------------------------------------
NEAR_Z
  Relative segment, address: DATA 00000869 - 00000869 (0x1 bytes), align: 0
  Segment part 111. ROOT      Intra module refs:   CUart::RecvInterruptHandler()
           ENTRY                   ADDRESS         REF BY
           =====                   =======         ======
           uiInterruptCounter      00000869 
    -------------------------------------------------------------------------
NEAR_Z
  Relative segment, address: DATA 0000086A - 0000086B (0x2 bytes), align: 0
  Segment part 113. ROOT      Intra module refs:   CEeprom::GetBufferPointer()
                                                   CEeprom::SetBufferPointer(uint8_t *)
           ENTRY                   ADDRESS         REF BY
           =====                   =======         ======
           CEeprom::m_puiBuffer    0000086A 
    -------------------------------------------------------------------------
NEAR_Z
  Relative segment, address: DATA 0000086C - 0000086D (0x2 bytes), align: 0
  Segment part 114. ROOT      Intra module refs:   CEeprom::GetAddress()
                                                   CEeprom::SetAddress(uint16_t)
           ENTRY                   ADDRESS         REF BY
           =====                   =======         ======
           CEeprom::m_uiAddress    0000086C 
    -------------------------------------------------------------------------
NEAR_Z
  Relative segment, address: DATA 0000086E - 0000086F (0x2 bytes), align: 0
  Segment part 115. ROOT      Intra module refs:   CEeprom::GetBufferByteCounter()
                                                   CEeprom::SetBufferByteCounter(uint16_t)
           ENTRY                   ADDRESS         REF BY
           =====                   =======         ======
           CEeprom::m_nuiBufferByteCounter
                                   0000086E 
    -------------------------------------------------------------------------
NEAR_Z
  Relative segment, address: DATA 00000870 - 00000871 (0x2 bytes), align: 0
  Segment part 116. ROOT      Intra module refs:   CEeprom::GetLength()
                                                   CEeprom::SetLength(uint16_t)
           ENTRY                   ADDRESS         REF BY
           =====                   =======         ======
           CEeprom::m_uiLength     00000870 
    -------------------------------------------------------------------------
NEAR_Z
  Relative segment, address: DATA 00000872 - 00000872 (0x1 bytes), align: 0
  Segment part 117. ROOT 
           ENTRY                   ADDRESS         REF BY
           =====                   =======         ======
           CEeprom::m_bBufferIsWrited
                                   00000872        CEeprom::GetBufferIsWrited() (DataStore)
                                                   CEeprom::SetBufferIsWrited(bool) (DataStore)
    -------------------------------------------------------------------------
NEAR_F
  Relative segment, address: CODE 00000579 - 0000057A (0x2 bytes), align: 0
  Segment part 104. ROOT      Intra module refs:   CUart::CUart(uint8_t volatile *, uint8_t volatile *, uint8_t volatile *, uint8_t volatile *, uint8_t volatile *, uint8_t volatile *, uint8_t volatile *, uint8_t, uint8_t volatile *, uint8_t)
           ENTRY                   ADDRESS         REF BY
           =====                   =======         ======
           CUart::__vtbl           00000579 
    -------------------------------------------------------------------------
NEAR_F
  Relative segment, address: CODE 0000057B - 0000057C (0x2 bytes), align: 0
  Segment part 105. ROOT 
           ENTRY                   ADDRESS         REF BY
           =====                   =======         ======
           CEeprom::__vtbl         0000057B 
    -------------------------------------------------------------------------
NEAR_F
  Relative segment, address: CODE 0000057D - 0000057E (0x2 bytes), align: 0
  Segment part 106. ROOT 
           ENTRY                   ADDRESS         REF BY
           =====                   =======         ======
           CPlatform::__vtbl       0000057D 
    -------------------------------------------------------------------------
NEAR_F
  Relative segment, address: CODE 0000057F - 00000582 (0x4 bytes), align: 0
  Segment part 107. ROOT 
           LOCAL                   ADDRESS         
           =====                   =======         
           CDriver::__vtbl         0000057F 
    -------------------------------------------------------------------------
NEAR_F
  Relative segment, address: CODE 00000583 - 0000058A (0x8 bytes), align: 0
  Segment part 108. ROOT 
           LOCAL                   ADDRESS         
           =====                   =======         
           CTaskInterface::__vtbl
                                   00000583 
    -------------------------------------------------------------------------
NEAR_F
  Relative segment, address: CODE 0000058B - 00000594 (0xa bytes), align: 0
  Segment part 109. ROOT 
           LOCAL                   ADDRESS         
           =====                   =======         
           CIsRegularButtonPressedInterface::__vtbl
                                   0000058B 
    -------------------------------------------------------------------------
NEAR_F
  Relative segment, address: CODE 00000595 - 00000596 (0x2 bytes), align: 0
  Segment part 110. ROOT 
           ENTRY                   ADDRESS         REF BY
           =====                   =======         ======
           CSpi::__vtbl            00000595 
    -------------------------------------------------------------------------
NEAR_F
  Relative segment, address: CODE 00000597 - 0000082A (0x294 bytes), align: 0
  Segment part 118. ROOT      Intra module refs:   CFlash::GetBlockPointer(uint8_t)
           ENTRY                   ADDRESS         REF BY
           =====                   =======         ======
           CFlash::xMainDataBase   00000597 
    -------------------------------------------------------------------------
NEAR_F
  Relative segment, address: CODE 0000082B - 00000856 (0x2c bytes), align: 0
  Segment part 119. ROOT      Intra module refs:   CFlash::GetBlockLength(uint8_t)
                                                   CFlash::GetBlockOffset(uint8_t)
           ENTRY                   ADDRESS         REF BY
           =====                   =======         ======
           CFlash::axDataBaseBlocksPositionData
                                   0000082B 
    -------------------------------------------------------------------------
NEAR_Z
  Relative segment, address: DATA 00000873 - 00000874 (0x2 bytes), align: 0
  Segment part 120. ROOT      Intra module refs:   CPlatform::IncrementSystemTick()
           ENTRY                   ADDRESS         REF BY
           =====                   =======         ======
           CPlatform::m_uiSystemTick
                                   00000873        CPlatform::GetSystemTick() (ModbusRTU)
    -------------------------------------------------------------------------
NEAR_Z
  Relative segment, address: DATA 00000875 - 00000875 (0x1 bytes), align: 0
  Segment part 121. ROOT 
           ENTRY                   ADDRESS         REF BY
           =====                   =======         ======
           CPlatform::m_uiWatchDogStepID
                                   00000875 
    -------------------------------------------------------------------------
NEAR_Z
  Relative segment, address: DATA 00000876 - 00000877 (0x2 bytes), align: 0
  Segment part 122. ROOT      Intra module refs:   SIG_UART1_DATA()
                                                   SIG_UART1_RECV()
                                                   SIG_UART1_TXC()
           ENTRY                   ADDRESS         REF BY
           =====                   =======         ======
           CPlatform::m_pxUart1    00000876        CPss21::ModbusInit() (Pss21)
    -------------------------------------------------------------------------
CODE
  Relative segment, address: CODE 000057C0 - 000057DB (0x1c bytes), align: 1
  Segment part 133.           Intra module refs:   CUart::__vtbl
           ENTRY                   ADDRESS         REF BY
           =====                   =======         ======
           CUart::~CUart()         000057C0        <Unnamed 0> (Pss21)
               calls direct
    -------------------------------------------------------------------------
CODE
  Relative segment, address: CODE 000057DC - 00005845 (0x6a bytes), align: 1
  Segment part 134.
           ENTRY                   ADDRESS         REF BY
           =====                   =======         ======
           CUart::Init(uint32_t, uint8_t, uint8_t, uint8_t, uint8_t *, uint8_t *)
                                   000057DC        CModbusRTU::Init(CUart *, uint32_t, char, uint8_t, uint8_t, uint8_t *, uint8_t *, uint8_t *, uint8_t *, uint16_t *, uint16_t *, uint16_t, uint16_t, uint16_t, uint16_t) (ModbusRTU)
               calls direct
    -------------------------------------------------------------------------
CODE
  Relative segment, address: CODE 00005846 - 00005863 (0x1e bytes), align: 1
  Segment part 135.
           ENTRY                   ADDRESS         REF BY
           =====                   =======         ======
           CUart::Reset()          00005846        CModbusRTU::Reset() (ModbusRTU)
    -------------------------------------------------------------------------
CODE
  Relative segment, address: CODE 00005864 - 00005885 (0x22 bytes), align: 1
  Segment part 138.
           ENTRY                   ADDRESS         REF BY
           =====                   =======         ======
           CUart::Enable()         00005864        CModbusRTU::ReceiveEnable() (ModbusRTU)
    -------------------------------------------------------------------------
CODE
  Relative segment, address: CODE 00005886 - 0000589B (0x16 bytes), align: 1
  Segment part 139.
           ENTRY                   ADDRESS         REF BY
           =====                   =======         ======
           CUart::Disable()        00005886        CModbusRTU::ReceiveDisable() (ModbusRTU)
    -------------------------------------------------------------------------
CODE
  Relative segment, address: CODE 0000589C - 000058BD (0x22 bytes), align: 1
  Segment part 140.           Intra module refs:   CUart::TransmitEnable()
           ENTRY                   ADDRESS         REF BY
           =====                   =======         ======
           CUart::Rs485RtsOn()     0000589C 
               calls direct
    -------------------------------------------------------------------------
CODE
  Relative segment, address: CODE 000058BE - 000058E1 (0x24 bytes), align: 1
  Segment part 141.           Intra module refs:   CUart::TransmitDisable()
           ENTRY                   ADDRESS         REF BY
           =====                   =======         ======
           CUart::Rs485RtsOff()    000058BE 
               calls direct
    -------------------------------------------------------------------------
CODE
  Relative segment, address: CODE 000058E2 - 00005917 (0x36 bytes), align: 1
  Segment part 142.
           ENTRY                   ADDRESS         REF BY
           =====                   =======         ======
           CUart::TransmitEnable()
                                   000058E2        CModbusRTU::TransmitEnable() (ModbusRTU)
               calls direct
    -------------------------------------------------------------------------
CODE
  Relative segment, address: CODE 00005918 - 0000593F (0x28 bytes), align: 1
  Segment part 143.           Intra module refs:   CUart::TxcInterruptHandler()
           ENTRY                   ADDRESS         REF BY
           =====                   =======         ======
           CUart::TransmitDisable()
                                   00005918        CModbusRTU::TransmitDisable() (ModbusRTU)
               calls direct
    -------------------------------------------------------------------------
CODE
  Relative segment, address: CODE 00005940 - 0000594F (0x10 bytes), align: 1
  Segment part 144.
           ENTRY                   ADDRESS         REF BY
           =====                   =======         ======
           CUart::Write(uint8_t *, uint16_t)
                                   00005940        CModbusRTU::Send(uint8_t *, uint16_t) (ModbusRTU)
    -------------------------------------------------------------------------
CODE
  Relative segment, address: CODE 00005950 - 000059E7 (0x98 bytes), align: 1
  Segment part 145.
           ENTRY                   ADDRESS         REF BY
           =====                   =======         ======
           CUart::Read(uint8_t *, uint16_t)
                                   00005950        CModbusRTU::Receive(uint8_t *, uint16_t) (ModbusRTU)
               calls direct
    -------------------------------------------------------------------------
CODE
  Relative segment, address: CODE 000059E8 - 00005A47 (0x60 bytes), align: 1
  Segment part 146.           Intra module refs:   SIG_UART1_DATA()
           ENTRY                   ADDRESS         REF BY
           =====                   =======         ======
           CUart::UdreInterruptHandler()
                                   000059E8 
    -------------------------------------------------------------------------
CODE
  Relative segment, address: CODE 00005A48 - 00005A6B (0x24 bytes), align: 1
  Segment part 147.           Intra module refs:   SIG_UART1_TXC()
           ENTRY                   ADDRESS         REF BY
           =====                   =======         ======
           CUart::TxcInterruptHandler()
                                   00005A48 
               calls direct
    -------------------------------------------------------------------------
CODE
  Relative segment, address: CODE 00005A6C - 00005ABD (0x52 bytes), align: 1
  Segment part 148.           Intra module refs:   SIG_UART1_RECV()
           ENTRY                   ADDRESS         REF BY
           =====                   =======         ======
           CUart::RecvInterruptHandler()
                                   00005A6C 
    -------------------------------------------------------------------------
CODE
  Relative segment, address: CODE 00005ABE - 00005AF9 (0x3c bytes), align: 1
  Segment part 149.           Intra module refs:   SIG_UART1_DATA()::??INTVEC 124
           ENTRY                   ADDRESS         REF BY
           =====                   =======         ======
           SIG_UART1_DATA()        00005ABE 
               interrupt function
               calls direct
    -------------------------------------------------------------------------
CODE
  Relative segment, address: CODE 00005AFA - 00005B45 (0x4c bytes), align: 1
  Segment part 150.           Intra module refs:   SIG_UART1_TXC()::??INTVEC 128
           ENTRY                   ADDRESS         REF BY
           =====                   =======         ======
           SIG_UART1_TXC()         00005AFA 
               interrupt function
               calls direct
    -------------------------------------------------------------------------
CODE
  Relative segment, address: CODE 00005B46 - 00005B81 (0x3c bytes), align: 1
  Segment part 151.           Intra module refs:   SIG_UART1_RECV()::??INTVEC 120
           ENTRY                   ADDRESS         REF BY
           =====                   =======         ======
           SIG_UART1_RECV()        00005B46 
               interrupt function
               calls direct
    -------------------------------------------------------------------------
CODE
  Relative segment, address: CODE 00005B82 - 00005B9D (0x1c bytes), align: 1
  Segment part 152.           Intra module refs:   CEeprom::__vtbl
           ENTRY                   ADDRESS         REF BY
           =====                   =======         ======
           CEeprom::~CEeprom()     00005B82 
               calls direct
    -------------------------------------------------------------------------
CODE
  Relative segment, address: CODE 00005B9E - 00005BB7 (0x1a bytes), align: 1
  Segment part 153.           Intra module refs:   CEeprom::Read(uint8_t *, uint16_t, uint16_t)
           ENTRY                   ADDRESS         REF BY
           =====                   =======         ======
           CEeprom::ReadByte(uint16_t)
                                   00005B9E 
    -------------------------------------------------------------------------
CODE
  Relative segment, address: CODE 00005BB8 - 00005BDD (0x26 bytes), align: 1
  Segment part 154.
           ENTRY                   ADDRESS         REF BY
           =====                   =======         ======
           CEeprom::Read(uint8_t *, uint16_t, uint16_t)
                                   00005BB8        CDataStore::ReadBlock(uint8_t *, uint8_t) (DataStore)
               calls direct
    -------------------------------------------------------------------------
CODE
  Relative segment, address: CODE 00005BDE - 00005C07 (0x2a bytes), align: 1
  Segment part 157.
           ENTRY                   ADDRESS         REF BY
           =====                   =======         ======
           CEeprom::WriteInterrupt(uint16_t, uint8_t *, uint16_t)
                                   00005BDE        CDataStore::Write(uint8_t *, uint16_t, uint8_t) (DataStore)
               calls direct
    -------------------------------------------------------------------------
CODE
  Relative segment, address: CODE 00005C08 - 00005C83 (0x7c bytes), align: 1
  Segment part 158.           Intra module refs:   EEPROM_EE_READY()
           ENTRY                   ADDRESS         REF BY
           =====                   =======         ======
           CEeprom::ReadyInterruptHandler()
                                   00005C08 
               calls direct
    -------------------------------------------------------------------------
CODE
  Relative segment, address: CODE 00005C84 - 00005CCF (0x4c bytes), align: 1
  Segment part 159.           Intra module refs:   EEPROM_EE_READY()::??INTVEC 88
           ENTRY                   ADDRESS         REF BY
           =====                   =======         ======
           EEPROM_EE_READY()       00005C84 
               interrupt function
               calls direct
    -------------------------------------------------------------------------
CODE
  Relative segment, address: CODE 00005CD0 - 00005D01 (0x32 bytes), align: 1
  Segment part 160.           Intra module refs:   CFlash::ReadBlock(uint8_t *, uint8_t)
           ENTRY                   ADDRESS         REF BY
           =====                   =======         ======
           CFlash::Read(uint8_t *, uint8_t __farflash *, uint16_t)
                                   00005CD0 
    -------------------------------------------------------------------------
CODE
  Relative segment, address: CODE 00005D02 - 00005D73 (0x72 bytes), align: 1
  Segment part 161.
           ENTRY                   ADDRESS         REF BY
           =====                   =======         ======
           CFlash::ReadBlock(uint8_t *, uint8_t)
                                   00005D02        CDataStore::ReadBlockFlash(uint8_t *, uint8_t) (DataStore)
               calls direct
    -------------------------------------------------------------------------
CODE
  Relative segment, address: CODE 00005D74 - 00005D8F (0x1c bytes), align: 1
  Segment part 162.           Intra module refs:   CSpi::__vtbl
           ENTRY                   ADDRESS         REF BY
           =====                   =======         ======
           CSpi::~CSpi()           00005D74 
               calls direct
    -------------------------------------------------------------------------
CODE
  Relative segment, address: CODE 00005D90 - 00005DA1 (0x12 bytes), align: 1
  Segment part 163.
           ENTRY                   ADDRESS         REF BY
           =====                   =======         ======
           CSpi::Init()            00005D90        CPss21::MainFsm() (Pss21)
    -------------------------------------------------------------------------
CODE
  Relative segment, address: CODE 00005DA2 - 00005DA5 (0x4 bytes), align: 1
  Segment part 164.
           ENTRY                   ADDRESS         REF BY
           =====                   =======         ======
           CSpi::Enable()          00005DA2        CPss21::ConnectDevice(uint8_t) (Pss21)
    -------------------------------------------------------------------------
CODE
  Relative segment, address: CODE 00005DA6 - 00005DA9 (0x4 bytes), align: 1
  Segment part 165.
           ENTRY                   ADDRESS         REF BY
           =====                   =======         ======
           CSpi::Disable()         00005DA6        CPss21::DisconnectDevice() (Pss21)
    -------------------------------------------------------------------------
CODE
  Relative segment, address: CODE 00005DAA - 00005DD7 (0x2e bytes), align: 1
  Segment part 166.           Intra module refs:   CSpi::Exchange(uint8_t *, uint8_t *, uint16_t)
           ENTRY                   ADDRESS         REF BY
           =====                   =======         ======
           CSpi::Exchange(uint8_t)
                                   00005DAA 
               calls direct
    -------------------------------------------------------------------------
CODE
  Relative segment, address: CODE 00005DD8 - 00005E15 (0x3e bytes), align: 1
  Segment part 167.
           ENTRY                   ADDRESS         REF BY
           =====                   =======         ======
           CSpi::Exchange(uint8_t *, uint8_t *, uint16_t)
                                   00005DD8        CModuleMrXXDriver::Exchange() (ModuleMrXX)
                                                   CModuleMrXXDriver::WriteDataBase() (ModuleMrXX)
                                                   CMvsn21Driver::DataExchange() (Mvsn21)
                                                   CPss21::SearchModules() (Pss21)
               calls direct
    -------------------------------------------------------------------------
CODE
  Relative segment, address: CODE 00005E16 - 00005E33 (0x1e bytes), align: 1
  Segment part 169.
           ENTRY                   ADDRESS         REF BY
           =====                   =======         ======
           delay_ms(uint16_t)      00005E16        CDataBase::RestoreDefault() (DataBase)
                                                   CDataStore::Check() (DataStore)
                                                   CPss21::SearchModules() (Pss21)
    -------------------------------------------------------------------------
CODE
  Relative segment, address: CODE 00005E34 - 00005E4F (0x1c bytes), align: 1
  Segment part 172.           Intra module refs:   CPlatform::__vtbl
           ENTRY                   ADDRESS         REF BY
           =====                   =======         ======
           CPlatform::~CPlatform()
                                   00005E34 
               calls direct
    -------------------------------------------------------------------------
CODE
  Relative segment, address: CODE 00005E50 - 00005E77 (0x28 bytes), align: 1
  Segment part 173.           Intra module refs:   CPlatform::Init()
           ENTRY                   ADDRESS         REF BY
           =====                   =======         ======
           CPlatform::SystemTickInit()
                                   00005E50 
               calls direct
    -------------------------------------------------------------------------
CODE
  Relative segment, address: CODE 00005E78 - 00005E9B (0x24 bytes), align: 1
  Segment part 174.
           ENTRY                   ADDRESS         REF BY
           =====                   =======         ======
           CPlatform::Init()       00005E78        CPss21::MainFsm() (Pss21)
               calls direct
    -------------------------------------------------------------------------
CODE
  Relative segment, address: CODE 00005E9C - 00005EF1 (0x56 bytes), align: 1
  Segment part 175.
           ENTRY                   ADDRESS         REF BY
           =====                   =======         ======
           CPlatform::BuzzerTimerFrequencySet(uint16_t)
                                   00005E9C        CBuzzer::HighOn() (Buzzer)
                                                   CBuzzer::LowOn() (Buzzer)
               calls direct
    -------------------------------------------------------------------------
CODE
  Relative segment, address: CODE 00005EF2 - 00005F07 (0x16 bytes), align: 1
  Segment part 176.
           ENTRY                   ADDRESS         REF BY
           =====                   =======         ======
           CPlatform::BuzzerTimerStop()
                                   00005EF2        CBuzzer::Off() (Buzzer)
    -------------------------------------------------------------------------
CODE
  Relative segment, address: CODE 00005F08 - 00005F55 (0x4e bytes), align: 1
  Segment part 177.           Intra module refs:   SystemTickInterrupt()::??INTVEC 36
           ENTRY                   ADDRESS         REF BY
           =====                   =======         ======
           SystemTickInterrupt()   00005F08 
               interrupt function
               calls direct
    -------------------------------------------------------------------------
CODE
  Relative segment, address: CODE 00005F56 - 00005F59 (0x4 bytes), align: 1
  Segment part 178.           Intra module refs:   CEeprom::ReadyInterruptHandler()
           ENTRY                   ADDRESS         REF BY
           =====                   =======         ======
           CEeprom::ReadyInterruptDisaable()
                                   00005F56 
    -------------------------------------------------------------------------
CODE
  Relative segment, address: CODE 00005F5A - 00005F63 (0xa bytes), align: 1
  Segment part 179.           Intra module refs:   CEeprom::ReadyInterruptHandler()
           ENTRY                   ADDRESS         REF BY
           =====                   =======         ======
           CEeprom::GetBufferPointer()
                                   00005F5A 
    -------------------------------------------------------------------------
CODE
  Relative segment, address: CODE 00005F64 - 00005F6D (0xa bytes), align: 1
  Segment part 180.           Intra module refs:   CEeprom::WriteInterrupt(uint16_t, uint8_t *, uint16_t)
           ENTRY                   ADDRESS         REF BY
           =====                   =======         ======
           CEeprom::SetBufferPointer(uint8_t *)
                                   00005F64 
    -------------------------------------------------------------------------
CODE
  Relative segment, address: CODE 00005F6E - 00005F77 (0xa bytes), align: 1
  Segment part 181.           Intra module refs:   CEeprom::ReadyInterruptHandler()
                                                   CEeprom::WriteInterrupt(uint16_t, uint8_t *, uint16_t)
           ENTRY                   ADDRESS         REF BY
           =====                   =======         ======
           CEeprom::SetAddress(uint16_t)
                                   00005F6E 
    -------------------------------------------------------------------------
CODE
  Relative segment, address: CODE 00005F78 - 00005F81 (0xa bytes), align: 1
  Segment part 182.           Intra module refs:   CEeprom::ReadyInterruptHandler()
           ENTRY                   ADDRESS         REF BY
           =====                   =======         ======
           CEeprom::GetAddress()   00005F78 
    -------------------------------------------------------------------------
CODE
  Relative segment, address: CODE 00005F82 - 00005F8B (0xa bytes), align: 1
  Segment part 183.           Intra module refs:   CEeprom::ReadyInterruptHandler()
                                                   CEeprom::WriteInterrupt(uint16_t, uint8_t *, uint16_t)
           ENTRY                   ADDRESS         REF BY
           =====                   =======         ======
           CEeprom::SetBufferByteCounter(uint16_t)
                                   00005F82 
    -------------------------------------------------------------------------
CODE
  Relative segment, address: CODE 00005F8C - 00005F95 (0xa bytes), align: 1
  Segment part 184.           Intra module refs:   CEeprom::ReadyInterruptHandler()
           ENTRY                   ADDRESS         REF BY
           =====                   =======         ======
           CEeprom::GetBufferByteCounter()
                                   00005F8C 
    -------------------------------------------------------------------------
CODE
  Relative segment, address: CODE 00005F96 - 00005F9F (0xa bytes), align: 1
  Segment part 185.           Intra module refs:   CEeprom::WriteInterrupt(uint16_t, uint8_t *, uint16_t)
           ENTRY                   ADDRESS         REF BY
           =====                   =======         ======
           CEeprom::SetLength(uint16_t)
                                   00005F96 
    -------------------------------------------------------------------------
CODE
  Relative segment, address: CODE 00005FA0 - 00005FA9 (0xa bytes), align: 1
  Segment part 186.           Intra module refs:   CEeprom::ReadyInterruptHandler()
           ENTRY                   ADDRESS         REF BY
           =====                   =======         ======
           CEeprom::GetLength()    00005FA0 
    -------------------------------------------------------------------------
CODE
  Relative segment, address: CODE 00005FAA - 00005FBF (0x16 bytes), align: 1
  Segment part 188.           Intra module refs:   CFlash::ReadBlock(uint8_t *, uint8_t)
           ENTRY                   ADDRESS         REF BY
           =====                   =======         ======
           CFlash::GetBlockLength(uint8_t)
                                   00005FAA 
    -------------------------------------------------------------------------
CODE
  Relative segment, address: CODE 00005FC0 - 00005FD7 (0x18 bytes), align: 1
  Segment part 189.           Intra module refs:   CFlash::GetBlockPointer(uint8_t)
           ENTRY                   ADDRESS         REF BY
           =====                   =======         ======
           CFlash::GetBlockOffset(uint8_t)
                                   00005FC0 
    -------------------------------------------------------------------------
CODE
  Relative segment, address: CODE 00005FD8 - 00005FF9 (0x22 bytes), align: 1
  Segment part 190.           Intra module refs:   CFlash::ReadBlock(uint8_t *, uint8_t)
           ENTRY                   ADDRESS         REF BY
           =====                   =======         ======
           CFlash::GetBlockPointer(uint8_t)
                                   00005FD8 
               calls direct
    -------------------------------------------------------------------------
CODE
  Relative segment, address: CODE 00005FFA - 00005FFD (0x4 bytes), align: 1
  Segment part 192.           Intra module refs:   CPlatform::Init()
                                                   CUart::Read(uint8_t *, uint16_t)
           ENTRY                   ADDRESS         REF BY
           =====                   =======         ======
           CPlatform::InterruptEnable()
                                   00005FFA 
    -------------------------------------------------------------------------
CODE
  Relative segment, address: CODE 00005FFE - 00006001 (0x4 bytes), align: 1
  Segment part 193.           Intra module refs:   CUart::Read(uint8_t *, uint16_t)
           ENTRY                   ADDRESS         REF BY
           =====                   =======         ======
           CPlatform::InterruptDisable()
                                   00005FFE 
    -------------------------------------------------------------------------
CODE
  Relative segment, address: CODE 00006002 - 00006013 (0x12 bytes), align: 1
  Segment part 194.           Intra module refs:   SystemTickInterrupt()
           ENTRY                   ADDRESS         REF BY
           =====                   =======         ======
           CPlatform::IncrementSystemTick()
                                   00006002 
    -------------------------------------------------------------------------
CODE
  Relative segment, address: CODE 00006014 - 00006017 (0x4 bytes), align: 1
  Segment part 195.           Intra module refs:   CPlatform::Init()
           ENTRY                   ADDRESS         REF BY
           =====                   =======         ======
           CPlatform::StatusLedSetPinOutput()
                                   00006014 
    -------------------------------------------------------------------------
CODE
  Relative segment, address: CODE 00006018 - 0000601B (0x4 bytes), align: 1
  Segment part 196.           Intra module refs:   CPlatform::Init()
           ENTRY                   ADDRESS         REF BY
           =====                   =======         ======
           CPlatform::TxLedSetPinOutput()
                                   00006018 
    -------------------------------------------------------------------------
CODE
  Relative segment, address: CODE 0000601C - 0000601F (0x4 bytes), align: 1
  Segment part 198.           Intra module refs:   CPlatform::Init()
           ENTRY                   ADDRESS         REF BY
           =====                   =======         ======
           CPlatform::KeyOneSetPinInput()
                                   0000601C 
    -------------------------------------------------------------------------
CODE
  Relative segment, address: CODE 00006020 - 00006023 (0x4 bytes), align: 1
  Segment part 199.           Intra module refs:   CPlatform::Init()
           ENTRY                   ADDRESS         REF BY
           =====                   =======         ======
           CPlatform::KeyTwoSetPinInput()
                                   00006020 
    -------------------------------------------------------------------------
CODE
  Relative segment, address: CODE 00006024 - 00006027 (0x4 bytes), align: 1
  Segment part 200.           Intra module refs:   CPlatform::Init()
           ENTRY                   ADDRESS         REF BY
           =====                   =======         ======
           CPlatform::KeyThreeSetPinInput()
                                   00006024 
    -------------------------------------------------------------------------
CODE
  Relative segment, address: CODE 00006028 - 0000602B (0x4 bytes), align: 1
  Segment part 201.           Intra module refs:   CPlatform::Init()
           ENTRY                   ADDRESS         REF BY
           =====                   =======         ======
           CPlatform::ExternalKeySetPinInput()
                                   00006028 
    -------------------------------------------------------------------------
INTVEC
  Common segment, address: CODE 00000000 - 00000027 (0x28 bytes), align: 1
  Segment part 97. ROOT 
           ENTRY                   ADDRESS         REF BY
           =====                   =======         ======
           SystemTickInterrupt()::??INTVEC 36
                                   00000024 
    -------------------------------------------------------------------------
INTVEC
  Common segment, address: CODE 00000000 - 0000005B (0x5c bytes), align: 1
  Segment part 98. ROOT 
           ENTRY                   ADDRESS         REF BY
           =====                   =======         ======
           EEPROM_EE_READY()::??INTVEC 88
                                   00000058 
    -------------------------------------------------------------------------
INTVEC
  Common segment, address: CODE 00000000 - 0000007B (0x7c bytes), align: 1
  Segment part 99. ROOT 
           ENTRY                   ADDRESS         REF BY
           =====                   =======         ======
           SIG_UART1_RECV()::??INTVEC 120
                                   00000078 
    -------------------------------------------------------------------------
INTVEC
  Common segment, address: CODE 00000000 - 0000007F (0x80 bytes), align: 1
  Segment part 100. ROOT 
           ENTRY                   ADDRESS         REF BY
           =====                   =======         ======
           SIG_UART1_DATA()::??INTVEC 124
                                   0000007C 
    -------------------------------------------------------------------------
INTVEC
  Common segment, address: CODE 00000000 - 00000083 (0x84 bytes), align: 1
  Segment part 101. ROOT 
           ENTRY                   ADDRESS         REF BY
           =====                   =======         ======
           SIG_UART1_TXC()::??INTVEC 128
                                   00000080 

    *************************************************************************

  FILE NAME : D:\Projects\CurrentProjects\CautoProjects\PSS48Color\Debug\Obj\Pss21.r90
  PROGRAM MODULE, NAME : Pss21

  SEGMENTS IN THE MODULE
  ======================
NEAR_Z
  Relative segment, address: DATA 00000878 - 00000887 (0x10 bytes), align: 0
  Segment part 102. ROOT      Intra module refs:   CPss21::ModbusInit()
           ENTRY                   ADDRESS         REF BY
           =====                   =======         ======
           CPss21::m_aucRtuHoldingRegistersArray
                                   00000878 
    -------------------------------------------------------------------------
NEAR_Z
  Relative segment, address: DATA 00000888 - 00000897 (0x10 bytes), align: 0
  Segment part 104. ROOT      Intra module refs:   CPss21::ModbusInit()
           ENTRY                   ADDRESS         REF BY
           =====                   =======         ======
           CPss21::m_aucRtuInputRegistersArray
                                   00000888 
    -------------------------------------------------------------------------
NEAR_Z
  Relative segment, address: DATA 00000898 - 0000090F (0x78 bytes), align: 0
  Segment part 105. ROOT      Intra module refs:   CPss21::GetDiscreteInputState(uint8_t)
                                                   CPss21::InitAllocationContext(TMemoryAllocationConext &)
                                                   CPss21::ModbusDeviceControl(uint8_t *, uint16_t, uint16_t)
                                                   CPss21::ModbusInit()
           ENTRY                   ADDRESS         REF BY
           =====                   =======         ======
           CPss21::m_aucRtuDiscreteDataArray
                                   00000898 
    -------------------------------------------------------------------------
NEAR_Z
  Relative segment, address: DATA 00000910 - 00000A0F (0x100 bytes), align: 0
  Segment part 106. ROOT      Intra module refs:   CPss21::ConfigurationInit()
                                                   CPss21::ModbusInit()
           ENTRY                   ADDRESS         REF BY
           =====                   =======         ======
           CPss21::m_auiReceiveMessageBuff
                                   00000910 
    -------------------------------------------------------------------------
NEAR_Z
  Relative segment, address: DATA 00000A10 - 00000B0F (0x100 bytes), align: 0
  Segment part 107. ROOT      Intra module refs:   CPss21::ConfigurationInit()
           ENTRY                   ADDRESS         REF BY
           =====                   =======         ======
           CPss21::m_auiIntermediateBuff
                                   00000A10        CDataBase::RestoreDefault() (DataBase)
                                                   CDataStore::Init() (DataStore)
    -------------------------------------------------------------------------
NEAR_Z
  Relative segment, address: DATA 00000B10 - 00000B4F (0x40 bytes), align: 0
  Segment part 108. ROOT      Intra module refs:   CPss21::InitAllocationContext(TMemoryAllocationConext &)
                                                   CPss21::SearchModules()
           ENTRY                   ADDRESS         REF BY
           =====                   =======         ======
           CPss21::m_auiSpiRxBuffer
                                   00000B10 
    -------------------------------------------------------------------------
NEAR_Z
  Relative segment, address: DATA 00000B50 - 00000B8F (0x40 bytes), align: 0
  Segment part 109. ROOT      Intra module refs:   CPss21::InitAllocationContext(TMemoryAllocationConext &)
                                                   CPss21::SearchModules()
           ENTRY                   ADDRESS         REF BY
           =====                   =======         ======
           CPss21::m_auiSpiTxBuffer
                                   00000B50 
    -------------------------------------------------------------------------
NEAR_Z
  Relative segment, address: DATA 00000B90 - 00000B90 (0x1 bytes), align: 0
  Segment part 110. ROOT      Intra module refs:   CPss21::GetFsmState()
           ENTRY                   ADDRESS         REF BY
           =====                   =======         ======
           CPss21::m_uiFsmState    00000B90        CPss21::SetFsmState(uint8_t) (LinkControl)
    -------------------------------------------------------------------------
NEAR_Z
  Relative segment, address: DATA 00000B91 - 00000B91 (0x1 bytes), align: 0
  Segment part 111. ROOT 
           ENTRY                   ADDRESS         REF BY
           =====                   =======         ======
           CPss21::m_uiType        00000B91 
    -------------------------------------------------------------------------
NEAR_Z
  Relative segment, address: DATA 00000B92 - 00000B97 (0x6 bytes), align: 0
  Segment part 112. ROOT      Intra module refs:   CPss21::CreateDevices()
                                                   CPss21::ModulesInteraction(uint8_t)
                                                   CPss21::SendToDevicesModbusReceipt()
                                                   CPss21::SendToDevicesModbusReset()
                                                   CPss21::SendToDevicesReceipt()
                                                   CPss21::SendToDevicesReset()
           ENTRY                   ADDRESS         REF BY
           =====                   =======         ======
           CPss21::m_apxDrivers    00000B92 
    -------------------------------------------------------------------------
NEAR_I
  Relative segment, address: DATA 00000746 - 0000074B (0x6 bytes), align: 0
  Segment part 114. ROOT      Intra module refs:   __sti__routine()
    -------------------------------------------------------------------------
CODE
  Relative segment, address: CODE 0000602C - 00006181 (0x156 bytes), align: 1
  Segment part 198.           Intra module refs:   Segment part 197
           LOCAL                   ADDRESS         
           =====                   =======         
           __sti__routine()        0000602C 
               calls direct
    -------------------------------------------------------------------------
CODE
  Relative segment, address: CODE 00006182 - 00006197 (0x16 bytes), align: 1
  Segment part 199.           Intra module refs:   Segment part 115
           LOCAL                   ADDRESS         
           =====                   =======         
           <Unnamed 0>             00006182 
               calls direct
    -------------------------------------------------------------------------
NEAR_Z
  Relative segment, address: DATA 00000B98 - 00000BC6 (0x2f bytes), align: 0
  Segment part 113. ROOT      Intra module refs:   CPss21::ModbusInit()
                                                   Segment part 115
                                                   __sti__routine()
           ENTRY                   ADDRESS         REF BY
           =====                   =======         ======
           CPss21::m_xUart1        00000B98 
    -------------------------------------------------------------------------
NEAR_Z
  Relative segment, address: DATA 00000BC7 - 00000BC8 (0x2 bytes), align: 0
  Segment part 117. ROOT      Intra module refs:   Segment part 115
    -------------------------------------------------------------------------
CODE
  Relative segment, address: CODE 00006198 - 000061AD (0x16 bytes), align: 1
  Segment part 200.           Intra module refs:   Segment part 120
           LOCAL                   ADDRESS         
           =====                   =======         
           <Unnamed 1>             00006198 
               calls direct
    -------------------------------------------------------------------------
NEAR_I
  Relative segment, address: DATA 0000074C - 00000751 (0x6 bytes), align: 0
  Segment part 119. ROOT      Intra module refs:   __sti__routine()
    -------------------------------------------------------------------------
NEAR_Z
  Relative segment, address: DATA 00000BC9 - 00000BF9 (0x31 bytes), align: 0
  Segment part 118. ROOT      Intra module refs:   CPss21::ErrorMainCycle()
                                                   CPss21::LinkControlErrorMainCycle()
                                                   CPss21::MainFsm()
                                                   CPss21::ModbusInit()
                                                   CPss21::NotifyersControlProcessing()
                                                   CPss21::TestMainCycle()
                                                   Segment part 120
                                                   __sti__routine()
           ENTRY                   ADDRESS         REF BY
           =====                   =======         ======
           CPss21::m_xModbusRtuOne
                                   00000BC9 
    -------------------------------------------------------------------------
NEAR_Z
  Relative segment, address: DATA 00000BFA - 00000BFB (0x2 bytes), align: 0
  Segment part 121. ROOT      Intra module refs:   Segment part 120
    -------------------------------------------------------------------------
CODE
  Relative segment, address: CODE 000061AE - 000061C3 (0x16 bytes), align: 1
  Segment part 201.           Intra module refs:   Segment part 124
                                                   Segment part 128
                                                   Segment part 132
                                                   Segment part 136
           LOCAL                   ADDRESS         
           =====                   =======         
           <Unnamed 2>             000061AE 
               calls direct
    -------------------------------------------------------------------------
NEAR_I
  Relative segment, address: DATA 00000752 - 00000757 (0x6 bytes), align: 0
  Segment part 123. ROOT      Intra module refs:   __sti__routine()
    -------------------------------------------------------------------------
NEAR_Z
  Relative segment, address: DATA 00000BFC - 00000C0A (0xf bytes), align: 0
  Segment part 122. ROOT      Intra module refs:   CPss21::KeyStateProcessing()
                                                   Segment part 124
                                                   __sti__routine()
           ENTRY                   ADDRESS         REF BY
           =====                   =======         ======
           CPss21::m_xReceiptKey   00000BFC 
    -------------------------------------------------------------------------
NEAR_Z
  Relative segment, address: DATA 00000C0B - 00000C0C (0x2 bytes), align: 0
  Segment part 125. ROOT      Intra module refs:   Segment part 124
    -------------------------------------------------------------------------
NEAR_I
  Relative segment, address: DATA 00000758 - 0000075D (0x6 bytes), align: 0
  Segment part 127. ROOT      Intra module refs:   __sti__routine()
    -------------------------------------------------------------------------
NEAR_Z
  Relative segment, address: DATA 00000C0D - 00000C1B (0xf bytes), align: 0
  Segment part 126. ROOT      Intra module refs:   CPss21::KeyStateProcessing()
                                                   Segment part 128
                                                   __sti__routine()
           ENTRY                   ADDRESS         REF BY
           =====                   =======         ======
           CPss21::m_xResetKey     00000C0D 
    -------------------------------------------------------------------------
NEAR_Z
  Relative segment, address: DATA 00000C1C - 00000C1D (0x2 bytes), align: 0
  Segment part 129. ROOT      Intra module refs:   Segment part 128
    -------------------------------------------------------------------------
NEAR_I
  Relative segment, address: DATA 0000075E - 00000763 (0x6 bytes), align: 0
  Segment part 131. ROOT      Intra module refs:   __sti__routine()
    -------------------------------------------------------------------------
NEAR_Z
  Relative segment, address: DATA 00000C1E - 00000C2C (0xf bytes), align: 0
  Segment part 130. ROOT      Intra module refs:   CPss21::KeyStateProcessing()
                                                   Segment part 132
                                                   __sti__routine()
           ENTRY                   ADDRESS         REF BY
           =====                   =======         ======
           CPss21::m_xCheckKey     00000C1E 
    -------------------------------------------------------------------------
NEAR_Z
  Relative segment, address: DATA 00000C2D - 00000C2E (0x2 bytes), align: 0
  Segment part 133. ROOT      Intra module refs:   Segment part 132
    -------------------------------------------------------------------------
NEAR_I
  Relative segment, address: DATA 00000764 - 00000769 (0x6 bytes), align: 0
  Segment part 135. ROOT      Intra module refs:   __sti__routine()
    -------------------------------------------------------------------------
NEAR_Z
  Relative segment, address: DATA 00000C2F - 00000C3D (0xf bytes), align: 0
  Segment part 134. ROOT      Intra module refs:   CPss21::KeyStateProcessing()
                                                   Segment part 136
                                                   __sti__routine()
           ENTRY                   ADDRESS         REF BY
           =====                   =======         ======
           CPss21::m_xExternalKey
                                   00000C2F 
    -------------------------------------------------------------------------
NEAR_Z
  Relative segment, address: DATA 00000C3E - 00000C3F (0x2 bytes), align: 0
  Segment part 137. ROOT      Intra module refs:   Segment part 136
    -------------------------------------------------------------------------
NEAR_Z
  Relative segment, address: DATA 00000C40 - 00000C40 (0x1 bytes), align: 0
  Segment part 138. ROOT      Intra module refs:   CPss21::GetPanelReceipt()
                                                   CPss21::SetPanelReceipt(uint8_t)
           ENTRY                   ADDRESS         REF BY
           =====                   =======         ======
           CPss21::m_uiPanelReceipt
                                   00000C40 
    -------------------------------------------------------------------------
NEAR_Z
  Relative segment, address: DATA 00000C41 - 00000C41 (0x1 bytes), align: 0
  Segment part 139. ROOT      Intra module refs:   CPss21::GetPanelReset()
                                                   CPss21::SetPanelReset(uint8_t)
           ENTRY                   ADDRESS         REF BY
           =====                   =======         ======
           CPss21::m_uiPanelReset
                                   00000C41 
    -------------------------------------------------------------------------
NEAR_Z
  Relative segment, address: DATA 00000C42 - 00000C42 (0x1 bytes), align: 0
  Segment part 140. ROOT      Intra module refs:   CPss21::GetExternalReceipt()
                                                   CPss21::SetExternalReceipt(uint8_t)
           ENTRY                   ADDRESS         REF BY
           =====                   =======         ======
           CPss21::m_uiExternalReceipt
                                   00000C42 
    -------------------------------------------------------------------------
NEAR_Z
  Relative segment, address: DATA 00000C43 - 00000C43 (0x1 bytes), align: 0
  Segment part 141. ROOT      Intra module refs:   CPss21::GetExternalReset()
                                                   CPss21::SetExternalReset(uint8_t)
           ENTRY                   ADDRESS         REF BY
           =====                   =======         ======
           CPss21::m_uiExternalReset
                                   00000C43 
    -------------------------------------------------------------------------
NEAR_Z
  Relative segment, address: DATA 00000C44 - 00000C44 (0x1 bytes), align: 0
  Segment part 142. ROOT      Intra module refs:   CPss21::GetModbusReceipt()
                                                   CPss21::SetModbusReceipt(uint8_t)
           ENTRY                   ADDRESS         REF BY
           =====                   =======         ======
           CPss21::m_uiModbusReceipt
                                   00000C44 
    -------------------------------------------------------------------------
NEAR_Z
  Relative segment, address: DATA 00000C45 - 00000C45 (0x1 bytes), align: 0
  Segment part 143. ROOT      Intra module refs:   CPss21::GetModbusReset()
                                                   CPss21::SetModbusReset(uint8_t)
           ENTRY                   ADDRESS         REF BY
           =====                   =======         ======
           CPss21::m_uiModbusReset
                                   00000C45 
    -------------------------------------------------------------------------
NEAR_Z
  Relative segment, address: DATA 00000C46 - 00000C46 (0x1 bytes), align: 0
  Segment part 144. ROOT      Intra module refs:   CPss21::SetDiscreteSignalsReceipt(uint8_t)
           ENTRY                   ADDRESS         REF BY
           =====                   =======         ======
           CPss21::m_uiDiscreteSignalsReceipt
                                   00000C46        CPss21::GetDiscreteSignalsReceipt() (Alarm)
    -------------------------------------------------------------------------
NEAR_Z
  Relative segment, address: DATA 00000C47 - 00000C47 (0x1 bytes), align: 0
  Segment part 145. ROOT      Intra module refs:   CPss21::SetDiscreteSignalsReset(uint8_t)
           ENTRY                   ADDRESS         REF BY
           =====                   =======         ======
           CPss21::m_uiDiscreteSignalsReset
                                   00000C47        CPss21::GetDiscreteSignalsReset() (Alarm)
    -------------------------------------------------------------------------
NEAR_Z
  Relative segment, address: DATA 00000C48 - 00000C48 (0x1 bytes), align: 0
  Segment part 146. ROOT      Intra module refs:   CPss21::GetErrorCode()
                                                   CPss21::InitAllocationContext(TMemoryAllocationConext &)
           ENTRY                   ADDRESS         REF BY
           =====                   =======         ======
           CPss21::m_uiErrorCode   00000C48        CPss21::SetErrorCode(uint8_t) (DataBase)
    -------------------------------------------------------------------------
NEAR_Z
  Relative segment, address: DATA 00000C49 - 00000C49 (0x1 bytes), align: 0
  Segment part 147. ROOT      Intra module refs:   CPss21::GetModuleIndex()
                                                   CPss21::SetModuleIndex(uint8_t)
           ENTRY                   ADDRESS         REF BY
           =====                   =======         ======
           CPss21::m_uiModuleIndex
                                   00000C49 
    -------------------------------------------------------------------------
CODE
  Relative segment, address: CODE 000061C4 - 000061D9 (0x16 bytes), align: 1
  Segment part 202.           Intra module refs:   Segment part 150
           LOCAL                   ADDRESS         
           =====                   =======         
           <Unnamed 3>             000061C4 
               calls direct
    -------------------------------------------------------------------------
NEAR_I
  Relative segment, address: DATA 0000076A - 0000076F (0x6 bytes), align: 0
  Segment part 149. ROOT      Intra module refs:   __sti__routine()
    -------------------------------------------------------------------------
NEAR_Z
  Relative segment, address: DATA 00000C4A - 00000C57 (0xe bytes), align: 0
  Segment part 148. ROOT      Intra module refs:   CPss21::KeyStateProcessing()
                                                   Segment part 150
                                                   __sti__routine()
           ENTRY                   ADDRESS         REF BY
           =====                   =======         ======
           CPss21::m_xEventUniteLogicAndOne
                                   00000C4A 
    -------------------------------------------------------------------------
NEAR_Z
  Relative segment, address: DATA 00000C58 - 00000C59 (0x2 bytes), align: 0
  Segment part 151. ROOT      Intra module refs:   Segment part 150
    -------------------------------------------------------------------------
CODE
  Relative segment, address: CODE 000061DA - 000061EF (0x16 bytes), align: 1
  Segment part 203.           Intra module refs:   Segment part 154
           LOCAL                   ADDRESS         
           =====                   =======         
           <Unnamed 4>             000061DA 
               calls direct
    -------------------------------------------------------------------------
NEAR_I
  Relative segment, address: DATA 00000770 - 00000775 (0x6 bytes), align: 0
  Segment part 153. ROOT      Intra module refs:   __sti__routine()
    -------------------------------------------------------------------------
NEAR_Z
  Relative segment, address: DATA 00000C5A - 00000C5F (0x6 bytes), align: 0
  Segment part 152. ROOT      Intra module refs:   CPss21::MainFsm()
                                                   Segment part 154
                                                   __sti__routine()
           ENTRY                   ADDRESS         REF BY
           =====                   =======         ======
           CPss21::m_xMainCycleTimer
                                   00000C5A 
    -------------------------------------------------------------------------
NEAR_Z
  Relative segment, address: DATA 00000C60 - 00000C61 (0x2 bytes), align: 0
  Segment part 155. ROOT      Intra module refs:   Segment part 154
    -------------------------------------------------------------------------
CODE
  Relative segment, address: CODE 000061F0 - 00006205 (0x16 bytes), align: 1
  Segment part 204.           Intra module refs:   Segment part 158
           LOCAL                   ADDRESS         
           =====                   =======         
           <Unnamed 5>             000061F0 
               calls direct
    -------------------------------------------------------------------------
NEAR_I
  Relative segment, address: DATA 00000776 - 0000077B (0x6 bytes), align: 0
  Segment part 157. ROOT      Intra module refs:   __sti__routine()
    -------------------------------------------------------------------------
NEAR_Z
  Relative segment, address: DATA 00000C62 - 00000C6D (0xc bytes), align: 0
  Segment part 156. ROOT      Intra module refs:   CPss21::AlarmTypeErrorChange()
                                                   CPss21::AlarmTypeSet(uint8_t)
                                                   CPss21::MainFsm()
                                                   CPss21::NotifyersControlProcessing()
                                                   Segment part 158
                                                   __sti__routine()
           ENTRY                   ADDRESS         REF BY
           =====                   =======         ======
           CPss21::m_xPreventiveAlarmWindowNotifyerControl
                                   00000C62 
    -------------------------------------------------------------------------
NEAR_Z
  Relative segment, address: DATA 00000C6E - 00000C6F (0x2 bytes), align: 0
  Segment part 159. ROOT      Intra module refs:   Segment part 158
    -------------------------------------------------------------------------
CODE
  Relative segment, address: CODE 00006206 - 0000621B (0x16 bytes), align: 1
  Segment part 205.           Intra module refs:   Segment part 162
           LOCAL                   ADDRESS         
           =====                   =======         
           <Unnamed 6>             00006206 
               calls direct
    -------------------------------------------------------------------------
NEAR_I
  Relative segment, address: DATA 0000077C - 00000781 (0x6 bytes), align: 0
  Segment part 161. ROOT      Intra module refs:   __sti__routine()
    -------------------------------------------------------------------------
NEAR_Z
  Relative segment, address: DATA 00000C70 - 00000C7B (0xc bytes), align: 0
  Segment part 160. ROOT      Intra module refs:   CPss21::AlarmTypeErrorChange()
                                                   CPss21::AlarmTypeSet(uint8_t)
                                                   CPss21::MainFsm()
                                                   CPss21::NotifyersControlProcessing()
                                                   Segment part 162
                                                   __sti__routine()
           ENTRY                   ADDRESS         REF BY
           =====                   =======         ======
           CPss21::m_xEmergencyAlarmWindowNotifyerControl
                                   00000C70 
    -------------------------------------------------------------------------
NEAR_Z
  Relative segment, address: DATA 00000C7C - 00000C7D (0x2 bytes), align: 0
  Segment part 163. ROOT      Intra module refs:   Segment part 162
    -------------------------------------------------------------------------
CODE
  Relative segment, address: CODE 0000621C - 00006231 (0x16 bytes), align: 1
  Segment part 206.           Intra module refs:   Segment part 166
           LOCAL                   ADDRESS         
           =====                   =======         
           <Unnamed 7>             0000621C 
               calls direct
    -------------------------------------------------------------------------
NEAR_I
  Relative segment, address: DATA 00000782 - 00000787 (0x6 bytes), align: 0
  Segment part 165. ROOT      Intra module refs:   __sti__routine()
    -------------------------------------------------------------------------
NEAR_Z
  Relative segment, address: DATA 00000C7E - 00000C89 (0xc bytes), align: 0
  Segment part 164. ROOT      Intra module refs:   CPss21::AlarmTypeErrorChange()
                                                   CPss21::AlarmTypeSet(uint8_t)
                                                   CPss21::ErrorMainCycle()
                                                   CPss21::MainFsm()
                                                   CPss21::NotifyersControlProcessing()
                                                   Segment part 166
                                                   __sti__routine()
           ENTRY                   ADDRESS         REF BY
           =====                   =======         ======
           CPss21::m_xStatusLedNotifyerControl
                                   00000C7E 
    -------------------------------------------------------------------------
NEAR_Z
  Relative segment, address: DATA 00000C8A - 00000C8B (0x2 bytes), align: 0
  Segment part 167. ROOT      Intra module refs:   Segment part 166
    -------------------------------------------------------------------------
CODE
  Relative segment, address: CODE 00006232 - 00006247 (0x16 bytes), align: 1
  Segment part 207.           Intra module refs:   Segment part 170
           LOCAL                   ADDRESS         
           =====                   =======         
           <Unnamed 8>             00006232 
               calls direct
    -------------------------------------------------------------------------
NEAR_I
  Relative segment, address: DATA 00000788 - 0000078D (0x6 bytes), align: 0
  Segment part 169. ROOT      Intra module refs:   __sti__routine()
    -------------------------------------------------------------------------
NEAR_Z
  Relative segment, address: DATA 00000C8C - 00000C97 (0xc bytes), align: 0
  Segment part 168. ROOT      Intra module refs:   CPss21::AlarmTypeErrorChange()
                                                   CPss21::AlarmTypeSet(uint8_t)
                                                   CPss21::ErrorMainCycle()
                                                   CPss21::KeyStateProcessing()
                                                   CPss21::MainFsm()
                                                   CPss21::NotifyersControlProcessing()
                                                   Segment part 170
                                                   __sti__routine()
           ENTRY                   ADDRESS         REF BY
           =====                   =======         ======
           CPss21::m_xBuzzerNotifyerControl
                                   00000C8C 
    -------------------------------------------------------------------------
NEAR_Z
  Relative segment, address: DATA 00000C98 - 00000C99 (0x2 bytes), align: 0
  Segment part 171. ROOT      Intra module refs:   Segment part 170
    -------------------------------------------------------------------------
CODE
  Relative segment, address: CODE 00006248 - 0000625D (0x16 bytes), align: 1
  Segment part 208.           Intra module refs:   Segment part 174
           LOCAL                   ADDRESS         
           =====                   =======         
           <Unnamed 9>             00006248 
               calls direct
    -------------------------------------------------------------------------
NEAR_I
  Relative segment, address: DATA 0000078E - 00000793 (0x6 bytes), align: 0
  Segment part 173. ROOT      Intra module refs:   __sti__routine()
    -------------------------------------------------------------------------
NEAR_Z
  Relative segment, address: DATA 00000C9A - 00000CA5 (0xc bytes), align: 0
  Segment part 172. ROOT      Intra module refs:   CPss21::MainFsm()
                                                   CPss21::TestMainCycle()
                                                   Segment part 174
                                                   __sti__routine()
           ENTRY                   ADDRESS         REF BY
           =====                   =======         ======
           CPss21::m_xTestModeNotifyerControl
                                   00000C9A 
    -------------------------------------------------------------------------
NEAR_Z
  Relative segment, address: DATA 00000CA6 - 00000CA7 (0x2 bytes), align: 0
  Segment part 175. ROOT      Intra module refs:   Segment part 174
    -------------------------------------------------------------------------
CODE
  Relative segment, address: CODE 0000625E - 00006273 (0x16 bytes), align: 1
  Segment part 209.           Intra module refs:   Segment part 178
           LOCAL                   ADDRESS         
           =====                   =======         
           <Unnamed 10>            0000625E 
               calls direct
    -------------------------------------------------------------------------
CODE
  Relative segment, address: CODE 00006274 - 00006289 (0x16 bytes), align: 1
  Segment part 210.           Intra module refs:   Segment part 193
           LOCAL                   ADDRESS         
           =====                   =======         
           <Unnamed 11>            00006274 
               calls direct
    -------------------------------------------------------------------------
NEAR_I
  Relative segment, address: DATA 00000794 - 00000799 (0x6 bytes), align: 0
  Segment part 177. ROOT      Intra module refs:   __sti__routine()
    -------------------------------------------------------------------------
NEAR_Z
  Relative segment, address: DATA 00000CA8 - 00000CB2 (0xb bytes), align: 0
  Segment part 176. ROOT      Intra module refs:   CPss21::LinkControlErrorMainCycle()
                                                   CPss21::MainFsm()
                                                   CPss21::ModbusDeviceControl(uint8_t *, uint16_t, uint16_t)
                                                   CPss21::SendToDevicesModbusReceipt()
                                                   CPss21::SendToDevicesReceipt()
                                                   Segment part 178
                                                   __sti__routine()
           ENTRY                   ADDRESS         REF BY
           =====                   =======         ======
           CPss21::m_xModbusRtuLinkControl
                                   00000CA8 
    -------------------------------------------------------------------------
NEAR_Z
  Relative segment, address: DATA 00000CB3 - 00000CB4 (0x2 bytes), align: 0
  Segment part 179. ROOT      Intra module refs:   Segment part 178
    -------------------------------------------------------------------------
NEAR_Z
  Relative segment, address: DATA 00000CB5 - 00000CB5 (0x1 bytes), align: 0
  Segment part 180. ROOT      Intra module refs:   CPss21::AlarmTypeChange()
                                                   CPss21::AlarmTypeErrorChange()
                                                   CPss21::AlarmTypeReceipt()
                                                   CPss21::AlarmTypeReset()
                                                   CPss21::Init()
           ENTRY                   ADDRESS         REF BY
           =====                   =======         ======
           CPss21::m_uiCommonAlarmType
                                   00000CB5        CPss21::GetCommonAlarmType() (Alarm)
                                                   CPss21::SetCommonAlarmType(uint8_t) (Alarm)
    -------------------------------------------------------------------------
NEAR_Z
  Relative segment, address: DATA 00000CB6 - 00000CB6 (0x1 bytes), align: 0
  Segment part 181. ROOT      Intra module refs:   CPss21::AlarmTypeChange()
                                                   CPss21::AlarmTypeErrorChange()
                                                   CPss21::AlarmTypeReceipt()
                                                   CPss21::AlarmTypeReset()
                                                   CPss21::Init()
           ENTRY                   ADDRESS         REF BY
           =====                   =======         ======
           CPss21::m_uiCommonAlarmTypePrevious
                                   00000CB6 
    -------------------------------------------------------------------------
NEAR_Z
  Relative segment, address: DATA 00000CB7 - 00000CBF (0x9 bytes), align: 0
  Segment part 182. ROOT      Intra module refs:   CPss21::CreateDevices()
                                                   CPss21::ModulesInteraction(uint8_t)
                                                   CPss21::SearchModules()
                                                   CPss21::SendToDevicesModbusReceipt()
                                                   CPss21::SendToDevicesModbusReset()
                                                   CPss21::SendToDevicesReceipt()
                                                   CPss21::SendToDevicesReset()
           ENTRY                   ADDRESS         REF BY
           =====                   =======         ======
           CPss21::m_xDeviceConfigSearch
                                   00000CB7        CModbus::Programming(uint8_t *, uint8_t *, uint16_t) (modbus)
    -------------------------------------------------------------------------
NEAR_Z
  Relative segment, address: DATA 00000CC0 - 00000CD3 (0x14 bytes), align: 0
  Segment part 183. ROOT      Intra module refs:   CPss21::ConfigurationInit()
                                                   CPss21::GetTimeoutModbusRtuLinkControl()
                                                   CPss21::KeyStateProcessing()
                                                   CPss21::ModbusRtuLinkControlIsOn()
                                                   CPss21::SearchModules()
           ENTRY                   ADDRESS         REF BY
           =====                   =======         ======
           CPss21::m_xDeviceConfiguration
                                   00000CC0 
    -------------------------------------------------------------------------
NEAR_Z
  Relative segment, address: DATA 00000CD4 - 00000CDB (0x8 bytes), align: 0
  Segment part 184. ROOT      Intra module refs:   CPss21::ConfigurationInit()
                                                   CPss21::ModbusRtuLinkControlInProgress()
                                                   CPss21::SetModeModbusRtuLinkControlInProgress(bool)
           ENTRY                   ADDRESS         REF BY
           =====                   =======         ======
           CPss21::m_xDeviceState
                                   00000CD4 
    -------------------------------------------------------------------------
NEAR_Z
  Relative segment, address: DATA 00000CDC - 00000CE2 (0x7 bytes), align: 0
  Segment part 185. ROOT      Intra module refs:   CPss21::ConfigurationInit()
                                                   CPss21::ModbusDefaultInit()
                                                   CPss21::ModbusInit()
           ENTRY                   ADDRESS         REF BY
           =====                   =======         ======
           CPss21::m_xModbusSettings
                                   00000CDC        CUart::Init(uint32_t, uint8_t, uint8_t, uint8_t, uint8_t *, uint8_t *) (Platform)
    -------------------------------------------------------------------------
NEAR_Z
  Relative segment, address: DATA 00000CE3 - 00000DA2 (0xc0 bytes), align: 0
  Segment part 186. ROOT      Intra module refs:   CPss21::AlarmsProcessing()
                                                   CPss21::ConfigurationInit()
           ENTRY                   ADDRESS         REF BY
           =====                   =======         ======
           CPss21::m_apxAlarmDfa   00000CE3 
    -------------------------------------------------------------------------
NEAR_Z
  Relative segment, address: DATA 00000DA3 - 00000DA6 (0x4 bytes), align: 0
  Segment part 187. ROOT 
           ENTRY                   ADDRESS         REF BY
           =====                   =======         ======
           CPss21::m_apxErrorAlarmDfa
                                   00000DA3 
    -------------------------------------------------------------------------
NEAR_Z
  Relative segment, address: DATA 00000DA7 - 00000DA8 (0x2 bytes), align: 0
  Segment part 188. ROOT      Intra module refs:   CPss21::GetErrorAlarmState(uint8_t)
                                                   CPss21::Init()
                                                   CPss21::InitAllocationContext(TMemoryAllocationConext &)
           ENTRY                   ADDRESS         REF BY
           =====                   =======         ======
           CPss21::m_auiErrorAlarmDataArray
                                   00000DA7 
    -------------------------------------------------------------------------
NEAR_Z
  Relative segment, address: DATA 00000DA9 - 00000DB8 (0x10 bytes), align: 0
  Segment part 189. ROOT      Intra module refs:   CPss21::DiscreteOutputControlClear()
                                                   CPss21::DiscreteOutputsSet(uint8_t *, uint8_t)
                                                   CPss21::InitAllocationContext(TMemoryAllocationConext &)
           ENTRY                   ADDRESS         REF BY
           =====                   =======         ======
           CPss21::m_axDiscreteOutputControl
                                   00000DA9 
    -------------------------------------------------------------------------
NEAR_Z
  Relative segment, address: DATA 00000DB9 - 00000DD0 (0x18 bytes), align: 0
  Segment part 190. ROOT      Intra module refs:   CPss21::ConfigurationInit()
                                                   CPss21::InitAllocationContext(TMemoryAllocationConext &)
           ENTRY                   ADDRESS         REF BY
           =====                   =======         ======
           CPss21::m_xDiscreteOutputDataBase
                                   00000DB9 
    -------------------------------------------------------------------------
CODE
  Relative segment, address: CODE 0000628A - 0000629F (0x16 bytes), align: 1
  Segment part 211.           Intra module refs:   <Unnamed 11>
           LOCAL                   ADDRESS         
           =====                   =======         
           <Unnamed 12>            0000628A 
               calls direct
    -------------------------------------------------------------------------
NEAR_I
  Relative segment, address: DATA 0000079A - 0000079F (0x6 bytes), align: 0
  Segment part 192. ROOT      Intra module refs:   __sti__routine()
    -------------------------------------------------------------------------
NEAR_Z
  Relative segment, address: DATA 00000DD1 - 00000F50 (0x180 bytes), align: 0
  Segment part 191. ROOT      Intra module refs:   <Unnamed 11>
                                                   CPss21::ActiveAlarmWindowOff(uint8_t)
                                                   CPss21::ActiveAlarmWindowOn(uint8_t)
                                                   CPss21::AllAlarmWindowOff()
                                                   CPss21::AllAlarmWindowOn(uint8_t)
                                                   CPss21::BoardWindowsUpdate()
                                                   CPss21::ErrorWindowOn(uint8_t)
                                                   CPss21::Init()
                                                   CPss21::RestoreContextNotifyerControl()
                                                   CPss21::SaveContextNotifyerControl()
                                                   __sti__routine()
           ENTRY                   ADDRESS         REF BY
           =====                   =======         ======
           CPss21::m_axAlarmWindowControl
                                   00000DD1        CPss21::GetAlarmWindowControlPointer(uint8_t) (Alarm)
    -------------------------------------------------------------------------
NEAR_Z
  Relative segment, address: DATA 00000F51 - 00000F52 (0x2 bytes), align: 0
  Segment part 194. ROOT      Intra module refs:   Segment part 193
    -------------------------------------------------------------------------
NEAR_F
  Relative segment, address: CODE 00000857 - 0000085A (0x4 bytes), align: 0
  Segment part 99. ROOT 
           LOCAL                   ADDRESS         
           =====                   =======         
           CDriver::__vtbl         00000857 
    -------------------------------------------------------------------------
NEAR_F
  Relative segment, address: CODE 0000085B - 00000862 (0x8 bytes), align: 0
  Segment part 100. ROOT 
           LOCAL                   ADDRESS         
           =====                   =======         
           CTaskInterface::__vtbl
                                   0000085B 
    -------------------------------------------------------------------------
NEAR_F
  Relative segment, address: CODE 00000863 - 0000086C (0xa bytes), align: 0
  Segment part 101. ROOT 
           LOCAL                   ADDRESS         
           =====                   =======         
           CIsRegularButtonPressedInterface::__vtbl
                                   00000863 
    -------------------------------------------------------------------------
NEAR_F
  Relative segment, address: CODE 0000086D - 0000089C (0x30 bytes), align: 0
  Segment part 195. ROOT      Intra module refs:   CPss21::ErrorWindowOn(uint8_t)
           ENTRY                   ADDRESS         REF BY
           =====                   =======         ======
           CPss21::m_auiErrorLedOn
                                   0000086D 
    -------------------------------------------------------------------------
CODE
  Relative segment, address: CODE 000062A0 - 0000635F (0xc0 bytes), align: 1
  Segment part 212.           Intra module refs:   CPss21::MainFsm()
                                                   CPss21::ModbusDefaultInit()
           ENTRY                   ADDRESS         REF BY
           =====                   =======         ======
           CPss21::ModbusInit()    000062A0 
               calls direct
    -------------------------------------------------------------------------
CODE
  Relative segment, address: CODE 00006360 - 00006375 (0x16 bytes), align: 1
  Segment part 213.           Intra module refs:   CPss21::KeyStateProcessing()
                                                   CPss21::MainFsm()
           ENTRY                   ADDRESS         REF BY
           =====                   =======         ======
           CPss21::ModbusDefaultInit()
                                   00006360 
               calls direct
    -------------------------------------------------------------------------
CODE
  Relative segment, address: CODE 00006376 - 0000637F (0xa bytes), align: 1
  Segment part 214.           Intra module refs:   CPss21::ActiveAlarmWindowOff(uint8_t)
                                                   CPss21::ActiveAlarmWindowOn(uint8_t)
                                                   CPss21::AllAlarmWindowOff()
                                                   CPss21::AllAlarmWindowOn(uint8_t)
                                                   CPss21::ErrorWindowOn(uint8_t)
           ENTRY                   ADDRESS         REF BY
           =====                   =======         ======
           CPss21::BoardWindowsUpdate()
                                   00006376        CBuzzerNotifyerControl::NotifyerOff() (NotifyerControl)
                                                   CEmergencyAlarmWindowNotifyerControl::NotifyerOff() (NotifyerControl)
                                                   CIndicationAlarmLowLevelDfa::Fsm() (Alarm)
                                                   CPreventiveAlarmWindowNotifyerControl::NotifyerOff() (NotifyerControl)
                                                   CStatusLedNotifyerControl::NotifyerOff() (NotifyerControl)
                                                   CTestModeNotifyerControl::NotifyerOff() (NotifyerControl)
               calls direct
    -------------------------------------------------------------------------
CODE
  Relative segment, address: CODE 00006380 - 000063C9 (0x4a bytes), align: 1
  Segment part 215.           Intra module refs:   CPss21::Init()
                                                   CPss21::MainFsm()
           ENTRY                   ADDRESS         REF BY
           =====                   =======         ======
           CPss21::AllAlarmWindowOff()
                                   00006380        CErrorAlarmDfa::Fsm() (Alarm)
                                                   CTestModeNotifyerControl::NotifyerOff() (NotifyerControl)
               calls direct
    -------------------------------------------------------------------------
CODE
  Relative segment, address: CODE 000063CA - 000063F7 (0x2e bytes), align: 1
  Segment part 216.           Intra module refs:   CPss21::MainFsm()
           ENTRY                   ADDRESS         REF BY
           =====                   =======         ======
           CPss21::Init()          000063CA 
               calls direct
    -------------------------------------------------------------------------
CODE
  Relative segment, address: CODE 000063F8 - 00006421 (0x2a bytes), align: 1
  Segment part 217.           Intra module refs:   CPss21::MainFsm()
           ENTRY                   ADDRESS         REF BY
           =====                   =======         ======
           CPss21::AddressBusInit()
                                   000063F8 
               calls direct
    -------------------------------------------------------------------------
CODE
  Relative segment, address: CODE 00006422 - 0000646B (0x4a bytes), align: 1
  Segment part 218.           Intra module refs:   CPss21::SearchModules()
           ENTRY                   ADDRESS         REF BY
           =====                   =======         ======
           CPss21::ConnectDevice(uint8_t)
                                   00006422        CModuleMrXXDriver::Exchange() (ModuleMrXX)
                                                   CModuleMrXXDriver::WriteDataBase() (ModuleMrXX)
                                                   CMvsn21Driver::DataExchange() (Mvsn21)
               calls direct
    -------------------------------------------------------------------------
CODE
  Relative segment, address: CODE 0000646C - 00006485 (0x1a bytes), align: 1
  Segment part 219.           Intra module refs:   CPss21::SearchModules()
           ENTRY                   ADDRESS         REF BY
           =====                   =======         ======
           CPss21::DisconnectDevice()
                                   0000646C        CModuleMrXXDriver::Exchange() (ModuleMrXX)
                                                   CModuleMrXXDriver::WriteDataBase() (ModuleMrXX)
                                                   CMvsn21Driver::DataExchange() (Mvsn21)
               calls direct
    -------------------------------------------------------------------------
CODE
  Relative segment, address: CODE 00006486 - 00006575 (0xf0 bytes), align: 1
  Segment part 220.           Intra module refs:   CPss21::MainFsm()
           ENTRY                   ADDRESS         REF BY
           =====                   =======         ======
           CPss21::SearchModules()
                                   00006486 
               calls direct
    -------------------------------------------------------------------------
CODE
  Relative segment, address: CODE 00006576 - 000065E5 (0x70 bytes), align: 1
  Segment part 221.           Intra module refs:   CPss21::CreateDevices()
           ENTRY                   ADDRESS         REF BY
           =====                   =======         ======
           CPss21::InitAllocationContext(TMemoryAllocationConext &)
                                   00006576 
    -------------------------------------------------------------------------
CODE
  Relative segment, address: CODE 000065E6 - 00006751 (0x16c bytes), align: 1
  Segment part 222.           Intra module refs:   CPss21::MainFsm()
           ENTRY                   ADDRESS         REF BY
           =====                   =======         ======
           CPss21::CreateDevices()
                                   000065E6 
               calls direct and indirect
    -------------------------------------------------------------------------
CODE
  Relative segment, address: CODE 00006752 - 000067AF (0x5e bytes), align: 1
  Segment part 225.           Intra module refs:   CPss21::ModbusDeviceControl(uint8_t *, uint16_t, uint16_t)
           ENTRY                   ADDRESS         REF BY
           =====                   =======         ======
           CPss21::SetBytesFromBits(uint8_t *, uint8_t *, uint16_t)
                                   00006752 
               calls direct
    -------------------------------------------------------------------------
CODE
  Relative segment, address: CODE 000067B0 - 000067DB (0x2c bytes), align: 1
  Segment part 226.           Intra module refs:   CPss21::ModbusDeviceControl(uint8_t *, uint16_t, uint16_t)
           ENTRY                   ADDRESS         REF BY
           =====                   =======         ======
           CPss21::SendToDevicesModbusReset()
                                   000067B0 
               calls direct
    -------------------------------------------------------------------------
CODE
  Relative segment, address: CODE 000067DC - 00006811 (0x36 bytes), align: 1
  Segment part 227.           Intra module refs:   CPss21::ModbusDeviceControl(uint8_t *, uint16_t, uint16_t)
           ENTRY                   ADDRESS         REF BY
           =====                   =======         ======
           CPss21::SendToDevicesModbusReceipt()
                                   000067DC 
               calls direct
    -------------------------------------------------------------------------
CODE
  Relative segment, address: CODE 00006812 - 00006883 (0x72 bytes), align: 1
  Segment part 228.           Intra module refs:   CPss21::ModbusDeviceControl(uint8_t, uint16_t)
           ENTRY                   ADDRESS         REF BY
           =====                   =======         ======
           CPss21::ModbusDeviceControl(uint8_t *, uint16_t, uint16_t)
                                   00006812        CModbus::WriteMultipleCoils(uint8_t *, uint8_t *, uint16_t) (modbus)
               calls direct
    -------------------------------------------------------------------------
CODE
  Relative segment, address: CODE 00006884 - 0000689F (0x1c bytes), align: 1
  Segment part 229.
           ENTRY                   ADDRESS         REF BY
           =====                   =======         ======
           CPss21::ModbusDeviceControl(uint8_t, uint16_t)
                                   00006884        CModbus::WriteSingleCoil(uint8_t *, uint8_t *, uint16_t) (modbus)
               calls direct
    -------------------------------------------------------------------------
CODE
  Relative segment, address: CODE 000068A0 - 000068AF (0x10 bytes), align: 1
  Segment part 230.
           ENTRY                   ADDRESS         REF BY
           =====                   =======         ======
           CPss21::ModbusRtuLinkControlIsOn()
                                   000068A0        CModbusRtuLinkControl::Fsm() (LinkControl)
    -------------------------------------------------------------------------
CODE
  Relative segment, address: CODE 000068B0 - 000068BF (0x10 bytes), align: 1
  Segment part 231.
           ENTRY                   ADDRESS         REF BY
           =====                   =======         ======
           CPss21::GetTimeoutModbusRtuLinkControl()
                                   000068B0        CModbusRtuLinkControl::Fsm() (LinkControl)
               calls direct
    -------------------------------------------------------------------------
CODE
  Relative segment, address: CODE 000068C0 - 000068D1 (0x12 bytes), align: 1
  Segment part 232.
           ENTRY                   ADDRESS         REF BY
           =====                   =======         ======
           CPss21::ModbusRtuLinkControlInProgress()
                                   000068C0        CModbusRtuLinkControl::Fsm() (LinkControl)
    -------------------------------------------------------------------------
CODE
  Relative segment, address: CODE 000068D2 - 000068F3 (0x22 bytes), align: 1
  Segment part 233.
           ENTRY                   ADDRESS         REF BY
           =====                   =======         ======
           CPss21::SetModeModbusRtuLinkControlInProgress(bool)
                                   000068D2        CModbusRtuLinkControl::Fsm() (LinkControl)
               calls direct
    -------------------------------------------------------------------------
CODE
  Relative segment, address: CODE 000068F4 - 00006929 (0x36 bytes), align: 1
  Segment part 234.           Intra module refs:   CPss21::KeyStateProcessing()
           ENTRY                   ADDRESS         REF BY
           =====                   =======         ======
           CPss21::SendToDevicesReceipt()
                                   000068F4 
               calls direct
    -------------------------------------------------------------------------
CODE
  Relative segment, address: CODE 0000692A - 00006955 (0x2c bytes), align: 1
  Segment part 235.           Intra module refs:   CPss21::KeyStateProcessing()
           ENTRY                   ADDRESS         REF BY
           =====                   =======         ======
           CPss21::SendToDevicesReset()
                                   0000692A 
               calls direct
    -------------------------------------------------------------------------
CODE
  Relative segment, address: CODE 00006956 - 00006AB1 (0x15c bytes), align: 1
  Segment part 236.           Intra module refs:   CPss21::ErrorMainCycle()
                                                   CPss21::LinkControlErrorMainCycle()
                                                   CPss21::MainFsm()
                                                   CPss21::TestMainCycle()
           ENTRY                   ADDRESS         REF BY
           =====                   =======         ======
           CPss21::KeyStateProcessing()
                                   00006956 
               calls direct
    -------------------------------------------------------------------------
CODE
  Relative segment, address: CODE 00006AB2 - 00006AD7 (0x26 bytes), align: 1
  Segment part 237.           Intra module refs:   CPss21::ErrorMainCycle()
                                                   CPss21::LinkControlErrorMainCycle()
                                                   CPss21::MainFsm()
                                                   CPss21::TestMainCycle()
           ENTRY                   ADDRESS         REF BY
           =====                   =======         ======
           CPss21::ReceiptResetGlobalFlagsClear()
                                   00006AB2 
               calls direct
    -------------------------------------------------------------------------
CODE
  Relative segment, address: CODE 00006AD8 - 00006B25 (0x4e bytes), align: 1
  Segment part 238.           Intra module refs:   CPss21::MainFsm()
           ENTRY                   ADDRESS         REF BY
           =====                   =======         ======
           CPss21::ModulesInteraction(uint8_t)
                                   00006AD8 
               calls indirect
    -------------------------------------------------------------------------
CODE
  Relative segment, address: CODE 00006B26 - 00006F11 (0x3ec bytes), align: 1
  Segment part 239.           Intra module refs:   CPss21::MainFsm()
           ENTRY                   ADDRESS         REF BY
           =====                   =======         ======
           CPss21::ConfigurationInit()
                                   00006B26 
               calls direct
    -------------------------------------------------------------------------
CODE
  Relative segment, address: CODE 00006F12 - 00006F73 (0x62 bytes), align: 1
  Segment part 240.           Intra module refs:   CPss21::DiscreteSignalsProcessing()
           ENTRY                   ADDRESS         REF BY
           =====                   =======         ======
           CPss21::DiscreteOutputControlClear()
                                   00006F12 
               calls direct
    -------------------------------------------------------------------------
CODE
  Relative segment, address: CODE 00006F74 - 00007049 (0xd6 bytes), align: 1
  Segment part 241.
           ENTRY                   ADDRESS         REF BY
           =====                   =======         ======
           CPss21::DiscreteOutputsSet(uint8_t *, uint8_t)
                                   00006F74        CAlarmDfa::Fsm() (Alarm)
                                                   CIndicationAlarmLowLevelDfa::Fsm() (Alarm)
               calls direct
    -------------------------------------------------------------------------
CODE
  Relative segment, address: CODE 0000704A - 00007091 (0x48 bytes), align: 1
  Segment part 242.           Intra module refs:   CPss21::DiscreteSignalsProcessing()
           ENTRY                   ADDRESS         REF BY
           =====                   =======         ======
           CPss21::AlarmsProcessing()
                                   0000704A 
               calls indirect
    -------------------------------------------------------------------------
CODE
  Relative segment, address: CODE 00007092 - 000070AD (0x1c bytes), align: 1
  Segment part 244.
           ENTRY                   ADDRESS         REF BY
           =====                   =======         ======
           CPss21::GetDiscreteInputState(uint8_t)
                                   00007092        CAlarmDfa::Fsm() (Alarm)
                                                   CIndicationAlarmLowLevelDfa::Fsm() (Alarm)
    -------------------------------------------------------------------------
CODE
  Relative segment, address: CODE 000070AE - 000070B9 (0xc bytes), align: 1
  Segment part 246.
           ENTRY                   ADDRESS         REF BY
           =====                   =======         ======
           CPss21::GetErrorAlarmState(uint8_t)
                                   000070AE        CErrorAlarmDfa::Fsm() (Alarm)
    -------------------------------------------------------------------------
CODE
  Relative segment, address: CODE 000070BA - 000070E9 (0x30 bytes), align: 1
  Segment part 247.           Intra module refs:   CPss21::AlarmTypeChange()
                                                   CPss21::AlarmTypeReceipt()
                                                   CPss21::AlarmTypeReset()
                                                   CPss21::RestoreContextNotifyerControl()
           ENTRY                   ADDRESS         REF BY
           =====                   =======         ======
           CPss21::AlarmTypeSet(uint8_t)
                                   000070BA 
               calls direct
    -------------------------------------------------------------------------
CODE
  Relative segment, address: CODE 000070EA - 00007105 (0x1c bytes), align: 1
  Segment part 248.
           ENTRY                   ADDRESS         REF BY
           =====                   =======         ======
           CPss21::AlarmTypeChange()
                                   000070EA        CAlarmDfa::Fsm() (Alarm)
               calls direct
    -------------------------------------------------------------------------
CODE
  Relative segment, address: CODE 00007106 - 00007143 (0x3e bytes), align: 1
  Segment part 249.
           ENTRY                   ADDRESS         REF BY
           =====                   =======         ======
           CPss21::AlarmTypeErrorChange()
                                   00007106        CErrorAlarmDfa::Fsm() (Alarm)
               calls direct
    -------------------------------------------------------------------------
CODE
  Relative segment, address: CODE 00007144 - 00007155 (0x12 bytes), align: 1
  Segment part 250.
           ENTRY                   ADDRESS         REF BY
           =====                   =======         ======
           CPss21::AlarmTypeReceipt()
                                   00007144        CAlarmDfa::Fsm() (Alarm)
                                                   CErrorAlarmDfa::Fsm() (Alarm)
               calls direct
    -------------------------------------------------------------------------
CODE
  Relative segment, address: CODE 00007156 - 00007167 (0x12 bytes), align: 1
  Segment part 251.
           ENTRY                   ADDRESS         REF BY
           =====                   =======         ======
           CPss21::AlarmTypeReset()
                                   00007156        CAlarmDfa::Fsm() (Alarm)
                                                   CErrorAlarmDfa::Fsm() (Alarm)
               calls direct
    -------------------------------------------------------------------------
CODE
  Relative segment, address: CODE 00007168 - 000071A1 (0x3a bytes), align: 1
  Segment part 252.           Intra module refs:   CPss21::ErrorMainCycle()
                                                   CPss21::LinkControlErrorMainCycle()
                                                   CPss21::MainFsm()
           ENTRY                   ADDRESS         REF BY
           =====                   =======         ======
           CPss21::NotifyersControlProcessing()
                                   00007168 
               calls direct
    -------------------------------------------------------------------------
CODE
  Relative segment, address: CODE 000071A2 - 000071BB (0x1a bytes), align: 1
  Segment part 253.
           ENTRY                   ADDRESS         REF BY
           =====                   =======         ======
           CPss21::SetAlarmWindowType(uint8_t, uint8_t)
                                   000071A2        CAlarmDfa::Fsm() (Alarm)
                                                   CIndicationAlarmLowLevelDfa::Fsm() (Alarm)
               calls direct
    -------------------------------------------------------------------------
CODE
  Relative segment, address: CODE 000071BC - 000071D5 (0x1a bytes), align: 1
  Segment part 254.
           ENTRY                   ADDRESS         REF BY
           =====                   =======         ======
           CPss21::SetAlarmWindowColor(uint8_t, uint8_t)
                                   000071BC        CAlarmDfa::Fsm() (Alarm)
                                                   CErrorAlarmDfa::Fsm() (Alarm)
                                                   CIndicationAlarmLowLevelDfa::Fsm() (Alarm)
               calls direct
    -------------------------------------------------------------------------
CODE
  Relative segment, address: CODE 000071D6 - 00007289 (0xb4 bytes), align: 1
  Segment part 255.           Intra module refs:   CPss21::MainFsm()
           ENTRY                   ADDRESS         REF BY
           =====                   =======         ======
           CPss21::SaveContextNotifyerControl()
                                   000071D6 
               calls direct
    -------------------------------------------------------------------------
CODE
  Relative segment, address: CODE 0000728A - 00007343 (0xba bytes), align: 1
  Segment part 256.           Intra module refs:   CPss21::MainFsm()
           ENTRY                   ADDRESS         REF BY
           =====                   =======         ======
           CPss21::RestoreContextNotifyerControl()
                                   0000728A 
               calls direct
    -------------------------------------------------------------------------
CODE
  Relative segment, address: CODE 00007344 - 00007355 (0x12 bytes), align: 1
  Segment part 257.           Intra module refs:   CPss21::MainFsm()
           ENTRY                   ADDRESS         REF BY
           =====                   =======         ======
           CPss21::DiscreteSignalsProcessing()
                                   00007344 
               calls direct
    -------------------------------------------------------------------------
CODE
  Relative segment, address: CODE 00007356 - 000073A9 (0x54 bytes), align: 1
  Segment part 258.
           ENTRY                   ADDRESS         REF BY
           =====                   =======         ======
           CPss21::ActiveAlarmWindowOn(uint8_t)
                                   00007356        CEmergencyAlarmWindowNotifyerControl::NotifyerEmergencyOn() (NotifyerControl)
                                                   CEmergencyAlarmWindowNotifyerControl::NotifyerIndicationOn() (NotifyerControl)
                                                   CPreventiveAlarmWindowNotifyerControl::NotifyerIndicationOn() (NotifyerControl)
                                                   CPreventiveAlarmWindowNotifyerControl::NotifyerPreventiveOn() (NotifyerControl)
               calls direct
    -------------------------------------------------------------------------
CODE
  Relative segment, address: CODE 000073AA - 00007439 (0x90 bytes), align: 1
  Segment part 259.
           ENTRY                   ADDRESS         REF BY
           =====                   =======         ======
           CPss21::ActiveAlarmWindowOff(uint8_t)
                                   000073AA        CEmergencyAlarmWindowNotifyerControl::NotifyerOff() (NotifyerControl)
                                                   CPreventiveAlarmWindowNotifyerControl::NotifyerOff() (NotifyerControl)
               calls direct
    -------------------------------------------------------------------------
CODE
  Relative segment, address: CODE 0000743A - 000074A7 (0x6e bytes), align: 1
  Segment part 260.
           ENTRY                   ADDRESS         REF BY
           =====                   =======         ======
           CPss21::AllAlarmWindowOn(uint8_t)
                                   0000743A        CTestModeNotifyerControl::NotifyerEmergencyOn() (NotifyerControl)
                                                   CTestModeNotifyerControl::NotifyerIndicationOn() (NotifyerControl)
                                                   CTestModeNotifyerControl::NotifyerNormalOn() (NotifyerControl)
                                                   CTestModeNotifyerControl::NotifyerPreventiveOn() (NotifyerControl)
               calls direct
    -------------------------------------------------------------------------
CODE
  Relative segment, address: CODE 000074A8 - 0000757B (0xd4 bytes), align: 1
  Segment part 261.           Intra module refs:   CPss21::MainFsm()
           ENTRY                   ADDRESS         REF BY
           =====                   =======         ======
           CPss21::ErrorWindowOn(uint8_t)
                                   000074A8        CErrorAlarmDfa::Fsm() (Alarm)
               calls direct
    -------------------------------------------------------------------------
CODE
  Relative segment, address: CODE 0000757C - 000075E1 (0x66 bytes), align: 1
  Segment part 262.           Intra module refs:   CPss21::MainFsm()
           ENTRY                   ADDRESS         REF BY
           =====                   =======         ======
           CPss21::TestMainCycle()
                                   0000757C 
               calls direct
    -------------------------------------------------------------------------
CODE
  Relative segment, address: CODE 000075E2 - 00007621 (0x40 bytes), align: 1
  Segment part 263.           Intra module refs:   CPss21::MainFsm()
           ENTRY                   ADDRESS         REF BY
           =====                   =======         ======
           CPss21::ErrorMainCycle()
                                   000075E2 
               calls direct
    -------------------------------------------------------------------------
CODE
  Relative segment, address: CODE 00007622 - 00007641 (0x20 bytes), align: 1
  Segment part 264.           Intra module refs:   CPss21::MainFsm()
           ENTRY                   ADDRESS         REF BY
           =====                   =======         ======
           CPss21::LinkControlErrorMainCycle()
                                   00007622 
               calls direct
    -------------------------------------------------------------------------
NEAR_Z
  Relative segment, address: DATA 00000F53 - 00000F53 (0x1 bytes), align: 0
  Segment part 196. ROOT 
           ENTRY                   ADDRESS         REF BY
           =====                   =======         ======
           uiMapTestCounter        00000F53 
    -------------------------------------------------------------------------
CODE
  Relative segment, address: CODE 00007642 - 00007871 (0x230 bytes), align: 1
  Segment part 265.           Intra module refs:   Segment part 266
           ENTRY                   ADDRESS         REF BY
           =====                   =======         ======
           CPss21::MainFsm()       00007642        main (main)
               calls direct
    -------------------------------------------------------------------------
CODE
  Relative segment, address: CODE 00007872 - 00007877 (0x6 bytes), align: 1
  Segment part 267.           Intra module refs:   CPss21::SendToDevicesReceipt()
           ENTRY                   ADDRESS         REF BY
           =====                   =======         ======
           CDriver::SetReceipt(uint8_t)
                                   00007872 
    -------------------------------------------------------------------------
CODE
  Relative segment, address: CODE 00007878 - 0000787D (0x6 bytes), align: 1
  Segment part 268.           Intra module refs:   CPss21::SendToDevicesReset()
           ENTRY                   ADDRESS         REF BY
           =====                   =======         ======
           CDriver::SetReset(uint8_t)
                                   00007878 
    -------------------------------------------------------------------------
CODE
  Relative segment, address: CODE 0000787E - 00007883 (0x6 bytes), align: 1
  Segment part 269.           Intra module refs:   CPss21::SendToDevicesModbusReceipt()
           ENTRY                   ADDRESS         REF BY
           =====                   =======         ======
           CDriver::SetModbusReceipt(uint8_t)
                                   0000787E 
    -------------------------------------------------------------------------
CODE
  Relative segment, address: CODE 00007884 - 00007889 (0x6 bytes), align: 1
  Segment part 270.           Intra module refs:   CPss21::SendToDevicesModbusReset()
           ENTRY                   ADDRESS         REF BY
           =====                   =======         ======
           CDriver::SetModbusReset(uint8_t)
                                   00007884 
    -------------------------------------------------------------------------
CODE
  Relative segment, address: CODE 0000788A - 00007899 (0x10 bytes), align: 1
  Segment part 275.           Intra module refs:   CPss21::MainFsm()
           ENTRY                   ADDRESS         REF BY
           =====                   =======         ======
           CPlatform::WatchdogEnable()
                                   0000788A 
    -------------------------------------------------------------------------
CODE
  Relative segment, address: CODE 0000789A - 000078A5 (0xc bytes), align: 1
  Segment part 276.           Intra module refs:   __sti__routine()
           ENTRY                   ADDRESS         REF BY
           =====                   =======         ======
           CPlatform::KeyOneState()
                                   0000789A 
    -------------------------------------------------------------------------
CODE
  Relative segment, address: CODE 000078A6 - 000078B1 (0xc bytes), align: 1
  Segment part 277.           Intra module refs:   __sti__routine()
           ENTRY                   ADDRESS         REF BY
           =====                   =======         ======
           CPlatform::KeyTwoState()
                                   000078A6 
    -------------------------------------------------------------------------
CODE
  Relative segment, address: CODE 000078B2 - 000078BD (0xc bytes), align: 1
  Segment part 278.           Intra module refs:   __sti__routine()
           ENTRY                   ADDRESS         REF BY
           =====                   =======         ======
           CPlatform::KeyThreeState()
                                   000078B2 
    -------------------------------------------------------------------------
CODE
  Relative segment, address: CODE 000078BE - 000078C9 (0xc bytes), align: 1
  Segment part 279.           Intra module refs:   __sti__routine()
           ENTRY                   ADDRESS         REF BY
           =====                   =======         ======
           CPlatform::ExternalKeyState()
                                   000078BE 
    -------------------------------------------------------------------------
CODE
  Relative segment, address: CODE 000078CA - 000078CD (0x4 bytes), align: 1
  Segment part 280.           Intra module refs:   CPss21::AddressBusInit()
           ENTRY                   ADDRESS         REF BY
           =====                   =======         ======
           CPlatform::SpiSlaveSelectAddress0SetPinOutput()
                                   000078CA 
    -------------------------------------------------------------------------
CODE
  Relative segment, address: CODE 000078CE - 000078D1 (0x4 bytes), align: 1
  Segment part 281.           Intra module refs:   CPss21::AddressBusInit()
                                                   CPss21::ConnectDevice(uint8_t)
           ENTRY                   ADDRESS         REF BY
           =====                   =======         ======
           CPlatform::SpiSlaveSelectAddress0On()
                                   000078CE 
    -------------------------------------------------------------------------
CODE
  Relative segment, address: CODE 000078D2 - 000078D5 (0x4 bytes), align: 1
  Segment part 282.           Intra module refs:   CPss21::ConnectDevice(uint8_t)
                                                   CPss21::DisconnectDevice()
           ENTRY                   ADDRESS         REF BY
           =====                   =======         ======
           CPlatform::SpiSlaveSelectAddress0Off()
                                   000078D2 
    -------------------------------------------------------------------------
CODE
  Relative segment, address: CODE 000078D6 - 000078D9 (0x4 bytes), align: 1
  Segment part 283.           Intra module refs:   CPss21::AddressBusInit()
           ENTRY                   ADDRESS         REF BY
           =====                   =======         ======
           CPlatform::SpiSlaveSelectAddress1SetPinOutput()
                                   000078D6 
    -------------------------------------------------------------------------
CODE
  Relative segment, address: CODE 000078DA - 000078DD (0x4 bytes), align: 1
  Segment part 284.           Intra module refs:   CPss21::AddressBusInit()
                                                   CPss21::ConnectDevice(uint8_t)
           ENTRY                   ADDRESS         REF BY
           =====                   =======         ======
           CPlatform::SpiSlaveSelectAddress1On()
                                   000078DA 
    -------------------------------------------------------------------------
CODE
  Relative segment, address: CODE 000078DE - 000078E1 (0x4 bytes), align: 1
  Segment part 285.           Intra module refs:   CPss21::ConnectDevice(uint8_t)
                                                   CPss21::DisconnectDevice()
           ENTRY                   ADDRESS         REF BY
           =====                   =======         ======
           CPlatform::SpiSlaveSelectAddress1Off()
                                   000078DE 
    -------------------------------------------------------------------------
CODE
  Relative segment, address: CODE 000078E2 - 000078E5 (0x4 bytes), align: 1
  Segment part 286.           Intra module refs:   CPss21::AddressBusInit()
           ENTRY                   ADDRESS         REF BY
           =====                   =======         ======
           CPlatform::SpiSlaveSelectAddress2SetPinOutput()
                                   000078E2 
    -------------------------------------------------------------------------
CODE
  Relative segment, address: CODE 000078E6 - 000078E9 (0x4 bytes), align: 1
  Segment part 287.           Intra module refs:   CPss21::AddressBusInit()
                                                   CPss21::ConnectDevice(uint8_t)
           ENTRY                   ADDRESS         REF BY
           =====                   =======         ======
           CPlatform::SpiSlaveSelectAddress2On()
                                   000078E6 
    -------------------------------------------------------------------------
CODE
  Relative segment, address: CODE 000078EA - 000078ED (0x4 bytes), align: 1
  Segment part 288.           Intra module refs:   CPss21::ConnectDevice(uint8_t)
                                                   CPss21::DisconnectDevice()
           ENTRY                   ADDRESS         REF BY
           =====                   =======         ======
           CPlatform::SpiSlaveSelectAddress2Off()
                                   000078EA 
    -------------------------------------------------------------------------
CODE
  Relative segment, address: CODE 000078EE - 000078F1 (0x4 bytes), align: 1
  Segment part 289.           Intra module refs:   CPss21::AddressBusInit()
           ENTRY                   ADDRESS         REF BY
           =====                   =======         ======
           CPlatform::SpiSlaveSelectAddress3SetPinOutput()
                                   000078EE 
    -------------------------------------------------------------------------
CODE
  Relative segment, address: CODE 000078F2 - 000078F5 (0x4 bytes), align: 1
  Segment part 290.           Intra module refs:   CPss21::AddressBusInit()
                                                   CPss21::ConnectDevice(uint8_t)
           ENTRY                   ADDRESS         REF BY
           =====                   =======         ======
           CPlatform::SpiSlaveSelectAddress3On()
                                   000078F2 
    -------------------------------------------------------------------------
CODE
  Relative segment, address: CODE 000078F6 - 000078F9 (0x4 bytes), align: 1
  Segment part 291.           Intra module refs:   CPss21::ConnectDevice(uint8_t)
                                                   CPss21::DisconnectDevice()
           ENTRY                   ADDRESS         REF BY
           =====                   =======         ======
           CPlatform::SpiSlaveSelectAddress3Off()
                                   000078F6 
    -------------------------------------------------------------------------
CODE
  Relative segment, address: CODE 000078FA - 000078FD (0x4 bytes), align: 1
  Segment part 292.           Intra module refs:   CPss21::AddressBusInit()
           ENTRY                   ADDRESS         REF BY
           =====                   =======         ======
           CPlatform::SpiSlaveSelectEnableSetPinOutput()
                                   000078FA 
    -------------------------------------------------------------------------
CODE
  Relative segment, address: CODE 000078FE - 00007901 (0x4 bytes), align: 1
  Segment part 293.           Intra module refs:   CPss21::ConnectDevice(uint8_t)
           ENTRY                   ADDRESS         REF BY
           =====                   =======         ======
           CPlatform::SpiSlaveSelectEnableOn()
                                   000078FE 
    -------------------------------------------------------------------------
CODE
  Relative segment, address: CODE 00007902 - 00007905 (0x4 bytes), align: 1
  Segment part 294.           Intra module refs:   CPss21::AddressBusInit()
                                                   CPss21::DisconnectDevice()
           ENTRY                   ADDRESS         REF BY
           =====                   =======         ======
           CPlatform::SpiSlaveSelectEnableOff()
                                   00007902 
    -------------------------------------------------------------------------
CODE
  Relative segment, address: CODE 00007906 - 0000790B (0x6 bytes), align: 1
  Segment part 297.           Intra module refs:   CPss21::SaveContextNotifyerControl()
           ENTRY                   ADDRESS         REF BY
           =====                   =======         ======
           CAlarmWindow::SetSavedActivityState(uint8_t)
                                   00007906 
    -------------------------------------------------------------------------
CODE
  Relative segment, address: CODE 0000790C - 00007911 (0x6 bytes), align: 1
  Segment part 298.           Intra module refs:   CPss21::RestoreContextNotifyerControl()
           ENTRY                   ADDRESS         REF BY
           =====                   =======         ======
           CAlarmWindow::GetSavedActivityState()
                                   0000790C 
    -------------------------------------------------------------------------
CODE
  Relative segment, address: CODE 00007912 - 00007917 (0x6 bytes), align: 1
  Segment part 299.           Intra module refs:   CPss21::AllAlarmWindowOff()
                                                   CPss21::AllAlarmWindowOn(uint8_t)
                                                   CPss21::ErrorWindowOn(uint8_t)
                                                   CPss21::RestoreContextNotifyerControl()
                                                   CPss21::SetAlarmWindowType(uint8_t, uint8_t)
           ENTRY                   ADDRESS         REF BY
           =====                   =======         ======
           CAlarmWindow::SetAlarmType(uint8_t)
                                   00007912 
    -------------------------------------------------------------------------
CODE
  Relative segment, address: CODE 00007918 - 0000791D (0x6 bytes), align: 1
  Segment part 300.           Intra module refs:   CPss21::ActiveAlarmWindowOff(uint8_t)
                                                   CPss21::ActiveAlarmWindowOn(uint8_t)
                                                   CPss21::SaveContextNotifyerControl()
           ENTRY                   ADDRESS         REF BY
           =====                   =======         ======
           CAlarmWindow::GetAlarmType()
                                   00007918 
    -------------------------------------------------------------------------
CODE
  Relative segment, address: CODE 0000791E - 00007923 (0x6 bytes), align: 1
  Segment part 301.           Intra module refs:   CPss21::SaveContextNotifyerControl()
           ENTRY                   ADDRESS         REF BY
           =====                   =======         ======
           CAlarmWindow::SetSavedAlarmType(uint8_t)
                                   0000791E 
    -------------------------------------------------------------------------
CODE
  Relative segment, address: CODE 00007924 - 00007929 (0x6 bytes), align: 1
  Segment part 302.           Intra module refs:   CPss21::RestoreContextNotifyerControl()
           ENTRY                   ADDRESS         REF BY
           =====                   =======         ======
           CAlarmWindow::GetSavedAlarmType()
                                   00007924 
    -------------------------------------------------------------------------
CODE
  Relative segment, address: CODE 0000792A - 0000792F (0x6 bytes), align: 1
  Segment part 303.           Intra module refs:   CPss21::AllAlarmWindowOn(uint8_t)
                                                   CPss21::ErrorWindowOn(uint8_t)
                                                   CPss21::RestoreContextNotifyerControl()
                                                   CPss21::SetAlarmWindowColor(uint8_t, uint8_t)
           ENTRY                   ADDRESS         REF BY
           =====                   =======         ======
           CAlarmWindow::SetAlarmColor(uint8_t)
                                   0000792A 
    -------------------------------------------------------------------------
CODE
  Relative segment, address: CODE 00007930 - 00007935 (0x6 bytes), align: 1
  Segment part 305.           Intra module refs:   CPss21::SaveContextNotifyerControl()
           ENTRY                   ADDRESS         REF BY
           =====                   =======         ======
           CAlarmWindow::SetSavedAlarmColor(uint8_t)
                                   00007930 
    -------------------------------------------------------------------------
CODE
  Relative segment, address: CODE 00007936 - 0000793B (0x6 bytes), align: 1
  Segment part 306.           Intra module refs:   CPss21::RestoreContextNotifyerControl()
           ENTRY                   ADDRESS         REF BY
           =====                   =======         ======
           CAlarmWindow::GetSavedAlarmColor()
                                   00007936 
    -------------------------------------------------------------------------
CODE
  Relative segment, address: CODE 0000793C - 00007941 (0x6 bytes), align: 1
  Segment part 307.           Intra module refs:   CPss21::ConfigurationInit()
           ENTRY                   ADDRESS         REF BY
           =====                   =======         ======
           CAlarmDfa::SetDiscreteStateIndex(uint8_t)
                                   0000793C 
    -------------------------------------------------------------------------
CODE
  Relative segment, address: CODE 00007942 - 00007947 (0x6 bytes), align: 1
  Segment part 308.           Intra module refs:   CPss21::ConfigurationInit()
           ENTRY                   ADDRESS         REF BY
           =====                   =======         ======
           CAlarmDfa::SetAlarmWindowIndex(uint8_t)
                                   00007942 
    -------------------------------------------------------------------------
CODE
  Relative segment, address: CODE 00007948 - 0000794D (0x6 bytes), align: 1
  Segment part 310.           Intra module refs:   CPss21::MainFsm()
           ENTRY                   ADDRESS         REF BY
           =====                   =======         ======
           CPss21::GetFsmState()   00007948 
    -------------------------------------------------------------------------
CODE
  Relative segment, address: CODE 0000794E - 00007953 (0x6 bytes), align: 1
  Segment part 312.           Intra module refs:   CPss21::KeyStateProcessing()
                                                   CPss21::ReceiptResetGlobalFlagsClear()
           ENTRY                   ADDRESS         REF BY
           =====                   =======         ======
           CPss21::SetPanelReceipt(uint8_t)
                                   0000794E 
    -------------------------------------------------------------------------
CODE
  Relative segment, address: CODE 00007954 - 00007959 (0x6 bytes), align: 1
  Segment part 313.           Intra module refs:   CPss21::ErrorMainCycle()
                                                   CPss21::TestMainCycle()
           ENTRY                   ADDRESS         REF BY
           =====                   =======         ======
           CPss21::GetPanelReceipt()
                                   00007954 
    -------------------------------------------------------------------------
CODE
  Relative segment, address: CODE 0000795A - 0000795F (0x6 bytes), align: 1
  Segment part 314.           Intra module refs:   CPss21::KeyStateProcessing()
                                                   CPss21::ReceiptResetGlobalFlagsClear()
           ENTRY                   ADDRESS         REF BY
           =====                   =======         ======
           CPss21::SetPanelReset(uint8_t)
                                   0000795A 
    -------------------------------------------------------------------------
CODE
  Relative segment, address: CODE 00007960 - 00007965 (0x6 bytes), align: 1
  Segment part 315.           Intra module refs:   CPss21::TestMainCycle()
           ENTRY                   ADDRESS         REF BY
           =====                   =======         ======
           CPss21::GetPanelReset()
                                   00007960 
    -------------------------------------------------------------------------
CODE
  Relative segment, address: CODE 00007966 - 0000796B (0x6 bytes), align: 1
  Segment part 316.           Intra module refs:   CPss21::KeyStateProcessing()
                                                   CPss21::ReceiptResetGlobalFlagsClear()
           ENTRY                   ADDRESS         REF BY
           =====                   =======         ======
           CPss21::SetExternalReceipt(uint8_t)
                                   00007966 
    -------------------------------------------------------------------------
CODE
  Relative segment, address: CODE 0000796C - 00007971 (0x6 bytes), align: 1
  Segment part 317.           Intra module refs:   CPss21::ErrorMainCycle()
                                                   CPss21::TestMainCycle()
           ENTRY                   ADDRESS         REF BY
           =====                   =======         ======
           CPss21::GetExternalReceipt()
                                   0000796C 
    -------------------------------------------------------------------------
CODE
  Relative segment, address: CODE 00007972 - 00007977 (0x6 bytes), align: 1
  Segment part 318.           Intra module refs:   CPss21::KeyStateProcessing()
                                                   CPss21::ReceiptResetGlobalFlagsClear()
           ENTRY                   ADDRESS         REF BY
           =====                   =======         ======
           CPss21::SetExternalReset(uint8_t)
                                   00007972 
    -------------------------------------------------------------------------
CODE
  Relative segment, address: CODE 00007978 - 0000797D (0x6 bytes), align: 1
  Segment part 319.           Intra module refs:   CPss21::TestMainCycle()
           ENTRY                   ADDRESS         REF BY
           =====                   =======         ======
           CPss21::GetExternalReset()
                                   00007978 
    -------------------------------------------------------------------------
CODE
  Relative segment, address: CODE 0000797E - 00007983 (0x6 bytes), align: 1
  Segment part 320.           Intra module refs:   CPss21::ModbusDeviceControl(uint8_t *, uint16_t, uint16_t)
                                                   CPss21::ReceiptResetGlobalFlagsClear()
           ENTRY                   ADDRESS         REF BY
           =====                   =======         ======
           CPss21::SetModbusReceipt(uint8_t)
                                   0000797E 
    -------------------------------------------------------------------------
CODE
  Relative segment, address: CODE 00007984 - 00007989 (0x6 bytes), align: 1
  Segment part 321.           Intra module refs:   CPss21::ErrorMainCycle()
                                                   CPss21::TestMainCycle()
           ENTRY                   ADDRESS         REF BY
           =====                   =======         ======
           CPss21::GetModbusReceipt()
                                   00007984 
    -------------------------------------------------------------------------
CODE
  Relative segment, address: CODE 0000798A - 0000798F (0x6 bytes), align: 1
  Segment part 322.           Intra module refs:   CPss21::ModbusDeviceControl(uint8_t *, uint16_t, uint16_t)
                                                   CPss21::ReceiptResetGlobalFlagsClear()
           ENTRY                   ADDRESS         REF BY
           =====                   =======         ======
           CPss21::SetModbusReset(uint8_t)
                                   0000798A 
    -------------------------------------------------------------------------
CODE
  Relative segment, address: CODE 00007990 - 00007995 (0x6 bytes), align: 1
  Segment part 323.           Intra module refs:   CPss21::TestMainCycle()
           ENTRY                   ADDRESS         REF BY
           =====                   =======         ======
           CPss21::GetModbusReset()
                                   00007990 
    -------------------------------------------------------------------------
CODE
  Relative segment, address: CODE 00007996 - 0000799B (0x6 bytes), align: 1
  Segment part 324.           Intra module refs:   CPss21::DiscreteSignalsProcessing()
                                                   CPss21::KeyStateProcessing()
                                                   CPss21::ModbusDeviceControl(uint8_t *, uint16_t, uint16_t)
           ENTRY                   ADDRESS         REF BY
           =====                   =======         ======
           CPss21::SetDiscreteSignalsReceipt(uint8_t)
                                   00007996 
    -------------------------------------------------------------------------
CODE
  Relative segment, address: CODE 0000799C - 000079A1 (0x6 bytes), align: 1
  Segment part 325.           Intra module refs:   CPss21::DiscreteSignalsProcessing()
                                                   CPss21::KeyStateProcessing()
                                                   CPss21::ModbusDeviceControl(uint8_t *, uint16_t, uint16_t)
           ENTRY                   ADDRESS         REF BY
           =====                   =======         ======
           CPss21::SetDiscreteSignalsReset(uint8_t)
                                   0000799C 
    -------------------------------------------------------------------------
CODE
  Relative segment, address: CODE 000079A2 - 000079A7 (0x6 bytes), align: 1
  Segment part 328.           Intra module refs:   CPss21::MainFsm()
           ENTRY                   ADDRESS         REF BY
           =====                   =======         ======
           CPss21::GetErrorCode()
                                   000079A2 
    -------------------------------------------------------------------------
CODE
  Relative segment, address: CODE 000079A8 - 000079AD (0x6 bytes), align: 1
  Segment part 329.           Intra module refs:   CPss21::MainFsm()
           ENTRY                   ADDRESS         REF BY
           =====                   =======         ======
           CPss21::GetModuleIndex()
                                   000079A8 
    -------------------------------------------------------------------------
CODE
  Relative segment, address: CODE 000079AE - 000079B3 (0x6 bytes), align: 1
  Segment part 330.           Intra module refs:   CPss21::MainFsm()
           ENTRY                   ADDRESS         REF BY
           =====                   =======         ======
           CPss21::SetModuleIndex(uint8_t)
                                   000079AE 
    -------------------------------------------------------------------------
NEAR_ID
  Relative segment, address: CODE 0000824E - 00008253 (0x6 bytes), align: 0
  Segment part 115. ROOT      Intra module refs:   Segment part 114
    -------------------------------------------------------------------------
NEAR_ID
  Relative segment, address: CODE 00008254 - 00008259 (0x6 bytes), align: 0
  Segment part 120. ROOT      Intra module refs:   Segment part 119
    -------------------------------------------------------------------------
NEAR_ID
  Relative segment, address: CODE 0000825A - 0000825F (0x6 bytes), align: 0
  Segment part 124. ROOT      Intra module refs:   Segment part 123
    -------------------------------------------------------------------------
NEAR_ID
  Relative segment, address: CODE 00008260 - 00008265 (0x6 bytes), align: 0
  Segment part 128. ROOT      Intra module refs:   Segment part 127
    -------------------------------------------------------------------------
NEAR_ID
  Relative segment, address: CODE 00008266 - 0000826B (0x6 bytes), align: 0
  Segment part 132. ROOT      Intra module refs:   Segment part 131
    -------------------------------------------------------------------------
NEAR_ID
  Relative segment, address: CODE 0000826C - 00008271 (0x6 bytes), align: 0
  Segment part 136. ROOT      Intra module refs:   Segment part 135
    -------------------------------------------------------------------------
NEAR_ID
  Relative segment, address: CODE 00008272 - 00008277 (0x6 bytes), align: 0
  Segment part 150. ROOT      Intra module refs:   Segment part 149
    -------------------------------------------------------------------------
NEAR_ID
  Relative segment, address: CODE 00008278 - 0000827D (0x6 bytes), align: 0
  Segment part 154. ROOT      Intra module refs:   Segment part 153
    -------------------------------------------------------------------------
NEAR_ID
  Relative segment, address: CODE 0000827E - 00008283 (0x6 bytes), align: 0
  Segment part 158. ROOT      Intra module refs:   Segment part 157
    -------------------------------------------------------------------------
NEAR_ID
  Relative segment, address: CODE 00008284 - 00008289 (0x6 bytes), align: 0
  Segment part 162. ROOT      Intra module refs:   Segment part 161
    -------------------------------------------------------------------------
NEAR_ID
  Relative segment, address: CODE 0000828A - 0000828F (0x6 bytes), align: 0
  Segment part 166. ROOT      Intra module refs:   Segment part 165
    -------------------------------------------------------------------------
NEAR_ID
  Relative segment, address: CODE 00008290 - 00008295 (0x6 bytes), align: 0
  Segment part 170. ROOT      Intra module refs:   Segment part 169
    -------------------------------------------------------------------------
NEAR_ID
  Relative segment, address: CODE 00008296 - 0000829B (0x6 bytes), align: 0
  Segment part 174. ROOT      Intra module refs:   Segment part 173
    -------------------------------------------------------------------------
NEAR_ID
  Relative segment, address: CODE 0000829C - 000082A1 (0x6 bytes), align: 0
  Segment part 178. ROOT      Intra module refs:   Segment part 177
    -------------------------------------------------------------------------
NEAR_ID
  Relative segment, address: CODE 000082A2 - 000082A7 (0x6 bytes), align: 0
  Segment part 193. ROOT      Intra module refs:   Segment part 192
    -------------------------------------------------------------------------
DIFUNCT
  Relative segment, address: CODE 000009CE - 000009CF (0x2 bytes), align: 0
  Segment part 197. ROOT 
    -------------------------------------------------------------------------
SWITCH
  Relative segment, address: CODE 0000099A - 000009CB (0x32 bytes), align: 1
  Segment part 266.           Intra module refs:   CPss21::MainFsm()

    *************************************************************************

  FILE NAME : D:\Projects\CurrentProjects\CautoProjects\PSS48Color\Debug\Obj\Timer.r90
  PROGRAM MODULE, NAME : Timer

  SEGMENTS IN THE MODULE
  ======================
CODE
  Relative segment, address: CODE 000079B4 - 000079BF (0xc bytes), align: 1
  Segment part 100.
           ENTRY                   ADDRESS         REF BY
           =====                   =======         ======
           CTimer::CTimer()        000079B4        CEventUniteLogicAnd::CEventUniteLogicAnd(uint16_t) (Event)
                                                   CLinkControl::CLinkControl() (LinkControl)
                                                   CMultiFunctionKey::CMultiFunctionKey(uint8_t (__version_3 *)()) (InputDevice)
                                                   CNotifyerControl::CNotifyerControl() (NotifyerControl)
                                                   __sti__routine() (DataStore)
    -------------------------------------------------------------------------
CODE
  Relative segment, address: CODE 000079C0 - 000079E9 (0x2a bytes), align: 1
  Segment part 102.
           ENTRY                   ADDRESS         REF BY
           =====                   =======         ======
           CTimer::CTimer(uint16_t)
                                   000079C0        __sti__routine() (Pss21)
               calls direct
    -------------------------------------------------------------------------
CODE
  Relative segment, address: CODE 000079EA - 00007A05 (0x1c bytes), align: 1
  Segment part 104.           Intra module refs:   CTimer::__vtbl
           ENTRY                   ADDRESS         REF BY
           =====                   =======         ======
           CTimer::~CTimer()       000079EA        <Unnamed 0> (DataStore)
                                                   <Unnamed 4> (Pss21)
                                                   CEventUniteLogicAnd::~CEventUniteLogicAnd() (Event)
                                                   CLinkControl::~CLinkControl() (LinkControl)
                                                   CMultiFunctionKey::~CMultiFunctionKey() (InputDevice)
                                                   CNotifyerControl::~CNotifyerControl() (NotifyerControl)
               calls direct
    -------------------------------------------------------------------------
CODE
  Relative segment, address: CODE 00007A06 - 00007A23 (0x1e bytes), align: 1
  Segment part 105.
           ENTRY                   ADDRESS         REF BY
           =====                   =======         ======
           CTimer::Set(uint16_t)   00007A06        CDataStore::Fsm() (DataStore)
                                                   CEventUniteLogicAnd::IsHappened(uint8_t, uint8_t) (Event)
                                                   CModbusRtuLinkControl::Fsm() (LinkControl)
                                                   CMultiFunctionKey::Fsm() (InputDevice)
                                                   CNotifyerControl::Fsm() (NotifyerControl)
                                                   CPss21::MainFsm() (Pss21)
                                                   CTestModeNotifyerControl::Fsm() (NotifyerControl)
               calls direct
    -------------------------------------------------------------------------
CODE
  Relative segment, address: CODE 00007A24 - 00007A39 (0x16 bytes), align: 1
  Segment part 106.
           ENTRY                   ADDRESS         REF BY
           =====                   =======         ======
           CTimer::Reset()         00007A24        CPss21::MainFsm() (Pss21)
               calls direct
    -------------------------------------------------------------------------
CODE
  Relative segment, address: CODE 00007A3A - 00007A65 (0x2c bytes), align: 1
  Segment part 107.
           ENTRY                   ADDRESS         REF BY
           =====                   =======         ======
           CTimer::IsOverflow()    00007A3A        CDataStore::Fsm() (DataStore)
                                                   CEventUniteLogicAnd::IsHappened(uint8_t, uint8_t) (Event)
                                                   CModbusRtuLinkControl::Fsm() (LinkControl)
                                                   CMultiFunctionKey::Fsm() (InputDevice)
                                                   CNotifyerControl::Fsm() (NotifyerControl)
                                                   CPss21::MainFsm() (Pss21)
                                                   CTestModeNotifyerControl::Fsm() (NotifyerControl)
               calls direct
    -------------------------------------------------------------------------
NEAR_F
  Relative segment, address: CODE 0000089D - 0000089E (0x2 bytes), align: 0
  Segment part 99. ROOT       Intra module refs:   CTimer::CTimer()
                                                   CTimer::CTimer(uint16_t)
           ENTRY                   ADDRESS         REF BY
           =====                   =======         ======
           CTimer::__vtbl          0000089D 

    *************************************************************************

  FILE NAME : C:\Program Files (x86)\IAR Systems\Embedded Workbench 8.0\avr\LIB\DLIB\dlAVR-3s-ec_mul-n.r90
  LIBRARY MODULE, NAME : ?_exit

  SEGMENTS IN THE MODULE
  ======================
CODE
  Relative segment, address: CODE 00007A66, align: 1
  Segment part 0.
           ENTRY                   ADDRESS         REF BY
           =====                   =======         ======
           _exit                   00007A66        ?cstartup_call_main (?C_STARTUP)
                                                   exit (?exit)
    -------------------------------------------------------------------------
CODE
  Relative segment, address: CODE 00007A66 - 00007A69 (0x4 bytes), align: 1
  Segment part 1.             Intra module refs:   __cstart_call_dtors
    -------------------------------------------------------------------------
CODE
  Relative segment, address: CODE 00007A6A - 00007A6D (0x4 bytes), align: 1
  Segment part 2.
           ENTRY                   ADDRESS         REF BY
           =====                   =======         ======
           __cstart_call_dtors     00007A6A        __record_needed_destruction (?cppinit)
    -------------------------------------------------------------------------
CODE
  Relative segment, address: CODE 00007A6E - 00007A71 (0x4 bytes), align: 1
  Segment part 4.             Intra module refs:   Segment part 1
    -------------------------------------------------------------------------
CODE
  Relative segment, address: CODE 00007A72 - 00007A75 (0x4 bytes), align: 1
  Segment part 5.             Intra module refs:   _exit

    -------------------------------------------------------------------------
  LIBRARY MODULE, NAME : ?abort

  SEGMENTS IN THE MODULE
  ======================
CODE
  Relative segment, address: CODE 00007A76 - 00007A7D (0x8 bytes), align: 1
  Segment part 3.
           ENTRY                   ADDRESS         REF BY
           =====                   =======         ======
           abort                   00007A76        _Nomemory() (?nomemory)
                                                   __near_get_array_size(void *, __near_size_t) (?vec_newdel)
                                                   __pure_virtual_called (?xpurevirtual)
                                                   __record_needed_destruction (?cppinit)
               calls direct

    -------------------------------------------------------------------------
  LIBRARY MODULE, NAME : ?cppinit

  SEGMENTS IN THE MODULE
  ======================
CODE
  Relative segment, address: CODE 00007A7E - 00007ADF (0x62 bytes), align: 1
  Segment part 5.
           ENTRY                   ADDRESS         REF BY
           =====                   =======         ======
           __call_ctors            00007A7E        ?call_ctors (?C_STARTUP)
               calls indirect
    -------------------------------------------------------------------------
NEAR_Z
  Relative segment, address: DATA 00000F54 - 00000F55 (0x2 bytes), align: 0
  Segment part 3.             Intra module refs:   Segment part 10
                                                   __call_dtors
                                                   __record_needed_destruction
    -------------------------------------------------------------------------
CODE
  Relative segment, address: CODE 00007AE0 - 00007B13 (0x34 bytes), align: 1
  Segment part 6.
           ENTRY                   ADDRESS         REF BY
           =====                   =======         ======
           __record_needed_destruction
                                   00007AE0        __sti__routine() (DataStore)
                                                   __sti__routine() (Pss21)
               calls direct
    -------------------------------------------------------------------------
CODE
  Relative segment, address: CODE 00007B14 - 00007B19 (0x6 bytes), align: 1
  Segment part 7.             Intra module refs:   __call_dtors
                                                   __record_needed_destruction
    -------------------------------------------------------------------------
CODE
  Relative segment, address: CODE 00007B1A - 00007B59 (0x40 bytes), align: 1
  Segment part 9.
           ENTRY                   ADDRESS         REF BY
           =====                   =======         ======
           __call_dtors            00007B1A        __cstart_call_dtors (?_exit)
               calls indirect
    -------------------------------------------------------------------------
CODE
  Relative segment, address: CODE 00007B5A - 00007B63 (0xa bytes), align: 1
  Segment part 10.            Intra module refs:   __call_dtors
                                                   __record_needed_destruction

    -------------------------------------------------------------------------
  LIBRARY MODULE, NAME : ?RESET

  SEGMENTS IN THE MODULE
  ======================
INTVEC
  Common segment, address: CODE 00000000 - 00000003 (0x4 bytes), align: 1
  Segment part 0. ROOT 
           ENTRY                   ADDRESS         REF BY
           =====                   =======         ======
           ?RESET                  00000000        Segment part 2 (?C_STARTUP)

    -------------------------------------------------------------------------
  LIBRARY MODULE, NAME : ?C_STARTUP

  SEGMENTS IN THE MODULE
  ======================
CODE
  Relative segment, address: CODE 00007B64, align: 1
  Segment part 2.
           ENTRY                   ADDRESS         REF BY
           =====                   =======         ======
           __program_start         00007B64        Absolute parts (?ABS_ENTRY_MOD)
           ?C_STARTUP              00007B64        ?RESET (?RESET)
           __RESTART               00007B64 
    -------------------------------------------------------------------------
CODE
  Relative segment, address: CODE 00007B64 - 00007B6F (0xc bytes), align: 1
  Segment part 5.             Intra module refs:   Segment part 2
    -------------------------------------------------------------------------
CODE
  Relative segment, address: CODE 00007B70 - 00007B73 (0x4 bytes), align: 1
  Segment part 7.             Intra module refs:   Segment part 5
           ENTRY                   ADDRESS         REF BY
           =====                   =======         ======
           ?call_low_level_init    00007B70 
    -------------------------------------------------------------------------
CODE
  Relative segment, address: CODE 00007B74 - 00007B7B (0x8 bytes), align: 1
  Segment part 8.
           ENTRY                   ADDRESS         REF BY
           =====                   =======         ======
           ?need_segment_init      00007B74        ?<Segment init: NEAR_I> (DataStore)
                                                   ?<Segment init: NEAR_Z> (DataStore)
    -------------------------------------------------------------------------
CODE
  Relative segment, address: CODE 00007B7C - 00007B8B (0x10 bytes), align: 1
  Segment part 10.
           ENTRY                   ADDRESS         REF BY
           =====                   =======         ======
           ?call_ctors             00007B7C        Segment part 113 (DataStore)
                                                   Segment part 197 (Pss21)
    -------------------------------------------------------------------------
CODE
  Relative segment, address: CODE 00007B8C - 00007B97 (0xc bytes), align: 1
  Segment part 11.            Intra module refs:   ?call_low_level_init
           ENTRY                   ADDRESS         REF BY
           =====                   =======         ======
           ?cstartup_call_main     00007B8C 

    -------------------------------------------------------------------------
  LIBRARY MODULE, NAME : ?delop_0

  SEGMENTS IN THE MODULE
  ======================
CODE
  Relative segment, address: CODE 00007B98 - 00007BA3 (0xc bytes), align: 1
  Segment part 3.
           ENTRY                   ADDRESS         REF BY
           =====                   =======         ======
           operator delete(void *)
                                   00007B98        CAlarmDfa::~CAlarmDfa() (Alarm)
                                                   CAlarmWindow::~CAlarmWindow() (AlarmWindow)
                                                   CBuzzer::~CBuzzer() (Buzzer)
                                                   CBuzzerNotifyerControl::~CBuzzerNotifyerControl() (NotifyerControl)
                                                   CDfa::~CDfa() (Dfa)
                                                   CDfaLite::~CDfaLite() (Dfa)
                                                   CEeprom::~CEeprom() (Platform)
                                                   CEmergencyAlarmHighLevelDfa::~CEmergencyAlarmHighLevelDfa() (Alarm)
                                                   CEmergencyAlarmLowLevelDfa::~CEmergencyAlarmLowLevelDfa() (Alarm)
                                                   CEmergencyAlarmWindowNotifyerControl::~CEmergencyAlarmWindowNotifyerControl() (NotifyerControl)
                                                   CErrorAlarmDfa::~CErrorAlarmDfa() (Alarm)
                                                   CEvent::~CEvent() (Event)
                                                   CEventUniteLogicAnd::~CEventUniteLogicAnd() (Event)
                                                   CIndicationAlarmHighLevelDfa::~CIndicationAlarmHighLevelDfa() (Alarm)
                                                   CIndicationAlarmLowLevelDfa::~CIndicationAlarmLowLevelDfa() (Alarm)
                                                   CLinkControl::~CLinkControl() (LinkControl)
                                                   CModbus::~CModbus() (modbus)
                                                   CModbusRTU::~CModbusRTU() (ModbusRTU)
                                                   CModbusRtuLinkControl::~CModbusRtuLinkControl() (LinkControl)
                                                   CModuleMrXXDriver::~CModuleMrXXDriver() (ModuleMrXX)
                                                   CMultiFunctionKey::~CMultiFunctionKey() (InputDevice)
                                                   CMvsn21Driver::~CMvsn21Driver() (Mvsn21)
                                                   CNormalAlarmDfa::~CNormalAlarmDfa() (Alarm)
                                                   CNotifyerControl::~CNotifyerControl() (NotifyerControl)
                                                   CPlatform::~CPlatform() (Platform)
                                                   CPreventiveAlarmHighLevelDfa::~CPreventiveAlarmHighLevelDfa() (Alarm)
                                                   CPreventiveAlarmLowLevelDfa::~CPreventiveAlarmLowLevelDfa() (Alarm)
                                                   CPreventiveAlarmWindowNotifyerControl::~CPreventiveAlarmWindowNotifyerControl() (NotifyerControl)
                                                   CSpi::~CSpi() (Platform)
                                                   CStatusLedNotifyerControl::~CStatusLedNotifyerControl() (NotifyerControl)
                                                   CTestModeNotifyerControl::~CTestModeNotifyerControl() (NotifyerControl)
                                                   CTimer::~CTimer() (Timer)
                                                   CUart::~CUart() (Platform)
               calls direct

    -------------------------------------------------------------------------
  LIBRARY MODULE, NAME : ?exit

  SEGMENTS IN THE MODULE
  ======================
CODE
  Relative segment, address: CODE 00007BA4 - 00007BA7 (0x4 bytes), align: 1
  Segment part 3.
           ENTRY                   ADDRESS         REF BY
           =====                   =======         ======
           exit                    00007BA4        ?cstartup_call_main (?C_STARTUP)
               calls direct

    -------------------------------------------------------------------------
  LIBRARY MODULE, NAME : ?S_EC_MUL_L02

  SEGMENTS IN THE MODULE
  ======================
CODE
  Relative segment, address: CODE 00007BA8 - 00007BB7 (0x10 bytes), align: 1
  Segment part 0.
           ENTRY                   ADDRESS         REF BY
           =====                   =======         ======
           ?S_EC_MUL_L02           00007BA8        CDataStore::CompareCurrentWithStoredCrc() (DataStore)
                                                   CDataStore::CrcOfBlocksCrcCheck() (DataStore)
                                                   CDataStore::CrcOfBlocksCrcCreate() (DataStore)
                                                   CDataStore::GetBlockLength(uint8_t) (DataBase)
                                                   CDataStore::ReadBlock(uint8_t *, uint8_t) (DataStore)
                                                   CDataStore::Write(uint8_t *, uint16_t, uint8_t) (DataStore)
                                                   CLightBoard::Set(CAlarmWindow *) (LightBoard)
                                                   CModuleMrXXDriver::Allocate(TMemoryAllocationConext &) (ModuleMrXX)
                                                   CPss21::ActiveAlarmWindowOff(uint8_t) (Pss21)
                                                   CPss21::ActiveAlarmWindowOn(uint8_t) (Pss21)
                                                   CPss21::AllAlarmWindowOff() (Pss21)
                                                   CPss21::AllAlarmWindowOn(uint8_t) (Pss21)
                                                   CPss21::DiscreteOutputControlClear() (Pss21)
                                                   CPss21::DiscreteOutputsSet(uint8_t *, uint8_t) (Pss21)
                                                   CPss21::ErrorWindowOn(uint8_t) (Pss21)
                                                   CPss21::GetAlarmWindowControlPointer(uint8_t) (Alarm)
                                                   CPss21::GetTimeoutModbusRtuLinkControl() (Pss21)
                                                   CPss21::RestoreContextNotifyerControl() (Pss21)
                                                   CPss21::SaveContextNotifyerControl() (Pss21)
                                                   Segment part 17 (?vec_newdel)

    -------------------------------------------------------------------------
  LIBRARY MODULE, NAME : ?S_SHL_L02

  SEGMENTS IN THE MODULE
  ======================
CODE
  Relative segment, address: CODE 00007BB8 - 00007BC1 (0xa bytes), align: 1
  Segment part 0.
           ENTRY                   ADDRESS         REF BY
           =====                   =======         ======
           ?S_SHL_L02              00007BBC        CHammingCodes::fixError(uint16_t, uint8_t) (HammingCodes)
                                                   CModbus::ByteToBitPack(uint16_t, uint16_t, uint8_t *, uint8_t *, uint16_t) (modbus)
                                                   CModuleMrXXDriver::Exchange() (ModuleMrXX)
                                                   CMvsn21Driver::DataExchange() (Mvsn21)
                                                   CPss21::DiscreteOutputsSet(uint8_t *, uint8_t) (Pss21)
                                                   CPss21::SetBytesFromBits(uint8_t *, uint8_t *, uint16_t) (Pss21)
                                                   CUart::CUart(uint8_t volatile *, uint8_t volatile *, uint8_t volatile *, uint8_t volatile *, uint8_t volatile *, uint8_t volatile *, uint8_t volatile *, uint8_t, uint8_t volatile *, uint8_t) (Platform)
                                                   CUart::Rs485RtsOff() (Platform)
                                                   CUart::Rs485RtsOn() (Platform)

    -------------------------------------------------------------------------
  LIBRARY MODULE, NAME : ?US_SHR_L02

  SEGMENTS IN THE MODULE
  ======================
CODE
  Relative segment, address: CODE 00007BC2 - 00007BCB (0xa bytes), align: 1
  Segment part 0.
           ENTRY                   ADDRESS         REF BY
           =====                   =======         ======
           ?US_SHR_L02             00007BC6        CHammingCodes::deHamming(uint16_t) (HammingCodes)
                                                   CHammingCodes::getEvenParityforRx(uint16_t) (HammingCodes)
                                                   CModbus::ReadCoils(uint8_t *, uint8_t *, uint16_t) (modbus)
                                                   CModbus::ReadDiscreteInputs(uint8_t *, uint8_t *, uint16_t) (modbus)

    -------------------------------------------------------------------------
  LIBRARY MODULE, NAME : ?SS_SHR_L02

  SEGMENTS IN THE MODULE
  ======================
CODE
  Relative segment, address: CODE 00007BCC - 00007BD5 (0xa bytes), align: 1
  Segment part 0.
           ENTRY                   ADDRESS         REF BY
           =====                   =======         ======
           ?SS_SHR_L02             00007BD0        CDm163::SetBank0(uint8_t) (Dm163)
                                                   CDm163::SetBank1(uint8_t) (Dm163)
                                                   CHammingCodes::getEvenParityforTx(uint8_t) (HammingCodes)
                                                   CPss21::ConfigurationInit() (Pss21)

    -------------------------------------------------------------------------
  LIBRARY MODULE, NAME : ?US_DIVMOD_L02

  SEGMENTS IN THE MODULE
  ======================
CODE
  Relative segment, address: CODE 00007BD6 - 00007BDB (0x6 bytes), align: 1
  Segment part 1.
           ENTRY                   ADDRESS         REF BY
           =====                   =======         ======
           ?US_DIVMOD_L02          00007BD6        ?SS_DIVMOD_L02 (?SS_DIVMOD_L02)
                                                   CHammingCodes::HammingCodesToBytes(uint8_t *, uint8_t *, uint16_t) (HammingCodes)
                                                   __near_array_delete_general(void *, __near_size_t, __near_size_t, __near_destructor_ptr, __near_delete_ptr, int) (?vec_newdel)
    -------------------------------------------------------------------------
CODE
  Relative segment, address: CODE 00007BDC - 00007BFB (0x20 bytes), align: 1
  Segment part 3.             Intra module refs:   ?US_DIVMOD_L02

    -------------------------------------------------------------------------
  LIBRARY MODULE, NAME : ?SS_DIVMOD_L02

  SEGMENTS IN THE MODULE
  ======================
CODE
  Relative segment, address: CODE 00007BFC - 00007C1B (0x20 bytes), align: 1
  Segment part 1.
           ENTRY                   ADDRESS         REF BY
           =====                   =======         ======
           ?SS_DIVMOD_L02          00007BFC        CPss21::SetBytesFromBits(uint8_t *, uint8_t *, uint16_t) (Pss21)
    -------------------------------------------------------------------------
CODE
  Relative segment, address: CODE 00007C1C - 00007C23 (0x8 bytes), align: 1
  Segment part 2.             Intra module refs:   ?SS_DIVMOD_L02
           LOCAL                   ADDRESS         
           =====                   =======         
           ?NEG_P                  00007C1C 
    -------------------------------------------------------------------------
CODE
  Relative segment, address: CODE 00007C24 - 00007C2B (0x8 bytes), align: 1
  Segment part 3.             Intra module refs:   ?SS_DIVMOD_L02
           LOCAL                   ADDRESS         
           =====                   =======         
           ?NEG_Q                  00007C24 

    -------------------------------------------------------------------------
  LIBRARY MODULE, NAME : ?L_EC_MUL_L03

  SEGMENTS IN THE MODULE
  ======================
CODE
  Relative segment, address: CODE 00007C2C - 00007C6B (0x40 bytes), align: 1
  Segment part 0.
           ENTRY                   ADDRESS         REF BY
           =====                   =======         ======
           ?L_EC_MUL_L03           00007C2C        CModbusRTU::Init(CUart *, uint32_t, char, uint8_t, uint8_t, uint8_t *, uint8_t *, uint8_t *, uint8_t *, uint16_t *, uint16_t *, uint16_t, uint16_t, uint16_t, uint16_t) (ModbusRTU)
                                                   CUart::Init(uint32_t, uint8_t, uint8_t, uint8_t, uint8_t *, uint8_t *) (Platform)

    -------------------------------------------------------------------------
  LIBRARY MODULE, NAME : ?L_SHL_L03

  SEGMENTS IN THE MODULE
  ======================
CODE
  Relative segment, address: CODE 00007C6C - 00007C79 (0xe bytes), align: 1
  Segment part 0.
           ENTRY                   ADDRESS         REF BY
           =====                   =======         ======
           ?L_SHL_L03              00007C74        CHammingCodes::BytesToHammingCodes(uint8_t *, uint8_t *, uint16_t) (HammingCodes)

    -------------------------------------------------------------------------
  LIBRARY MODULE, NAME : ?UL_SHR_L03

  SEGMENTS IN THE MODULE
  ======================
CODE
  Relative segment, address: CODE 00007C7A - 00007C87 (0xe bytes), align: 1
  Segment part 0.
           ENTRY                   ADDRESS         REF BY
           =====                   =======         ======
           ?UL_SHR_L03             00007C82        CHammingCodes::HammingCodesToBytes(uint8_t *, uint8_t *, uint16_t) (HammingCodes)
                                                   CPlatform::SystemTickInit() (Platform)
                                                   CPss21::ModbusInit() (Pss21)

    -------------------------------------------------------------------------
  LIBRARY MODULE, NAME : ?UL_DIVMOD_L03

  SEGMENTS IN THE MODULE
  ======================
CODE
  Relative segment, address: CODE 00007C88 - 00007C8F (0x8 bytes), align: 1
  Segment part 1.
           ENTRY                   ADDRESS         REF BY
           =====                   =======         ======
           ?UL_DIVMOD_L03          00007C88        CModbusRTU::Init(CUart *, uint32_t, char, uint8_t, uint8_t, uint8_t *, uint8_t *, uint8_t *, uint8_t *, uint16_t *, uint16_t *, uint16_t, uint16_t, uint16_t, uint16_t) (ModbusRTU)
                                                   CPlatform::BuzzerTimerFrequencySet(uint16_t) (Platform)
                                                   CPss21::ModbusInit() (Pss21)
                                                   CUart::Init(uint32_t, uint8_t, uint8_t, uint8_t, uint8_t *, uint8_t *) (Platform)
    -------------------------------------------------------------------------
CODE
  Relative segment, address: CODE 00007C90 - 00007CC5 (0x36 bytes), align: 1
  Segment part 3.             Intra module refs:   ?UL_DIVMOD_L03

    -------------------------------------------------------------------------
  LIBRARY MODULE, NAME : ?xV_SWITCH_L06

  SEGMENTS IN THE MODULE
  ======================
CODE
  Relative segment, address: CODE 00007CC6 - 00007CD1 (0xc bytes), align: 1
  Segment part 2.             Intra module refs:   ?CV_SWITCH_L06
           LOCAL                   ADDRESS         
           =====                   =======         
           GET_INFO_C              00007CC6 
    -------------------------------------------------------------------------
CODE
  Relative segment, address: CODE 00007CD2 - 00007CD9 (0x8 bytes), align: 1
  Segment part 3.
           ENTRY                   ADDRESS         REF BY
           =====                   =======         ======
           ?CV_SWITCH_L06          00007CD2        CBuzzerNotifyerControl::AlarmSet(uint8_t) (NotifyerControl)
                                                   CEmergencyAlarmWindowNotifyerControl::AlarmSet(uint8_t) (NotifyerControl)
                                                   CModbus::Reply(uint8_t *, uint8_t *, uint16_t) (modbus)
                                                   CModbusRTU::Fsm() (ModbusRTU)
                                                   CNotifyerControl::Fsm() (NotifyerControl)
                                                   CPreventiveAlarmWindowNotifyerControl::AlarmSet(uint8_t) (NotifyerControl)
                                                   CPss21::MainFsm() (Pss21)
                                                   CStatusLedNotifyerControl::AlarmSet(uint8_t) (NotifyerControl)
    -------------------------------------------------------------------------
CODE
  Relative segment, address: CODE 00007CDA - 00007CDF (0x6 bytes), align: 1
  Segment part 5.             Intra module refs:   ?CV_SWITCH_L06
           LOCAL                   ADDRESS         
           =====                   =======         
           P_0_S                   00007CDA 
    -------------------------------------------------------------------------
CODE
  Relative segment, address: CODE 00007CE0 - 00007D4B (0x6c bytes), align: 1
  Segment part 7.             Intra module refs:   P_0_S
           LOCAL                   ADDRESS         
           =====                   =======         
           CHECK_LOW_LIMIT         00007CE0 

    -------------------------------------------------------------------------
  LIBRARY MODULE, NAME : ?PROLOGUE_L09

  SEGMENTS IN THE MODULE
  ======================
CODE
  Relative segment, address: CODE 00007D4C - 00007D4D (0x2 bytes), align: 1
  Segment part 0.
           ENTRY                   ADDRESS         REF BY
           =====                   =======         ======
           ?PROLOGUE16_L09         00007D4C        CHammingCodes::HammingCodesToBytes(uint8_t *, uint8_t *, uint16_t) (HammingCodes)
                                                   CModbus::Programming(uint8_t *, uint8_t *, uint16_t) (modbus)
                                                   CModbus::ReadCoils(uint8_t *, uint8_t *, uint16_t) (modbus)
                                                   CModbus::ReadDiscreteInputs(uint8_t *, uint8_t *, uint16_t) (modbus)
                                                   CModbus::ReadHoldingRegisters(uint8_t *, uint8_t *, uint16_t) (modbus)
                                                   CModbus::ReadInputRegisters(uint8_t *, uint8_t *, uint16_t) (modbus)
                                                   CModbus::WriteMultipleCoils(uint8_t *, uint8_t *, uint16_t) (modbus)
                                                   CModbus::WriteMultipleRegisters(uint8_t *, uint8_t *, uint16_t) (modbus)
                                                   CModbus::WriteSingleCoil(uint8_t *, uint8_t *, uint16_t) (modbus)
                                                   CModbusRTU::Init(CUart *, uint32_t, char, uint8_t, uint8_t, uint8_t *, uint8_t *, uint8_t *, uint8_t *, uint16_t *, uint16_t *, uint16_t, uint16_t, uint16_t, uint16_t) (ModbusRTU)
    -------------------------------------------------------------------------
CODE
  Relative segment, address: CODE 00007D4E - 00007D4F (0x2 bytes), align: 1
  Segment part 1.             Intra module refs:   ?PROLOGUE16_L09
           ENTRY                   ADDRESS         REF BY
           =====                   =======         ======
           ?PROLOGUE15_L09         00007D4E        CHammingCodes::BytesToHammingCodes(uint8_t *, uint8_t *, uint16_t) (HammingCodes)
                                                   CModbus::Reply(uint8_t *, uint8_t *, uint16_t) (modbus)
    -------------------------------------------------------------------------
CODE
  Relative segment, address: CODE 00007D50 - 00007D51 (0x2 bytes), align: 1
  Segment part 2.             Intra module refs:   ?PROLOGUE15_L09
           ENTRY                   ADDRESS         REF BY
           =====                   =======         ======
           ?PROLOGUE14_L09         00007D50        CDataStore::ReadBlock(uint8_t *, uint8_t) (DataStore)
                                                   CModbus::WriteSingleRegister(uint8_t *, uint8_t *, uint16_t) (modbus)
                                                   __near_array_delete_general(void *, __near_size_t, __near_size_t, __near_destructor_ptr, __near_delete_ptr, int) (?vec_newdel)
                                                   __near_array_new_general(void *, __near_size_t, __near_size_t, void *, __near_constructor_ptr, __near_destructor_ptr, __near_new_ptr, __near_delete_ptr, int, int) (?vec_newdel)
    -------------------------------------------------------------------------
CODE
  Relative segment, address: CODE 00007D52 - 00007D53 (0x2 bytes), align: 1
  Segment part 3.             Intra module refs:   ?PROLOGUE14_L09
           ENTRY                   ADDRESS         REF BY
           =====                   =======         ======
           ?PROLOGUE13_L09         00007D52 
    -------------------------------------------------------------------------
CODE
  Relative segment, address: CODE 00007D54 - 00007D55 (0x2 bytes), align: 1
  Segment part 4.             Intra module refs:   ?PROLOGUE13_L09
           ENTRY                   ADDRESS         REF BY
           =====                   =======         ======
           ?PROLOGUE12_L09         00007D54        CModbus::PollProgramming(uint8_t *, uint8_t *, uint16_t) (modbus)
                                                   CModbus::ReceiveMessage(uint8_t *, uint16_t) (modbus)
                                                   CModbus::ReportSlaveID(uint8_t *, uint8_t *, uint16_t) (modbus)
    -------------------------------------------------------------------------
CODE
  Relative segment, address: CODE 00007D56 - 00007D57 (0x2 bytes), align: 1
  Segment part 5.             Intra module refs:   ?PROLOGUE12_L09
           ENTRY                   ADDRESS         REF BY
           =====                   =======         ======
           ?PROLOGUE11_L09         00007D56        __call_ctors (?cppinit)
    -------------------------------------------------------------------------
CODE
  Relative segment, address: CODE 00007D58 - 00007D59 (0x2 bytes), align: 1
  Segment part 6.             Intra module refs:   ?PROLOGUE11_L09
           ENTRY                   ADDRESS         REF BY
           =====                   =======         ======
           ?PROLOGUE10_L09         00007D58        CDataStore::Write(uint8_t *, uint16_t, uint8_t) (DataStore)
                                                   CModbus::ByteToBitPack(uint16_t, uint16_t, uint8_t *, uint8_t *, uint16_t) (modbus)
                                                   CModbusRTU::FrameCheck(uint8_t *, uint16_t) (ModbusRTU)
                                                   CModuleMrXXDriver::Exchange() (ModuleMrXX)
                                                   CUart::CUart(uint8_t volatile *, uint8_t volatile *, uint8_t volatile *, uint8_t volatile *, uint8_t volatile *, uint8_t volatile *, uint8_t volatile *, uint8_t, uint8_t volatile *, uint8_t) (Platform)
    -------------------------------------------------------------------------
CODE
  Relative segment, address: CODE 00007D5A - 00007D5B (0x2 bytes), align: 1
  Segment part 7.             Intra module refs:   ?PROLOGUE10_L09
           ENTRY                   ADDRESS         REF BY
           =====                   =======         ======
           ?PROLOGUE9_L09          00007D5A        CModbus::ResponseException(uint8_t, uint8_t, uint8_t, uint8_t *) (modbus)
    -------------------------------------------------------------------------
CODE
  Relative segment, address: CODE 00007D5C - 00007D5D (0x2 bytes), align: 1
  Segment part 8.             Intra module refs:   ?PROLOGUE9_L09
           ENTRY                   ADDRESS         REF BY
           =====                   =======         ======
           ?PROLOGUE8_L09          00007D5C        CSpi::Exchange(uint8_t *, uint8_t *, uint16_t) (Platform)
                                                   CUart::Init(uint32_t, uint8_t, uint8_t, uint8_t, uint8_t *, uint8_t *) (Platform)
                                                   CUart::Read(uint8_t *, uint16_t) (Platform)
    -------------------------------------------------------------------------
CODE
  Relative segment, address: CODE 00007D5E - 00007D5F (0x2 bytes), align: 1
  Segment part 9.             Intra module refs:   ?PROLOGUE8_L09
           ENTRY                   ADDRESS         REF BY
           =====                   =======         ======
           ?PROLOGUE7_L09          00007D5E 
    -------------------------------------------------------------------------
CODE
  Relative segment, address: CODE 00007D60 - 00007D61 (0x2 bytes), align: 1
  Segment part 10.            Intra module refs:   ?PROLOGUE7_L09
           ENTRY                   ADDRESS         REF BY
           =====                   =======         ======
           ?PROLOGUE6_L09          00007D60        CEeprom::WriteInterrupt(uint16_t, uint8_t *, uint16_t) (Platform)
                                                   CModbus::SendMessage(uint8_t *, uint16_t) (modbus)
                                                   CModbusRTU::CModbusRTU() (ModbusRTU)
                                                   CModbusRTU::Receive(uint8_t *, uint16_t) (ModbusRTU)
                                                   CModbusRTU::Send(uint8_t *, uint16_t) (ModbusRTU)
                                                   CModbusRTU::Tail(uint8_t *, uint16_t) (ModbusRTU)
                                                   CModuleMrXXDriver::WriteDataBase() (ModuleMrXX)
                                                   CPss21::ConfigurationInit() (Pss21)
                                                   CPss21::ModbusDeviceControl(uint8_t *, uint16_t, uint16_t) (Pss21)
    -------------------------------------------------------------------------
CODE
  Relative segment, address: CODE 00007D62 - 00007D63 (0x2 bytes), align: 1
  Segment part 11.            Intra module refs:   ?PROLOGUE6_L09
           ENTRY                   ADDRESS         REF BY
           =====                   =======         ======
           ?PROLOGUE5_L09          00007D62        CAlarmDfa::Fsm() (Alarm)
                                                   CDataStore::WriteBlock(uint8_t *, uint16_t, uint8_t) (DataStore)
                                                   CErrorAlarmDfa::Fsm() (Alarm)
                                                   CFlash::ReadBlock(uint8_t *, uint8_t) (Platform)
                                                   CIndicationAlarmLowLevelDfa::Fsm() (Alarm)
    -------------------------------------------------------------------------
CODE
  Relative segment, address: CODE 00007D64 - 00007D65 (0x2 bytes), align: 1
  Segment part 12.            Intra module refs:   ?PROLOGUE5_L09
           ENTRY                   ADDRESS         REF BY
           =====                   =======         ======
           ?PROLOGUE4_L09          00007D64        CAlarmDfa::~CAlarmDfa() (Alarm)
                                                   CBuzzerNotifyerControl::~CBuzzerNotifyerControl() (NotifyerControl)
                                                   CDataBase::RestoreDefault() (DataBase)
                                                   CDataStore::Check() (DataStore)
                                                   CEeprom::ReadyInterruptHandler() (Platform)
                                                   CEmergencyAlarmHighLevelDfa::~CEmergencyAlarmHighLevelDfa() (Alarm)
                                                   CEmergencyAlarmLowLevelDfa::~CEmergencyAlarmLowLevelDfa() (Alarm)
                                                   CEmergencyAlarmWindowNotifyerControl::~CEmergencyAlarmWindowNotifyerControl() (NotifyerControl)
                                                   CErrorAlarmDfa::~CErrorAlarmDfa() (Alarm)
                                                   CEvent::~CEvent() (Event)
                                                   CEventUniteLogicAnd::CEventUniteLogicAnd(uint16_t) (Event)
                                                   CEventUniteLogicAnd::IsHappened(uint8_t, uint8_t) (Event)
                                                   CEventUniteLogicAnd::~CEventUniteLogicAnd() (Event)
                                                   CFlash::GetBlockPointer(uint8_t) (Platform)
                                                   CIndicationAlarmHighLevelDfa::~CIndicationAlarmHighLevelDfa() (Alarm)
                                                   CIndicationAlarmLowLevelDfa::~CIndicationAlarmLowLevelDfa() (Alarm)
                                                   CLinkControl::~CLinkControl() (LinkControl)
                                                   CModbus::~CModbus() (modbus)
                                                   CModbusRTU::Fsm() (ModbusRTU)
                                                   CModbusRTU::TimeIsOver(uint16_t) (ModbusRTU)
                                                   CModbusRTU::~CModbusRTU() (ModbusRTU)
                                                   CModbusRtuLinkControl::Fsm() (LinkControl)
                                                   CModbusRtuLinkControl::~CModbusRtuLinkControl() (LinkControl)
                                                   CModuleMrXXDriver::CModuleMrXXDriver(uint8_t) (ModuleMrXX)
                                                   CModuleMrXXDriver::~CModuleMrXXDriver() (ModuleMrXX)
                                                   CMultiFunctionKey::CMultiFunctionKey(uint8_t (__version_3 *)()) (InputDevice)
                                                   CMultiFunctionKey::KeyEventHappened(uint8_t) (InputDevice)
                                                   CMultiFunctionKey::~CMultiFunctionKey() (InputDevice)
                                                   CMvsn21Driver::CMvsn21Driver(uint8_t) (Mvsn21)
                                                   CMvsn21Driver::DataExchange() (Mvsn21)
                                                   CMvsn21Driver::~CMvsn21Driver() (Mvsn21)
                                                   CNormalAlarmDfa::~CNormalAlarmDfa() (Alarm)
                                                   CNotifyerControl::~CNotifyerControl() (NotifyerControl)
                                                   CPlatform::BuzzerTimerFrequencySet(uint16_t) (Platform)
                                                   CPreventiveAlarmHighLevelDfa::~CPreventiveAlarmHighLevelDfa() (Alarm)
                                                   CPreventiveAlarmLowLevelDfa::~CPreventiveAlarmLowLevelDfa() (Alarm)
                                                   CPreventiveAlarmWindowNotifyerControl::~CPreventiveAlarmWindowNotifyerControl() (NotifyerControl)
                                                   CPss21::DiscreteOutputControlClear() (Pss21)
                                                   CPss21::DiscreteOutputsSet(uint8_t *, uint8_t) (Pss21)
                                                   CPss21::SetBytesFromBits(uint8_t *, uint8_t *, uint16_t) (Pss21)
                                                   CPss48BoardPixel::SetCorrection(TPixelColorData __farflash *) (Pixel)
                                                   CPss48BoardPixel::SetData(TPixelColorData __farflash *) (Pixel)
                                                   CStatusLedNotifyerControl::~CStatusLedNotifyerControl() (NotifyerControl)
                                                   CTestModeNotifyerControl::~CTestModeNotifyerControl() (NotifyerControl)
                                                   CTimer::CTimer(uint16_t) (Timer)
                                                   CTimer::Set(uint16_t) (Timer)
                                                   CUart::RecvInterruptHandler() (Platform)
                                                   __near_findmem (?xxmemxmalloc)
                                                   iCrcSummTwoByteCompare(unsigned char *, unsigned int) (Crc)
                                                   malloc (?xxmemxmalloc)
    -------------------------------------------------------------------------
CODE
  Relative segment, address: CODE 00007D66 - 00007D67 (0x2 bytes), align: 1
  Segment part 13.            Intra module refs:   ?PROLOGUE4_L09
           ENTRY                   ADDRESS         REF BY
           =====                   =======         ======
           ?PROLOGUE3_L09          00007D66        CBuzzerNotifyerControl::AlarmSet(uint8_t) (NotifyerControl)
                                                   CDataBase::ReadBlock(uint8_t *, uint8_t) (DataBase)
                                                   CDataBase::WriteBlock(uint8_t *, uint8_t) (DataBase)
                                                   CDataStore::ReadBlockFlash(uint8_t *, uint8_t) (DataStore)
                                                   CEmergencyAlarmWindowNotifyerControl::AlarmSet(uint8_t) (NotifyerControl)
                                                   CLightBoard::Set(CAlarmWindow *) (LightBoard)
                                                   CModuleMrXXDriver::DataExchange() (ModuleMrXX)
                                                   CPreventiveAlarmWindowNotifyerControl::AlarmSet(uint8_t) (NotifyerControl)
                                                   CStatusLedNotifyerControl::AlarmSet(uint8_t) (NotifyerControl)
    -------------------------------------------------------------------------
CODE
  Relative segment, address: CODE 00007D68 - 00007D69 (0x2 bytes), align: 1
  Segment part 14.            Intra module refs:   ?PROLOGUE3_L09
           ENTRY                   ADDRESS         REF BY
           =====                   =======         ======
           ?PROLOGUE2_L09          00007D68 
    -------------------------------------------------------------------------
CODE
  Relative segment, address: CODE 00007D6A - 00007D6B (0x2 bytes), align: 1
  Segment part 15.            Intra module refs:   ?PROLOGUE2_L09
           ENTRY                   ADDRESS         REF BY
           =====                   =======         ======
           ?PROLOGUE1_L09          00007D6A 
    -------------------------------------------------------------------------
CODE
  Relative segment, address: CODE 00007D6C - 00007D6D (0x2 bytes), align: 1
  Segment part 16.            Intra module refs:   ?PROLOGUE1_L09

    -------------------------------------------------------------------------
  LIBRARY MODULE, NAME : ?EPILOGUE_B_L09

  SEGMENTS IN THE MODULE
  ======================
CODE
  Relative segment, address: CODE 00007D6E - 00007D6F (0x2 bytes), align: 1
  Segment part 0.
           ENTRY                   ADDRESS         REF BY
           =====                   =======         ======
           ?EPILOGUE_B16_L09       00007D6E        CHammingCodes::HammingCodesToBytes(uint8_t *, uint8_t *, uint16_t) (HammingCodes)
                                                   CModbus::Programming(uint8_t *, uint8_t *, uint16_t) (modbus)
                                                   CModbus::ReadCoils(uint8_t *, uint8_t *, uint16_t) (modbus)
                                                   CModbus::ReadDiscreteInputs(uint8_t *, uint8_t *, uint16_t) (modbus)
                                                   CModbus::ReadHoldingRegisters(uint8_t *, uint8_t *, uint16_t) (modbus)
                                                   CModbus::ReadInputRegisters(uint8_t *, uint8_t *, uint16_t) (modbus)
                                                   CModbus::WriteMultipleCoils(uint8_t *, uint8_t *, uint16_t) (modbus)
                                                   CModbus::WriteMultipleRegisters(uint8_t *, uint8_t *, uint16_t) (modbus)
                                                   CModbus::WriteSingleCoil(uint8_t *, uint8_t *, uint16_t) (modbus)
                                                   CModbusRTU::Init(CUart *, uint32_t, char, uint8_t, uint8_t, uint8_t *, uint8_t *, uint8_t *, uint8_t *, uint16_t *, uint16_t *, uint16_t, uint16_t, uint16_t, uint16_t) (ModbusRTU)
    -------------------------------------------------------------------------
CODE
  Relative segment, address: CODE 00007D70 - 00007D71 (0x2 bytes), align: 1
  Segment part 1.             Intra module refs:   ?EPILOGUE_B16_L09
           ENTRY                   ADDRESS         REF BY
           =====                   =======         ======
           ?EPILOGUE_B15_L09       00007D70        CHammingCodes::BytesToHammingCodes(uint8_t *, uint8_t *, uint16_t) (HammingCodes)
                                                   CModbus::Reply(uint8_t *, uint8_t *, uint16_t) (modbus)
    -------------------------------------------------------------------------
CODE
  Relative segment, address: CODE 00007D72 - 00007D73 (0x2 bytes), align: 1
  Segment part 2.             Intra module refs:   ?EPILOGUE_B15_L09
           ENTRY                   ADDRESS         REF BY
           =====                   =======         ======
           ?EPILOGUE_B14_L09       00007D72        CDataStore::ReadBlock(uint8_t *, uint8_t) (DataStore)
                                                   CModbus::WriteSingleRegister(uint8_t *, uint8_t *, uint16_t) (modbus)
                                                   Segment part 15 (?vec_newdel)
    -------------------------------------------------------------------------
CODE
  Relative segment, address: CODE 00007D74 - 00007D75 (0x2 bytes), align: 1
  Segment part 3.             Intra module refs:   ?EPILOGUE_B14_L09
           ENTRY                   ADDRESS         REF BY
           =====                   =======         ======
           ?EPILOGUE_B13_L09       00007D74 
    -------------------------------------------------------------------------
CODE
  Relative segment, address: CODE 00007D76 - 00007D77 (0x2 bytes), align: 1
  Segment part 4.             Intra module refs:   ?EPILOGUE_B13_L09
           ENTRY                   ADDRESS         REF BY
           =====                   =======         ======
           ?EPILOGUE_B12_L09       00007D76        CModbus::PollProgramming(uint8_t *, uint8_t *, uint16_t) (modbus)
                                                   CModbus::ReceiveMessage(uint8_t *, uint16_t) (modbus)
                                                   CModbus::ReportSlaveID(uint8_t *, uint8_t *, uint16_t) (modbus)
    -------------------------------------------------------------------------
CODE
  Relative segment, address: CODE 00007D78 - 00007D79 (0x2 bytes), align: 1
  Segment part 5.             Intra module refs:   ?EPILOGUE_B12_L09
           ENTRY                   ADDRESS         REF BY
           =====                   =======         ======
           ?EPILOGUE_B11_L09       00007D78        __call_ctors (?cppinit)
    -------------------------------------------------------------------------
CODE
  Relative segment, address: CODE 00007D7A - 00007D7B (0x2 bytes), align: 1
  Segment part 6.             Intra module refs:   ?EPILOGUE_B11_L09
           ENTRY                   ADDRESS         REF BY
           =====                   =======         ======
           ?EPILOGUE_B10_L09       00007D7A        CDataStore::Write(uint8_t *, uint16_t, uint8_t) (DataStore)
                                                   CModbus::ByteToBitPack(uint16_t, uint16_t, uint8_t *, uint8_t *, uint16_t) (modbus)
                                                   CModbusRTU::FrameCheck(uint8_t *, uint16_t) (ModbusRTU)
                                                   CModuleMrXXDriver::Exchange() (ModuleMrXX)
                                                   CUart::CUart(uint8_t volatile *, uint8_t volatile *, uint8_t volatile *, uint8_t volatile *, uint8_t volatile *, uint8_t volatile *, uint8_t volatile *, uint8_t, uint8_t volatile *, uint8_t) (Platform)
    -------------------------------------------------------------------------
CODE
  Relative segment, address: CODE 00007D7C - 00007D7D (0x2 bytes), align: 1
  Segment part 7.             Intra module refs:   ?EPILOGUE_B10_L09
           ENTRY                   ADDRESS         REF BY
           =====                   =======         ======
           ?EPILOGUE_B9_L09        00007D7C        CModbus::ResponseException(uint8_t, uint8_t, uint8_t, uint8_t *) (modbus)
    -------------------------------------------------------------------------
CODE
  Relative segment, address: CODE 00007D7E - 00007D7F (0x2 bytes), align: 1
  Segment part 8.             Intra module refs:   ?EPILOGUE_B9_L09
           ENTRY                   ADDRESS         REF BY
           =====                   =======         ======
           ?EPILOGUE_B8_L09        00007D7E        CSpi::Exchange(uint8_t *, uint8_t *, uint16_t) (Platform)
                                                   CUart::Init(uint32_t, uint8_t, uint8_t, uint8_t, uint8_t *, uint8_t *) (Platform)
                                                   CUart::Read(uint8_t *, uint16_t) (Platform)
    -------------------------------------------------------------------------
CODE
  Relative segment, address: CODE 00007D80 - 00007D81 (0x2 bytes), align: 1
  Segment part 9.             Intra module refs:   ?EPILOGUE_B8_L09
           ENTRY                   ADDRESS         REF BY
           =====                   =======         ======
           ?EPILOGUE_B7_L09        00007D80 
    -------------------------------------------------------------------------
CODE
  Relative segment, address: CODE 00007D82 - 00007D83 (0x2 bytes), align: 1
  Segment part 10.            Intra module refs:   ?EPILOGUE_B7_L09
           ENTRY                   ADDRESS         REF BY
           =====                   =======         ======
           ?EPILOGUE_B6_L09        00007D82        CEeprom::WriteInterrupt(uint16_t, uint8_t *, uint16_t) (Platform)
                                                   CModbus::SendMessage(uint8_t *, uint16_t) (modbus)
                                                   CModbusRTU::CModbusRTU() (ModbusRTU)
                                                   CModbusRTU::Receive(uint8_t *, uint16_t) (ModbusRTU)
                                                   CModbusRTU::Send(uint8_t *, uint16_t) (ModbusRTU)
                                                   CModbusRTU::Tail(uint8_t *, uint16_t) (ModbusRTU)
                                                   CModuleMrXXDriver::WriteDataBase() (ModuleMrXX)
                                                   CPss21::ConfigurationInit() (Pss21)
                                                   CPss21::ModbusDeviceControl(uint8_t *, uint16_t, uint16_t) (Pss21)
    -------------------------------------------------------------------------
CODE
  Relative segment, address: CODE 00007D84 - 00007D85 (0x2 bytes), align: 1
  Segment part 11.            Intra module refs:   ?EPILOGUE_B6_L09
           ENTRY                   ADDRESS         REF BY
           =====                   =======         ======
           ?EPILOGUE_B5_L09        00007D84        CAlarmDfa::Fsm() (Alarm)
                                                   CDataStore::WriteBlock(uint8_t *, uint16_t, uint8_t) (DataStore)
                                                   CErrorAlarmDfa::Fsm() (Alarm)
                                                   CFlash::ReadBlock(uint8_t *, uint8_t) (Platform)
                                                   CIndicationAlarmLowLevelDfa::Fsm() (Alarm)
    -------------------------------------------------------------------------
CODE
  Relative segment, address: CODE 00007D86 - 00007D87 (0x2 bytes), align: 1
  Segment part 12.            Intra module refs:   ?EPILOGUE_B5_L09
           ENTRY                   ADDRESS         REF BY
           =====                   =======         ======
           ?EPILOGUE_B4_L09        00007D86        CAlarmDfa::~CAlarmDfa() (Alarm)
                                                   CBuzzerNotifyerControl::~CBuzzerNotifyerControl() (NotifyerControl)
                                                   CDataBase::RestoreDefault() (DataBase)
                                                   CDataStore::Check() (DataStore)
                                                   CEeprom::ReadyInterruptHandler() (Platform)
                                                   CEmergencyAlarmHighLevelDfa::~CEmergencyAlarmHighLevelDfa() (Alarm)
                                                   CEmergencyAlarmLowLevelDfa::~CEmergencyAlarmLowLevelDfa() (Alarm)
                                                   CEmergencyAlarmWindowNotifyerControl::~CEmergencyAlarmWindowNotifyerControl() (NotifyerControl)
                                                   CErrorAlarmDfa::~CErrorAlarmDfa() (Alarm)
                                                   CEvent::~CEvent() (Event)
                                                   CEventUniteLogicAnd::CEventUniteLogicAnd(uint16_t) (Event)
                                                   CEventUniteLogicAnd::IsHappened(uint8_t, uint8_t) (Event)
                                                   CEventUniteLogicAnd::~CEventUniteLogicAnd() (Event)
                                                   CFlash::GetBlockPointer(uint8_t) (Platform)
                                                   CIndicationAlarmHighLevelDfa::~CIndicationAlarmHighLevelDfa() (Alarm)
                                                   CIndicationAlarmLowLevelDfa::~CIndicationAlarmLowLevelDfa() (Alarm)
                                                   CLinkControl::~CLinkControl() (LinkControl)
                                                   CModbus::~CModbus() (modbus)
                                                   CModbusRTU::Fsm() (ModbusRTU)
                                                   CModbusRTU::TimeIsOver(uint16_t) (ModbusRTU)
                                                   CModbusRTU::~CModbusRTU() (ModbusRTU)
                                                   CModbusRtuLinkControl::Fsm() (LinkControl)
                                                   CModbusRtuLinkControl::~CModbusRtuLinkControl() (LinkControl)
                                                   CModuleMrXXDriver::CModuleMrXXDriver(uint8_t) (ModuleMrXX)
                                                   CModuleMrXXDriver::~CModuleMrXXDriver() (ModuleMrXX)
                                                   CMultiFunctionKey::CMultiFunctionKey(uint8_t (__version_3 *)()) (InputDevice)
                                                   CMultiFunctionKey::KeyEventHappened(uint8_t) (InputDevice)
                                                   CMultiFunctionKey::~CMultiFunctionKey() (InputDevice)
                                                   CMvsn21Driver::CMvsn21Driver(uint8_t) (Mvsn21)
                                                   CMvsn21Driver::DataExchange() (Mvsn21)
                                                   CMvsn21Driver::~CMvsn21Driver() (Mvsn21)
                                                   CNormalAlarmDfa::~CNormalAlarmDfa() (Alarm)
                                                   CNotifyerControl::~CNotifyerControl() (NotifyerControl)
                                                   CPlatform::BuzzerTimerFrequencySet(uint16_t) (Platform)
                                                   CPreventiveAlarmHighLevelDfa::~CPreventiveAlarmHighLevelDfa() (Alarm)
                                                   CPreventiveAlarmLowLevelDfa::~CPreventiveAlarmLowLevelDfa() (Alarm)
                                                   CPreventiveAlarmWindowNotifyerControl::~CPreventiveAlarmWindowNotifyerControl() (NotifyerControl)
                                                   CPss21::DiscreteOutputControlClear() (Pss21)
                                                   CPss21::DiscreteOutputsSet(uint8_t *, uint8_t) (Pss21)
                                                   CPss21::SetBytesFromBits(uint8_t *, uint8_t *, uint16_t) (Pss21)
                                                   CPss48BoardPixel::SetCorrection(TPixelColorData __farflash *) (Pixel)
                                                   CPss48BoardPixel::SetData(TPixelColorData __farflash *) (Pixel)
                                                   CStatusLedNotifyerControl::~CStatusLedNotifyerControl() (NotifyerControl)
                                                   CTestModeNotifyerControl::~CTestModeNotifyerControl() (NotifyerControl)
                                                   CTimer::CTimer(uint16_t) (Timer)
                                                   CTimer::Set(uint16_t) (Timer)
                                                   CUart::RecvInterruptHandler() (Platform)
                                                   Segment part 6 (?xxmemxmalloc)
                                                   iCrcSummTwoByteCompare(unsigned char *, unsigned int) (Crc)
    -------------------------------------------------------------------------
CODE
  Relative segment, address: CODE 00007D88 - 00007D89 (0x2 bytes), align: 1
  Segment part 13.            Intra module refs:   ?EPILOGUE_B4_L09
           ENTRY                   ADDRESS         REF BY
           =====                   =======         ======
           ?EPILOGUE_B3_L09        00007D88        CBuzzerNotifyerControl::AlarmSet(uint8_t) (NotifyerControl)
                                                   CDataBase::ReadBlock(uint8_t *, uint8_t) (DataBase)
                                                   CDataBase::WriteBlock(uint8_t *, uint8_t) (DataBase)
                                                   CDataStore::ReadBlockFlash(uint8_t *, uint8_t) (DataStore)
                                                   CEmergencyAlarmWindowNotifyerControl::AlarmSet(uint8_t) (NotifyerControl)
                                                   CLightBoard::Set(CAlarmWindow *) (LightBoard)
                                                   CModuleMrXXDriver::DataExchange() (ModuleMrXX)
                                                   CPreventiveAlarmWindowNotifyerControl::AlarmSet(uint8_t) (NotifyerControl)
                                                   CStatusLedNotifyerControl::AlarmSet(uint8_t) (NotifyerControl)
    -------------------------------------------------------------------------
CODE
  Relative segment, address: CODE 00007D8A - 00007D8B (0x2 bytes), align: 1
  Segment part 14.            Intra module refs:   ?EPILOGUE_B3_L09
           ENTRY                   ADDRESS         REF BY
           =====                   =======         ======
           ?EPILOGUE_B2_L09        00007D8A 
    -------------------------------------------------------------------------
CODE
  Relative segment, address: CODE 00007D8C - 00007D8D (0x2 bytes), align: 1
  Segment part 15.            Intra module refs:   ?EPILOGUE_B2_L09
           ENTRY                   ADDRESS         REF BY
           =====                   =======         ======
           ?EPILOGUE_B1_L09        00007D8C 
    -------------------------------------------------------------------------
CODE
  Relative segment, address: CODE 00007D8E - 00007D97 (0xa bytes), align: 1
  Segment part 16.            Intra module refs:   ?EPILOGUE_B1_L09
           ENTRY                   ADDRESS         REF BY
           =====                   =======         ======
           ?EPILOGUE_B0_L09        00007D8E 

    -------------------------------------------------------------------------
  LIBRARY MODULE, NAME : ?REGISTER_CGREGR4_L10

  SEGMENTS IN THE MODULE
  ======================
CODE
  Relative segment, address: CODE 00007D98, align: 1
  Segment part 0.
           ENTRY                   ADDRESS         REF BY
           =====                   =======         ======
           ?Register_R4_is_cg_reg
                                   00007D98        CAlarmDfa::Fsm() (Alarm)
                                                   CDataStore::ReadBlock(uint8_t *, uint8_t) (DataStore)
                                                   CDataStore::Write(uint8_t *, uint16_t, uint8_t) (DataStore)
                                                   CDataStore::WriteBlock(uint8_t *, uint16_t, uint8_t) (DataStore)
                                                   CEeprom::WriteInterrupt(uint16_t, uint8_t *, uint16_t) (Platform)
                                                   CErrorAlarmDfa::Fsm() (Alarm)
                                                   CFlash::ReadBlock(uint8_t *, uint8_t) (Platform)
                                                   CHammingCodes::BytesToHammingCodes(uint8_t *, uint8_t *, uint16_t) (HammingCodes)
                                                   CHammingCodes::HammingCodesToBytes(uint8_t *, uint8_t *, uint16_t) (HammingCodes)
                                                   CIndicationAlarmLowLevelDfa::Fsm() (Alarm)
                                                   CModbus::ByteToBitPack(uint16_t, uint16_t, uint8_t *, uint8_t *, uint16_t) (modbus)
                                                   CModbus::PollProgramming(uint8_t *, uint8_t *, uint16_t) (modbus)
                                                   CModbus::Programming(uint8_t *, uint8_t *, uint16_t) (modbus)
                                                   CModbus::ReadCoils(uint8_t *, uint8_t *, uint16_t) (modbus)
                                                   CModbus::ReadDiscreteInputs(uint8_t *, uint8_t *, uint16_t) (modbus)
                                                   CModbus::ReadHoldingRegisters(uint8_t *, uint8_t *, uint16_t) (modbus)
                                                   CModbus::ReadInputRegisters(uint8_t *, uint8_t *, uint16_t) (modbus)
                                                   CModbus::ReceiveMessage(uint8_t *, uint16_t) (modbus)
                                                   CModbus::Reply(uint8_t *, uint8_t *, uint16_t) (modbus)
                                                   CModbus::ReportSlaveID(uint8_t *, uint8_t *, uint16_t) (modbus)
                                                   CModbus::ResponseException(uint8_t, uint8_t, uint8_t, uint8_t *) (modbus)
                                                   CModbus::SendMessage(uint8_t *, uint16_t) (modbus)
                                                   CModbus::WriteMultipleCoils(uint8_t *, uint8_t *, uint16_t) (modbus)
                                                   CModbus::WriteMultipleRegisters(uint8_t *, uint8_t *, uint16_t) (modbus)
                                                   CModbus::WriteSingleCoil(uint8_t *, uint8_t *, uint16_t) (modbus)
                                                   CModbus::WriteSingleRegister(uint8_t *, uint8_t *, uint16_t) (modbus)
                                                   CModbusRTU::CModbusRTU() (ModbusRTU)
                                                   CModbusRTU::FrameCheck(uint8_t *, uint16_t) (ModbusRTU)
                                                   CModbusRTU::Init(CUart *, uint32_t, char, uint8_t, uint8_t, uint8_t *, uint8_t *, uint8_t *, uint8_t *, uint16_t *, uint16_t *, uint16_t, uint16_t, uint16_t, uint16_t) (ModbusRTU)
                                                   CModbusRTU::Receive(uint8_t *, uint16_t) (ModbusRTU)
                                                   CModbusRTU::Send(uint8_t *, uint16_t) (ModbusRTU)
                                                   CModbusRTU::Tail(uint8_t *, uint16_t) (ModbusRTU)
                                                   CModuleMrXXDriver::Exchange() (ModuleMrXX)
                                                   CModuleMrXXDriver::WriteDataBase() (ModuleMrXX)
                                                   CPss21::ConfigurationInit() (Pss21)
                                                   CPss21::ModbusDeviceControl(uint8_t *, uint16_t, uint16_t) (Pss21)
                                                   CSpi::Exchange(uint8_t *, uint8_t *, uint16_t) (Platform)
                                                   CUart::CUart(uint8_t volatile *, uint8_t volatile *, uint8_t volatile *, uint8_t volatile *, uint8_t volatile *, uint8_t volatile *, uint8_t volatile *, uint8_t, uint8_t volatile *, uint8_t) (Platform)
                                                   CUart::Init(uint32_t, uint8_t, uint8_t, uint8_t, uint8_t *, uint8_t *) (Platform)
                                                   CUart::Read(uint8_t *, uint16_t) (Platform)
                                                   __call_ctors (?cppinit)
                                                   __near_array_delete_general(void *, __near_size_t, __near_size_t, __near_destructor_ptr, __near_delete_ptr, int) (?vec_newdel)
                                                   __near_array_new_general(void *, __near_size_t, __near_size_t, void *, __near_constructor_ptr, __near_destructor_ptr, __near_new_ptr, __near_delete_ptr, int, int) (?vec_newdel)

    -------------------------------------------------------------------------
  LIBRARY MODULE, NAME : ?REGISTER_CGREGR5_L10

  SEGMENTS IN THE MODULE
  ======================
CODE
  Relative segment, address: CODE 00007D98, align: 1
  Segment part 0.
           ENTRY                   ADDRESS         REF BY
           =====                   =======         ======
           ?Register_R5_is_cg_reg
                                   00007D98        CDataStore::ReadBlock(uint8_t *, uint8_t) (DataStore)
                                                   CDataStore::Write(uint8_t *, uint16_t, uint8_t) (DataStore)
                                                   CEeprom::WriteInterrupt(uint16_t, uint8_t *, uint16_t) (Platform)
                                                   CHammingCodes::BytesToHammingCodes(uint8_t *, uint8_t *, uint16_t) (HammingCodes)
                                                   CHammingCodes::HammingCodesToBytes(uint8_t *, uint8_t *, uint16_t) (HammingCodes)
                                                   CModbus::ByteToBitPack(uint16_t, uint16_t, uint8_t *, uint8_t *, uint16_t) (modbus)
                                                   CModbus::PollProgramming(uint8_t *, uint8_t *, uint16_t) (modbus)
                                                   CModbus::Programming(uint8_t *, uint8_t *, uint16_t) (modbus)
                                                   CModbus::ReadCoils(uint8_t *, uint8_t *, uint16_t) (modbus)
                                                   CModbus::ReadDiscreteInputs(uint8_t *, uint8_t *, uint16_t) (modbus)
                                                   CModbus::ReadHoldingRegisters(uint8_t *, uint8_t *, uint16_t) (modbus)
                                                   CModbus::ReadInputRegisters(uint8_t *, uint8_t *, uint16_t) (modbus)
                                                   CModbus::ReceiveMessage(uint8_t *, uint16_t) (modbus)
                                                   CModbus::Reply(uint8_t *, uint8_t *, uint16_t) (modbus)
                                                   CModbus::ReportSlaveID(uint8_t *, uint8_t *, uint16_t) (modbus)
                                                   CModbus::ResponseException(uint8_t, uint8_t, uint8_t, uint8_t *) (modbus)
                                                   CModbus::SendMessage(uint8_t *, uint16_t) (modbus)
                                                   CModbus::WriteMultipleCoils(uint8_t *, uint8_t *, uint16_t) (modbus)
                                                   CModbus::WriteMultipleRegisters(uint8_t *, uint8_t *, uint16_t) (modbus)
                                                   CModbus::WriteSingleCoil(uint8_t *, uint8_t *, uint16_t) (modbus)
                                                   CModbus::WriteSingleRegister(uint8_t *, uint8_t *, uint16_t) (modbus)
                                                   CModbusRTU::CModbusRTU() (ModbusRTU)
                                                   CModbusRTU::FrameCheck(uint8_t *, uint16_t) (ModbusRTU)
                                                   CModbusRTU::Init(CUart *, uint32_t, char, uint8_t, uint8_t, uint8_t *, uint8_t *, uint8_t *, uint8_t *, uint16_t *, uint16_t *, uint16_t, uint16_t, uint16_t, uint16_t) (ModbusRTU)
                                                   CModbusRTU::Receive(uint8_t *, uint16_t) (ModbusRTU)
                                                   CModbusRTU::Send(uint8_t *, uint16_t) (ModbusRTU)
                                                   CModbusRTU::Tail(uint8_t *, uint16_t) (ModbusRTU)
                                                   CModuleMrXXDriver::Exchange() (ModuleMrXX)
                                                   CModuleMrXXDriver::WriteDataBase() (ModuleMrXX)
                                                   CPss21::ConfigurationInit() (Pss21)
                                                   CPss21::ModbusDeviceControl(uint8_t *, uint16_t, uint16_t) (Pss21)
                                                   CSpi::Exchange(uint8_t *, uint8_t *, uint16_t) (Platform)
                                                   CUart::CUart(uint8_t volatile *, uint8_t volatile *, uint8_t volatile *, uint8_t volatile *, uint8_t volatile *, uint8_t volatile *, uint8_t volatile *, uint8_t, uint8_t volatile *, uint8_t) (Platform)
                                                   CUart::Init(uint32_t, uint8_t, uint8_t, uint8_t, uint8_t *, uint8_t *) (Platform)
                                                   CUart::Read(uint8_t *, uint16_t) (Platform)
                                                   __call_ctors (?cppinit)
                                                   __near_array_delete_general(void *, __near_size_t, __near_size_t, __near_destructor_ptr, __near_delete_ptr, int) (?vec_newdel)
                                                   __near_array_new_general(void *, __near_size_t, __near_size_t, void *, __near_constructor_ptr, __near_destructor_ptr, __near_new_ptr, __near_delete_ptr, int, int) (?vec_newdel)

    -------------------------------------------------------------------------
  LIBRARY MODULE, NAME : ?REGISTER_CGREGR6_L10

  SEGMENTS IN THE MODULE
  ======================
CODE
  Relative segment, address: CODE 00007D98, align: 1
  Segment part 0.
           ENTRY                   ADDRESS         REF BY
           =====                   =======         ======
           ?Register_R6_is_cg_reg
                                   00007D98        CDataStore::ReadBlock(uint8_t *, uint8_t) (DataStore)
                                                   CDataStore::Write(uint8_t *, uint16_t, uint8_t) (DataStore)
                                                   CHammingCodes::BytesToHammingCodes(uint8_t *, uint8_t *, uint16_t) (HammingCodes)
                                                   CHammingCodes::HammingCodesToBytes(uint8_t *, uint8_t *, uint16_t) (HammingCodes)
                                                   CModbus::ByteToBitPack(uint16_t, uint16_t, uint8_t *, uint8_t *, uint16_t) (modbus)
                                                   CModbus::PollProgramming(uint8_t *, uint8_t *, uint16_t) (modbus)
                                                   CModbus::Programming(uint8_t *, uint8_t *, uint16_t) (modbus)
                                                   CModbus::ReadCoils(uint8_t *, uint8_t *, uint16_t) (modbus)
                                                   CModbus::ReadDiscreteInputs(uint8_t *, uint8_t *, uint16_t) (modbus)
                                                   CModbus::ReadHoldingRegisters(uint8_t *, uint8_t *, uint16_t) (modbus)
                                                   CModbus::ReadInputRegisters(uint8_t *, uint8_t *, uint16_t) (modbus)
                                                   CModbus::ReceiveMessage(uint8_t *, uint16_t) (modbus)
                                                   CModbus::Reply(uint8_t *, uint8_t *, uint16_t) (modbus)
                                                   CModbus::ReportSlaveID(uint8_t *, uint8_t *, uint16_t) (modbus)
                                                   CModbus::ResponseException(uint8_t, uint8_t, uint8_t, uint8_t *) (modbus)
                                                   CModbus::WriteMultipleCoils(uint8_t *, uint8_t *, uint16_t) (modbus)
                                                   CModbus::WriteMultipleRegisters(uint8_t *, uint8_t *, uint16_t) (modbus)
                                                   CModbus::WriteSingleCoil(uint8_t *, uint8_t *, uint16_t) (modbus)
                                                   CModbus::WriteSingleRegister(uint8_t *, uint8_t *, uint16_t) (modbus)
                                                   CModbusRTU::FrameCheck(uint8_t *, uint16_t) (ModbusRTU)
                                                   CModbusRTU::Init(CUart *, uint32_t, char, uint8_t, uint8_t, uint8_t *, uint8_t *, uint8_t *, uint8_t *, uint16_t *, uint16_t *, uint16_t, uint16_t, uint16_t, uint16_t) (ModbusRTU)
                                                   CModuleMrXXDriver::Exchange() (ModuleMrXX)
                                                   CSpi::Exchange(uint8_t *, uint8_t *, uint16_t) (Platform)
                                                   CUart::CUart(uint8_t volatile *, uint8_t volatile *, uint8_t volatile *, uint8_t volatile *, uint8_t volatile *, uint8_t volatile *, uint8_t volatile *, uint8_t, uint8_t volatile *, uint8_t) (Platform)
                                                   CUart::Init(uint32_t, uint8_t, uint8_t, uint8_t, uint8_t *, uint8_t *) (Platform)
                                                   CUart::Read(uint8_t *, uint16_t) (Platform)
                                                   __call_ctors (?cppinit)
                                                   __near_array_delete_general(void *, __near_size_t, __near_size_t, __near_destructor_ptr, __near_delete_ptr, int) (?vec_newdel)
                                                   __near_array_new_general(void *, __near_size_t, __near_size_t, void *, __near_constructor_ptr, __near_destructor_ptr, __near_new_ptr, __near_delete_ptr, int, int) (?vec_newdel)

    -------------------------------------------------------------------------
  LIBRARY MODULE, NAME : ?REGISTER_CGREGR7_L10

  SEGMENTS IN THE MODULE
  ======================
CODE
  Relative segment, address: CODE 00007D98, align: 1
  Segment part 0.
           ENTRY                   ADDRESS         REF BY
           =====                   =======         ======
           ?Register_R7_is_cg_reg
                                   00007D98        CDataStore::ReadBlock(uint8_t *, uint8_t) (DataStore)
                                                   CHammingCodes::BytesToHammingCodes(uint8_t *, uint8_t *, uint16_t) (HammingCodes)
                                                   CHammingCodes::HammingCodesToBytes(uint8_t *, uint8_t *, uint16_t) (HammingCodes)
                                                   CModbus::PollProgramming(uint8_t *, uint8_t *, uint16_t) (modbus)
                                                   CModbus::Programming(uint8_t *, uint8_t *, uint16_t) (modbus)
                                                   CModbus::ReadCoils(uint8_t *, uint8_t *, uint16_t) (modbus)
                                                   CModbus::ReadDiscreteInputs(uint8_t *, uint8_t *, uint16_t) (modbus)
                                                   CModbus::ReadHoldingRegisters(uint8_t *, uint8_t *, uint16_t) (modbus)
                                                   CModbus::ReadInputRegisters(uint8_t *, uint8_t *, uint16_t) (modbus)
                                                   CModbus::ReceiveMessage(uint8_t *, uint16_t) (modbus)
                                                   CModbus::Reply(uint8_t *, uint8_t *, uint16_t) (modbus)
                                                   CModbus::ReportSlaveID(uint8_t *, uint8_t *, uint16_t) (modbus)
                                                   CModbus::ResponseException(uint8_t, uint8_t, uint8_t, uint8_t *) (modbus)
                                                   CModbus::WriteMultipleCoils(uint8_t *, uint8_t *, uint16_t) (modbus)
                                                   CModbus::WriteMultipleRegisters(uint8_t *, uint8_t *, uint16_t) (modbus)
                                                   CModbus::WriteSingleCoil(uint8_t *, uint8_t *, uint16_t) (modbus)
                                                   CModbus::WriteSingleRegister(uint8_t *, uint8_t *, uint16_t) (modbus)
                                                   CModbusRTU::FrameCheck(uint8_t *, uint16_t) (ModbusRTU)
                                                   CModbusRTU::Init(CUart *, uint32_t, char, uint8_t, uint8_t, uint8_t *, uint8_t *, uint8_t *, uint8_t *, uint16_t *, uint16_t *, uint16_t, uint16_t, uint16_t, uint16_t) (ModbusRTU)
                                                   CModuleMrXXDriver::Exchange() (ModuleMrXX)
                                                   CSpi::Exchange(uint8_t *, uint8_t *, uint16_t) (Platform)
                                                   CUart::CUart(uint8_t volatile *, uint8_t volatile *, uint8_t volatile *, uint8_t volatile *, uint8_t volatile *, uint8_t volatile *, uint8_t volatile *, uint8_t, uint8_t volatile *, uint8_t) (Platform)
                                                   CUart::Init(uint32_t, uint8_t, uint8_t, uint8_t, uint8_t *, uint8_t *) (Platform)
                                                   CUart::Read(uint8_t *, uint16_t) (Platform)
                                                   __call_ctors (?cppinit)
                                                   __near_array_delete_general(void *, __near_size_t, __near_size_t, __near_destructor_ptr, __near_delete_ptr, int) (?vec_newdel)
                                                   __near_array_new_general(void *, __near_size_t, __near_size_t, void *, __near_constructor_ptr, __near_destructor_ptr, __near_new_ptr, __near_delete_ptr, int, int) (?vec_newdel)

    -------------------------------------------------------------------------
  LIBRARY MODULE, NAME : ?REGISTER_CGREGR8_L10

  SEGMENTS IN THE MODULE
  ======================
CODE
  Relative segment, address: CODE 00007D98, align: 1
  Segment part 0.
           ENTRY                   ADDRESS         REF BY
           =====                   =======         ======
           ?Register_R8_is_cg_reg
                                   00007D98        CDataStore::ReadBlock(uint8_t *, uint8_t) (DataStore)
                                                   CDataStore::Write(uint8_t *, uint16_t, uint8_t) (DataStore)
                                                   CHammingCodes::BytesToHammingCodes(uint8_t *, uint8_t *, uint16_t) (HammingCodes)
                                                   CHammingCodes::HammingCodesToBytes(uint8_t *, uint8_t *, uint16_t) (HammingCodes)
                                                   CModbus::ByteToBitPack(uint16_t, uint16_t, uint8_t *, uint8_t *, uint16_t) (modbus)
                                                   CModbus::PollProgramming(uint8_t *, uint8_t *, uint16_t) (modbus)
                                                   CModbus::Programming(uint8_t *, uint8_t *, uint16_t) (modbus)
                                                   CModbus::ReadCoils(uint8_t *, uint8_t *, uint16_t) (modbus)
                                                   CModbus::ReadDiscreteInputs(uint8_t *, uint8_t *, uint16_t) (modbus)
                                                   CModbus::ReadHoldingRegisters(uint8_t *, uint8_t *, uint16_t) (modbus)
                                                   CModbus::ReadInputRegisters(uint8_t *, uint8_t *, uint16_t) (modbus)
                                                   CModbus::ReceiveMessage(uint8_t *, uint16_t) (modbus)
                                                   CModbus::Reply(uint8_t *, uint8_t *, uint16_t) (modbus)
                                                   CModbus::ReportSlaveID(uint8_t *, uint8_t *, uint16_t) (modbus)
                                                   CModbus::ResponseException(uint8_t, uint8_t, uint8_t, uint8_t *) (modbus)
                                                   CModbus::WriteMultipleCoils(uint8_t *, uint8_t *, uint16_t) (modbus)
                                                   CModbus::WriteMultipleRegisters(uint8_t *, uint8_t *, uint16_t) (modbus)
                                                   CModbus::WriteSingleCoil(uint8_t *, uint8_t *, uint16_t) (modbus)
                                                   CModbus::WriteSingleRegister(uint8_t *, uint8_t *, uint16_t) (modbus)
                                                   CModbusRTU::FrameCheck(uint8_t *, uint16_t) (ModbusRTU)
                                                   CModbusRTU::Init(CUart *, uint32_t, char, uint8_t, uint8_t, uint8_t *, uint8_t *, uint8_t *, uint8_t *, uint16_t *, uint16_t *, uint16_t, uint16_t, uint16_t, uint16_t) (ModbusRTU)
                                                   CModuleMrXXDriver::Exchange() (ModuleMrXX)
                                                   CUart::CUart(uint8_t volatile *, uint8_t volatile *, uint8_t volatile *, uint8_t volatile *, uint8_t volatile *, uint8_t volatile *, uint8_t volatile *, uint8_t, uint8_t volatile *, uint8_t) (Platform)
                                                   __call_ctors (?cppinit)
                                                   __near_array_delete_general(void *, __near_size_t, __near_size_t, __near_destructor_ptr, __near_delete_ptr, int) (?vec_newdel)
                                                   __near_array_new_general(void *, __near_size_t, __near_size_t, void *, __near_constructor_ptr, __near_destructor_ptr, __near_new_ptr, __near_delete_ptr, int, int) (?vec_newdel)

    -------------------------------------------------------------------------
  LIBRARY MODULE, NAME : ?REGISTER_CGREGR9_L10

  SEGMENTS IN THE MODULE
  ======================
CODE
  Relative segment, address: CODE 00007D98, align: 1
  Segment part 0.
           ENTRY                   ADDRESS         REF BY
           =====                   =======         ======
           ?Register_R9_is_cg_reg
                                   00007D98        CDataStore::Write(uint8_t *, uint16_t, uint8_t) (DataStore)
                                                   CHammingCodes::BytesToHammingCodes(uint8_t *, uint8_t *, uint16_t) (HammingCodes)
                                                   CHammingCodes::HammingCodesToBytes(uint8_t *, uint8_t *, uint16_t) (HammingCodes)
                                                   CModbus::ByteToBitPack(uint16_t, uint16_t, uint8_t *, uint8_t *, uint16_t) (modbus)
                                                   CModbus::PollProgramming(uint8_t *, uint8_t *, uint16_t) (modbus)
                                                   CModbus::Programming(uint8_t *, uint8_t *, uint16_t) (modbus)
                                                   CModbus::ReadCoils(uint8_t *, uint8_t *, uint16_t) (modbus)
                                                   CModbus::ReadDiscreteInputs(uint8_t *, uint8_t *, uint16_t) (modbus)
                                                   CModbus::ReadHoldingRegisters(uint8_t *, uint8_t *, uint16_t) (modbus)
                                                   CModbus::ReadInputRegisters(uint8_t *, uint8_t *, uint16_t) (modbus)
                                                   CModbus::ReceiveMessage(uint8_t *, uint16_t) (modbus)
                                                   CModbus::Reply(uint8_t *, uint8_t *, uint16_t) (modbus)
                                                   CModbus::ReportSlaveID(uint8_t *, uint8_t *, uint16_t) (modbus)
                                                   CModbus::WriteMultipleCoils(uint8_t *, uint8_t *, uint16_t) (modbus)
                                                   CModbus::WriteMultipleRegisters(uint8_t *, uint8_t *, uint16_t) (modbus)
                                                   CModbus::WriteSingleCoil(uint8_t *, uint8_t *, uint16_t) (modbus)
                                                   CModbus::WriteSingleRegister(uint8_t *, uint8_t *, uint16_t) (modbus)
                                                   CModbusRTU::FrameCheck(uint8_t *, uint16_t) (ModbusRTU)
                                                   CModbusRTU::Init(CUart *, uint32_t, char, uint8_t, uint8_t, uint8_t *, uint8_t *, uint8_t *, uint8_t *, uint16_t *, uint16_t *, uint16_t, uint16_t, uint16_t, uint16_t) (ModbusRTU)
                                                   CModuleMrXXDriver::Exchange() (ModuleMrXX)
                                                   CUart::CUart(uint8_t volatile *, uint8_t volatile *, uint8_t volatile *, uint8_t volatile *, uint8_t volatile *, uint8_t volatile *, uint8_t volatile *, uint8_t, uint8_t volatile *, uint8_t) (Platform)
                                                   __call_ctors (?cppinit)
                                                   __near_array_delete_general(void *, __near_size_t, __near_size_t, __near_destructor_ptr, __near_delete_ptr, int) (?vec_newdel)
                                                   __near_array_new_general(void *, __near_size_t, __near_size_t, void *, __near_constructor_ptr, __near_destructor_ptr, __near_new_ptr, __near_delete_ptr, int, int) (?vec_newdel)

    -------------------------------------------------------------------------
  LIBRARY MODULE, NAME : ?REGISTER_CGREGR10_L10

  SEGMENTS IN THE MODULE
  ======================
CODE
  Relative segment, address: CODE 00007D98, align: 1
  Segment part 0.
           ENTRY                   ADDRESS         REF BY
           =====                   =======         ======
           ?Register_R10_is_cg_reg
                                   00007D98        CDataStore::ReadBlock(uint8_t *, uint8_t) (DataStore)
                                                   CHammingCodes::BytesToHammingCodes(uint8_t *, uint8_t *, uint16_t) (HammingCodes)
                                                   CHammingCodes::HammingCodesToBytes(uint8_t *, uint8_t *, uint16_t) (HammingCodes)
                                                   CModbus::PollProgramming(uint8_t *, uint8_t *, uint16_t) (modbus)
                                                   CModbus::Programming(uint8_t *, uint8_t *, uint16_t) (modbus)
                                                   CModbus::ReadCoils(uint8_t *, uint8_t *, uint16_t) (modbus)
                                                   CModbus::ReadDiscreteInputs(uint8_t *, uint8_t *, uint16_t) (modbus)
                                                   CModbus::ReadHoldingRegisters(uint8_t *, uint8_t *, uint16_t) (modbus)
                                                   CModbus::ReadInputRegisters(uint8_t *, uint8_t *, uint16_t) (modbus)
                                                   CModbus::ReceiveMessage(uint8_t *, uint16_t) (modbus)
                                                   CModbus::Reply(uint8_t *, uint8_t *, uint16_t) (modbus)
                                                   CModbus::ReportSlaveID(uint8_t *, uint8_t *, uint16_t) (modbus)
                                                   CModbus::WriteMultipleCoils(uint8_t *, uint8_t *, uint16_t) (modbus)
                                                   CModbus::WriteMultipleRegisters(uint8_t *, uint8_t *, uint16_t) (modbus)
                                                   CModbus::WriteSingleCoil(uint8_t *, uint8_t *, uint16_t) (modbus)
                                                   CModbus::WriteSingleRegister(uint8_t *, uint8_t *, uint16_t) (modbus)
                                                   CModbusRTU::Init(CUart *, uint32_t, char, uint8_t, uint8_t, uint8_t *, uint8_t *, uint8_t *, uint8_t *, uint16_t *, uint16_t *, uint16_t, uint16_t, uint16_t, uint16_t) (ModbusRTU)
                                                   __call_ctors (?cppinit)
                                                   __near_array_delete_general(void *, __near_size_t, __near_size_t, __near_destructor_ptr, __near_delete_ptr, int) (?vec_newdel)
                                                   __near_array_new_general(void *, __near_size_t, __near_size_t, void *, __near_constructor_ptr, __near_destructor_ptr, __near_new_ptr, __near_delete_ptr, int, int) (?vec_newdel)

    -------------------------------------------------------------------------
  LIBRARY MODULE, NAME : ?REGISTER_CGREGR11_L10

  SEGMENTS IN THE MODULE
  ======================
CODE
  Relative segment, address: CODE 00007D98, align: 1
  Segment part 0.
           ENTRY                   ADDRESS         REF BY
           =====                   =======         ======
           ?Register_R11_is_cg_reg
                                   00007D98        CDataStore::ReadBlock(uint8_t *, uint8_t) (DataStore)
                                                   CHammingCodes::BytesToHammingCodes(uint8_t *, uint8_t *, uint16_t) (HammingCodes)
                                                   CHammingCodes::HammingCodesToBytes(uint8_t *, uint8_t *, uint16_t) (HammingCodes)
                                                   CModbus::PollProgramming(uint8_t *, uint8_t *, uint16_t) (modbus)
                                                   CModbus::Programming(uint8_t *, uint8_t *, uint16_t) (modbus)
                                                   CModbus::ReadCoils(uint8_t *, uint8_t *, uint16_t) (modbus)
                                                   CModbus::ReadDiscreteInputs(uint8_t *, uint8_t *, uint16_t) (modbus)
                                                   CModbus::ReadHoldingRegisters(uint8_t *, uint8_t *, uint16_t) (modbus)
                                                   CModbus::ReadInputRegisters(uint8_t *, uint8_t *, uint16_t) (modbus)
                                                   CModbus::ReceiveMessage(uint8_t *, uint16_t) (modbus)
                                                   CModbus::Reply(uint8_t *, uint8_t *, uint16_t) (modbus)
                                                   CModbus::ReportSlaveID(uint8_t *, uint8_t *, uint16_t) (modbus)
                                                   CModbus::WriteMultipleCoils(uint8_t *, uint8_t *, uint16_t) (modbus)
                                                   CModbus::WriteMultipleRegisters(uint8_t *, uint8_t *, uint16_t) (modbus)
                                                   CModbus::WriteSingleCoil(uint8_t *, uint8_t *, uint16_t) (modbus)
                                                   CModbus::WriteSingleRegister(uint8_t *, uint8_t *, uint16_t) (modbus)
                                                   CModbusRTU::Init(CUart *, uint32_t, char, uint8_t, uint8_t, uint8_t *, uint8_t *, uint8_t *, uint8_t *, uint16_t *, uint16_t *, uint16_t, uint16_t, uint16_t, uint16_t) (ModbusRTU)
                                                   __near_array_delete_general(void *, __near_size_t, __near_size_t, __near_destructor_ptr, __near_delete_ptr, int) (?vec_newdel)
                                                   __near_array_new_general(void *, __near_size_t, __near_size_t, void *, __near_constructor_ptr, __near_destructor_ptr, __near_new_ptr, __near_delete_ptr, int, int) (?vec_newdel)

    -------------------------------------------------------------------------
  LIBRARY MODULE, NAME : ?REGISTER_CGREGR12_L10

  SEGMENTS IN THE MODULE
  ======================
CODE
  Relative segment, address: CODE 00007D98, align: 1
  Segment part 0.
           ENTRY                   ADDRESS         REF BY
           =====                   =======         ======
           ?Register_R12_is_cg_reg
                                   00007D98        CDataStore::ReadBlock(uint8_t *, uint8_t) (DataStore)
                                                   CHammingCodes::BytesToHammingCodes(uint8_t *, uint8_t *, uint16_t) (HammingCodes)
                                                   CHammingCodes::HammingCodesToBytes(uint8_t *, uint8_t *, uint16_t) (HammingCodes)
                                                   CModbus::Programming(uint8_t *, uint8_t *, uint16_t) (modbus)
                                                   CModbus::ReadCoils(uint8_t *, uint8_t *, uint16_t) (modbus)
                                                   CModbus::ReadDiscreteInputs(uint8_t *, uint8_t *, uint16_t) (modbus)
                                                   CModbus::ReadHoldingRegisters(uint8_t *, uint8_t *, uint16_t) (modbus)
                                                   CModbus::ReadInputRegisters(uint8_t *, uint8_t *, uint16_t) (modbus)
                                                   CModbus::Reply(uint8_t *, uint8_t *, uint16_t) (modbus)
                                                   CModbus::WriteMultipleCoils(uint8_t *, uint8_t *, uint16_t) (modbus)
                                                   CModbus::WriteMultipleRegisters(uint8_t *, uint8_t *, uint16_t) (modbus)
                                                   CModbus::WriteSingleCoil(uint8_t *, uint8_t *, uint16_t) (modbus)
                                                   CModbus::WriteSingleRegister(uint8_t *, uint8_t *, uint16_t) (modbus)
                                                   CModbusRTU::Init(CUart *, uint32_t, char, uint8_t, uint8_t, uint8_t *, uint8_t *, uint8_t *, uint8_t *, uint16_t *, uint16_t *, uint16_t, uint16_t, uint16_t, uint16_t) (ModbusRTU)
                                                   __near_array_delete_general(void *, __near_size_t, __near_size_t, __near_destructor_ptr, __near_delete_ptr, int) (?vec_newdel)
                                                   __near_array_new_general(void *, __near_size_t, __near_size_t, void *, __near_constructor_ptr, __near_destructor_ptr, __near_new_ptr, __near_delete_ptr, int, int) (?vec_newdel)

    -------------------------------------------------------------------------
  LIBRARY MODULE, NAME : ?REGISTER_CGREGR13_L10

  SEGMENTS IN THE MODULE
  ======================
CODE
  Relative segment, address: CODE 00007D98, align: 1
  Segment part 0.
           ENTRY                   ADDRESS         REF BY
           =====                   =======         ======
           ?Register_R13_is_cg_reg
                                   00007D98        CDataStore::ReadBlock(uint8_t *, uint8_t) (DataStore)
                                                   CHammingCodes::BytesToHammingCodes(uint8_t *, uint8_t *, uint16_t) (HammingCodes)
                                                   CHammingCodes::HammingCodesToBytes(uint8_t *, uint8_t *, uint16_t) (HammingCodes)
                                                   CModbus::ReadCoils(uint8_t *, uint8_t *, uint16_t) (modbus)
                                                   CModbus::ReadDiscreteInputs(uint8_t *, uint8_t *, uint16_t) (modbus)
                                                   CModbus::ReadHoldingRegisters(uint8_t *, uint8_t *, uint16_t) (modbus)
                                                   CModbus::ReadInputRegisters(uint8_t *, uint8_t *, uint16_t) (modbus)
                                                   CModbus::Reply(uint8_t *, uint8_t *, uint16_t) (modbus)
                                                   CModbus::WriteMultipleCoils(uint8_t *, uint8_t *, uint16_t) (modbus)
                                                   CModbus::WriteMultipleRegisters(uint8_t *, uint8_t *, uint16_t) (modbus)
                                                   CModbus::WriteSingleCoil(uint8_t *, uint8_t *, uint16_t) (modbus)
                                                   CModbus::WriteSingleRegister(uint8_t *, uint8_t *, uint16_t) (modbus)
                                                   CModbusRTU::Init(CUart *, uint32_t, char, uint8_t, uint8_t, uint8_t *, uint8_t *, uint8_t *, uint8_t *, uint16_t *, uint16_t *, uint16_t, uint16_t, uint16_t, uint16_t) (ModbusRTU)
                                                   __near_array_delete_general(void *, __near_size_t, __near_size_t, __near_destructor_ptr, __near_delete_ptr, int) (?vec_newdel)
                                                   __near_array_new_general(void *, __near_size_t, __near_size_t, void *, __near_constructor_ptr, __near_destructor_ptr, __near_new_ptr, __near_delete_ptr, int, int) (?vec_newdel)

    -------------------------------------------------------------------------
  LIBRARY MODULE, NAME : ?REGISTER_CGREGR14_L10

  SEGMENTS IN THE MODULE
  ======================
CODE
  Relative segment, address: CODE 00007D98, align: 1
  Segment part 0.
           ENTRY                   ADDRESS         REF BY
           =====                   =======         ======
           ?Register_R14_is_cg_reg
                                   00007D98        CHammingCodes::BytesToHammingCodes(uint8_t *, uint8_t *, uint16_t) (HammingCodes)
                                                   CHammingCodes::HammingCodesToBytes(uint8_t *, uint8_t *, uint16_t) (HammingCodes)
                                                   CModbus::Programming(uint8_t *, uint8_t *, uint16_t) (modbus)
                                                   CModbus::ReadCoils(uint8_t *, uint8_t *, uint16_t) (modbus)
                                                   CModbus::ReadDiscreteInputs(uint8_t *, uint8_t *, uint16_t) (modbus)
                                                   CModbus::ReadHoldingRegisters(uint8_t *, uint8_t *, uint16_t) (modbus)
                                                   CModbus::ReadInputRegisters(uint8_t *, uint8_t *, uint16_t) (modbus)
                                                   CModbus::Reply(uint8_t *, uint8_t *, uint16_t) (modbus)
                                                   CModbus::WriteMultipleCoils(uint8_t *, uint8_t *, uint16_t) (modbus)
                                                   CModbus::WriteMultipleRegisters(uint8_t *, uint8_t *, uint16_t) (modbus)
                                                   CModbus::WriteSingleCoil(uint8_t *, uint8_t *, uint16_t) (modbus)
                                                   CModbusRTU::Init(CUart *, uint32_t, char, uint8_t, uint8_t, uint8_t *, uint8_t *, uint8_t *, uint8_t *, uint16_t *, uint16_t *, uint16_t, uint16_t, uint16_t, uint16_t) (ModbusRTU)

    -------------------------------------------------------------------------
  LIBRARY MODULE, NAME : ?REGISTER_CGREGR15_L10

  SEGMENTS IN THE MODULE
  ======================
CODE
  Relative segment, address: CODE 00007D98, align: 1
  Segment part 0.
           ENTRY                   ADDRESS         REF BY
           =====                   =======         ======
           ?Register_R15_is_cg_reg
                                   00007D98        CHammingCodes::HammingCodesToBytes(uint8_t *, uint8_t *, uint16_t) (HammingCodes)
                                                   CModbus::Programming(uint8_t *, uint8_t *, uint16_t) (modbus)
                                                   CModbus::ReadCoils(uint8_t *, uint8_t *, uint16_t) (modbus)
                                                   CModbus::ReadDiscreteInputs(uint8_t *, uint8_t *, uint16_t) (modbus)
                                                   CModbus::ReadHoldingRegisters(uint8_t *, uint8_t *, uint16_t) (modbus)
                                                   CModbus::ReadInputRegisters(uint8_t *, uint8_t *, uint16_t) (modbus)
                                                   CModbus::WriteMultipleCoils(uint8_t *, uint8_t *, uint16_t) (modbus)
                                                   CModbus::WriteMultipleRegisters(uint8_t *, uint8_t *, uint16_t) (modbus)
                                                   CModbus::WriteSingleCoil(uint8_t *, uint8_t *, uint16_t) (modbus)
                                                   CModbusRTU::Init(CUart *, uint32_t, char, uint8_t, uint8_t, uint8_t *, uint8_t *, uint8_t *, uint8_t *, uint16_t *, uint16_t *, uint16_t, uint16_t, uint16_t, uint16_t) (ModbusRTU)

    -------------------------------------------------------------------------
  LIBRARY MODULE, NAME : ?low_level_init

  SEGMENTS IN THE MODULE
  ======================
CODE
  Relative segment, address: CODE 00007D98 - 00007D9B (0x4 bytes), align: 1
  Segment part 3.
           ENTRY                   ADDRESS         REF BY
           =====                   =======         ======
           __low_level_init        00007D98        ?call_low_level_init (?C_STARTUP)

    -------------------------------------------------------------------------
  LIBRARY MODULE, NAME : ?memcpy

  SEGMENTS IN THE MODULE
  ======================
CODE
  Relative segment, address: CODE 00007D9C - 00007DBB (0x20 bytes), align: 1
  Segment part 3.
           ENTRY                   ADDRESS         REF BY
           =====                   =======         ======
           memcpy                  00007D9C        CDataStore::ReadBlock(uint8_t *, uint8_t) (DataStore)
                                                   CDataStore::Write(uint8_t *, uint16_t, uint8_t) (DataStore)
                                                   CModbus::WriteMultipleCoils(uint8_t *, uint8_t *, uint16_t) (modbus)
                                                   CModbus::WriteMultipleRegisters(uint8_t *, uint8_t *, uint16_t) (modbus)
                                                   CModbus::WriteSingleCoil(uint8_t *, uint8_t *, uint16_t) (modbus)
                                                   CModbus::WriteSingleRegister(uint8_t *, uint8_t *, uint16_t) (modbus)
                                                   CPss21::ConfigurationInit() (Pss21)

    -------------------------------------------------------------------------
  LIBRARY MODULE, NAME : ?memset

  SEGMENTS IN THE MODULE
  ======================
CODE
  Relative segment, address: CODE 00007DBC - 00007DCD (0x12 bytes), align: 1
  Segment part 3.
           ENTRY                   ADDRESS         REF BY
           =====                   =======         ======
           memset                  00007DBC        CDataStore::Init() (DataStore)
                                                   CModbusRTU::Init(CUart *, uint32_t, char, uint8_t, uint8_t, uint8_t *, uint8_t *, uint8_t *, uint8_t *, uint16_t *, uint16_t *, uint16_t, uint16_t, uint16_t, uint16_t) (ModbusRTU)
                                                   CPss21::ConfigurationInit() (Pss21)
                                                   CPss21::Init() (Pss21)
                                                   CPss21::SearchModules() (Pss21)

    -------------------------------------------------------------------------
  LIBRARY MODULE, NAME : ?new

  SEGMENTS IN THE MODULE
  ======================
NEAR_Z
  Relative segment, address: DATA 00000F56 - 00000F57 (0x2 bytes), align: 0
  Segment part 3.
           ENTRY                   ADDRESS         REF BY
           =====                   =======         ======
           __iar_New_hand          00000F56        operator new(unsigned int) (?newop_0)

    -------------------------------------------------------------------------
  LIBRARY MODULE, NAME : ?newop_0

  SEGMENTS IN THE MODULE
  ======================
CODE
  Relative segment, address: CODE 00007DCE - 00007E01 (0x34 bytes), align: 1
  Segment part 3.
           ENTRY                   ADDRESS         REF BY
           =====                   =======         ======
           operator new(unsigned int)
                                   00007DCE        CPss21::ConfigurationInit() (Pss21)
                                                   CPss21::CreateDevices() (Pss21)
               calls direct and indirect

    -------------------------------------------------------------------------
  LIBRARY MODULE, NAME : ?nomemory

  SEGMENTS IN THE MODULE
  ======================
CODE
  Relative segment, address: CODE 00007E02 - 00007E05 (0x4 bytes), align: 1
  Segment part 13.
           ENTRY                   ADDRESS         REF BY
           =====                   =======         ======
           _Nomemory()             00007E02        operator new(unsigned int) (?newop_0)
               calls direct

    -------------------------------------------------------------------------
  LIBRARY MODULE, NAME : ?segment_init

  SEGMENTS IN THE MODULE
  ======================
CODE
  Relative segment, address: CODE 00007E06 - 00007E11 (0xc bytes), align: 1
  Segment part 3.             Intra module refs:   __segment_init
           LOCAL                   ADDRESS         
           =====                   =======         
           __memclr                00007E06 
    -------------------------------------------------------------------------
CODE
  Relative segment, address: CODE 00007E12 - 00007E25 (0x14 bytes), align: 1
  Segment part 4.             Intra module refs:   __segment_init
           LOCAL                   ADDRESS         
           =====                   =======         
           __flashcpy              00007E12 
    -------------------------------------------------------------------------
CODE
  Relative segment, address: CODE 00007E26 - 00007E7B (0x56 bytes), align: 1
  Segment part 5.
           ENTRY                   ADDRESS         REF BY
           =====                   =======         ======
           __segment_init          00007E26        ?need_segment_init (?C_STARTUP)
               calls direct

    -------------------------------------------------------------------------
  LIBRARY MODULE, NAME : ?vec_newdel

  SEGMENTS IN THE MODULE
  ======================
CODE
  Relative segment, address: CODE 00007E7C - 00007E8B (0x10 bytes), align: 1
  Segment part 9.             Intra module refs:   __near_array_delete_general(void *, __near_size_t, __near_size_t, __near_destructor_ptr, __near_delete_ptr, int)
           LOCAL                   ADDRESS         
           =====                   =======         
           __near_free_array(void *, __near_size_t, __near_delete_ptr, int)
                                   00007E7C 
               calls indirect
    -------------------------------------------------------------------------
CODE
  Relative segment, address: CODE 00007E8C - 00007EB5 (0x2a bytes), align: 1
  Segment part 11.            Intra module refs:   __near_array_delete_general(void *, __near_size_t, __near_size_t, __near_destructor_ptr, __near_delete_ptr, int)
           LOCAL                   ADDRESS         
           =====                   =======         
           __near_get_array_size(void *, __near_size_t)
                                   00007E8C 
               calls direct
    -------------------------------------------------------------------------
CODE
  Relative segment, address: CODE 00007EB6 - 00007F41 (0x8c bytes), align: 1
  Segment part 14.            Intra module refs:   Segment part 24
           LOCAL                   ADDRESS         
           =====                   =======         
           __near_array_new_general(void *, __near_size_t, __near_size_t, void *, __near_constructor_ptr, __near_destructor_ptr, __near_new_ptr, __near_delete_ptr, int, int)
                                   00007EB6 
               calls direct and indirect
    -------------------------------------------------------------------------
CODE
  Relative segment, address: CODE 00007F42 - 00007F45 (0x4 bytes), align: 1
  Segment part 15.            Intra module refs:   __near_array_delete_general(void *, __near_size_t, __near_size_t, __near_destructor_ptr, __near_delete_ptr, int)
                                                   __near_array_new_general(void *, __near_size_t, __near_size_t, void *, __near_constructor_ptr, __near_destructor_ptr, __near_new_ptr, __near_delete_ptr, int, int)
    -------------------------------------------------------------------------
CODE
  Relative segment, address: CODE 00007F46 - 00007F4B (0x6 bytes), align: 1
  Segment part 16.            Intra module refs:   __near_array_new_general(void *, __near_size_t, __near_size_t, void *, __near_constructor_ptr, __near_destructor_ptr, __near_new_ptr, __near_delete_ptr, int, int)
    -------------------------------------------------------------------------
CODE
  Relative segment, address: CODE 00007F4C - 00007F4F (0x4 bytes), align: 1
  Segment part 17.            Intra module refs:   __near_array_delete_general(void *, __near_size_t, __near_size_t, __near_destructor_ptr, __near_delete_ptr, int)
                                                   __near_array_new_general(void *, __near_size_t, __near_size_t, void *, __near_constructor_ptr, __near_destructor_ptr, __near_new_ptr, __near_delete_ptr, int, int)
                                                   __near_get_array_size(void *, __near_size_t)
    -------------------------------------------------------------------------
CODE
  Relative segment, address: CODE 00007F50 - 00007F51 (0x2 bytes), align: 1
  Segment part 24.            Intra module refs:   __near_vec_construct
    -------------------------------------------------------------------------
CODE
  Relative segment, address: CODE 00007F52 - 00007F5B (0xa bytes), align: 1
  Segment part 27.
           ENTRY                   ADDRESS         REF BY
           =====                   =======         ======
           __near_vec_construct    00007F52        __sti__routine() (Pss21)
               calls direct
    -------------------------------------------------------------------------
CODE
  Relative segment, address: CODE 00007F5C - 00007F65 (0xa bytes), align: 1
  Segment part 28.            Intra module refs:   __near_vec_construct
    -------------------------------------------------------------------------
CODE
  Relative segment, address: CODE 00007F66 - 00007F67 (0x2 bytes), align: 1
  Segment part 29.            Intra module refs:   __near_vec_construct
    -------------------------------------------------------------------------
CODE
  Relative segment, address: CODE 00007F68 - 00007F6B (0x4 bytes), align: 1
  Segment part 30.            Intra module refs:   Segment part 29
                                                   Segment part 39
    -------------------------------------------------------------------------
CODE
  Relative segment, address: CODE 00007F6C - 00007FE3 (0x78 bytes), align: 1
  Segment part 32.            Intra module refs:   __near_vec_destroy
           LOCAL                   ADDRESS         
           =====                   =======         
           __near_array_delete_general(void *, __near_size_t, __near_size_t, __near_destructor_ptr, __near_delete_ptr, int)
                                   00007F6C 
               calls direct and indirect
    -------------------------------------------------------------------------
CODE
  Relative segment, address: CODE 00007FE4 - 00007FE7 (0x4 bytes), align: 1
  Segment part 36.
           ENTRY                   ADDRESS         REF BY
           =====                   =======         ======
           __near_vec_destroy      00007FE4        <Unnamed 11> (Pss21)
               calls direct
    -------------------------------------------------------------------------
CODE
  Relative segment, address: CODE 00007FE8 - 00007FE9 (0x2 bytes), align: 1
  Segment part 37.            Intra module refs:   __near_vec_destroy
    -------------------------------------------------------------------------
CODE
  Relative segment, address: CODE 00007FEA - 00007FEB (0x2 bytes), align: 1
  Segment part 38.            Intra module refs:   Segment part 29
                                                   Segment part 37
    -------------------------------------------------------------------------
CODE
  Relative segment, address: CODE 00007FEC - 00007FEF (0x4 bytes), align: 1
  Segment part 39.            Intra module refs:   Segment part 38

    -------------------------------------------------------------------------
  LIBRARY MODULE, NAME : ?xgetmemchunk

  SEGMENTS IN THE MODULE
  ======================
CODE
  Relative segment, address: CODE 00007FF0 - 00008019 (0x2a bytes), align: 1
  Segment part 5.
           ENTRY                   ADDRESS         REF BY
           =====                   =======         ======
           __near_GetMemChunk      00007FF0        __near_findmem (?xxmemxmalloc)
    -------------------------------------------------------------------------
NEAR_Z
  Relative segment, address: DATA 00000F58 - 00000F59 (0x2 bytes), align: 0
  Segment part 3.             Intra module refs:   __near_GetMemChunk

    -------------------------------------------------------------------------
  LIBRARY MODULE, NAME : ?xpurevirtual

  SEGMENTS IN THE MODULE
  ======================
CODE
  Relative segment, address: CODE 0000801A - 0000801D (0x4 bytes), align: 1
  Segment part 3.
           ENTRY                   ADDRESS         REF BY
           =====                   =======         ======
           __pure_virtual_called   0000801A        CModbus::__vtbl (modbus)
                                                   CNotifyerControl::__vtbl (NotifyerControl)
               calls direct

    -------------------------------------------------------------------------
  LIBRARY MODULE, NAME : ?__exit

  SEGMENTS IN THE MODULE
  ======================
CODE
  Relative segment, address: CODE 0000801E - 0000801F (0x2 bytes), align: 1
  Segment part 3.
           ENTRY                   ADDRESS         REF BY
           =====                   =======         ======
           __exit                  0000801E        Segment part 5 (?_exit)
                                                   abort (?abort)

    -------------------------------------------------------------------------
  LIBRARY MODULE, NAME : ?xxmemxfree

  SEGMENTS IN THE MODULE
  ======================
CODE
  Relative segment, address: CODE 00008020 - 000080F5 (0xd6 bytes), align: 1
  Segment part 3.
           ENTRY                   ADDRESS         REF BY
           =====                   =======         ======
           free                    00008020        __near_findmem (?xxmemxmalloc)
                                                   operator delete(void *) (?delop_0)
    -------------------------------------------------------------------------
CODE
  Relative segment, address: CODE 000080F6 - 000080FF (0xa bytes), align: 1
  Segment part 4.             Intra module refs:   free

    -------------------------------------------------------------------------
  LIBRARY MODULE, NAME : ?xxmemxmalloc

  SEGMENTS IN THE MODULE
  ======================
NEAR_Z
  Relative segment, address: DATA 00000F5A - 00000F5D (0x4 bytes), align: 0
  Segment part 3.             Intra module refs:   __near_findmem
                                                   malloc
           ENTRY                   ADDRESS         REF BY
           =====                   =======         ======
           __near_Aldata           00000F5A        free (?xxmemxfree)
    -------------------------------------------------------------------------
CODE
  Relative segment, address: CODE 00008100 - 00008177 (0x78 bytes), align: 1
  Segment part 5.             Intra module refs:   malloc
           LOCAL                   ADDRESS         
           =====                   =======         
           __near_findmem          00008100 
               calls direct
    -------------------------------------------------------------------------
CODE
  Relative segment, address: CODE 00008178 - 0000817D (0x6 bytes), align: 1
  Segment part 6.             Intra module refs:   __near_findmem
                                                   malloc
    -------------------------------------------------------------------------
CODE
  Relative segment, address: CODE 0000817E - 00008187 (0xa bytes), align: 1
  Segment part 7.             Intra module refs:   __near_findmem
    -------------------------------------------------------------------------
CODE
  Relative segment, address: CODE 00008188 - 0000818F (0x8 bytes), align: 1
  Segment part 8.             Intra module refs:   __near_findmem
    -------------------------------------------------------------------------
CODE
  Relative segment, address: CODE 00008190 - 00008197 (0x8 bytes), align: 1
  Segment part 9.             Intra module refs:   Segment part 8
                                                   __near_findmem
                                                   malloc
    -------------------------------------------------------------------------
CODE
  Relative segment, address: CODE 00008198 - 00008239 (0xa2 bytes), align: 1
  Segment part 10.
           ENTRY                   ADDRESS         REF BY
           =====                   =======         ======
           malloc                  00008198        operator new(unsigned int) (?newop_0)
               calls direct

    *************************************************************************

  DEFINED ABSOLUTE ENTRIES
  PROGRAM MODULE, NAME : ?FILLER_BYTES

  SEGMENTS IN THE MODULE
  ======================
INTVEC
  Common segment, address: CODE 00000000 - 00000083 (0x84 bytes), align: 0
  Segment part 1.
    -------------------------------------------------------------------------
?FILL1
  Relative segment, address: CODE 00000084 - 0000008B (0x8 bytes), align: 0
  Segment part 0.




                ****************************************
                *                                      *
                *      SEGMENTS IN ADDRESS ORDER       *
                *                                      *
                ****************************************


SEGMENT              SPACE    START ADDRESS   END ADDRESS     SIZE  TYPE  ALIGN
=======              =====    =============   ===========     ====  ====  =====
INTVEC               CODE          00000000 - 00000083          84   com    1
?FILL1               CODE          00000084 - 0000008B           8   rel    0
NEAR_F               CODE          0000008C - 0000089E         813   rel    0
SWITCH               CODE          000008A0 - 000009CB         12C   rel    1
DIFUNCT              CODE          000009CC - 000009CF           4   rel    0
CODE                 CODE          000009D0 - 00008239        786A   rel    1
INITTAB              CODE          0000823A - 00008247           E   rel    0
NEAR_ID              CODE          00008248 - 000082A7          60   rel    0
ABSOLUTE             DATA               0000001C                     rel    0
                     DATA               0000001D                   
                     DATA               0000001E                   
                     DATA               0000001F                   
                     DATA          00000020 - 0000005F          40 
                     DATA          00000061 - 00000065           5 
                     DATA          00000068 - 00000068           1 
                     DATA          0000006A - 0000006A           1 
                     DATA          0000006C - 0000006D           2 
                     DATA          0000006F - 00000074           6 
                     DATA          00000078 - 0000007A           3 
                     DATA          0000007C - 0000007D           2 
                     DATA          00000080 - 0000008C           D 
                     DATA          00000090 - 00000090           1 
                     DATA          00000095 - 00000095           1 
                     DATA          00000098 - 0000009D           6 
CSTACK               DATA          00000100 - 000002FF         200   dse    0
NEAR_HEAP            DATA          00000300 - 000006FF         400   dse    0
RSTACK               DATA          00000700 - 0000073F          40   dse    0
NEAR_I               DATA          00000740 - 0000079F          60   rel    0
NEAR_Z               DATA          000007A0 - 00000F5D         7BE   rel    0

                ****************************************
                *                                      *
                *        END OF CROSS REFERENCE        *
                *                                      *
                ****************************************

 33 439 bytes of CODE memory (+              8 range fill )
  3 678 bytes of DATA memory (+ 105 absolute )

Errors: none
Warnings: none

