################################################################################
#                                                                              #
#      IAR Universal Linker V6.5.2.97                                          #
#                                                                              #
#           Link time     =  30/May/2023  18:35:16                             #
#           Target CPU    =  A90                                               #
#           List file     =  D:\Projects\CurrentProjects\CautoProjects\PSS48Co #
#                            lor\Debug\List\PSS48.map                          #
#           Output file 1 =  D:\Projects\CurrentProjects\CautoProjects\PSS48Co #
#                            lor\Debug\Exe\PSS48.hex                           #
#                            Format: intel-standard                            #
#           Output file 2 =  D:\Projects\CurrentProjects\CautoProjects\PSS48Co #
#                            lor\Debug\Exe\PSS48.d90                           #
#                            Format: ubrof8                                    #
#                            UBROF version 8.0.2                               #
#           Command line  =  -f C:\Users\ghost\AppData\Local\Temp\EW9D15.tmp   #
#                            (D:\Projects\CurrentProjects\CautoProjects\PSS48C #
#                            olor\Debug\Obj\Alarm.r90                          #
#                            D:\Projects\CurrentProjects\CautoProjects\PSS48Co #
#                            lor\Debug\Obj\AlarmWindow.r90                     #
#                            D:\Projects\CurrentProjects\CautoProjects\PSS48Co #
#                            lor\Debug\Obj\Buzzer.r90                          #
#                            D:\Projects\CurrentProjects\CautoProjects\PSS48Co #
#                            lor\Debug\Obj\Crc.r90                             #
#                            D:\Projects\CurrentProjects\CautoProjects\PSS48Co #
#                            lor\Debug\Obj\DataBase.r90                        #
#                            D:\Projects\CurrentProjects\CautoProjects\PSS48Co #
#                            lor\Debug\Obj\DataStore.r90                       #
#                            D:\Projects\CurrentProjects\CautoProjects\PSS48Co #
#                            lor\Debug\Obj\Dfa.r90                             #
#                            D:\Projects\CurrentProjects\CautoProjects\PSS48Co #
#                            lor\Debug\Obj\DM134.r90                           #
#                            D:\Projects\CurrentProjects\CautoProjects\PSS48Co #
#                            lor\Debug\Obj\Dm163.r90                           #
#                            D:\Projects\CurrentProjects\CautoProjects\PSS48Co #
#                            lor\Debug\Obj\Event.r90                           #
#                            D:\Projects\CurrentProjects\CautoProjects\PSS48Co #
#                            lor\Debug\Obj\HammingCodes.r90                    #
#                            D:\Projects\CurrentProjects\CautoProjects\PSS48Co #
#                            lor\Debug\Obj\InputDevice.r90                     #
#                            D:\Projects\CurrentProjects\CautoProjects\PSS48Co #
#                            lor\Debug\Obj\LightBoard.r90                      #
#                            D:\Projects\CurrentProjects\CautoProjects\PSS48Co #
#                            lor\Debug\Obj\LinkControl.r90                     #
#                            D:\Projects\CurrentProjects\CautoProjects\PSS48Co #
#                            lor\Debug\Obj\main.r90                            #
#                            D:\Projects\CurrentProjects\CautoProjects\PSS48Co #
#                            lor\Debug\Obj\modbus.r90                          #
#                            D:\Projects\CurrentProjects\CautoProjects\PSS48Co #
#                            lor\Debug\Obj\ModbusRTU.r90                       #
#                            D:\Projects\CurrentProjects\CautoProjects\PSS48Co #
#                            lor\Debug\Obj\ModuleMrXX.r90                      #
#                            D:\Projects\CurrentProjects\CautoProjects\PSS48Co #
#                            lor\Debug\Obj\Mvsn21.r90                          #
#                            D:\Projects\CurrentProjects\CautoProjects\PSS48Co #
#                            lor\Debug\Obj\NotifyerControl.r90                 #
#                            D:\Projects\CurrentProjects\CautoProjects\PSS48Co #
#                            lor\Debug\Obj\Pixel.r90                           #
#                            D:\Projects\CurrentProjects\CautoProjects\PSS48Co #
#                            lor\Debug\Obj\Platform.r90                        #
#                            D:\Projects\CurrentProjects\CautoProjects\PSS48Co #
#                            lor\Debug\Obj\Pss21.r90                           #
#                            D:\Projects\CurrentProjects\CautoProjects\PSS48Co #
#                            lor\Debug\Obj\Timer.r90                           #
#                            -l                                                #
#                            D:\Projects\CurrentProjects\CautoProjects\PSS48Co #
#                            lor\Debug\List\PSS48.map                          #
#                            -xms                                              #
#                            "-IC:\Program Files (x86)\IAR Systems\Embedded Wo #
#                            rkbench 8.0\avr\LIB\"                             #
#                            -f                                                #
#                            "C:\Program Files (x86)\IAR Systems\Embedded Work #
#                            bench 8.0\avr\src\template\cfgm128a.xcl"          #
#                            (-D_..X_INTVEC_SIZE=8C -D_..X_FLASH_END=1FFFF     #
#                            -D_..X_FLASH_NEND=FFFF -D_..X_SRAM_BASE=100       #
#                            -D_..X_SRAM_TBASE=0 -D_..X_SRAM_TSIZE=0           #
#                            -D_..X_SRAM_END=10FF -D_..X_EEPROM_START=0        #
#                            -D_..X_EEPROM_END=FFF) -D_..X_HEAP_SIZE=0         #
#                            -D_..X_TINY_HEAP_SIZE=0                           #
#                            -D_..X_NEAR_HEAP_SIZE=400                         #
#                            -D_..X_FAR_HEAP_SIZE=0 -D_..X_HUGE_HEAP_SIZE=0    #
#                            -D_..X_CSTACK_SIZE=200 -D_..X_RSTACK_SIZE=40      #
#                            -D_..X_FLASH_CODE_END=1FFFF -f                    #
#                            "C:\Program Files (x86)\IAR Systems\Embedded Work #
#                            bench 8.0\avr\src\template\cfg3soim.xcl"          #
#                            (-ca90 -w29                                       #
#                            -Z(CODE)INTVEC=0-(_..X_INTVEC_SIZE-1)             #
#                            -Z(CODE)TINY_F=_..X_FLASH_BASE-FF                 #
#                            -Z(CODE)NEAR_F=_..X_FLASH_BASE-_..X_FLASH_NEND    #
#                            -Z(CODE)SWITCH=_..X_FLASH_BASE-_..X_FLASH_NEND    #
#                            -Z(CODE)DIFUNCT=_..X_FLASH_BASE-_..X_FLASH_NEND   #
#                            -Z(CODE)CODE=_..X_FLASH_BASE-_..X_FLASH_END       #
#                            -P(CODE)FAR_F=[_..X_FLASH_BASE-_..X_FLASH_END]/10 #
#                            000                                               #
#                            -Z(CODE)INITTAB=_..X_FLASH_BASE-_..X_FLASH_END    #
#                            -Z(CODE)HUGE_F=_..X_FLASH_BASE-_..X_FLASH_END     #
#                            -Z(CODE)TINY_ID=_..X_FLASH_BASE-_..X_FLASH_END    #
#                            -Z(CODE)NEAR_ID=_..X_FLASH_BASE-_..X_FLASH_END    #
#                            -Z(CODE)CHECKSUM#_..X_FLASH_END                   #
#                            -Z(DATA)TINY_I,TINY_Z,TINY_N=_..X_SRAM_TBASE:+_.. #
#                            X_SRAM_TSIZE                                      #
#                            -Z(DATA)CSTACK+_..X_CSTACK_SIZE=_..X_CSTACK_BASE- #
#                            _..X_CSTACK_END                                   #
#                            -Z(DATA)HEAP+_..X_HEAP_SIZE=_..X_SRAM_BASE-_..X_S #
#                            RAM_END                                           #
#                            -Z(DATA)IOSTREAM_N#_..X_SRAM_BASE-_..X_SRAM_END   #
#                            -Z(DATA)NEAR_HEAP+_..X_NEAR_HEAP_SIZE=_..X_SRAM_B #
#                            ASE-_..X_SRAM_END                                 #
#                            -Z(DATA)RSTACK+_..X_RSTACK_SIZE=_..X_RSTACK_BASE- #
#                            _..X_RSTACK_END                                   #
#                            -Z(DATA)NEAR_I,NEAR_Z,NEAR_N=_..X_SRAM_BASE-_..X_ #
#                            SRAM_END                                          #
#                            -Z(XDATA)EEPROM_I,EEPROM_N=_..X_EEPROM_START-_..X #
#                            _EEPROM_END)                                      #
#                            -D_..X_FLASH_BASE=_..X_INTVEC_SIZE -H1895         #
#                            -h(CODE)0-(_..X_INTVEC_SIZE-1)                    #
#                            -D_..X_EXT_SRAM_BASE=_..X_SRAM_END                #
#                            -D_..X_EXT_SRAM_SIZE=0                            #
#                            -D_..X_EXT_ROM_BASE=_..X_SRAM_END                 #
#                            -D_..X_EXT_ROM_SIZE=0                             #
#                            -D_..X_EXT_NV_BASE=_..X_SRAM_END                  #
#                            -D_..X_EXT_NV_SIZE=0                              #
#                            -D_..X_CSTACK_BASE=_..X_SRAM_BASE                 #
#                            -D_..X_CSTACK_END=_..X_SRAM_END                   #
#                            -D_..X_RSTACK_BASE=_..X_SRAM_BASE                 #
#                            -D_..X_RSTACK_END=_..X_SRAM_END                   #
#                            -Oubrof8=D:\Projects\CurrentProjects\CautoProject #
#                            s\PSS48Color\Debug\Exe\PSS48.d90                  #
#                            -s __program_start                                #
#                            "C:\Program Files (x86)\IAR Systems\Embedded Work #
#                            bench 8.0\avr\LIB\DLIB\dlAVR-3s-ec_mul-n.r90"     #
#                            -o                                                #
#                            D:\Projects\CurrentProjects\CautoProjects\PSS48Co #
#                            lor\Debug\Exe\PSS48.hex                           #
#                            -Fintel-standard)                                 #
#                                                                              #
#                           Copyright (C) 1987-2017 IAR Systems AB.            #
################################################################################





                ****************************************
                *                                      *
                *           CROSS REFERENCE            *
                *                                      *
                ****************************************

       Program entry at : CODE      00004556  Relocatable, from module : ?C_STARTUP




                ****************************************
                *                                      *
                *            RUNTIME MODEL             *
                *                                      *
                ****************************************

  R10                        = REG
  R11                        = REG
  R12                        = REG
  R13                        = REG
  R14                        = REG
  R15                        = REG
  R4                         = REG
  R5                         = REG
  R6                         = REG
  R7                         = REG
  R8                         = REG
  R9                         = REG
  __64bit_doubles            = disabled
  __Heap_Handler             = Basic
  __SystemLibrary            = DLib
  __cpu                      = 3
  __cpu_name                 = ATmega128A
  __dlib_file_descriptor     = 0
  __dlib_full_locale_support = 0
  __enhanced_core            = enabled
  __has_elpm                 = true
  __memory_model             = 2
  __no_rampd                 = enabled
  __rt_version               = 3
  __tiny_avr                 = false
  __vtable_memory            = __nearflash

                ****************************************
                *                                      *
                *    AUTOMATIC SYMBOL REDIRECTIONS     *
                *                                      *
                ****************************************

                  There are no automatic symbol redirections.



                ****************************************
                *                                      *
                *              MODULE MAP              *
                *                                      *
                ****************************************


  DEFINED ABSOLUTE ENTRIES
  PROGRAM MODULE, NAME : ?ABS_ENTRY_MOD

Absolute parts
           ENTRY                   ADDRESS         REF BY
           =====                   =======         ======
           _..X_RSTACK_END         000010FF 
           _..X_RSTACK_BASE        00000100 
           _..X_CSTACK_END         000010FF 
           _..X_CSTACK_BASE        00000100 
           _..X_EXT_NV_SIZE        00000000 
           _..X_EXT_NV_BASE        000010FF 
           _..X_EXT_ROM_SIZE       00000000 
           _..X_EXT_ROM_BASE       000010FF 
           _..X_EXT_SRAM_SIZE      00000000 
           _..X_EXT_SRAM_BASE      000010FF 
           _..X_FLASH_BASE         0000008C 
           _..X_FLASH_CODE_END     0001FFFF 
           _..X_RSTACK_SIZE        00000040 
           _..X_CSTACK_SIZE        00000200 
           _..X_HUGE_HEAP_SIZE     00000000 
           _..X_FAR_HEAP_SIZE      00000000 
           _..X_NEAR_HEAP_SIZE     00000400 
           _..X_TINY_HEAP_SIZE     00000000 
           _..X_HEAP_SIZE          00000000 
           _..X_EEPROM_END         00000FFF 
           _..X_EEPROM_START       00000000 
           _..X_SRAM_END           000010FF 
           _..X_SRAM_TSIZE         00000000 
           _..X_SRAM_TBASE         00000000 
           _..X_SRAM_BASE          00000100 
           _..X_FLASH_NEND         0000FFFF 
           _..X_FLASH_END          0001FFFF 
           _..X_INTVEC_SIZE        0000008C 
    *************************************************************************

  FILE NAME : D:\Projects\CurrentProjects\CautoProjects\PSS48Color\Debug\Obj\Alarm.r90
  PROGRAM MODULE, NAME : Alarm

  SEGMENTS IN THE MODULE
  ======================
ABSOLUTE
  Relative segment, address: DATA 0000009D - 0000009D (0x1 bytes), align: 0
  Segment part 1. ROOT        Intra module refs:   __sti__routine() (Pss21)
           ENTRY                   ADDRESS         REF BY
           =====                   =======         ======
           _A_UCSR1C               0000009D 
           LOCAL                   ADDRESS         
           =====                   =======         
           UCSR1C                  0000009D 
    -------------------------------------------------------------------------
ABSOLUTE
  Relative segment, address: DATA 0000009C - 0000009C (0x1 bytes), align: 0
  Segment part 2. ROOT        Intra module refs:   __sti__routine() (Pss21)
           ENTRY                   ADDRESS         REF BY
           =====                   =======         ======
           _A_UDR1                 0000009C 
           LOCAL                   ADDRESS         
           =====                   =======         
           UDR1                    0000009C 
    -------------------------------------------------------------------------
ABSOLUTE
  Relative segment, address: DATA 0000009B - 0000009B (0x1 bytes), align: 0
  Segment part 3. ROOT        Intra module refs:   __sti__routine() (Pss21)
           ENTRY                   ADDRESS         REF BY
           =====                   =======         ======
           _A_UCSR1A               0000009B 
           LOCAL                   ADDRESS         
           =====                   =======         
           UCSR1A                  0000009B 
    -------------------------------------------------------------------------
ABSOLUTE
  Relative segment, address: DATA 0000009A - 0000009A (0x1 bytes), align: 0
  Segment part 4. ROOT        Intra module refs:   __sti__routine() (Pss21)
           ENTRY                   ADDRESS         REF BY
           =====                   =======         ======
           _A_UCSR1B               0000009A 
           LOCAL                   ADDRESS         
           =====                   =======         
           UCSR1B                  0000009A 
    -------------------------------------------------------------------------
ABSOLUTE
  Relative segment, address: DATA 00000099 - 00000099 (0x1 bytes), align: 0
  Segment part 5. ROOT        Intra module refs:   __sti__routine() (Pss21)
           ENTRY                   ADDRESS         REF BY
           =====                   =======         ======
           _A_UBRR1L               00000099 
           LOCAL                   ADDRESS         
           =====                   =======         
           UBRR1L                  00000099 
    -------------------------------------------------------------------------
ABSOLUTE
  Relative segment, address: DATA 00000098 - 00000098 (0x1 bytes), align: 0
  Segment part 6. ROOT        Intra module refs:   __sti__routine() (Pss21)
           ENTRY                   ADDRESS         REF BY
           =====                   =======         ======
           _A_UBRR1H               00000098 
           LOCAL                   ADDRESS         
           =====                   =======         
           UBRR1H                  00000098 
    -------------------------------------------------------------------------
ABSOLUTE
  Relative segment, address: DATA 00000095 - 00000095 (0x1 bytes), align: 0
  Segment part 7. ROOT 
           ENTRY                   ADDRESS         REF BY
           =====                   =======         ======
           _A_UCSR0C               00000095 
           LOCAL                   ADDRESS         
           =====                   =======         
           UCSR0C                  00000095 
    -------------------------------------------------------------------------
ABSOLUTE
  Relative segment, address: DATA 00000090 - 00000090 (0x1 bytes), align: 0
  Segment part 8. ROOT 
           ENTRY                   ADDRESS         REF BY
           =====                   =======         ======
           _A_UBRR0H               00000090 
           LOCAL                   ADDRESS         
           =====                   =======         
           UBRR0H                  00000090 
    -------------------------------------------------------------------------
ABSOLUTE
  Relative segment, address: DATA 0000008C - 0000008C (0x1 bytes), align: 0
  Segment part 9. ROOT 
           ENTRY                   ADDRESS         REF BY
           =====                   =======         ======
           _A_TCCR3C               0000008C 
           LOCAL                   ADDRESS         
           =====                   =======         
           TCCR3C                  0000008C 
    -------------------------------------------------------------------------
ABSOLUTE
  Relative segment, address: DATA 0000008B - 0000008B (0x1 bytes), align: 0
  Segment part 10. ROOT       Intra module refs:   CPlatform::BuzzerTimerFrequencySet(uint16_t) (Platform)
                                                   CPlatform::BuzzerTimerStop() (Platform)
           ENTRY                   ADDRESS         REF BY
           =====                   =======         ======
           _A_TCCR3A               0000008B 
           LOCAL                   ADDRESS         
           =====                   =======         
           TCCR3A                  0000008B 
    -------------------------------------------------------------------------
ABSOLUTE
  Relative segment, address: DATA 0000008A - 0000008A (0x1 bytes), align: 0
  Segment part 11. ROOT       Intra module refs:   ?Subroutine29 (Platform)
                                                   CPlatform::BuzzerTimerFrequencySet(uint16_t) (Platform)
                                                   CPlatform::BuzzerTimerStop() (Platform)
           ENTRY                   ADDRESS         REF BY
           =====                   =======         ======
           _A_TCCR3B               0000008A 
           LOCAL                   ADDRESS         
           =====                   =======         
           TCCR3B                  0000008A 
    -------------------------------------------------------------------------
ABSOLUTE
  Relative segment, address: DATA 00000088 - 00000089 (0x2 bytes), align: 0
  Segment part 12. ROOT 
           ENTRY                   ADDRESS         REF BY
           =====                   =======         ======
           _A_TCNT3                00000088 
           LOCAL                   ADDRESS         
           =====                   =======         
           TCNT3                   00000088 
           TCNT3H                  00000089 
           TCNT3L                  00000088 
    -------------------------------------------------------------------------
ABSOLUTE
  Relative segment, address: DATA 00000086 - 00000087 (0x2 bytes), align: 0
  Segment part 13. ROOT       Intra module refs:   CPlatform::BuzzerTimerFrequencySet(uint16_t) (Platform)
           ENTRY                   ADDRESS         REF BY
           =====                   =======         ======
           _A_OCR3A                00000086 
           LOCAL                   ADDRESS         
           =====                   =======         
           OCR3A                   00000086 
           OCR3AH                  00000087 
           OCR3AL                  00000086 
    -------------------------------------------------------------------------
ABSOLUTE
  Relative segment, address: DATA 00000084 - 00000085 (0x2 bytes), align: 0
  Segment part 14. ROOT       Intra module refs:   CPlatform::BuzzerTimerFrequencySet(uint16_t) (Platform)
           ENTRY                   ADDRESS         REF BY
           =====                   =======         ======
           _A_OCR3B                00000084 
           LOCAL                   ADDRESS         
           =====                   =======         
           OCR3B                   00000084 
           OCR3BH                  00000085 
           OCR3BL                  00000084 
    -------------------------------------------------------------------------
ABSOLUTE
  Relative segment, address: DATA 00000082 - 00000083 (0x2 bytes), align: 0
  Segment part 15. ROOT       Intra module refs:   CPlatform::BuzzerTimerFrequencySet(uint16_t) (Platform)
           ENTRY                   ADDRESS         REF BY
           =====                   =======         ======
           _A_OCR3C                00000082 
           LOCAL                   ADDRESS         
           =====                   =======         
           OCR3C                   00000082 
           OCR3CH                  00000083 
           OCR3CL                  00000082 
    -------------------------------------------------------------------------
ABSOLUTE
  Relative segment, address: DATA 00000080 - 00000081 (0x2 bytes), align: 0
  Segment part 16. ROOT 
           ENTRY                   ADDRESS         REF BY
           =====                   =======         ======
           _A_ICR3                 00000080 
           LOCAL                   ADDRESS         
           =====                   =======         
           ICR3                    00000080 
           ICR3H                   00000081 
           ICR3L                   00000080 
    -------------------------------------------------------------------------
ABSOLUTE
  Relative segment, address: DATA 0000007D - 0000007D (0x1 bytes), align: 0
  Segment part 17. ROOT 
           ENTRY                   ADDRESS         REF BY
           =====                   =======         ======
           _A_ETIMSK               0000007D 
           LOCAL                   ADDRESS         
           =====                   =======         
           ETIMSK                  0000007D 
    -------------------------------------------------------------------------
ABSOLUTE
  Relative segment, address: DATA 0000007C - 0000007C (0x1 bytes), align: 0
  Segment part 18. ROOT 
           ENTRY                   ADDRESS         REF BY
           =====                   =======         ======
           _A_ETIFR                0000007C 
           LOCAL                   ADDRESS         
           =====                   =======         
           ETIFR                   0000007C 
    -------------------------------------------------------------------------
ABSOLUTE
  Relative segment, address: DATA 0000007A - 0000007A (0x1 bytes), align: 0
  Segment part 19. ROOT 
           ENTRY                   ADDRESS         REF BY
           =====                   =======         ======
           _A_TCCR1C               0000007A 
           LOCAL                   ADDRESS         
           =====                   =======         
           TCCR1C                  0000007A 
    -------------------------------------------------------------------------
ABSOLUTE
  Relative segment, address: DATA 00000078 - 00000079 (0x2 bytes), align: 0
  Segment part 20. ROOT 
           ENTRY                   ADDRESS         REF BY
           =====                   =======         ======
           _A_OCR1C                00000078 
           LOCAL                   ADDRESS         
           =====                   =======         
           OCR1C                   00000078 
           OCR1CH                  00000079 
           OCR1CL                  00000078 
    -------------------------------------------------------------------------
ABSOLUTE
  Relative segment, address: DATA 00000074 - 00000074 (0x1 bytes), align: 0
  Segment part 21. ROOT 
           ENTRY                   ADDRESS         REF BY
           =====                   =======         ======
           _A_TWCR                 00000074 
           LOCAL                   ADDRESS         
           =====                   =======         
           TWCR                    00000074 
    -------------------------------------------------------------------------
ABSOLUTE
  Relative segment, address: DATA 00000073 - 00000073 (0x1 bytes), align: 0
  Segment part 22. ROOT 
           ENTRY                   ADDRESS         REF BY
           =====                   =======         ======
           _A_TWDR                 00000073 
           LOCAL                   ADDRESS         
           =====                   =======         
           TWDR                    00000073 
    -------------------------------------------------------------------------
ABSOLUTE
  Relative segment, address: DATA 00000072 - 00000072 (0x1 bytes), align: 0
  Segment part 23. ROOT 
           ENTRY                   ADDRESS         REF BY
           =====                   =======         ======
           _A_TWAR                 00000072 
           LOCAL                   ADDRESS         
           =====                   =======         
           TWAR                    00000072 
    -------------------------------------------------------------------------
ABSOLUTE
  Relative segment, address: DATA 00000071 - 00000071 (0x1 bytes), align: 0
  Segment part 24. ROOT 
           ENTRY                   ADDRESS         REF BY
           =====                   =======         ======
           _A_TWSR                 00000071 
           LOCAL                   ADDRESS         
           =====                   =======         
           TWSR                    00000071 
    -------------------------------------------------------------------------
ABSOLUTE
  Relative segment, address: DATA 00000070 - 00000070 (0x1 bytes), align: 0
  Segment part 25. ROOT 
           ENTRY                   ADDRESS         REF BY
           =====                   =======         ======
           _A_TWBR                 00000070 
           LOCAL                   ADDRESS         
           =====                   =======         
           TWBR                    00000070 
    -------------------------------------------------------------------------
ABSOLUTE
  Relative segment, address: DATA 0000006F - 0000006F (0x1 bytes), align: 0
  Segment part 26. ROOT 
           ENTRY                   ADDRESS         REF BY
           =====                   =======         ======
           _A_OSCCAL               0000006F 
           LOCAL                   ADDRESS         
           =====                   =======         
           OSCCAL                  0000006F 
    -------------------------------------------------------------------------
ABSOLUTE
  Relative segment, address: DATA 0000006D - 0000006D (0x1 bytes), align: 0
  Segment part 27. ROOT 
           ENTRY                   ADDRESS         REF BY
           =====                   =======         ======
           _A_XMCRA                0000006D 
           LOCAL                   ADDRESS         
           =====                   =======         
           XMCRA                   0000006D 
    -------------------------------------------------------------------------
ABSOLUTE
  Relative segment, address: DATA 0000006C - 0000006C (0x1 bytes), align: 0
  Segment part 28. ROOT 
           ENTRY                   ADDRESS         REF BY
           =====                   =======         ======
           _A_XMCRB                0000006C 
           LOCAL                   ADDRESS         
           =====                   =======         
           XMCRB                   0000006C 
    -------------------------------------------------------------------------
ABSOLUTE
  Relative segment, address: DATA 0000006A - 0000006A (0x1 bytes), align: 0
  Segment part 29. ROOT 
           ENTRY                   ADDRESS         REF BY
           =====                   =======         ======
           _A_EICRA                0000006A 
           LOCAL                   ADDRESS         
           =====                   =======         
           EICRA                   0000006A 
    -------------------------------------------------------------------------
ABSOLUTE
  Relative segment, address: DATA 00000068 - 00000068 (0x1 bytes), align: 0
  Segment part 30. ROOT 
           ENTRY                   ADDRESS         REF BY
           =====                   =======         ======
           _A_SPMCSR               00000068 
           LOCAL                   ADDRESS         
           =====                   =======         
           SPMCSR                  00000068 
    -------------------------------------------------------------------------
ABSOLUTE
  Relative segment, address: DATA 00000065 - 00000065 (0x1 bytes), align: 0
  Segment part 31. ROOT 
           ENTRY                   ADDRESS         REF BY
           =====                   =======         ======
           _A_PORTG                00000065 
           LOCAL                   ADDRESS         
           =====                   =======         
           PORTG                   00000065 
    -------------------------------------------------------------------------
ABSOLUTE
  Relative segment, address: DATA 00000064 - 00000064 (0x1 bytes), align: 0
  Segment part 32. ROOT       Intra module refs:   CPlatform::Init() (Platform)
           ENTRY                   ADDRESS         REF BY
           =====                   =======         ======
           _A_DDRG                 00000064 
           LOCAL                   ADDRESS         
           =====                   =======         
           DDRG                    00000064 
    -------------------------------------------------------------------------
ABSOLUTE
  Relative segment, address: DATA 00000063 - 00000063 (0x1 bytes), align: 0
  Segment part 33. ROOT       Intra module refs:   CPlatform::ExternalKeyState() (Pss21)
           ENTRY                   ADDRESS         REF BY
           =====                   =======         ======
           _A_PING                 00000063 
           LOCAL                   ADDRESS         
           =====                   =======         
           PING                    00000063 
    -------------------------------------------------------------------------
ABSOLUTE
  Relative segment, address: DATA 00000062 - 00000062 (0x1 bytes), align: 0
  Segment part 34. ROOT       Intra module refs:   CDm163::Init() (Dm163)
                                                   CDm163::Reset() (Dm163)
                                                   CDm163::SetBank0(uint8_t) (Dm163)
                                                   CDm163::SetBank1(uint8_t) (Dm163)
                                                   CLightBoard::Set(CAlarmWindow *) (LightBoard)
           ENTRY                   ADDRESS         REF BY
           =====                   =======         ======
           _A_PORTF                00000062 
           LOCAL                   ADDRESS         
           =====                   =======         
           PORTF                   00000062 
    -------------------------------------------------------------------------
ABSOLUTE
  Relative segment, address: DATA 00000061 - 00000061 (0x1 bytes), align: 0
  Segment part 35. ROOT       Intra module refs:   CDm163::Init() (Dm163)
           ENTRY                   ADDRESS         REF BY
           =====                   =======         ======
           _A_DDRF                 00000061 
           LOCAL                   ADDRESS         
           =====                   =======         
           DDRF                    00000061 
    -------------------------------------------------------------------------
ABSOLUTE
  Relative segment, address: DATA 0000005F - 0000005F (0x1 bytes), align: 0
  Segment part 36. ROOT 
           ENTRY                   ADDRESS         REF BY
           =====                   =======         ======
           _A_SREG                 0000005F 
           LOCAL                   ADDRESS         
           =====                   =======         
           SREG                    0000005F 
    -------------------------------------------------------------------------
ABSOLUTE
  Relative segment, address: DATA 0000005D - 0000005E (0x2 bytes), align: 0
  Segment part 37. ROOT 
           ENTRY                   ADDRESS         REF BY
           =====                   =======         ======
           _A_SP                   0000005D 
           LOCAL                   ADDRESS         
           =====                   =======         
           SP                      0000005D 
           SPH                     0000005E 
           SPL                     0000005D 
    -------------------------------------------------------------------------
ABSOLUTE
  Relative segment, address: DATA 0000005C - 0000005C (0x1 bytes), align: 0
  Segment part 38. ROOT 
           ENTRY                   ADDRESS         REF BY
           =====                   =======         ======
           _A_XDIV                 0000005C 
           LOCAL                   ADDRESS         
           =====                   =======         
           XDIV                    0000005C 
    -------------------------------------------------------------------------
ABSOLUTE
  Relative segment, address: DATA 0000005B - 0000005B (0x1 bytes), align: 0
  Segment part 39. ROOT 
           ENTRY                   ADDRESS         REF BY
           =====                   =======         ======
           _A_RAMPZ                0000005B 
           LOCAL                   ADDRESS         
           =====                   =======         
           RAMPZ                   0000005B 
    -------------------------------------------------------------------------
ABSOLUTE
  Relative segment, address: DATA 0000005A - 0000005A (0x1 bytes), align: 0
  Segment part 40. ROOT 
           ENTRY                   ADDRESS         REF BY
           =====                   =======         ======
           _A_EICRB                0000005A 
           LOCAL                   ADDRESS         
           =====                   =======         
           EICRB                   0000005A 
    -------------------------------------------------------------------------
ABSOLUTE
  Relative segment, address: DATA 00000059 - 00000059 (0x1 bytes), align: 0
  Segment part 41. ROOT 
           ENTRY                   ADDRESS         REF BY
           =====                   =======         ======
           _A_EIMSK                00000059 
           LOCAL                   ADDRESS         
           =====                   =======         
           EIMSK                   00000059 
    -------------------------------------------------------------------------
ABSOLUTE
  Relative segment, address: DATA 00000058 - 00000058 (0x1 bytes), align: 0
  Segment part 42. ROOT 
           ENTRY                   ADDRESS         REF BY
           =====                   =======         ======
           _A_EIFR                 00000058 
           LOCAL                   ADDRESS         
           =====                   =======         
           EIFR                    00000058 
    -------------------------------------------------------------------------
ABSOLUTE
  Relative segment, address: DATA 00000057 - 00000057 (0x1 bytes), align: 0
  Segment part 43. ROOT       Intra module refs:   CPlatform::SystemTickInit() (Platform)
           ENTRY                   ADDRESS         REF BY
           =====                   =======         ======
           _A_TIMSK                00000057 
           LOCAL                   ADDRESS         
           =====                   =======         
           TIMSK                   00000057 
    -------------------------------------------------------------------------
ABSOLUTE
  Relative segment, address: DATA 00000056 - 00000056 (0x1 bytes), align: 0
  Segment part 44. ROOT 
           ENTRY                   ADDRESS         REF BY
           =====                   =======         ======
           _A_TIFR                 00000056 
           LOCAL                   ADDRESS         
           =====                   =======         
           TIFR                    00000056 
    -------------------------------------------------------------------------
ABSOLUTE
  Relative segment, address: DATA 00000055 - 00000055 (0x1 bytes), align: 0
  Segment part 45. ROOT 
           ENTRY                   ADDRESS         REF BY
           =====                   =======         ======
           _A_MCUCR                00000055 
           LOCAL                   ADDRESS         
           =====                   =======         
           MCUCR                   00000055 
    -------------------------------------------------------------------------
ABSOLUTE
  Relative segment, address: DATA 00000054 - 00000054 (0x1 bytes), align: 0
  Segment part 46. ROOT 
           ENTRY                   ADDRESS         REF BY
           =====                   =======         ======
           _A_MCUCSR               00000054 
           LOCAL                   ADDRESS         
           =====                   =======         
           MCUCSR                  00000054 
    -------------------------------------------------------------------------
ABSOLUTE
  Relative segment, address: DATA 00000053 - 00000053 (0x1 bytes), align: 0
  Segment part 47. ROOT       Intra module refs:   CDm163::Init() (Dm163)
           ENTRY                   ADDRESS         REF BY
           =====                   =======         ======
           _A_TCCR0                00000053 
           LOCAL                   ADDRESS         
           =====                   =======         
           TCCR0                   00000053 
    -------------------------------------------------------------------------
ABSOLUTE
  Relative segment, address: DATA 00000052 - 00000052 (0x1 bytes), align: 0
  Segment part 48. ROOT 
           ENTRY                   ADDRESS         REF BY
           =====                   =======         ======
           _A_TCNT0                00000052 
           LOCAL                   ADDRESS         
           =====                   =======         
           TCNT0                   00000052 
    -------------------------------------------------------------------------
ABSOLUTE
  Relative segment, address: DATA 00000051 - 00000051 (0x1 bytes), align: 0
  Segment part 49. ROOT       Intra module refs:   CDm163::Init() (Dm163)
           ENTRY                   ADDRESS         REF BY
           =====                   =======         ======
           _A_OCR0                 00000051 
           LOCAL                   ADDRESS         
           =====                   =======         
           OCR0                    00000051 
    -------------------------------------------------------------------------
ABSOLUTE
  Relative segment, address: DATA 00000050 - 00000050 (0x1 bytes), align: 0
  Segment part 50. ROOT 
           ENTRY                   ADDRESS         REF BY
           =====                   =======         ======
           _A_ASSR                 00000050 
           LOCAL                   ADDRESS         
           =====                   =======         
           ASSR                    00000050 
    -------------------------------------------------------------------------
ABSOLUTE
  Relative segment, address: DATA 0000004F - 0000004F (0x1 bytes), align: 0
  Segment part 51. ROOT 
           ENTRY                   ADDRESS         REF BY
           =====                   =======         ======
           _A_TCCR1A               0000004F 
           LOCAL                   ADDRESS         
           =====                   =======         
           TCCR1A                  0000004F 
    -------------------------------------------------------------------------
ABSOLUTE
  Relative segment, address: DATA 0000004E - 0000004E (0x1 bytes), align: 0
  Segment part 52. ROOT 
           ENTRY                   ADDRESS         REF BY
           =====                   =======         ======
           _A_TCCR1B               0000004E 
           LOCAL                   ADDRESS         
           =====                   =======         
           TCCR1B                  0000004E 
    -------------------------------------------------------------------------
ABSOLUTE
  Relative segment, address: DATA 0000004C - 0000004D (0x2 bytes), align: 0
  Segment part 53. ROOT 
           ENTRY                   ADDRESS         REF BY
           =====                   =======         ======
           _A_TCNT1                0000004C 
           LOCAL                   ADDRESS         
           =====                   =======         
           TCNT1                   0000004C 
           TCNT1H                  0000004D 
           TCNT1L                  0000004C 
    -------------------------------------------------------------------------
ABSOLUTE
  Relative segment, address: DATA 0000004A - 0000004B (0x2 bytes), align: 0
  Segment part 54. ROOT 
           ENTRY                   ADDRESS         REF BY
           =====                   =======         ======
           _A_OCR1A                0000004A 
           LOCAL                   ADDRESS         
           =====                   =======         
           OCR1A                   0000004A 
           OCR1AH                  0000004B 
           OCR1AL                  0000004A 
    -------------------------------------------------------------------------
ABSOLUTE
  Relative segment, address: DATA 00000048 - 00000049 (0x2 bytes), align: 0
  Segment part 55. ROOT 
           ENTRY                   ADDRESS         REF BY
           =====                   =======         ======
           _A_OCR1B                00000048 
           LOCAL                   ADDRESS         
           =====                   =======         
           OCR1B                   00000048 
           OCR1BH                  00000049 
           OCR1BL                  00000048 
    -------------------------------------------------------------------------
ABSOLUTE
  Relative segment, address: DATA 00000046 - 00000047 (0x2 bytes), align: 0
  Segment part 56. ROOT 
           ENTRY                   ADDRESS         REF BY
           =====                   =======         ======
           _A_ICR1                 00000046 
           LOCAL                   ADDRESS         
           =====                   =======         
           ICR1                    00000046 
           ICR1H                   00000047 
           ICR1L                   00000046 
    -------------------------------------------------------------------------
ABSOLUTE
  Relative segment, address: DATA 00000045 - 00000045 (0x1 bytes), align: 0
  Segment part 57. ROOT       Intra module refs:   CPlatform::SystemTickInit() (Platform)
           ENTRY                   ADDRESS         REF BY
           =====                   =======         ======
           _A_TCCR2                00000045 
           LOCAL                   ADDRESS         
           =====                   =======         
           TCCR2                   00000045 
    -------------------------------------------------------------------------
ABSOLUTE
  Relative segment, address: DATA 00000044 - 00000044 (0x1 bytes), align: 0
  Segment part 58. ROOT 
           ENTRY                   ADDRESS         REF BY
           =====                   =======         ======
           _A_TCNT2                00000044 
           LOCAL                   ADDRESS         
           =====                   =======         
           TCNT2                   00000044 
    -------------------------------------------------------------------------
ABSOLUTE
  Relative segment, address: DATA 00000043 - 00000043 (0x1 bytes), align: 0
  Segment part 59. ROOT       Intra module refs:   CPlatform::SystemTickInit() (Platform)
           ENTRY                   ADDRESS         REF BY
           =====                   =======         ======
           _A_OCR2                 00000043 
           LOCAL                   ADDRESS         
           =====                   =======         
           OCR2                    00000043 
    -------------------------------------------------------------------------
ABSOLUTE
  Relative segment, address: DATA 00000042 - 00000042 (0x1 bytes), align: 0
  Segment part 60. ROOT 
           ENTRY                   ADDRESS         REF BY
           =====                   =======         ======
           _A_OCDR                 00000042 
           LOCAL                   ADDRESS         
           =====                   =======         
           OCDR                    00000042 
    -------------------------------------------------------------------------
ABSOLUTE
  Relative segment, address: DATA 00000041 - 00000041 (0x1 bytes), align: 0
  Segment part 61. ROOT       Intra module refs:   CPss21::MainFsm() (Pss21)
           ENTRY                   ADDRESS         REF BY
           =====                   =======         ======
           _A_WDTCR                00000041 
           LOCAL                   ADDRESS         
           =====                   =======         
           WDTCR                   00000041 
    -------------------------------------------------------------------------
ABSOLUTE
  Relative segment, address: DATA 00000040 - 00000040 (0x1 bytes), align: 0
  Segment part 62. ROOT 
           ENTRY                   ADDRESS         REF BY
           =====                   =======         ======
           _A_SFIOR                00000040 
           LOCAL                   ADDRESS         
           =====                   =======         
           SFIOR                   00000040 
    -------------------------------------------------------------------------
ABSOLUTE
  Relative segment, address: DATA 0000003E - 0000003F (0x2 bytes), align: 0
  Segment part 63. ROOT       Intra module refs:   CEeprom::ReadByte(uint16_t) (Platform)
                                                   CEeprom::ReadyInterruptHandler() (Platform)
           ENTRY                   ADDRESS         REF BY
           =====                   =======         ======
           _A_EEAR                 0000003E 
           LOCAL                   ADDRESS         
           =====                   =======         
           EEAR                    0000003E 
           EEARH                   0000003F 
           EEARL                   0000003E 
    -------------------------------------------------------------------------
ABSOLUTE
  Relative segment, address: DATA 0000003D - 0000003D (0x1 bytes), align: 0
  Segment part 64. ROOT       Intra module refs:   CEeprom::ReadByte(uint16_t) (Platform)
                                                   CEeprom::ReadyInterruptHandler() (Platform)
           ENTRY                   ADDRESS         REF BY
           =====                   =======         ======
           _A_EEDR                 0000003D 
           LOCAL                   ADDRESS         
           =====                   =======         
           EEDR                    0000003D 
    -------------------------------------------------------------------------
ABSOLUTE
  Relative segment, address: DATA 0000003C - 0000003C (0x1 bytes), align: 0
  Segment part 65. ROOT       Intra module refs:   CDataStore::Fsm() (DataStore)
                                                   CEeprom::ReadByte(uint16_t) (Platform)
                                                   CEeprom::ReadyInterruptHandler() (Platform)
                                                   CEeprom::StartWrite() (DataStore)
           ENTRY                   ADDRESS         REF BY
           =====                   =======         ======
           _A_EECR                 0000003C 
           LOCAL                   ADDRESS         
           =====                   =======         
           EECR                    0000003C 
    -------------------------------------------------------------------------
ABSOLUTE
  Relative segment, address: DATA 0000003B - 0000003B (0x1 bytes), align: 0
  Segment part 66. ROOT       Intra module refs:   CModbusRTU::Fsm() (ModbusRTU)
                                                   CPlatform::Init() (Platform)
                                                   CStatusLedNotifyerControl::NotifyerEmergencyOn() (NotifyerControl)
                                                   CStatusLedNotifyerControl::NotifyerNormalOn() (NotifyerControl)
                                                   CStatusLedNotifyerControl::NotifyerOff() (NotifyerControl)
                                                   CStatusLedNotifyerControl::NotifyerPreventiveOn() (NotifyerControl)
           ENTRY                   ADDRESS         REF BY
           =====                   =======         ======
           _A_PORTA                0000003B 
           LOCAL                   ADDRESS         
           =====                   =======         
           PORTA                   0000003B 
    -------------------------------------------------------------------------
ABSOLUTE
  Relative segment, address: DATA 0000003A - 0000003A (0x1 bytes), align: 0
  Segment part 67. ROOT       Intra module refs:   CPlatform::Init() (Platform)
           ENTRY                   ADDRESS         REF BY
           =====                   =======         ======
           _A_DDRA                 0000003A 
           LOCAL                   ADDRESS         
           =====                   =======         
           DDRA                    0000003A 
    -------------------------------------------------------------------------
ABSOLUTE
  Relative segment, address: DATA 00000039 - 00000039 (0x1 bytes), align: 0
  Segment part 68. ROOT 
           ENTRY                   ADDRESS         REF BY
           =====                   =======         ======
           _A_PINA                 00000039 
           LOCAL                   ADDRESS         
           =====                   =======         
           PINA                    00000039 
    -------------------------------------------------------------------------
ABSOLUTE
  Relative segment, address: DATA 00000038 - 00000038 (0x1 bytes), align: 0
  Segment part 69. ROOT       Intra module refs:   CDm163::Init() (Dm163)
                                                   CSpi::Init() (Platform)
           ENTRY                   ADDRESS         REF BY
           =====                   =======         ======
           _A_PORTB                00000038 
           LOCAL                   ADDRESS         
           =====                   =======         
           PORTB                   00000038 
    -------------------------------------------------------------------------
ABSOLUTE
  Relative segment, address: DATA 00000037 - 00000037 (0x1 bytes), align: 0
  Segment part 70. ROOT       Intra module refs:   CDm163::Init() (Dm163)
                                                   CSpi::Init() (Platform)
           ENTRY                   ADDRESS         REF BY
           =====                   =======         ======
           _A_DDRB                 00000037 
           LOCAL                   ADDRESS         
           =====                   =======         
           DDRB                    00000037 
    -------------------------------------------------------------------------
ABSOLUTE
  Relative segment, address: DATA 00000036 - 00000036 (0x1 bytes), align: 0
  Segment part 71. ROOT 
           ENTRY                   ADDRESS         REF BY
           =====                   =======         ======
           _A_PINB                 00000036 
           LOCAL                   ADDRESS         
           =====                   =======         
           PINB                    00000036 
    -------------------------------------------------------------------------
ABSOLUTE
  Relative segment, address: DATA 00000035 - 00000035 (0x1 bytes), align: 0
  Segment part 72. ROOT       Intra module refs:   __sti__routine() (Pss21)
           ENTRY                   ADDRESS         REF BY
           =====                   =======         ======
           _A_PORTC                00000035 
           LOCAL                   ADDRESS         
           =====                   =======         
           PORTC                   00000035 
    -------------------------------------------------------------------------
ABSOLUTE
  Relative segment, address: DATA 00000034 - 00000034 (0x1 bytes), align: 0
  Segment part 73. ROOT       Intra module refs:   CPlatform::Init() (Platform)
                                                   __sti__routine() (Pss21)
           ENTRY                   ADDRESS         REF BY
           =====                   =======         ======
           _A_DDRC                 00000034 
           LOCAL                   ADDRESS         
           =====                   =======         
           DDRC                    00000034 
    -------------------------------------------------------------------------
ABSOLUTE
  Relative segment, address: DATA 00000033 - 00000033 (0x1 bytes), align: 0
  Segment part 74. ROOT       Intra module refs:   CPlatform::KeyOneState() (Pss21)
                                                   CPlatform::KeyThreeState() (Pss21)
                                                   CPlatform::KeyTwoState() (Pss21)
           ENTRY                   ADDRESS         REF BY
           =====                   =======         ======
           _A_PINC                 00000033 
           LOCAL                   ADDRESS         
           =====                   =======         
           PINC                    00000033 
    -------------------------------------------------------------------------
ABSOLUTE
  Relative segment, address: DATA 00000032 - 00000032 (0x1 bytes), align: 0
  Segment part 75. ROOT       Intra module refs:   CPss21::AddressBusInit() (Pss21)
                                                   CPss21::ConnectDevice(uint8_t) (Pss21)
                                                   CPss21::DisconnectDevice() (Pss21)
           ENTRY                   ADDRESS         REF BY
           =====                   =======         ======
           _A_PORTD                00000032 
           LOCAL                   ADDRESS         
           =====                   =======         
           PORTD                   00000032 
    -------------------------------------------------------------------------
ABSOLUTE
  Relative segment, address: DATA 00000031 - 00000031 (0x1 bytes), align: 0
  Segment part 76. ROOT       Intra module refs:   CPss21::AddressBusInit() (Pss21)
           ENTRY                   ADDRESS         REF BY
           =====                   =======         ======
           _A_DDRD                 00000031 
           LOCAL                   ADDRESS         
           =====                   =======         
           DDRD                    00000031 
    -------------------------------------------------------------------------
ABSOLUTE
  Relative segment, address: DATA 00000030 - 00000030 (0x1 bytes), align: 0
  Segment part 77. ROOT 
           ENTRY                   ADDRESS         REF BY
           =====                   =======         ======
           _A_PIND                 00000030 
           LOCAL                   ADDRESS         
           =====                   =======         
           PIND                    00000030 
    -------------------------------------------------------------------------
ABSOLUTE
  Relative segment, address: DATA 0000002F - 0000002F (0x1 bytes), align: 0
  Segment part 78. ROOT       Intra module refs:   CSpi::Exchange(uint8_t) (Platform)
           ENTRY                   ADDRESS         REF BY
           =====                   =======         ======
           _A_SPDR                 0000002F 
           LOCAL                   ADDRESS         
           =====                   =======         
           SPDR                    0000002F 
    -------------------------------------------------------------------------
ABSOLUTE
  Relative segment, address: DATA 0000002E - 0000002E (0x1 bytes), align: 0
  Segment part 79. ROOT       Intra module refs:   CSpi::Exchange(uint8_t) (Platform)
           ENTRY                   ADDRESS         REF BY
           =====                   =======         ======
           _A_SPSR                 0000002E 
           LOCAL                   ADDRESS         
           =====                   =======         
           SPSR                    0000002E 
    -------------------------------------------------------------------------
ABSOLUTE
  Relative segment, address: DATA 0000002D - 0000002D (0x1 bytes), align: 0
  Segment part 80. ROOT       Intra module refs:   CSpi::Disable() (Platform)
                                                   CSpi::Enable() (Platform)
                                                   CSpi::Init() (Platform)
           ENTRY                   ADDRESS         REF BY
           =====                   =======         ======
           _A_SPCR                 0000002D 
           LOCAL                   ADDRESS         
           =====                   =======         
           SPCR                    0000002D 
    -------------------------------------------------------------------------
ABSOLUTE
  Relative segment, address: DATA 0000002C - 0000002C (0x1 bytes), align: 0
  Segment part 81. ROOT 
           ENTRY                   ADDRESS         REF BY
           =====                   =======         ======
           _A_UDR0                 0000002C 
           LOCAL                   ADDRESS         
           =====                   =======         
           UDR0                    0000002C 
    -------------------------------------------------------------------------
ABSOLUTE
  Relative segment, address: DATA 0000002B - 0000002B (0x1 bytes), align: 0
  Segment part 82. ROOT 
           ENTRY                   ADDRESS         REF BY
           =====                   =======         ======
           _A_UCSR0A               0000002B 
           LOCAL                   ADDRESS         
           =====                   =======         
           UCSR0A                  0000002B 
    -------------------------------------------------------------------------
ABSOLUTE
  Relative segment, address: DATA 0000002A - 0000002A (0x1 bytes), align: 0
  Segment part 83. ROOT 
           ENTRY                   ADDRESS         REF BY
           =====                   =======         ======
           _A_UCSR0B               0000002A 
           LOCAL                   ADDRESS         
           =====                   =======         
           UCSR0B                  0000002A 
    -------------------------------------------------------------------------
ABSOLUTE
  Relative segment, address: DATA 00000029 - 00000029 (0x1 bytes), align: 0
  Segment part 84. ROOT 
           ENTRY                   ADDRESS         REF BY
           =====                   =======         ======
           _A_UBRR0L               00000029 
           LOCAL                   ADDRESS         
           =====                   =======         
           UBRR0L                  00000029 
    -------------------------------------------------------------------------
ABSOLUTE
  Relative segment, address: DATA 00000028 - 00000028 (0x1 bytes), align: 0
  Segment part 85. ROOT 
           ENTRY                   ADDRESS         REF BY
           =====                   =======         ======
           _A_ACSR                 00000028 
           LOCAL                   ADDRESS         
           =====                   =======         
           ACSR                    00000028 
    -------------------------------------------------------------------------
ABSOLUTE
  Relative segment, address: DATA 00000027 - 00000027 (0x1 bytes), align: 0
  Segment part 86. ROOT 
           ENTRY                   ADDRESS         REF BY
           =====                   =======         ======
           _A_ADMUX                00000027 
           LOCAL                   ADDRESS         
           =====                   =======         
           ADMUX                   00000027 
    -------------------------------------------------------------------------
ABSOLUTE
  Relative segment, address: DATA 00000026 - 00000026 (0x1 bytes), align: 0
  Segment part 87. ROOT 
           ENTRY                   ADDRESS         REF BY
           =====                   =======         ======
           _A_ADCSRA               00000026 
           LOCAL                   ADDRESS         
           =====                   =======         
           ADCSRA                  00000026 
    -------------------------------------------------------------------------
ABSOLUTE
  Relative segment, address: DATA 00000024 - 00000025 (0x2 bytes), align: 0
  Segment part 88. ROOT 
           ENTRY                   ADDRESS         REF BY
           =====                   =======         ======
           _A_ADC                  00000024 
           LOCAL                   ADDRESS         
           =====                   =======         
           ADC                     00000024 
           ADCH                    00000025 
           ADCL                    00000024 
    -------------------------------------------------------------------------
ABSOLUTE
  Relative segment, address: DATA 00000023 - 00000023 (0x1 bytes), align: 0
  Segment part 89. ROOT       Intra module refs:   CBuzzer::HighOn() (Buzzer)
                                                   CBuzzer::Init() (Buzzer)
                                                   CBuzzer::LowOn() (Buzzer)
                                                   CBuzzer::Off() (Buzzer)
           ENTRY                   ADDRESS         REF BY
           =====                   =======         ======
           _A_PORTE                00000023 
           LOCAL                   ADDRESS         
           =====                   =======         
           PORTE                   00000023 
    -------------------------------------------------------------------------
ABSOLUTE
  Relative segment, address: DATA 00000022 - 00000022 (0x1 bytes), align: 0
  Segment part 90. ROOT       Intra module refs:   CBuzzer::Init() (Buzzer)
           ENTRY                   ADDRESS         REF BY
           =====                   =======         ======
           _A_DDRE                 00000022 
           LOCAL                   ADDRESS         
           =====                   =======         
           DDRE                    00000022 
    -------------------------------------------------------------------------
ABSOLUTE
  Relative segment, address: DATA 00000021 - 00000021 (0x1 bytes), align: 0
  Segment part 91. ROOT 
           ENTRY                   ADDRESS         REF BY
           =====                   =======         ======
           _A_PINE                 00000021 
           LOCAL                   ADDRESS         
           =====                   =======         
           PINE                    00000021 
    -------------------------------------------------------------------------
ABSOLUTE
  Relative segment, address: DATA 00000020 - 00000020 (0x1 bytes), align: 0
  Segment part 92. ROOT 
           ENTRY                   ADDRESS         REF BY
           =====                   =======         ======
           _A_PINF                 00000020 
           LOCAL                   ADDRESS         
           =====                   =======         
           PINF                    00000020 
    -------------------------------------------------------------------------
CODE
  Relative segment, address: CODE 00000942 - 0000094B (0xa bytes), align: 1
  Segment part 111.           Intra module refs:   ?Subroutine33
           ENTRY                   ADDRESS         REF BY
           =====                   =======         ======
           CAlarmDfa::CAlarmDfa()
                                   00000942 
               calls direct
    -------------------------------------------------------------------------
CODE
  Relative segment, address: CODE 0000094C - 00000957 (0xc bytes), align: 1
  Segment part 113.           Intra module refs:   CNormalAlarmDfa::new CNormalAlarmDfa()
           ENTRY                   ADDRESS         REF BY
           =====                   =======         ======
           CNormalAlarmDfa::CNormalAlarmDfa()
                                   0000094C 
               calls direct
    -------------------------------------------------------------------------
CODE
  Relative segment, address: CODE 00000958 - 0000095F (0x8 bytes), align: 1
  Segment part 114.           Intra module refs:   ?Subroutine0
                                                   CAlarmDfa::CAlarmDfa()
                                                   CNormalAlarmDfa::CNormalAlarmDfa()
           LOCAL                   ADDRESS         
           =====                   =======         
           ?Subroutine22           00000958 
    -------------------------------------------------------------------------
CODE
  Relative segment, address: CODE 00000960 - 00000967 (0x8 bytes), align: 1
  Segment part 115.
           ENTRY                   ADDRESS         REF BY
           =====                   =======         ======
           CNormalAlarmDfa::new CNormalAlarmDfa()
                                   00000960        CPss21::ConfigurationInit() (Pss21)
               calls direct
    -------------------------------------------------------------------------
CODE
  Relative segment, address: CODE 00000968 - 0000096F (0x8 bytes), align: 1
  Segment part 116.           Intra module refs:   CPreventiveAlarmLowLevelDfa::new CPreventiveAlarmLowLevelDfa()
           ENTRY                   ADDRESS         REF BY
           =====                   =======         ======
           CPreventiveAlarmLowLevelDfa::CPreventiveAlarmLowLevelDfa()
                                   00000968 
               calls direct
    -------------------------------------------------------------------------
CODE
  Relative segment, address: CODE 00000970 - 00000977 (0x8 bytes), align: 1
  Segment part 117.
           ENTRY                   ADDRESS         REF BY
           =====                   =======         ======
           CPreventiveAlarmLowLevelDfa::new CPreventiveAlarmLowLevelDfa()
                                   00000970        CPss21::ConfigurationInit() (Pss21)
               calls direct
    -------------------------------------------------------------------------
CODE
  Relative segment, address: CODE 00000978 - 0000097F (0x8 bytes), align: 1
  Segment part 118.           Intra module refs:   CPreventiveAlarmHighLevelDfa::new CPreventiveAlarmHighLevelDfa()
           ENTRY                   ADDRESS         REF BY
           =====                   =======         ======
           CPreventiveAlarmHighLevelDfa::CPreventiveAlarmHighLevelDfa()
                                   00000978 
               calls direct
    -------------------------------------------------------------------------
CODE
  Relative segment, address: CODE 00000980 - 00000987 (0x8 bytes), align: 1
  Segment part 119.
           ENTRY                   ADDRESS         REF BY
           =====                   =======         ======
           CPreventiveAlarmHighLevelDfa::new CPreventiveAlarmHighLevelDfa()
                                   00000980        CPss21::ConfigurationInit() (Pss21)
               calls direct
    -------------------------------------------------------------------------
CODE
  Relative segment, address: CODE 00000988 - 0000098F (0x8 bytes), align: 1
  Segment part 120.           Intra module refs:   CEmergencyAlarmLowLevelDfa::new CEmergencyAlarmLowLevelDfa()
           ENTRY                   ADDRESS         REF BY
           =====                   =======         ======
           CEmergencyAlarmLowLevelDfa::CEmergencyAlarmLowLevelDfa()
                                   00000988 
               calls direct
    -------------------------------------------------------------------------
CODE
  Relative segment, address: CODE 00000990 - 00000991 (0x2 bytes), align: 1
  Segment part 121.           Intra module refs:   CEmergencyAlarmHighLevelDfa::CEmergencyAlarmHighLevelDfa()
                                                   CEmergencyAlarmLowLevelDfa::CEmergencyAlarmLowLevelDfa()
                                                   CIndicationAlarmLowLevelDfa::CIndicationAlarmLowLevelDfa()
                                                   CNormalAlarmDfa::CNormalAlarmDfa()
                                                   CPreventiveAlarmHighLevelDfa::CPreventiveAlarmHighLevelDfa()
                                                   CPreventiveAlarmLowLevelDfa::CPreventiveAlarmLowLevelDfa()
           LOCAL                   ADDRESS         
           =====                   =======         
           ?Subroutine3            00000990 
    -------------------------------------------------------------------------
CODE
  Relative segment, address: CODE 00000992 - 00000993 (0x2 bytes), align: 1
  Segment part 122.           Intra module refs:   ?Subroutine3
           LOCAL                   ADDRESS         
           =====                   =======         
           ?Subroutine33           00000992 
    -------------------------------------------------------------------------
CODE
  Relative segment, address: CODE 00000994 - 00000999 (0x6 bytes), align: 1
  Segment part 123.
           ENTRY                   ADDRESS         REF BY
           =====                   =======         ======
           CEmergencyAlarmLowLevelDfa::new CEmergencyAlarmLowLevelDfa()
                                   00000994        CPss21::ConfigurationInit() (Pss21)
               calls direct
    -------------------------------------------------------------------------
CODE
  Relative segment, address: CODE 0000099A - 0000099F (0x6 bytes), align: 1
  Segment part 124.           Intra module refs:   CEmergencyAlarmHighLevelDfa::new CEmergencyAlarmHighLevelDfa()
                                                   CEmergencyAlarmLowLevelDfa::new CEmergencyAlarmLowLevelDfa()
                                                   CErrorAlarmDfa::new CErrorAlarmDfa()
                                                   CIndicationAlarmHighLevelDfa::new CIndicationAlarmHighLevelDfa()
                                                   CIndicationAlarmLowLevelDfa::new CIndicationAlarmLowLevelDfa()
                                                   CNormalAlarmDfa::new CNormalAlarmDfa()
                                                   CPreventiveAlarmHighLevelDfa::new CPreventiveAlarmHighLevelDfa()
                                                   CPreventiveAlarmLowLevelDfa::new CPreventiveAlarmLowLevelDfa()
           LOCAL                   ADDRESS         
           =====                   =======         
           ?Subroutine17           0000099A 
    -------------------------------------------------------------------------
CODE
  Relative segment, address: CODE 000009A0 - 000009A1 (0x2 bytes), align: 1
  Segment part 125.           Intra module refs:   CEmergencyAlarmHighLevelDfa::new CEmergencyAlarmHighLevelDfa()
                                                   CEmergencyAlarmLowLevelDfa::new CEmergencyAlarmLowLevelDfa()
                                                   CIndicationAlarmHighLevelDfa::new CIndicationAlarmHighLevelDfa()
                                                   CIndicationAlarmLowLevelDfa::new CIndicationAlarmLowLevelDfa()
                                                   CNormalAlarmDfa::new CNormalAlarmDfa()
                                                   CPreventiveAlarmHighLevelDfa::new CPreventiveAlarmHighLevelDfa()
                                                   CPreventiveAlarmLowLevelDfa::new CPreventiveAlarmLowLevelDfa()
           LOCAL                   ADDRESS         
           =====                   =======         
           ?Subroutine10           000009A0 
    -------------------------------------------------------------------------
CODE
  Relative segment, address: CODE 000009A2 - 000009AD (0xc bytes), align: 1
  Segment part 126.           Intra module refs:   ?Subroutine10
                                                   CErrorAlarmDfa::new CErrorAlarmDfa()
           LOCAL                   ADDRESS         
           =====                   =======         
           ?Subroutine26           000009A2 
    -------------------------------------------------------------------------
CODE
  Relative segment, address: CODE 000009AE - 000009B3 (0x6 bytes), align: 1
  Segment part 127.           Intra module refs:   CEmergencyAlarmHighLevelDfa::new CEmergencyAlarmHighLevelDfa()
           ENTRY                   ADDRESS         REF BY
           =====                   =======         ======
           CEmergencyAlarmHighLevelDfa::CEmergencyAlarmHighLevelDfa()
                                   000009AE 
               calls direct
    -------------------------------------------------------------------------
CODE
  Relative segment, address: CODE 000009B4 - 000009B7 (0x4 bytes), align: 1
  Segment part 128.           Intra module refs:   CEmergencyAlarmHighLevelDfa::CEmergencyAlarmHighLevelDfa()
                                                   CEmergencyAlarmLowLevelDfa::CEmergencyAlarmLowLevelDfa()
                                                   CErrorAlarmDfa::CErrorAlarmDfa()
                                                   CIndicationAlarmHighLevelDfa::CIndicationAlarmHighLevelDfa()
                                                   CIndicationAlarmLowLevelDfa::CIndicationAlarmLowLevelDfa()
                                                   CPreventiveAlarmHighLevelDfa::CPreventiveAlarmHighLevelDfa()
                                                   CPreventiveAlarmLowLevelDfa::CPreventiveAlarmLowLevelDfa()
           LOCAL                   ADDRESS         
           =====                   =======         
           ?Subroutine0            000009B4 
    -------------------------------------------------------------------------
CODE
  Relative segment, address: CODE 000009B8 - 000009B9 (0x2 bytes), align: 1
  Segment part 129.           Intra module refs:   ?Subroutine0
                                                   CNormalAlarmDfa::CNormalAlarmDfa()
           LOCAL                   ADDRESS         
           =====                   =======         
           ?Subroutine24           000009B8 
    -------------------------------------------------------------------------
CODE
  Relative segment, address: CODE 000009BA - 000009C1 (0x8 bytes), align: 1
  Segment part 130.           Intra module refs:   ?Subroutine24
                                                   CAlarmDfa::CAlarmDfa()
    -------------------------------------------------------------------------
CODE
  Relative segment, address: CODE 000009C2 - 000009C9 (0x8 bytes), align: 1
  Segment part 131.
           ENTRY                   ADDRESS         REF BY
           =====                   =======         ======
           CEmergencyAlarmHighLevelDfa::new CEmergencyAlarmHighLevelDfa()
                                   000009C2        CPss21::ConfigurationInit() (Pss21)
               calls direct
    -------------------------------------------------------------------------
CODE
  Relative segment, address: CODE 000009CA - 000009D1 (0x8 bytes), align: 1
  Segment part 132.           Intra module refs:   CIndicationAlarmHighLevelDfa::CIndicationAlarmHighLevelDfa()
                                                   CIndicationAlarmLowLevelDfa::new CIndicationAlarmLowLevelDfa()
           ENTRY                   ADDRESS         REF BY
           =====                   =======         ======
           CIndicationAlarmLowLevelDfa::CIndicationAlarmLowLevelDfa()
                                   000009CA 
               calls direct
    -------------------------------------------------------------------------
CODE
  Relative segment, address: CODE 000009D2 - 000009D9 (0x8 bytes), align: 1
  Segment part 133.
           ENTRY                   ADDRESS         REF BY
           =====                   =======         ======
           CIndicationAlarmLowLevelDfa::new CIndicationAlarmLowLevelDfa()
                                   000009D2        CPss21::ConfigurationInit() (Pss21)
               calls direct
    -------------------------------------------------------------------------
CODE
  Relative segment, address: CODE 000009DA - 000009E3 (0xa bytes), align: 1
  Segment part 134.           Intra module refs:   CIndicationAlarmHighLevelDfa::new CIndicationAlarmHighLevelDfa()
           ENTRY                   ADDRESS         REF BY
           =====                   =======         ======
           CIndicationAlarmHighLevelDfa::CIndicationAlarmHighLevelDfa()
                                   000009DA 
               calls direct
    -------------------------------------------------------------------------
CODE
  Relative segment, address: CODE 000009E4 - 000009EB (0x8 bytes), align: 1
  Segment part 135.           Intra module refs:   ?Subroutine3
                                                   ?Subroutine8
                                                   CIndicationAlarmHighLevelDfa::CIndicationAlarmHighLevelDfa()
           LOCAL                   ADDRESS         
           =====                   =======         
           ?Subroutine25           000009E4 
    -------------------------------------------------------------------------
CODE
  Relative segment, address: CODE 000009EC - 000009F3 (0x8 bytes), align: 1
  Segment part 136.
           ENTRY                   ADDRESS         REF BY
           =====                   =======         ======
           CIndicationAlarmHighLevelDfa::new CIndicationAlarmHighLevelDfa()
                                   000009EC        CPss21::ConfigurationInit() (Pss21)
               calls direct
    -------------------------------------------------------------------------
CODE
  Relative segment, address: CODE 000009F4 - 000009FB (0x8 bytes), align: 1
  Segment part 137.           Intra module refs:   CErrorAlarmDfa::new CErrorAlarmDfa()
           ENTRY                   ADDRESS         REF BY
           =====                   =======         ======
           CErrorAlarmDfa::CErrorAlarmDfa()
                                   000009F4 
               calls direct
    -------------------------------------------------------------------------
CODE
  Relative segment, address: CODE 000009FC - 00000A01 (0x6 bytes), align: 1
  Segment part 138.           Intra module refs:   CAlarmDfa::CAlarmDfa()
                                                   CErrorAlarmDfa::CErrorAlarmDfa()
           LOCAL                   ADDRESS         
           =====                   =======         
           ?Subroutine8            000009FC 
    -------------------------------------------------------------------------
CODE
  Relative segment, address: CODE 00000A02 - 00000A0B (0xa bytes), align: 1
  Segment part 139.
           ENTRY                   ADDRESS         REF BY
           =====                   =======         ======
           CErrorAlarmDfa::new CErrorAlarmDfa()
                                   00000A02        CPss21::ConfigurationInit() (Pss21)
               calls direct
    -------------------------------------------------------------------------
CODE
  Relative segment, address: CODE 00000A0C - 00000A0D (0x2 bytes), align: 1
  Segment part 140.           Intra module refs:   ?Subroutine15
                                                   CAlarmDfa::__vtbl
           ENTRY                   ADDRESS         REF BY
           =====                   =======         ======
           CAlarmDfa::~CAlarmDfa()
                                   00000A0C 
               calls direct
    -------------------------------------------------------------------------
CODE
  Relative segment, address: CODE 00000A0E - 00000A87 (0x7a bytes), align: 1
  Segment part 141.           Intra module refs:   CAlarmDfa::__vtbl
                                                   CEmergencyAlarmHighLevelDfa::__vtbl
                                                   CEmergencyAlarmLowLevelDfa::__vtbl
                                                   CNormalAlarmDfa::__vtbl
                                                   CPreventiveAlarmHighLevelDfa::__vtbl
                                                   CPreventiveAlarmLowLevelDfa::__vtbl
           ENTRY                   ADDRESS         REF BY
           =====                   =======         ======
           CAlarmDfa::Fsm()        00000A0E 
               calls direct and indirect
    -------------------------------------------------------------------------
CODE
  Relative segment, address: CODE 00000A88 - 00000A8D (0x6 bytes), align: 1
  Segment part 142.           Intra module refs:   CAlarmDfa::Fsm()
                                                   CErrorAlarmDfa::Fsm()
                                                   CIndicationAlarmLowLevelDfa::Fsm()
           LOCAL                   ADDRESS         
           =====                   =======         
           ?Subroutine37           00000A88 
    -------------------------------------------------------------------------
CODE
  Relative segment, address: CODE 00000A8E - 00000A93 (0x6 bytes), align: 1
  Segment part 143.           Intra module refs:   CAlarmDfa::Fsm()
           LOCAL                   ADDRESS         
           =====                   =======         
           ?Subroutine6            00000A8E 
    -------------------------------------------------------------------------
CODE
  Relative segment, address: CODE 00000A94 - 00000A9B (0x8 bytes), align: 1
  Segment part 144.           Intra module refs:   ?Subroutine5
                                                   ?Subroutine6
                                                   CAlarmDfa::Fsm()
           LOCAL                   ADDRESS         
           =====                   =======         
           ?Subroutine23           00000A94 
    -------------------------------------------------------------------------
CODE
  Relative segment, address: CODE 00000A9C - 00000AAB (0x10 bytes), align: 1
  Segment part 145.           Intra module refs:   CAlarmDfa::Fsm()
           LOCAL                   ADDRESS         
           =====                   =======         
           ?Subroutine1            00000A9C 
    -------------------------------------------------------------------------
CODE
  Relative segment, address: CODE 00000AAC - 00000AAD (0x2 bytes), align: 1
  Segment part 146.           Intra module refs:   CNormalAlarmDfa::__vtbl
           ENTRY                   ADDRESS         REF BY
           =====                   =======         ======
           CNormalAlarmDfa::~CNormalAlarmDfa()
                                   00000AAC 
               calls direct
    -------------------------------------------------------------------------
CODE
  Relative segment, address: CODE 00000AAE - 00000AAF (0x2 bytes), align: 1
  Segment part 147.           Intra module refs:   CPreventiveAlarmLowLevelDfa::__vtbl
           ENTRY                   ADDRESS         REF BY
           =====                   =======         ======
           CPreventiveAlarmLowLevelDfa::~CPreventiveAlarmLowLevelDfa()
                                   00000AAE 
               calls direct
    -------------------------------------------------------------------------
CODE
  Relative segment, address: CODE 00000AB0 - 00000AB1 (0x2 bytes), align: 1
  Segment part 148.           Intra module refs:   CPreventiveAlarmHighLevelDfa::__vtbl
           ENTRY                   ADDRESS         REF BY
           =====                   =======         ======
           CPreventiveAlarmHighLevelDfa::~CPreventiveAlarmHighLevelDfa()
                                   00000AB0 
               calls direct
    -------------------------------------------------------------------------
CODE
  Relative segment, address: CODE 00000AB2 - 00000AB3 (0x2 bytes), align: 1
  Segment part 149.           Intra module refs:   CAlarmDfa::~CAlarmDfa()
                                                   CErrorAlarmDfa::~CErrorAlarmDfa()
           LOCAL                   ADDRESS         
           =====                   =======         
           ?Subroutine36           00000AB2 
    -------------------------------------------------------------------------
CODE
  Relative segment, address: CODE 00000AB4 - 00000AB7 (0x4 bytes), align: 1
  Segment part 150.           Intra module refs:   ?Subroutine36
                                                   ?Subroutine39
                                                   CIndicationAlarmHighLevelDfa::~CIndicationAlarmHighLevelDfa()
    -------------------------------------------------------------------------
CODE
  Relative segment, address: CODE 00000AB8, align: 1
  Segment part 151.           Intra module refs:   CEmergencyAlarmLowLevelDfa::__vtbl
           ENTRY                   ADDRESS         REF BY
           =====                   =======         ======
           CEmergencyAlarmLowLevelDfa::~CEmergencyAlarmLowLevelDfa()
                                   00000AB8 
               calls direct
    -------------------------------------------------------------------------
CODE
  Relative segment, address: CODE 00000AB8 - 00000ABB (0x4 bytes), align: 1
  Segment part 152.           Intra module refs:   CEmergencyAlarmHighLevelDfa::~CEmergencyAlarmHighLevelDfa()
                                                   CEmergencyAlarmLowLevelDfa::~CEmergencyAlarmLowLevelDfa()
                                                   CIndicationAlarmLowLevelDfa::~CIndicationAlarmLowLevelDfa()
                                                   CNormalAlarmDfa::~CNormalAlarmDfa()
                                                   CPreventiveAlarmHighLevelDfa::~CPreventiveAlarmHighLevelDfa()
                                                   CPreventiveAlarmLowLevelDfa::~CPreventiveAlarmLowLevelDfa()
           LOCAL                   ADDRESS         
           =====                   =======         
           ?Subroutine39           00000AB8 
    -------------------------------------------------------------------------
CODE
  Relative segment, address: CODE 00000ABC - 00000AC5 (0xa bytes), align: 1
  Segment part 153.           Intra module refs:   ?Subroutine39
           LOCAL                   ADDRESS         
           =====                   =======         
           ?Subroutine15           00000ABC 
    -------------------------------------------------------------------------
CODE
  Relative segment, address: CODE 00000AC6 - 00000AC9 (0x4 bytes), align: 1
  Segment part 154.           Intra module refs:   ?Subroutine15
                                                   ?Subroutine16
           LOCAL                   ADDRESS         
           =====                   =======         
           ?Subroutine34           00000AC6 
    -------------------------------------------------------------------------
CODE
  Relative segment, address: CODE 00000ACA - 00000ACB (0x2 bytes), align: 1
  Segment part 155.           Intra module refs:   CEmergencyAlarmHighLevelDfa::__vtbl
           ENTRY                   ADDRESS         REF BY
           =====                   =======         ======
           CEmergencyAlarmHighLevelDfa::~CEmergencyAlarmHighLevelDfa()
                                   00000ACA 
               calls direct
    -------------------------------------------------------------------------
CODE
  Relative segment, address: CODE 00000ACC - 00000ACD (0x2 bytes), align: 1
  Segment part 156.           Intra module refs:   CIndicationAlarmHighLevelDfa::~CIndicationAlarmHighLevelDfa()
                                                   CIndicationAlarmLowLevelDfa::__vtbl
           ENTRY                   ADDRESS         REF BY
           =====                   =======         ======
           CIndicationAlarmLowLevelDfa::~CIndicationAlarmLowLevelDfa()
                                   00000ACC 
               calls direct
    -------------------------------------------------------------------------
CODE
  Relative segment, address: CODE 00000ACE - 00000B07 (0x3a bytes), align: 1
  Segment part 157.           Intra module refs:   CIndicationAlarmHighLevelDfa::__vtbl
                                                   CIndicationAlarmLowLevelDfa::__vtbl
           ENTRY                   ADDRESS         REF BY
           =====                   =======         ======
           CIndicationAlarmLowLevelDfa::Fsm()
                                   00000ACE 
               calls direct and indirect
    -------------------------------------------------------------------------
CODE
  Relative segment, address: CODE 00000B08 - 00000B0B (0x4 bytes), align: 1
  Segment part 158.           Intra module refs:   CAlarmDfa::Fsm()
                                                   CErrorAlarmDfa::Fsm()
                                                   CIndicationAlarmLowLevelDfa::Fsm()
           LOCAL                   ADDRESS         
           =====                   =======         
           ?Subroutine18           00000B08 
    -------------------------------------------------------------------------
CODE
  Relative segment, address: CODE 00000B0C - 00000B11 (0x6 bytes), align: 1
  Segment part 159.           Intra module refs:   CAlarmDfa::Fsm()
                                                   CIndicationAlarmLowLevelDfa::Fsm()
           LOCAL                   ADDRESS         
           =====                   =======         
           ?Subroutine14           00000B0C 
    -------------------------------------------------------------------------
CODE
  Relative segment, address: CODE 00000B12 - 00000B15 (0x4 bytes), align: 1
  Segment part 160.           Intra module refs:   ?Subroutine14
                                                   ?Subroutine21
           LOCAL                   ADDRESS         
           =====                   =======         
           ?Subroutine38           00000B12 
    -------------------------------------------------------------------------
CODE
  Relative segment, address: CODE 00000B16 - 00000B17 (0x2 bytes), align: 1
  Segment part 161.           Intra module refs:   CAlarmDfa::Fsm()
                                                   CIndicationAlarmLowLevelDfa::Fsm()
           LOCAL                   ADDRESS         
           =====                   =======         
           ?Subroutine13           00000B16 
    -------------------------------------------------------------------------
CODE
  Relative segment, address: CODE 00000B18 - 00000B1F (0x8 bytes), align: 1
  Segment part 162.           Intra module refs:   ?Subroutine1
                                                   ?Subroutine13
           LOCAL                   ADDRESS         
           =====                   =======         
           ?Subroutine21           00000B18 
    -------------------------------------------------------------------------
CODE
  Relative segment, address: CODE 00000B20 - 00000B25 (0x6 bytes), align: 1
  Segment part 163.           Intra module refs:   CAlarmDfa::Fsm()
                                                   CIndicationAlarmLowLevelDfa::Fsm()
           LOCAL                   ADDRESS         
           =====                   =======         
           ?Subroutine12           00000B20 
    -------------------------------------------------------------------------
CODE
  Relative segment, address: CODE 00000B26 - 00000B2D (0x8 bytes), align: 1
  Segment part 164.           Intra module refs:   CAlarmDfa::Fsm()
                                                   CErrorAlarmDfa::Fsm()
                                                   CIndicationAlarmLowLevelDfa::Fsm()
           LOCAL                   ADDRESS         
           =====                   =======         
           ?Subroutine9            00000B26 
    -------------------------------------------------------------------------
CODE
  Relative segment, address: CODE 00000B2E - 00000B45 (0x18 bytes), align: 1
  Segment part 165.           Intra module refs:   CIndicationAlarmLowLevelDfa::Fsm()
           LOCAL                   ADDRESS         
           =====                   =======         
           ?Subroutine5            00000B2E 
    -------------------------------------------------------------------------
CODE
  Relative segment, address: CODE 00000B46 - 00000B55 (0x10 bytes), align: 1
  Segment part 166.           Intra module refs:   ?Subroutine1
                                                   CAlarmDfa::Fsm()
                                                   CIndicationAlarmLowLevelDfa::Fsm()
           LOCAL                   ADDRESS         
           =====                   =======         
           ?Subroutine19           00000B46 
    -------------------------------------------------------------------------
CODE
  Relative segment, address: CODE 00000B56 - 00000B59 (0x4 bytes), align: 1
  Segment part 167.           Intra module refs:   ?Subroutine19
                                                   ?Subroutine4
           LOCAL                   ADDRESS         
           =====                   =======         
           ?Subroutine35           00000B56 
    -------------------------------------------------------------------------
CODE
  Relative segment, address: CODE 00000B5A - 00000B67 (0xe bytes), align: 1
  Segment part 168.           Intra module refs:   CIndicationAlarmHighLevelDfa::__vtbl
           ENTRY                   ADDRESS         REF BY
           =====                   =======         ======
           CIndicationAlarmHighLevelDfa::~CIndicationAlarmHighLevelDfa()
                                   00000B5A 
               calls direct
    -------------------------------------------------------------------------
CODE
  Relative segment, address: CODE 00000B68 - 00000B6F (0x8 bytes), align: 1
  Segment part 169.           Intra module refs:   ?Subroutine15
                                                   ?Subroutine16
                                                   CIndicationAlarmHighLevelDfa::~CIndicationAlarmHighLevelDfa()
           LOCAL                   ADDRESS         
           =====                   =======         
           ?Subroutine30           00000B68 
    -------------------------------------------------------------------------
CODE
  Relative segment, address: CODE 00000B70 - 00000B7B (0xc bytes), align: 1
  Segment part 170.           Intra module refs:   ?Subroutine15
                                                   ?Subroutine16
                                                   CIndicationAlarmHighLevelDfa::~CIndicationAlarmHighLevelDfa()
           LOCAL                   ADDRESS         
           =====                   =======         
           ?Subroutine28           00000B70 
    -------------------------------------------------------------------------
CODE
  Relative segment, address: CODE 00000B7C - 00000B87 (0xc bytes), align: 1
  Segment part 171.           Intra module refs:   ?Subroutine15
                                                   ?Subroutine16
                                                   CIndicationAlarmHighLevelDfa::~CIndicationAlarmHighLevelDfa()
           LOCAL                   ADDRESS         
           =====                   =======         
           ?Subroutine27           00000B7C 
    -------------------------------------------------------------------------
CODE
  Relative segment, address: CODE 00000B88 - 00000B89 (0x2 bytes), align: 1
  Segment part 172.           Intra module refs:   CErrorAlarmDfa::__vtbl
           ENTRY                   ADDRESS         REF BY
           =====                   =======         ======
           CErrorAlarmDfa::~CErrorAlarmDfa()
                                   00000B88 
               calls direct
    -------------------------------------------------------------------------
CODE
  Relative segment, address: CODE 00000B8A - 00000B97 (0xe bytes), align: 1
  Segment part 173.           Intra module refs:   ?Subroutine36
           LOCAL                   ADDRESS         
           =====                   =======         
           ?Subroutine16           00000B8A 
    -------------------------------------------------------------------------
CODE
  Relative segment, address: CODE 00000B98 - 00000BEB (0x54 bytes), align: 1
  Segment part 174.           Intra module refs:   CErrorAlarmDfa::__vtbl
           ENTRY                   ADDRESS         REF BY
           =====                   =======         ======
           CErrorAlarmDfa::Fsm()   00000B98 
               calls direct and indirect
    -------------------------------------------------------------------------
CODE
  Relative segment, address: CODE 00000BEC - 00000BF3 (0x8 bytes), align: 1
  Segment part 175.           Intra module refs:   CAlarmDfa::Fsm()
                                                   CErrorAlarmDfa::Fsm()
           LOCAL                   ADDRESS         
           =====                   =======         
           ?Subroutine11           00000BEC 
    -------------------------------------------------------------------------
CODE
  Relative segment, address: CODE 00000BF4 - 00000C01 (0xe bytes), align: 1
  Segment part 176.           Intra module refs:   ?Subroutine11
                                                   ?Subroutine12
           LOCAL                   ADDRESS         
           =====                   =======         
           ?Subroutine20           00000BF4 
    -------------------------------------------------------------------------
CODE
  Relative segment, address: CODE 00000C02 - 00000C17 (0x16 bytes), align: 1
  Segment part 177.           Intra module refs:   CAlarmDfa::Fsm()
                                                   CErrorAlarmDfa::Fsm()
           LOCAL                   ADDRESS         
           =====                   =======         
           ?Subroutine7            00000C02 
    -------------------------------------------------------------------------
CODE
  Relative segment, address: CODE 00000C18 - 00000C29 (0x12 bytes), align: 1
  Segment part 178.           Intra module refs:   CErrorAlarmDfa::Fsm()
           LOCAL                   ADDRESS         
           =====                   =======         
           ?Subroutine4            00000C18 
    -------------------------------------------------------------------------
CODE
  Relative segment, address: CODE 00000C2A - 00000C33 (0xa bytes), align: 1
  Segment part 179.           Intra module refs:   ?Subroutine19
                                                   ?Subroutine4
           LOCAL                   ADDRESS         
           =====                   =======         
           ?Subroutine32           00000C2A 
    -------------------------------------------------------------------------
CODE
  Relative segment, address: CODE 00000C34 - 00000C3B (0x8 bytes), align: 1
  Segment part 180.           Intra module refs:   ?Subroutine19
                                                   ?Subroutine20
                                                   ?Subroutine4
                                                   ?Subroutine7
           LOCAL                   ADDRESS         
           =====                   =======         
           ?Subroutine31           00000C34 
    -------------------------------------------------------------------------
CODE
  Relative segment, address: CODE 00000C3C - 00000C3F (0x4 bytes), align: 1
  Segment part 181.           Intra module refs:   CAlarmDfa::__vtbl
           ENTRY                   ADDRESS         REF BY
           =====                   =======         ======
           CAlarmDfa::ALARM_TYPE()
                                   00000C3C 
    -------------------------------------------------------------------------
CODE
  Relative segment, address: CODE 00000C40 - 00000C43 (0x4 bytes), align: 1
  Segment part 182.           Intra module refs:   CAlarmDfa::__vtbl
           ENTRY                   ADDRESS         REF BY
           =====                   =======         ======
           CAlarmDfa::ACTIVE_LEVEL()
                                   00000C40 
    -------------------------------------------------------------------------
CODE
  Relative segment, address: CODE 00000C44 - 00000C47 (0x4 bytes), align: 1
  Segment part 183.           Intra module refs:   CNormalAlarmDfa::__vtbl
           ENTRY                   ADDRESS         REF BY
           =====                   =======         ======
           CNormalAlarmDfa::ALARM_TYPE()
                                   00000C44 
    -------------------------------------------------------------------------
CODE
  Relative segment, address: CODE 00000C48 - 00000C4B (0x4 bytes), align: 1
  Segment part 184.           Intra module refs:   CNormalAlarmDfa::__vtbl
           ENTRY                   ADDRESS         REF BY
           =====                   =======         ======
           CNormalAlarmDfa::ACTIVE_LEVEL()
                                   00000C48 
    -------------------------------------------------------------------------
CODE
  Relative segment, address: CODE 00000C4C - 00000C4F (0x4 bytes), align: 1
  Segment part 185.           Intra module refs:   CPreventiveAlarmLowLevelDfa::__vtbl
           ENTRY                   ADDRESS         REF BY
           =====                   =======         ======
           CPreventiveAlarmLowLevelDfa::ALARM_TYPE()
                                   00000C4C 
    -------------------------------------------------------------------------
CODE
  Relative segment, address: CODE 00000C50 - 00000C53 (0x4 bytes), align: 1
  Segment part 186.           Intra module refs:   CPreventiveAlarmLowLevelDfa::__vtbl
           ENTRY                   ADDRESS         REF BY
           =====                   =======         ======
           CPreventiveAlarmLowLevelDfa::ACTIVE_LEVEL()
                                   00000C50 
    -------------------------------------------------------------------------
CODE
  Relative segment, address: CODE 00000C54 - 00000C57 (0x4 bytes), align: 1
  Segment part 187.           Intra module refs:   CPreventiveAlarmHighLevelDfa::__vtbl
           ENTRY                   ADDRESS         REF BY
           =====                   =======         ======
           CPreventiveAlarmHighLevelDfa::ALARM_TYPE()
                                   00000C54 
    -------------------------------------------------------------------------
CODE
  Relative segment, address: CODE 00000C58 - 00000C5B (0x4 bytes), align: 1
  Segment part 188.           Intra module refs:   CPreventiveAlarmHighLevelDfa::__vtbl
           ENTRY                   ADDRESS         REF BY
           =====                   =======         ======
           CPreventiveAlarmHighLevelDfa::ACTIVE_LEVEL()
                                   00000C58 
    -------------------------------------------------------------------------
CODE
  Relative segment, address: CODE 00000C5C - 00000C5F (0x4 bytes), align: 1
  Segment part 189.           Intra module refs:   CEmergencyAlarmLowLevelDfa::__vtbl
           ENTRY                   ADDRESS         REF BY
           =====                   =======         ======
           CEmergencyAlarmLowLevelDfa::ALARM_TYPE()
                                   00000C5C 
    -------------------------------------------------------------------------
CODE
  Relative segment, address: CODE 00000C60 - 00000C63 (0x4 bytes), align: 1
  Segment part 190.           Intra module refs:   CEmergencyAlarmLowLevelDfa::__vtbl
           ENTRY                   ADDRESS         REF BY
           =====                   =======         ======
           CEmergencyAlarmLowLevelDfa::ACTIVE_LEVEL()
                                   00000C60 
    -------------------------------------------------------------------------
CODE
  Relative segment, address: CODE 00000C64 - 00000C67 (0x4 bytes), align: 1
  Segment part 191.           Intra module refs:   CEmergencyAlarmHighLevelDfa::__vtbl
           ENTRY                   ADDRESS         REF BY
           =====                   =======         ======
           CEmergencyAlarmHighLevelDfa::ALARM_TYPE()
                                   00000C64 
    -------------------------------------------------------------------------
CODE
  Relative segment, address: CODE 00000C68 - 00000C6B (0x4 bytes), align: 1
  Segment part 192.           Intra module refs:   CEmergencyAlarmHighLevelDfa::__vtbl
           ENTRY                   ADDRESS         REF BY
           =====                   =======         ======
           CEmergencyAlarmHighLevelDfa::ACTIVE_LEVEL()
                                   00000C68 
    -------------------------------------------------------------------------
CODE
  Relative segment, address: CODE 00000C6C - 00000C6F (0x4 bytes), align: 1
  Segment part 193.           Intra module refs:   CIndicationAlarmLowLevelDfa::__vtbl
           ENTRY                   ADDRESS         REF BY
           =====                   =======         ======
           CIndicationAlarmLowLevelDfa::ALARM_TYPE()
                                   00000C6C 
    -------------------------------------------------------------------------
CODE
  Relative segment, address: CODE 00000C70 - 00000C73 (0x4 bytes), align: 1
  Segment part 194.           Intra module refs:   CIndicationAlarmLowLevelDfa::__vtbl
           ENTRY                   ADDRESS         REF BY
           =====                   =======         ======
           CIndicationAlarmLowLevelDfa::ACTIVE_LEVEL()
                                   00000C70 
    -------------------------------------------------------------------------
CODE
  Relative segment, address: CODE 00000C74 - 00000C77 (0x4 bytes), align: 1
  Segment part 195.           Intra module refs:   CIndicationAlarmHighLevelDfa::__vtbl
           ENTRY                   ADDRESS         REF BY
           =====                   =======         ======
           CIndicationAlarmHighLevelDfa::ALARM_TYPE()
                                   00000C74 
    -------------------------------------------------------------------------
CODE
  Relative segment, address: CODE 00000C78 - 00000C7B (0x4 bytes), align: 1
  Segment part 196.           Intra module refs:   CIndicationAlarmHighLevelDfa::__vtbl
           ENTRY                   ADDRESS         REF BY
           =====                   =======         ======
           CIndicationAlarmHighLevelDfa::ACTIVE_LEVEL()
                                   00000C78 
    -------------------------------------------------------------------------
CODE
  Relative segment, address: CODE 00000C7C - 00000C7F (0x4 bytes), align: 1
  Segment part 197.           Intra module refs:   CErrorAlarmDfa::__vtbl
           ENTRY                   ADDRESS         REF BY
           =====                   =======         ======
           CErrorAlarmDfa::ALARM_TYPE()
                                   00000C7C 
    -------------------------------------------------------------------------
CODE
  Relative segment, address: CODE 00000C80 - 00000C83 (0x4 bytes), align: 1
  Segment part 198.           Intra module refs:   CErrorAlarmDfa::__vtbl
           ENTRY                   ADDRESS         REF BY
           =====                   =======         ======
           CErrorAlarmDfa::ACTIVE_LEVEL()
                                   00000C80 
    -------------------------------------------------------------------------
ABSOLUTE
  Relative segment, address: DATA 0000001C, align: 0
  Segment part 93. ROOT 
           ENTRY                   ADDRESS         REF BY
           =====                   =======         ======
           __?EECR                 0000001C 
    -------------------------------------------------------------------------
ABSOLUTE
  Relative segment, address: DATA 0000001D, align: 0
  Segment part 94. ROOT 
           ENTRY                   ADDRESS         REF BY
           =====                   =======         ======
           __?EEDR                 0000001D 
    -------------------------------------------------------------------------
ABSOLUTE
  Relative segment, address: DATA 0000001E, align: 0
  Segment part 95. ROOT 
           ENTRY                   ADDRESS         REF BY
           =====                   =======         ======
           __?EEARL                0000001E 
    -------------------------------------------------------------------------
ABSOLUTE
  Relative segment, address: DATA 0000001F, align: 0
  Segment part 96. ROOT 
           ENTRY                   ADDRESS         REF BY
           =====                   =======         ======
           __?EEARH                0000001F 
    -------------------------------------------------------------------------
NEAR_F
  Relative segment, address: CODE 0000008C - 0000008F (0x4 bytes), align: 0
  Segment part 99. ROOT 
           LOCAL                   ADDRESS         
           =====                   =======         
           CDriver::__vtbl         0000008C 
    -------------------------------------------------------------------------
NEAR_F
  Relative segment, address: CODE 00000090 - 00000097 (0x8 bytes), align: 0
  Segment part 100. ROOT      Intra module refs:   CAlarmDfa::CAlarmDfa()
           ENTRY                   ADDRESS         REF BY
           =====                   =======         ======
           CAlarmDfa::__vtbl       00000090 
    -------------------------------------------------------------------------
NEAR_F
  Relative segment, address: CODE 00000098 - 0000009F (0x8 bytes), align: 0
  Segment part 101. ROOT      Intra module refs:   CNormalAlarmDfa::CNormalAlarmDfa()
           ENTRY                   ADDRESS         REF BY
           =====                   =======         ======
           CNormalAlarmDfa::__vtbl
                                   00000098 
    -------------------------------------------------------------------------
NEAR_F
  Relative segment, address: CODE 000000A0 - 000000A7 (0x8 bytes), align: 0
  Segment part 102. ROOT      Intra module refs:   CPreventiveAlarmLowLevelDfa::CPreventiveAlarmLowLevelDfa()
           ENTRY                   ADDRESS         REF BY
           =====                   =======         ======
           CPreventiveAlarmLowLevelDfa::__vtbl
                                   000000A0 
    -------------------------------------------------------------------------
NEAR_F
  Relative segment, address: CODE 000000A8 - 000000AF (0x8 bytes), align: 0
  Segment part 103. ROOT      Intra module refs:   CPreventiveAlarmHighLevelDfa::CPreventiveAlarmHighLevelDfa()
           ENTRY                   ADDRESS         REF BY
           =====                   =======         ======
           CPreventiveAlarmHighLevelDfa::__vtbl
                                   000000A8 
    -------------------------------------------------------------------------
NEAR_F
  Relative segment, address: CODE 000000B0 - 000000B7 (0x8 bytes), align: 0
  Segment part 104. ROOT      Intra module refs:   CEmergencyAlarmLowLevelDfa::CEmergencyAlarmLowLevelDfa()
           ENTRY                   ADDRESS         REF BY
           =====                   =======         ======
           CEmergencyAlarmLowLevelDfa::__vtbl
                                   000000B0 
    -------------------------------------------------------------------------
NEAR_F
  Relative segment, address: CODE 000000B8 - 000000BF (0x8 bytes), align: 0
  Segment part 105. ROOT      Intra module refs:   CEmergencyAlarmHighLevelDfa::CEmergencyAlarmHighLevelDfa()
           ENTRY                   ADDRESS         REF BY
           =====                   =======         ======
           CEmergencyAlarmHighLevelDfa::__vtbl
                                   000000B8 
    -------------------------------------------------------------------------
NEAR_F
  Relative segment, address: CODE 000000C0 - 000000C7 (0x8 bytes), align: 0
  Segment part 106. ROOT      Intra module refs:   CIndicationAlarmLowLevelDfa::CIndicationAlarmLowLevelDfa()
           ENTRY                   ADDRESS         REF BY
           =====                   =======         ======
           CIndicationAlarmLowLevelDfa::__vtbl
                                   000000C0 
    -------------------------------------------------------------------------
NEAR_F
  Relative segment, address: CODE 000000C8 - 000000CF (0x8 bytes), align: 0
  Segment part 107. ROOT      Intra module refs:   CIndicationAlarmHighLevelDfa::CIndicationAlarmHighLevelDfa()
           ENTRY                   ADDRESS         REF BY
           =====                   =======         ======
           CIndicationAlarmHighLevelDfa::__vtbl
                                   000000C8 
    -------------------------------------------------------------------------
NEAR_F
  Relative segment, address: CODE 000000D0 - 000000D7 (0x8 bytes), align: 0
  Segment part 108. ROOT      Intra module refs:   CErrorAlarmDfa::CErrorAlarmDfa()
           ENTRY                   ADDRESS         REF BY
           =====                   =======         ======
           CErrorAlarmDfa::__vtbl
                                   000000D0 
    -------------------------------------------------------------------------
NEAR_F
  Relative segment, address: CODE 000000D8 - 000000DF (0x8 bytes), align: 0
  Segment part 109. ROOT 
           LOCAL                   ADDRESS         
           =====                   =======         
           CTaskInterface::__vtbl
                                   000000D8 
    -------------------------------------------------------------------------
NEAR_F
  Relative segment, address: CODE 000000E0 - 000000E9 (0xa bytes), align: 0
  Segment part 110. ROOT 
           LOCAL                   ADDRESS         
           =====                   =======         
           CIsRegularButtonPressedInterface::__vtbl
                                   000000E0 

    *************************************************************************

  FILE NAME : D:\Projects\CurrentProjects\CautoProjects\PSS48Color\Debug\Obj\AlarmWindow.r90
  PROGRAM MODULE, NAME : AlarmWindow

  SEGMENTS IN THE MODULE
  ======================
CODE
  Relative segment, address: CODE 00000C84 - 00000C99 (0x16 bytes), align: 1
  Segment part 100.
           ENTRY                   ADDRESS         REF BY
           =====                   =======         ======
           CAlarmWindow::CAlarmWindow()
                                   00000C84        __sti__routine() (Pss21)
    -------------------------------------------------------------------------
CODE
  Relative segment, address: CODE 00000C9A - 00000CA9 (0x10 bytes), align: 1
  Segment part 102.           Intra module refs:   CAlarmWindow::__vtbl
           ENTRY                   ADDRESS         REF BY
           =====                   =======         ======
           CAlarmWindow::~CAlarmWindow()
                                   00000C9A        <Unnamed 11> (Pss21)
               calls direct
    -------------------------------------------------------------------------
NEAR_F
  Relative segment, address: CODE 000000EA - 000000EB (0x2 bytes), align: 0
  Segment part 99. ROOT       Intra module refs:   CAlarmWindow::CAlarmWindow()
           ENTRY                   ADDRESS         REF BY
           =====                   =======         ======
           CAlarmWindow::__vtbl    000000EA 

    *************************************************************************

  FILE NAME : D:\Projects\CurrentProjects\CautoProjects\PSS48Color\Debug\Obj\Buzzer.r90
  PROGRAM MODULE, NAME : Buzzer

  SEGMENTS IN THE MODULE
  ======================
CODE
  Relative segment, address: CODE 00000CAA - 00000CB9 (0x10 bytes), align: 1
  Segment part 103.           Intra module refs:   CBuzzer::__vtbl
           ENTRY                   ADDRESS         REF BY
           =====                   =======         ======
           CBuzzer::~CBuzzer()     00000CAA 
               calls direct
    -------------------------------------------------------------------------
CODE
  Relative segment, address: CODE 00000CBA - 00000CC3 (0xa bytes), align: 1
  Segment part 104.
           ENTRY                   ADDRESS         REF BY
           =====                   =======         ======
           CBuzzer::Init()         00000CBA        CPss21::MainFsm() (Pss21)
    -------------------------------------------------------------------------
CODE
  Relative segment, address: CODE 00000CC4 - 00000CC9 (0x6 bytes), align: 1
  Segment part 105.
           ENTRY                   ADDRESS         REF BY
           =====                   =======         ======
           CBuzzer::LowOn()        00000CC4        CBuzzerNotifyerControl::NotifyerPreventiveOn() (NotifyerControl)
               calls direct
    -------------------------------------------------------------------------
CODE
  Relative segment, address: CODE 00000CCA - 00000CCD (0x4 bytes), align: 1
  Segment part 106.
           ENTRY                   ADDRESS         REF BY
           =====                   =======         ======
           CBuzzer::HighOn()       00000CCA        CBuzzerNotifyerControl::NotifyerEmergencyOn() (NotifyerControl)
               calls direct
    -------------------------------------------------------------------------
CODE
  Relative segment, address: CODE 00000CCE - 00000CD7 (0xa bytes), align: 1
  Segment part 107.           Intra module refs:   CBuzzer::HighOn()
                                                   CBuzzer::LowOn()
           LOCAL                   ADDRESS         
           =====                   =======         
           ?Subroutine1            00000CCE 
    -------------------------------------------------------------------------
CODE
  Relative segment, address: CODE 00000CD8 - 00000CDF (0x8 bytes), align: 1
  Segment part 108.
           ENTRY                   ADDRESS         REF BY
           =====                   =======         ======
           CBuzzer::Off()          00000CD8        ?Subroutine34 (NotifyerControl)
                                                   CBuzzerNotifyerControl::NotifyerOff() (NotifyerControl)
               calls direct
    -------------------------------------------------------------------------
NEAR_F
  Relative segment, address: CODE 000000EC - 000000ED (0x2 bytes), align: 0
  Segment part 99. ROOT 
           ENTRY                   ADDRESS         REF BY
           =====                   =======         ======
           CBuzzer::__vtbl         000000EC 

    *************************************************************************

  FILE NAME : D:\Projects\CurrentProjects\CautoProjects\PSS48Color\Debug\Obj\Crc.r90
  PROGRAM MODULE, NAME : Crc

  SEGMENTS IN THE MODULE
  ======================
NEAR_F
  Relative segment, address: CODE 000000EE - 000002ED (0x200 bytes), align: 0
  Segment part 7. ROOT        Intra module refs:   usCrc16(unsigned char const *, uint16_t)
           LOCAL                   ADDRESS         
           =====                   =======         
           usCRCTable              000000EE 
    -------------------------------------------------------------------------
CODE
  Relative segment, address: CODE 00000CE0 - 00000D0D (0x2e bytes), align: 1
  Segment part 8.
           ENTRY                   ADDRESS         REF BY
           =====                   =======         ======
           usCrc16(unsigned char const *, uint16_t)
                                   00000CE0        ?Subroutine11 (DataStore)
                                                   ?Subroutine32 (ModbusRTU)
                                                   CDataStore::Write(uint8_t *, uint16_t, uint8_t) (DataStore)
                                                   CFlash::ReadBlock(uint8_t *, uint8_t) (Platform)
    -------------------------------------------------------------------------
CODE
  Relative segment, address: CODE 00000D0E - 00000D11 (0x4 bytes), align: 1
  Segment part 9.             Intra module refs:   usCrc16(unsigned char const *, uint16_t)
                                                   usCrcSummTwoByteCalculation(unsigned char *, unsigned int)
           LOCAL                   ADDRESS         
           =====                   =======         
           ?Subroutine1            00000D0E 
    -------------------------------------------------------------------------
CODE
  Relative segment, address: CODE 00000D12 - 00000D15 (0x4 bytes), align: 1
  Segment part 10.
           ENTRY                   ADDRESS         REF BY
           =====                   =======         ======
           usCrcSummTwoByteCalculation(unsigned char *, unsigned int)
                                   00000D12        CModuleMrXXDriver::Exchange() (ModuleMrXX)
                                                   CModuleMrXXDriver::WriteDataBase() (ModuleMrXX)
    -------------------------------------------------------------------------
CODE
  Relative segment, address: CODE 00000D16 - 00000D29 (0x14 bytes), align: 1
  Segment part 11.
           ENTRY                   ADDRESS         REF BY
           =====                   =======         ======
           iCrcSummTwoByteCompare(unsigned char *, unsigned int)
                                   00000D16        CModuleMrXXDriver::Exchange() (ModuleMrXX)
    -------------------------------------------------------------------------
CODE
  Relative segment, address: CODE 00000D2A - 00000D2D (0x4 bytes), align: 1
  Segment part 12.            Intra module refs:   iCrcSummOneByteCompare(unsigned char *, unsigned int)
                                                   iCrcSummTwoByteCompare(unsigned char *, unsigned int)
           LOCAL                   ADDRESS         
           =====                   =======         
           ?Subroutine2            00000D2A 
    -------------------------------------------------------------------------
CODE
  Relative segment, address: CODE 00000D2E - 00000D45 (0x18 bytes), align: 1
  Segment part 13.            Intra module refs:   iCrcSummTwoByteCompare(unsigned char *, unsigned int)
                                                   usCrcSummTwoByteCalculation(unsigned char *, unsigned int)
           LOCAL                   ADDRESS         
           =====                   =======         
           ?Subroutine0            00000D2E 
    -------------------------------------------------------------------------
CODE
  Relative segment, address: CODE 00000D46 - 00000D63 (0x1e bytes), align: 1
  Segment part 15.
           ENTRY                   ADDRESS         REF BY
           =====                   =======         ======
           iCrcSummOneByteCompare(unsigned char *, unsigned int)
                                   00000D46        CMvsn21Driver::DataExchange() (Mvsn21)
                                                   CPss21::SearchModules() (Pss21)

    *************************************************************************

  FILE NAME : D:\Projects\CurrentProjects\CautoProjects\PSS48Color\Debug\Obj\DataBase.r90
  PROGRAM MODULE, NAME : DataBase

  SEGMENTS IN THE MODULE
  ======================
CODE
  Relative segment, address: CODE 00000D64 - 00000DE9 (0x86 bytes), align: 1
  Segment part 102.           Intra module refs:   CDataBase::Check()
           ENTRY                   ADDRESS         REF BY
           =====                   =======         ======
           CDataBase::RestoreDefault()
                                   00000D64 
               calls direct
    -------------------------------------------------------------------------
CODE
  Relative segment, address: CODE 00000DEA - 00000DED (0x4 bytes), align: 1
  Segment part 104.
           ENTRY                   ADDRESS         REF BY
           =====                   =======         ======
           CDataBase::SignatureCreate()
                                   00000DEA        CModbus::Programming(uint8_t *, uint8_t *, uint16_t) (modbus)
                                                   CPss21::SetModeModbusRtuLinkControlInProgress(bool) (Pss21)
               calls direct
    -------------------------------------------------------------------------
CODE
  Relative segment, address: CODE 00000DEE - 00000E23 (0x36 bytes), align: 1
  Segment part 106.
           ENTRY                   ADDRESS         REF BY
           =====                   =======         ======
           CDataBase::Check()      00000DEE        CPss21::MainFsm() (Pss21)
               calls direct
    -------------------------------------------------------------------------
CODE
  Relative segment, address: CODE 00000E24 - 00000E29 (0x6 bytes), align: 1
  Segment part 107.
           ENTRY                   ADDRESS         REF BY
           =====                   =======         ======
           CDataBase::ReadBlock(uint8_t *, uint8_t)
                                   00000E24        ?Subroutine96 (Pss21)
                                                   CModbus::Programming(uint8_t *, uint8_t *, uint16_t) (modbus)
               calls direct
    -------------------------------------------------------------------------
CODE
  Relative segment, address: CODE 00000E2A - 00000E3F (0x16 bytes), align: 1
  Segment part 108.           Intra module refs:   CDataBase::WriteBlock(uint8_t *, uint8_t)
           ENTRY                   ADDRESS         REF BY
           =====                   =======         ======
           CDataBase::GetBlockLength(uint8_t)
                                   00000E2A        CModbus::Programming(uint8_t *, uint8_t *, uint16_t) (modbus)
    -------------------------------------------------------------------------
CODE
  Relative segment, address: CODE 00000E40 - 00000E43 (0x4 bytes), align: 1
  Segment part 109.           Intra module refs:   CDataBase::GetBlockLength(uint8_t)
                                                   CDataBase::WriteBlock(uint8_t *, uint8_t)
           LOCAL                   ADDRESS         
           =====                   =======         
           ?Subroutine0            00000E40 
    -------------------------------------------------------------------------
CODE
  Relative segment, address: CODE 00000E44 - 00000E57 (0x14 bytes), align: 1
  Segment part 110.
           ENTRY                   ADDRESS         REF BY
           =====                   =======         ======
           CDataBase::WriteBlock(uint8_t *, uint8_t)
                                   00000E44        CModbus::Programming(uint8_t *, uint8_t *, uint16_t) (modbus)
                                                   CPss21::SetModeModbusRtuLinkControlInProgress(bool) (Pss21)
               calls direct
    -------------------------------------------------------------------------
NEAR_F
  Relative segment, address: CODE 000002EE - 000002F1 (0x4 bytes), align: 0
  Segment part 99. ROOT 
           LOCAL                   ADDRESS         
           =====                   =======         
           CDriver::__vtbl         000002EE 
    -------------------------------------------------------------------------
NEAR_F
  Relative segment, address: CODE 000002F2 - 000002F9 (0x8 bytes), align: 0
  Segment part 100. ROOT 
           LOCAL                   ADDRESS         
           =====                   =======         
           CTaskInterface::__vtbl
                                   000002F2 
    -------------------------------------------------------------------------
NEAR_F
  Relative segment, address: CODE 000002FA - 00000303 (0xa bytes), align: 0
  Segment part 101. ROOT 
           LOCAL                   ADDRESS         
           =====                   =======         
           CIsRegularButtonPressedInterface::__vtbl
                                   000002FA 

    *************************************************************************

  FILE NAME : D:\Projects\CurrentProjects\CautoProjects\PSS48Color\Debug\Obj\DataStore.r90
  PROGRAM MODULE, NAME : DataStore

  SEGMENTS IN THE MODULE
  ======================
NEAR_Z
  Relative segment, address: DATA 0000079A - 000007FD (0x64 bytes), align: 0
  Segment part 102. ROOT      Intra module refs:   ?Subroutine1
                                                   ?Subroutine10
                                                   ?Subroutine5
                                                   CDataStore::Check()
                                                   CDataStore::Fsm()
                                                   CDataStore::Init()
                                                   CDataStore::ReadBlock(uint8_t *, uint8_t)
                                                   CDataStore::Write(uint8_t *, uint16_t, uint8_t)
           ENTRY                   ADDRESS         REF BY
           =====                   =======         ======
           CDataStore::m_xBlocksControlData
                                   0000079A        CDataBase::GetBlockLength(uint8_t) (DataBase)
    -------------------------------------------------------------------------
NEAR_Z
  Relative segment, address: DATA 000007FE - 00000815 (0x18 bytes), align: 0
  Segment part 104. ROOT      Intra module refs:   CDataStore::CompareCurrentWithStoredCrc()
                                                   CDataStore::ReadBlock(uint8_t *, uint8_t)
           ENTRY                   ADDRESS         REF BY
           =====                   =======         ======
           CDataStore::m_auiBlocksCurrentCrc
                                   000007FE 
    -------------------------------------------------------------------------
NEAR_I
  Relative segment, address: DATA 00000740 - 00000745 (0x6 bytes), align: 0
  Segment part 106. ROOT      Intra module refs:   __sti__routine()
    -------------------------------------------------------------------------
CODE
  Relative segment, address: CODE 00000E58 - 00000E67 (0x10 bytes), align: 1
  Segment part 111.           Intra module refs:   Segment part 110
           LOCAL                   ADDRESS         
           =====                   =======         
           __sti__routine()        00000E58 
               calls direct
    -------------------------------------------------------------------------
CODE
  Relative segment, address: CODE 00000E68 - 00000E6F (0x8 bytes), align: 1
  Segment part 112.           Intra module refs:   Segment part 107
           LOCAL                   ADDRESS         
           =====                   =======         
           <Unnamed 0>             00000E68 
               calls direct
    -------------------------------------------------------------------------
NEAR_Z
  Relative segment, address: DATA 00000816 - 0000081F (0xa bytes), align: 0
  Segment part 105. ROOT      Intra module refs:   ?Subroutine13
                                                   ?Subroutine3
                                                   ?Subroutine6
                                                   ?Subroutine8
                                                   CDataStore::Check()
                                                   CDataStore::Fsm()
                                                   CDataStore::Init()
                                                   CDataStore::Write(uint8_t *, uint16_t, uint8_t)
                                                   CDataStore::WriteBlock(uint8_t *, uint16_t, uint8_t)
                                                   Segment part 107
                                                   __sti__routine()
           ENTRY                   ADDRESS         REF BY
           =====                   =======         ======
           CDataStore::m_puiIntermediateBuff
                                   00000816 
           CDataStore::m_uiFsmEvent
                                   00000819        CDataBase::RestoreDefault() (DataBase)
                                                   CModbus::PollProgramming(uint8_t *, uint8_t *, uint16_t) (modbus)
                                                   CModbus::Programming(uint8_t *, uint8_t *, uint16_t) (modbus)
           CDataStore::m_uiFsmState
                                   00000818 
           CDataStore::m_xTimer    0000081A 
    -------------------------------------------------------------------------
NEAR_Z
  Relative segment, address: DATA 00000820 - 00000821 (0x2 bytes), align: 0
  Segment part 109. ROOT      Intra module refs:   Segment part 107
    -------------------------------------------------------------------------
CODE
  Relative segment, address: CODE 00000E70 - 00000ECF (0x60 bytes), align: 1
  Segment part 113.           Intra module refs:   CDataStore::Check()
           ENTRY                   ADDRESS         REF BY
           =====                   =======         ======
           CDataStore::Init()      00000E70        CDataBase::RestoreDefault() (DataBase)
               calls direct
    -------------------------------------------------------------------------
CODE
  Relative segment, address: CODE 00000ED0 - 00000F5B (0x8c bytes), align: 1
  Segment part 114.           Intra module refs:   CDataStore::Check()
           ENTRY                   ADDRESS         REF BY
           =====                   =======         ======
           CDataStore::ReadBlock(uint8_t *, uint8_t)
                                   00000ED0        CDataBase::ReadBlock(uint8_t *, uint8_t) (DataBase)
               calls direct
    -------------------------------------------------------------------------
CODE
  Relative segment, address: CODE 00000F5C - 00000FF1 (0x96 bytes), align: 1
  Segment part 115.           Intra module refs:   CDataStore::Fsm()
                                                   CDataStore::WriteBlock(uint8_t *, uint16_t, uint8_t)
           ENTRY                   ADDRESS         REF BY
           =====                   =======         ======
           CDataStore::Write(uint8_t *, uint16_t, uint8_t)
                                   00000F5C 
               calls direct
    -------------------------------------------------------------------------
CODE
  Relative segment, address: CODE 00000FF2 - 00000FF7 (0x6 bytes), align: 1
  Segment part 116.           Intra module refs:   CDataStore::Check()
                                                   CDataStore::Write(uint8_t *, uint16_t, uint8_t)
           LOCAL                   ADDRESS         
           =====                   =======         
           ?Subroutine14           00000FF2 
    -------------------------------------------------------------------------
CODE
  Relative segment, address: CODE 00000FF8 - 00001001 (0xa bytes), align: 1
  Segment part 117.           Intra module refs:   CDataStore::Write(uint8_t *, uint16_t, uint8_t)
           LOCAL                   ADDRESS         
           =====                   =======         
           ?Subroutine5            00000FF8 
    -------------------------------------------------------------------------
CODE
  Relative segment, address: CODE 00001002 - 0000101F (0x1e bytes), align: 1
  Segment part 118.           Intra module refs:   CDataStore::Check()
           ENTRY                   ADDRESS         REF BY
           =====                   =======         ======
           CDataStore::WriteBlock(uint8_t *, uint16_t, uint8_t)
                                   00001002        CDataBase::RestoreDefault() (DataBase)
                                                   CDataBase::WriteBlock(uint8_t *, uint8_t) (DataBase)
               calls direct
    -------------------------------------------------------------------------
CODE
  Relative segment, address: CODE 00001020 - 00001025 (0x6 bytes), align: 1
  Segment part 119.           Intra module refs:   CDataStore::Fsm()
                                                   CDataStore::WriteBlock(uint8_t *, uint16_t, uint8_t)
           LOCAL                   ADDRESS         
           =====                   =======         
           ?Subroutine13           00001020 
    -------------------------------------------------------------------------
CODE
  Relative segment, address: CODE 00001026 - 0000102D (0x8 bytes), align: 1
  Segment part 120.           Intra module refs:   CDataStore::Fsm()
                                                   CDataStore::WriteBlock(uint8_t *, uint16_t, uint8_t)
           LOCAL                   ADDRESS         
           =====                   =======         
           ?Subroutine6            00001026 
    -------------------------------------------------------------------------
CODE
  Relative segment, address: CODE 0000102E - 00001065 (0x38 bytes), align: 1
  Segment part 121.
           ENTRY                   ADDRESS         REF BY
           =====                   =======         ======
           CDataStore::CompareCurrentWithStoredCrc()
                                   0000102E        CDataBase::Check() (DataBase)
               calls direct
    -------------------------------------------------------------------------
CODE
  Relative segment, address: CODE 00001066 - 0000106F (0xa bytes), align: 1
  Segment part 122.
           ENTRY                   ADDRESS         REF BY
           =====                   =======         ======
           CDataStore::CrcOfBlocksCrcCreate()
                                   00001066        CDataBase::SignatureCreate() (DataBase)
               calls direct
    -------------------------------------------------------------------------
CODE
  Relative segment, address: CODE 00001070 - 00001077 (0x8 bytes), align: 1
  Segment part 123.           Intra module refs:   CDataStore::CrcOfBlocksCrcCheck()
                                                   CDataStore::CrcOfBlocksCrcCreate()
           LOCAL                   ADDRESS         
           =====                   =======         
           ?Subroutine12           00001070 
    -------------------------------------------------------------------------
CODE
  Relative segment, address: CODE 00001078 - 0000107D (0x6 bytes), align: 1
  Segment part 124.           Intra module refs:   ?Subroutine4
                                                   CDataStore::CrcOfBlocksCrcCreate()
                                                   CDataStore::Init()
                                                   CDataStore::Write(uint8_t *, uint16_t, uint8_t)
           LOCAL                   ADDRESS         
           =====                   =======         
           ?Subroutine9            00001078 
    -------------------------------------------------------------------------
CODE
  Relative segment, address: CODE 0000107E - 00001097 (0x1a bytes), align: 1
  Segment part 125.
           ENTRY                   ADDRESS         REF BY
           =====                   =======         ======
           CDataStore::CrcOfBlocksCrcCheck()
                                   0000107E        CDataBase::Check() (DataBase)
               calls direct
    -------------------------------------------------------------------------
CODE
  Relative segment, address: CODE 00001098 - 000010A5 (0xe bytes), align: 1
  Segment part 126.           Intra module refs:   CDataStore::CrcOfBlocksCrcCheck()
                                                   CDataStore::CrcOfBlocksCrcCreate()
           LOCAL                   ADDRESS         
           =====                   =======         
           ?Subroutine7            00001098 
    -------------------------------------------------------------------------
CODE
  Relative segment, address: CODE 000010A6 - 000010BF (0x1a bytes), align: 1
  Segment part 127.           Intra module refs:   CDataStore::CrcOfBlocksCrcCheck()
                                                   CDataStore::CrcOfBlocksCrcCreate()
           LOCAL                   ADDRESS         
           =====                   =======         
           ?Subroutine4            000010A6 
    -------------------------------------------------------------------------
CODE
  Relative segment, address: CODE 000010C0 - 000010CF (0x10 bytes), align: 1
  Segment part 128.           Intra module refs:   ?Subroutine4
                                                   CDataStore::CompareCurrentWithStoredCrc()
           LOCAL                   ADDRESS         
           =====                   =======         
           ?Subroutine10           000010C0 
    -------------------------------------------------------------------------
CODE
  Relative segment, address: CODE 000010D0 - 000010DB (0xc bytes), align: 1
  Segment part 129.           Intra module refs:   CDataStore::CrcOfBlocksCrcCheck()
                                                   CDataStore::CrcOfBlocksCrcCreate()
           LOCAL                   ADDRESS         
           =====                   =======         
           ?Subroutine1            000010D0 
    -------------------------------------------------------------------------
CODE
  Relative segment, address: CODE 000010DC - 000010E1 (0x6 bytes), align: 1
  Segment part 130.           Intra module refs:   ?Subroutine1
                                                   CDataStore::ReadBlock(uint8_t *, uint8_t)
           LOCAL                   ADDRESS         
           =====                   =======         
           ?Subroutine11           000010DC 
    -------------------------------------------------------------------------
CODE
  Relative segment, address: CODE 000010E2 - 0000115F (0x7e bytes), align: 1
  Segment part 131.           Intra module refs:   CDataStore::Check()
           ENTRY                   ADDRESS         REF BY
           =====                   =======         ======
           CDataStore::Fsm()       000010E2        ?Subroutine99 (Pss21)
                                                   CDataBase::RestoreDefault() (DataBase)
               calls direct
    -------------------------------------------------------------------------
CODE
  Relative segment, address: CODE 00001160 - 0000116B (0xc bytes), align: 1
  Segment part 132.           Intra module refs:   CDataStore::Fsm()
           LOCAL                   ADDRESS         
           =====                   =======         
           ?Subroutine3            00001160 
    -------------------------------------------------------------------------
CODE
  Relative segment, address: CODE 0000116C - 0000116F (0x4 bytes), align: 1
  Segment part 133.           Intra module refs:   CDataStore::Fsm()
           LOCAL                   ADDRESS         
           =====                   =======         
           ?Subroutine2            0000116C 
    -------------------------------------------------------------------------
CODE
  Relative segment, address: CODE 00001170 - 00001177 (0x8 bytes), align: 1
  Segment part 134.           Intra module refs:   ?Subroutine0
                                                   ?Subroutine2
           LOCAL                   ADDRESS         
           =====                   =======         
           ?Subroutine8            00001170 
    -------------------------------------------------------------------------
CODE
  Relative segment, address: CODE 00001178 - 00001181 (0xa bytes), align: 1
  Segment part 135.           Intra module refs:   CDataStore::Fsm()
           LOCAL                   ADDRESS         
           =====                   =======         
           ?Subroutine0            00001178 
    -------------------------------------------------------------------------
CODE
  Relative segment, address: CODE 00001182 - 0000122F (0xae bytes), align: 1
  Segment part 136.
           ENTRY                   ADDRESS         REF BY
           =====                   =======         ======
           CDataStore::Check()     00001182        CDataBase::Check() (DataBase)
               calls direct
    -------------------------------------------------------------------------
CODE
  Relative segment, address: CODE 00001230 - 00001233 (0x4 bytes), align: 1
  Segment part 137.
           ENTRY                   ADDRESS         REF BY
           =====                   =======         ======
           CDataStore::ReadBlockFlash(uint8_t *, uint8_t)
                                   00001230        CDataBase::RestoreDefault() (DataBase)
               calls direct
    -------------------------------------------------------------------------
CODE
  Relative segment, address: CODE 00001234 - 0000123D (0xa bytes), align: 1
  Segment part 138.           Intra module refs:   ?Subroutine0
           ENTRY                   ADDRESS         REF BY
           =====                   =======         ======
           CEeprom::StartWrite()   00001234 
    -------------------------------------------------------------------------
INITTAB
  Relative segment, address: CODE 00004BEC - 00004BF2 (0x7 bytes), align: 0
  Segment part 103.           Intra module refs:   CDataStore::m_auiBlocksCurrentCrc
                                                   CDataStore::m_xBlocksControlData
                                                   CHammingCodes::m_uiErrorCode (HammingCodes)
                                                   CLightBoard::m_auiBoardLampsControl (LightBoard)
                                                   CPlatform::m_pxUart1 (Platform)
                                                   CPlatform::m_uiSystemTick (Platform)
                                                   CPlatform::m_uiWatchDogStepID (Platform)
                                                   CPss21::m_apxAlarmDfa (Pss21)
                                                   CPss21::m_aucRtuDiscreteDataArray (Pss21)
                                                   CPss21::m_aucRtuHoldingRegistersArray (Pss21)
                                                   CPss21::m_auiIntermediateBuff (Pss21)
                                                   CPss21::m_auiReceiveMessageBuff (Pss21)
                                                   CPss21::m_auiSpiRxBuffer (Pss21)
                                                   CPss21::m_auiSpiTxBuffer (Pss21)
                                                   CPss21::m_axAlarmWindowControl (Pss21)
                                                   CPss21::m_axDiscreteOutputControl (Pss21)
                                                   CPss21::m_uiType (Pss21)
                                                   CPss21::m_xModbusRtuOne (Pss21)
                                                   CPss21::m_xUart1 (Pss21)
                                                   Segment part 104 (Pss21)
                                                   Segment part 105
                                                   Segment part 109
                                                   Segment part 110 (Pss21)
                                                   Segment part 111 (Platform)
                                                   Segment part 116 (Pss21)
                                                   Segment part 118 (Pss21)
                                                   Segment part 119 (Pss21)
                                                   Segment part 120 (Pss21)
                                                   Segment part 121 (Pss21)
                                                   Segment part 122 (Pss21)
                                                   Segment part 123 (Pss21)
                                                   Segment part 124 (Pss21)
                                                   Segment part 125 (Pss21)
                                                   Segment part 126 (Pss21)
                                                   Segment part 127 (Pss21)
                                                   Segment part 128 (Pss21)
                                                   Segment part 129 (Pss21)
                                                   Segment part 133 (Pss21)
                                                   Segment part 3 (?cppinit)
                                                   Segment part 3 (?xgetmemchunk)
                                                   __iar_New_hand (?new)
                                                   __near_Aldata (?xxmemxmalloc)
           ENTRY                   ADDRESS         REF BY
           =====                   =======         ======
           ?<Segment init: NEAR_Z>
                                   00004BEC 
    -------------------------------------------------------------------------
NEAR_ID
  Relative segment, address: CODE 00004BFA - 00004BFF (0x6 bytes), align: 0
  Segment part 107. ROOT      Intra module refs:   Segment part 106
    -------------------------------------------------------------------------
INITTAB
  Relative segment, address: CODE 00004BF3 - 00004BF9 (0x7 bytes), align: 0
  Segment part 108.           Intra module refs:   Segment part 106
                                                   Segment part 113 (Pss21)
           ENTRY                   ADDRESS         REF BY
           =====                   =======         ======
           ?<Segment init: NEAR_I>
                                   00004BF3 
    -------------------------------------------------------------------------
DIFUNCT
  Relative segment, address: CODE 0000093E - 0000093F (0x2 bytes), align: 0
  Segment part 110. ROOT 
    -------------------------------------------------------------------------
NEAR_F
  Relative segment, address: CODE 00000304 - 00000307 (0x4 bytes), align: 0
  Segment part 99. ROOT 
           LOCAL                   ADDRESS         
           =====                   =======         
           CDriver::__vtbl         00000304 
    -------------------------------------------------------------------------
NEAR_F
  Relative segment, address: CODE 00000308 - 0000030F (0x8 bytes), align: 0
  Segment part 100. ROOT 
           LOCAL                   ADDRESS         
           =====                   =======         
           CTaskInterface::__vtbl
                                   00000308 
    -------------------------------------------------------------------------
NEAR_F
  Relative segment, address: CODE 00000310 - 00000319 (0xa bytes), align: 0
  Segment part 101. ROOT 
           LOCAL                   ADDRESS         
           =====                   =======         
           CIsRegularButtonPressedInterface::__vtbl
                                   00000310 

    *************************************************************************

  FILE NAME : D:\Projects\CurrentProjects\CautoProjects\PSS48Color\Debug\Obj\Dfa.r90
  PROGRAM MODULE, NAME : Dfa

  SEGMENTS IN THE MODULE
  ======================
CODE
  Relative segment, address: CODE 0000123E - 0000124D (0x10 bytes), align: 1
  Segment part 104.           Intra module refs:   CDfa::CDfa()
           ENTRY                   ADDRESS         REF BY
           =====                   =======         ======
           CDfaLite::CDfaLite()    0000123E        ?Subroutine8 (Alarm)
    -------------------------------------------------------------------------
CODE
  Relative segment, address: CODE 0000124E - 00001269 (0x1c bytes), align: 1
  Segment part 107.
           ENTRY                   ADDRESS         REF BY
           =====                   =======         ======
           CDfa::CDfa()            0000124E        ?Subroutine0 (ModuleMrXX)
                                                   ?Subroutine2 (InputDevice)
                                                   CEvent::CEvent() (Event)
                                                   CLinkControl::CLinkControl() (LinkControl)
                                                   CModbus::CModbus() (modbus)
                                                   CMvsn21Driver::CMvsn21Driver(uint8_t) (Mvsn21)
                                                   CNotifyerControl::CNotifyerControl() (NotifyerControl)
               calls direct
    -------------------------------------------------------------------------
CODE
  Relative segment, address: CODE 0000126A - 0000126B (0x2 bytes), align: 1
  Segment part 110.           Intra module refs:   CDfaLite::__vtbl
           ENTRY                   ADDRESS         REF BY
           =====                   =======         ======
           CDfaLite::~CDfaLite()   0000126A        ?Subroutine16 (Alarm)
               calls direct
    -------------------------------------------------------------------------
CODE
  Relative segment, address: CODE 0000126C - 0000126D (0x2 bytes), align: 1
  Segment part 111.           Intra module refs:   CDfa::__vtbl
                                                   CDfaLite::__vtbl
           ENTRY                   ADDRESS         REF BY
           =====                   =======         ======
           CDfaLite::Fsm()         0000126C        CEvent::__vtbl (Event)
                                                   CEventUniteLogicAnd::__vtbl (Event)
                                                   CLinkControl::__vtbl (LinkControl)
                                                   CModbus::__vtbl (modbus)
                                                   CModuleMrXXDriver::__vtbl_CDfa (ModuleMrXX)
                                                   CMvsn21Driver::__vtbl_CDfa (Mvsn21)
    -------------------------------------------------------------------------
CODE
  Relative segment, address: CODE 0000126E, align: 1
  Segment part 112.           Intra module refs:   CDfa::__vtbl
           ENTRY                   ADDRESS         REF BY
           =====                   =======         ======
           CDfa::~CDfa()           0000126E        CEvent::~CEvent() (Event)
                                                   CLinkControl::~CLinkControl() (LinkControl)
                                                   CModbus::~CModbus() (modbus)
                                                   CModuleMrXXDriver::~CModuleMrXXDriver() (ModuleMrXX)
                                                   CMultiFunctionKey::~CMultiFunctionKey() (InputDevice)
                                                   CMvsn21Driver::~CMvsn21Driver() (Mvsn21)
                                                   CNotifyerControl::~CNotifyerControl() (NotifyerControl)
               calls direct
    -------------------------------------------------------------------------
CODE
  Relative segment, address: CODE 0000126E - 0000127D (0x10 bytes), align: 1
  Segment part 113.           Intra module refs:   CDfa::~CDfa()
                                                   CDfaLite::~CDfaLite()
           LOCAL                   ADDRESS         
           =====                   =======         
           ?Subroutine0            0000126E 
    -------------------------------------------------------------------------
NEAR_F
  Relative segment, address: CODE 0000031A - 0000031D (0x4 bytes), align: 0
  Segment part 99. ROOT       Intra module refs:   CDfaLite::CDfaLite()
           ENTRY                   ADDRESS         REF BY
           =====                   =======         ======
           CDfaLite::__vtbl        0000031A 
    -------------------------------------------------------------------------
NEAR_F
  Relative segment, address: CODE 0000031E - 00000321 (0x4 bytes), align: 0
  Segment part 100. ROOT      Intra module refs:   CDfa::CDfa()
           ENTRY                   ADDRESS         REF BY
           =====                   =======         ======
           CDfa::__vtbl            0000031E 
    -------------------------------------------------------------------------
NEAR_F
  Relative segment, address: CODE 00000322 - 00000325 (0x4 bytes), align: 0
  Segment part 101. ROOT 
           LOCAL                   ADDRESS         
           =====                   =======         
           CDriver::__vtbl         00000322 
    -------------------------------------------------------------------------
NEAR_F
  Relative segment, address: CODE 00000326 - 0000032D (0x8 bytes), align: 0
  Segment part 102. ROOT 
           LOCAL                   ADDRESS         
           =====                   =======         
           CTaskInterface::__vtbl
                                   00000326 
    -------------------------------------------------------------------------
NEAR_F
  Relative segment, address: CODE 0000032E - 00000337 (0xa bytes), align: 0
  Segment part 103. ROOT 
           LOCAL                   ADDRESS         
           =====                   =======         
           CIsRegularButtonPressedInterface::__vtbl
                                   0000032E 

    *************************************************************************

  FILE NAME : D:\Projects\CurrentProjects\CautoProjects\PSS48Color\Debug\Obj\DM134.r90
  PROGRAM MODULE, NAME : DM134

  SEGMENTS IN THE MODULE
  ======================
NEAR_F
  Relative segment, address: CODE 00000338 - 0000033B (0x4 bytes), align: 0
  Segment part 99. ROOT 
           LOCAL                   ADDRESS         
           =====                   =======         
           CDriver::__vtbl         00000338 
    -------------------------------------------------------------------------
NEAR_F
  Relative segment, address: CODE 0000033C - 00000343 (0x8 bytes), align: 0
  Segment part 100. ROOT 
           LOCAL                   ADDRESS         
           =====                   =======         
           CTaskInterface::__vtbl
                                   0000033C 
    -------------------------------------------------------------------------
NEAR_F
  Relative segment, address: CODE 00000344 - 0000034D (0xa bytes), align: 0
  Segment part 101. ROOT 
           LOCAL                   ADDRESS         
           =====                   =======         
           CIsRegularButtonPressedInterface::__vtbl
                                   00000344 

    *************************************************************************

  FILE NAME : D:\Projects\CurrentProjects\CautoProjects\PSS48Color\Debug\Obj\Dm163.r90
  PROGRAM MODULE, NAME : Dm163

  SEGMENTS IN THE MODULE
  ======================
CODE
  Relative segment, address: CODE 0000127E - 00001283 (0x6 bytes), align: 1
  Segment part 102.           Intra module refs:   CDm163::Reset()
           ENTRY                   ADDRESS         REF BY
           =====                   =======         ======
           CDm163::PulseDelayRST_B()
                                   0000127E 
    -------------------------------------------------------------------------
CODE
  Relative segment, address: CODE 00001284 - 00001287 (0x4 bytes), align: 1
  Segment part 103.           Intra module refs:   ?Subroutine0
           ENTRY                   ADDRESS         REF BY
           =====                   =======         ======
           CDm163::PulseDelayDCK()
                                   00001284 
    -------------------------------------------------------------------------
CODE
  Relative segment, address: CODE 00001288 - 000012CF (0x48 bytes), align: 1
  Segment part 104.
           ENTRY                   ADDRESS         REF BY
           =====                   =======         ======
           CDm163::Init()          00001288        CLightBoard::Init(CAlarmWindow *) (LightBoard)
    -------------------------------------------------------------------------
CODE
  Relative segment, address: CODE 000012D0 - 000012D7 (0x8 bytes), align: 1
  Segment part 105.           Intra module refs:   CDm163::Init()
           LOCAL                   ADDRESS         
           =====                   =======         
           ?Subroutine2            000012D0 
    -------------------------------------------------------------------------
CODE
  Relative segment, address: CODE 000012D8 - 000012DB (0x4 bytes), align: 1
  Segment part 106.           Intra module refs:   CDm163::Init()
           LOCAL                   ADDRESS         
           =====                   =======         
           ?Subroutine1            000012D8 
    -------------------------------------------------------------------------
CODE
  Relative segment, address: CODE 000012DC - 000012E1 (0x6 bytes), align: 1
  Segment part 107.           Intra module refs:   ?Subroutine0
                                                   ?Subroutine1
                                                   ?Subroutine3
                                                   CDm163::Reset()
                                                   CDm163::SetBank1(uint8_t)
           LOCAL                   ADDRESS         
           =====                   =======         
           ?Subroutine4            000012DC 
    -------------------------------------------------------------------------
CODE
  Relative segment, address: CODE 000012E2 - 000012F1 (0x10 bytes), align: 1
  Segment part 108.
           ENTRY                   ADDRESS         REF BY
           =====                   =======         ======
           CDm163::Reset()         000012E2        CLightBoard::Set(CAlarmWindow *) (LightBoard)
               calls direct
    -------------------------------------------------------------------------
CODE
  Relative segment, address: CODE 000012F2 - 00001303 (0x12 bytes), align: 1
  Segment part 109.
           ENTRY                   ADDRESS         REF BY
           =====                   =======         ======
           CDm163::SetBank0(uint8_t)
                                   000012F2        ?Subroutine5 (Pixel)
               calls direct
    -------------------------------------------------------------------------
CODE
  Relative segment, address: CODE 00001304 - 0000130B (0x8 bytes), align: 1
  Segment part 110.           Intra module refs:   CDm163::SetBank0(uint8_t)
                                                   CDm163::SetBank1(uint8_t)
           LOCAL                   ADDRESS         
           =====                   =======         
           ?Subroutine6            00001304 
    -------------------------------------------------------------------------
CODE
  Relative segment, address: CODE 0000130C - 00001323 (0x18 bytes), align: 1
  Segment part 111.
           ENTRY                   ADDRESS         REF BY
           =====                   =======         ======
           CDm163::SetBank1(uint8_t)
                                   0000130C        ?Subroutine4 (Pixel)
               calls direct
    -------------------------------------------------------------------------
CODE
  Relative segment, address: CODE 00001324 - 00001327 (0x4 bytes), align: 1
  Segment part 112.           Intra module refs:   ?Subroutine6
                                                   CDm163::SetBank0(uint8_t)
           LOCAL                   ADDRESS         
           =====                   =======         
           ?Subroutine3            00001324 
    -------------------------------------------------------------------------
CODE
  Relative segment, address: CODE 00001328 - 0000132D (0x6 bytes), align: 1
  Segment part 113.           Intra module refs:   ?Subroutine0
                                                   ?Subroutine2
                                                   ?Subroutine3
                                                   CDm163::Init()
                                                   CDm163::Reset()
                                                   CDm163::SetBank1(uint8_t)
           LOCAL                   ADDRESS         
           =====                   =======         
           ?Subroutine5            00001328 
    -------------------------------------------------------------------------
CODE
  Relative segment, address: CODE 0000132E - 0000135B (0x2e bytes), align: 1
  Segment part 114.           Intra module refs:   CDm163::SetBank0(uint8_t)
                                                   CDm163::SetBank1(uint8_t)
           LOCAL                   ADDRESS         
           =====                   =======         
           ?Subroutine0            0000132E 
    -------------------------------------------------------------------------
NEAR_F
  Relative segment, address: CODE 0000034E - 00000351 (0x4 bytes), align: 0
  Segment part 99. ROOT 
           LOCAL                   ADDRESS         
           =====                   =======         
           CDriver::__vtbl         0000034E 
    -------------------------------------------------------------------------
NEAR_F
  Relative segment, address: CODE 00000352 - 00000359 (0x8 bytes), align: 0
  Segment part 100. ROOT 
           LOCAL                   ADDRESS         
           =====                   =======         
           CTaskInterface::__vtbl
                                   00000352 
    -------------------------------------------------------------------------
NEAR_F
  Relative segment, address: CODE 0000035A - 00000363 (0xa bytes), align: 0
  Segment part 101. ROOT 
           LOCAL                   ADDRESS         
           =====                   =======         
           CIsRegularButtonPressedInterface::__vtbl
                                   0000035A 

    *************************************************************************

  FILE NAME : D:\Projects\CurrentProjects\CautoProjects\PSS48Color\Debug\Obj\Event.r90
  PROGRAM MODULE, NAME : Event

  SEGMENTS IN THE MODULE
  ======================
CODE
  Relative segment, address: CODE 0000135C - 0000136F (0x14 bytes), align: 1
  Segment part 9.             Intra module refs:   ?Subroutine0
           ENTRY                   ADDRESS         REF BY
           =====                   =======         ======
           CEvent::CEvent()        0000135C 
               calls direct
    -------------------------------------------------------------------------
CODE
  Relative segment, address: CODE 00001370 - 00001377 (0x8 bytes), align: 1
  Segment part 10.            Intra module refs:   CEvent::CEvent()
           LOCAL                   ADDRESS         
           =====                   =======         
           ?Subroutine5            00001370 
    -------------------------------------------------------------------------
CODE
  Relative segment, address: CODE 00001378 - 00001389 (0x12 bytes), align: 1
  Segment part 17.
           ENTRY                   ADDRESS         REF BY
           =====                   =======         ======
           CEventUniteLogicAnd::CEventUniteLogicAnd(uint16_t)
                                   00001378        __sti__routine() (Pss21)
               calls direct
    -------------------------------------------------------------------------
CODE
  Relative segment, address: CODE 0000138A - 0000138F (0x6 bytes), align: 1
  Segment part 18.            Intra module refs:   CEventUniteLogicAnd::CEventUniteLogicAnd(uint16_t)
                                                   CEventUniteLogicAnd::IsHappened(uint8_t, uint8_t)
                                                   CEventUniteLogicAnd::~CEventUniteLogicAnd()
           LOCAL                   ADDRESS         
           =====                   =======         
           ?Subroutine7            0000138A 
    -------------------------------------------------------------------------
CODE
  Relative segment, address: CODE 00001390 - 00001399 (0xa bytes), align: 1
  Segment part 19.            Intra module refs:   CEventUniteLogicAnd::CEventUniteLogicAnd(uint16_t)
           LOCAL                   ADDRESS         
           =====                   =======         
           ?Subroutine0            00001390 
    -------------------------------------------------------------------------
CODE
  Relative segment, address: CODE 0000139A - 0000139B (0x2 bytes), align: 1
  Segment part 20.            Intra module refs:   ?Subroutine0
                                                   CEventUniteLogicAnd::~CEventUniteLogicAnd()
           LOCAL                   ADDRESS         
           =====                   =======         
           ?Subroutine4            0000139A 
    -------------------------------------------------------------------------
CODE
  Relative segment, address: CODE 0000139C - 000013A1 (0x6 bytes), align: 1
  Segment part 21.            Intra module refs:   ?Subroutine4
                                                   CEventUniteLogicAnd::IsHappened(uint8_t, uint8_t)
    -------------------------------------------------------------------------
CODE
  Relative segment, address: CODE 000013A2 - 000013C7 (0x26 bytes), align: 1
  Segment part 23.            Intra module refs:   CEvent::__vtbl
                                                   CEventUniteLogicAnd::~CEventUniteLogicAnd()
           ENTRY                   ADDRESS         REF BY
           =====                   =======         ======
           CEvent::~CEvent()       000013A2 
               calls direct
    -------------------------------------------------------------------------
CODE
  Relative segment, address: CODE 000013C8 - 000013EF (0x28 bytes), align: 1
  Segment part 24.            Intra module refs:   CEventUniteLogicAnd::__vtbl
           ENTRY                   ADDRESS         REF BY
           =====                   =======         ======
           CEventUniteLogicAnd::~CEventUniteLogicAnd()
                                   000013C8        <Unnamed 3> (Pss21)
               calls direct
    -------------------------------------------------------------------------
CODE
  Relative segment, address: CODE 000013F0 - 000013FB (0xc bytes), align: 1
  Segment part 25.            Intra module refs:   ?Subroutine0
                                                   CEventUniteLogicAnd::~CEventUniteLogicAnd()
           LOCAL                   ADDRESS         
           =====                   =======         
           ?Subroutine3            000013F0 
    -------------------------------------------------------------------------
CODE
  Relative segment, address: CODE 000013FC - 00001403 (0x8 bytes), align: 1
  Segment part 26.            Intra module refs:   CEventUniteLogicAnd::CEventUniteLogicAnd(uint16_t)
                                                   CEventUniteLogicAnd::IsHappened(uint8_t, uint8_t)
                                                   CEventUniteLogicAnd::~CEventUniteLogicAnd()
           LOCAL                   ADDRESS         
           =====                   =======         
           ?Subroutine2            000013FC 
    -------------------------------------------------------------------------
CODE
  Relative segment, address: CODE 00001404 - 00001483 (0x80 bytes), align: 1
  Segment part 27.
           ENTRY                   ADDRESS         REF BY
           =====                   =======         ======
           CEventUniteLogicAnd::IsHappened(uint8_t, uint8_t)
                                   00001404        CPss21::KeyStateProcessing() (Pss21)
               calls direct
    -------------------------------------------------------------------------
NEAR_F
  Relative segment, address: CODE 00000364 - 00000367 (0x4 bytes), align: 0
  Segment part 7. ROOT        Intra module refs:   CEvent::CEvent()
           ENTRY                   ADDRESS         REF BY
           =====                   =======         ======
           CEvent::__vtbl          00000364 
    -------------------------------------------------------------------------
NEAR_F
  Relative segment, address: CODE 00000368 - 0000036B (0x4 bytes), align: 0
  Segment part 8. ROOT        Intra module refs:   ?Subroutine3
           ENTRY                   ADDRESS         REF BY
           =====                   =======         ======
           CEventUniteLogicAnd::__vtbl
                                   00000368 

    *************************************************************************

  FILE NAME : D:\Projects\CurrentProjects\CautoProjects\PSS48Color\Debug\Obj\HammingCodes.r90
  PROGRAM MODULE, NAME : HammingCodes

  SEGMENTS IN THE MODULE
  ======================
NEAR_Z
  Relative segment, address: DATA 00000822 - 00000822 (0x1 bytes), align: 0
  Segment part 7. ROOT        Intra module refs:   CHammingCodes::fixError(uint16_t, uint8_t)
           ENTRY                   ADDRESS         REF BY
           =====                   =======         ======
           CHammingCodes::m_uiErrorCode
                                   00000822        CDataStore::Check() (DataStore)
    -------------------------------------------------------------------------
CODE
  Relative segment, address: CODE 00001484 - 000014A9 (0x26 bytes), align: 1
  Segment part 9.             Intra module refs:   ?Subroutine2
           ENTRY                   ADDRESS         REF BY
           =====                   =======         ======
           CHammingCodes::getEvenParityforTx(uint8_t)
                                   00001484 
               calls direct
    -------------------------------------------------------------------------
CODE
  Relative segment, address: CODE 000014AA - 000014AD (0x4 bytes), align: 1
  Segment part 10.            Intra module refs:   ?Subroutine7
                                                   CHammingCodes::getEvenParityforRx(uint16_t)
                                                   CHammingCodes::getEvenParityforTx(uint8_t)
           LOCAL                   ADDRESS         
           =====                   =======         
           ?Subroutine9            000014AA 
    -------------------------------------------------------------------------
CODE
  Relative segment, address: CODE 000014AE - 000014B1 (0x4 bytes), align: 1
  Segment part 11.            Intra module refs:   ?Subroutine7
                                                   CHammingCodes::getEvenParityforRx(uint16_t)
                                                   CHammingCodes::getEvenParityforTx(uint8_t)
           LOCAL                   ADDRESS         
           =====                   =======         
           ?Subroutine10           000014AE 
    -------------------------------------------------------------------------
CODE
  Relative segment, address: CODE 000014B2 - 000014D5 (0x24 bytes), align: 1
  Segment part 12.            Intra module refs:   ?Subroutine3
           ENTRY                   ADDRESS         REF BY
           =====                   =======         ======
           CHammingCodes::getEvenParityforRx(uint16_t)
                                   000014B2 
               calls direct
    -------------------------------------------------------------------------
CODE
  Relative segment, address: CODE 000014D6 - 0000152F (0x5a bytes), align: 1
  Segment part 13.            Intra module refs:   ?Subroutine1
                                                   ?Subroutine6
           ENTRY                   ADDRESS         REF BY
           =====                   =======         ======
           CHammingCodes::enHamming(uint8_t)
                                   000014D6 
               calls direct
    -------------------------------------------------------------------------
CODE
  Relative segment, address: CODE 00001530 - 00001531 (0x2 bytes), align: 1
  Segment part 14.            Intra module refs:   CHammingCodes::enHamming(uint8_t)
           LOCAL                   ADDRESS         
           =====                   =======         
           ?Subroutine2            00001530 
    -------------------------------------------------------------------------
CODE
  Relative segment, address: CODE 00001532 - 00001579 (0x48 bytes), align: 1
  Segment part 15.            Intra module refs:   CHammingCodes::Recovery(uint16_t)
           ENTRY                   ADDRESS         REF BY
           =====                   =======         ======
           CHammingCodes::findHammingError(uint16_t)
                                   00001532 
               calls direct
    -------------------------------------------------------------------------
CODE
  Relative segment, address: CODE 0000157A - 0000157B (0x2 bytes), align: 1
  Segment part 16.            Intra module refs:   CHammingCodes::findHammingError(uint16_t)
           LOCAL                   ADDRESS         
           =====                   =======         
           ?Subroutine3            0000157A 
    -------------------------------------------------------------------------
CODE
  Relative segment, address: CODE 0000157C - 00001585 (0xa bytes), align: 1
  Segment part 17.            Intra module refs:   CHammingCodes::findHammingError(uint16_t)
           LOCAL                   ADDRESS         
           =====                   =======         
           ?Subroutine0            0000157C 
    -------------------------------------------------------------------------
CODE
  Relative segment, address: CODE 00001586 - 0000158D (0x8 bytes), align: 1
  Segment part 18.            Intra module refs:   ?Subroutine0
                                                   CHammingCodes::findHammingError(uint16_t)
           LOCAL                   ADDRESS         
           =====                   =======         
           ?Subroutine7            00001586 
    -------------------------------------------------------------------------
CODE
  Relative segment, address: CODE 0000158E - 000015A9 (0x1c bytes), align: 1
  Segment part 19.            Intra module refs:   CHammingCodes::Recovery(uint16_t)
           ENTRY                   ADDRESS         REF BY
           =====                   =======         ======
           CHammingCodes::fixError(uint16_t, uint8_t)
                                   0000158E 
               calls direct
    -------------------------------------------------------------------------
CODE
  Relative segment, address: CODE 000015AA - 000015C9 (0x20 bytes), align: 1
  Segment part 20.            Intra module refs:   CHammingCodes::Recovery(uint16_t)
           ENTRY                   ADDRESS         REF BY
           =====                   =======         ======
           CHammingCodes::deHamming(uint16_t)
                                   000015AA 
               calls direct
    -------------------------------------------------------------------------
CODE
  Relative segment, address: CODE 000015CA - 000015D5 (0xc bytes), align: 1
  Segment part 21.            Intra module refs:   CHammingCodes::HammingCodesToBytes(uint8_t *, uint8_t *, uint16_t)
           ENTRY                   ADDRESS         REF BY
           =====                   =======         ======
           CHammingCodes::Recovery(uint16_t)
                                   000015CA 
               calls direct
    -------------------------------------------------------------------------
CODE
  Relative segment, address: CODE 000015D6 - 000015E9 (0x14 bytes), align: 1
  Segment part 22.
           ENTRY                   ADDRESS         REF BY
           =====                   =======         ======
           CHammingCodes::CalculateEncodedDataLength(uint16_t)
                                   000015D6        CDataStore::Init() (DataStore)
    -------------------------------------------------------------------------
CODE
  Relative segment, address: CODE 000015EA - 0000168D (0xa4 bytes), align: 1
  Segment part 23.
           ENTRY                   ADDRESS         REF BY
           =====                   =======         ======
           CHammingCodes::BytesToHammingCodes(uint8_t *, uint8_t *, uint16_t)
                                   000015EA        CDataStore::Write(uint8_t *, uint16_t, uint8_t) (DataStore)
               calls direct
    -------------------------------------------------------------------------
CODE
  Relative segment, address: CODE 0000168E - 00001691 (0x4 bytes), align: 1
  Segment part 24.            Intra module refs:   CHammingCodes::BytesToHammingCodes(uint8_t *, uint8_t *, uint16_t)
           LOCAL                   ADDRESS         
           =====                   =======         
           ?Subroutine6            0000168E 
    -------------------------------------------------------------------------
CODE
  Relative segment, address: CODE 00001692 - 0000169B (0xa bytes), align: 1
  Segment part 25.            Intra module refs:   CHammingCodes::BytesToHammingCodes(uint8_t *, uint8_t *, uint16_t)
           LOCAL                   ADDRESS         
           =====                   =======         
           ?Subroutine4            00001692 
    -------------------------------------------------------------------------
CODE
  Relative segment, address: CODE 0000169C - 000016A7 (0xc bytes), align: 1
  Segment part 26.            Intra module refs:   CHammingCodes::BytesToHammingCodes(uint8_t *, uint8_t *, uint16_t)
           LOCAL                   ADDRESS         
           =====                   =======         
           ?Subroutine1            0000169C 
    -------------------------------------------------------------------------
CODE
  Relative segment, address: CODE 000016A8 - 0000173B (0x94 bytes), align: 1
  Segment part 27.
           ENTRY                   ADDRESS         REF BY
           =====                   =======         ======
           CHammingCodes::HammingCodesToBytes(uint8_t *, uint8_t *, uint16_t)
                                   000016A8        CDataStore::ReadBlock(uint8_t *, uint8_t) (DataStore)
               calls direct
    -------------------------------------------------------------------------
CODE
  Relative segment, address: CODE 0000173C - 00001743 (0x8 bytes), align: 1
  Segment part 28.            Intra module refs:   CHammingCodes::BytesToHammingCodes(uint8_t *, uint8_t *, uint16_t)
                                                   CHammingCodes::HammingCodesToBytes(uint8_t *, uint8_t *, uint16_t)
           LOCAL                   ADDRESS         
           =====                   =======         
           ?Subroutine5            0000173C 

    *************************************************************************

  FILE NAME : D:\Projects\CurrentProjects\CautoProjects\PSS48Color\Debug\Obj\InputDevice.r90
  PROGRAM MODULE, NAME : InputDevice

  SEGMENTS IN THE MODULE
  ======================
CODE
  Relative segment, address: CODE 00001744 - 00001749 (0x6 bytes), align: 1
  Segment part 101.           Intra module refs:   CMultiFunctionKey::EventHappened()
                                                   CMultiFunctionKey::Fsm()
           LOCAL                   ADDRESS         
           =====                   =======         
           ?Subroutine11           00001744 
    -------------------------------------------------------------------------
CODE
  Relative segment, address: CODE 0000174A - 00001761 (0x18 bytes), align: 1
  Segment part 103.
           ENTRY                   ADDRESS         REF BY
           =====                   =======         ======
           CMultiFunctionKey::CMultiFunctionKey(uint8_t (__version_3 *)())
                                   0000174A        ?Subroutine12 (Pss21)
               calls direct
    -------------------------------------------------------------------------
CODE
  Relative segment, address: CODE 00001762 - 00001767 (0x6 bytes), align: 1
  Segment part 104.           Intra module refs:   CMultiFunctionKey::CMultiFunctionKey(uint8_t (__version_3 *)())
                                                   CMultiFunctionKey::KeyEventHappened(uint8_t)
                                                   CMultiFunctionKey::~CMultiFunctionKey()
           LOCAL                   ADDRESS         
           =====                   =======         
           ?Subroutine13           00001762 
    -------------------------------------------------------------------------
CODE
  Relative segment, address: CODE 00001768 - 00001773 (0xc bytes), align: 1
  Segment part 105.           Intra module refs:   CMultiFunctionKey::CMultiFunctionKey(uint8_t (__version_3 *)())
           LOCAL                   ADDRESS         
           =====                   =======         
           ?Subroutine2            00001768 
    -------------------------------------------------------------------------
CODE
  Relative segment, address: CODE 00001774 - 00001799 (0x26 bytes), align: 1
  Segment part 108.           Intra module refs:   CMultiFunctionKey::__vtbl
           ENTRY                   ADDRESS         REF BY
           =====                   =======         ======
           CMultiFunctionKey::~CMultiFunctionKey()
                                   00001774        <Unnamed 2> (Pss21)
               calls direct
    -------------------------------------------------------------------------
CODE
  Relative segment, address: CODE 0000179A - 000017A5 (0xc bytes), align: 1
  Segment part 109.           Intra module refs:   ?Subroutine2
                                                   CMultiFunctionKey::~CMultiFunctionKey()
           LOCAL                   ADDRESS         
           =====                   =======         
           ?Subroutine10           0000179A 
    -------------------------------------------------------------------------
CODE
  Relative segment, address: CODE 000017A6 - 000017BB (0x16 bytes), align: 1
  Segment part 111.           Intra module refs:   ?Subroutine5
           ENTRY                   ADDRESS         REF BY
           =====                   =======         ======
           CMultiFunctionKey::EventHappened()
                                   000017A6 
               calls indirect
    -------------------------------------------------------------------------
CODE
  Relative segment, address: CODE 000017BC - 000017C3 (0x8 bytes), align: 1
  Segment part 112.           Intra module refs:   CMultiFunctionKey::EventHappened()
                                                   CMultiFunctionKey::Fsm()
           LOCAL                   ADDRESS         
           =====                   =======         
           ?Subroutine4            000017BC 
    -------------------------------------------------------------------------
CODE
  Relative segment, address: CODE 000017C4 - 000017E9 (0x26 bytes), align: 1
  Segment part 113.
           ENTRY                   ADDRESS         REF BY
           =====                   =======         ======
           CMultiFunctionKey::KeyEventHappened(uint8_t)
                                   000017C4        ?Subroutine95 (Pss21)
               calls indirect
    -------------------------------------------------------------------------
CODE
  Relative segment, address: CODE 000017EA - 000017F3 (0xa bytes), align: 1
  Segment part 114.           Intra module refs:   CMultiFunctionKey::KeyEventHappened(uint8_t)
                                                   CMultiFunctionKey::~CMultiFunctionKey()
           LOCAL                   ADDRESS         
           =====                   =======         
           ?Subroutine6            000017EA 
    -------------------------------------------------------------------------
CODE
  Relative segment, address: CODE 000017F4 - 00001895 (0xa2 bytes), align: 1
  Segment part 115.           Intra module refs:   CMultiFunctionKey::__vtbl
           ENTRY                   ADDRESS         REF BY
           =====                   =======         ======
           CMultiFunctionKey::Fsm()
                                   000017F4 
               calls direct
    -------------------------------------------------------------------------
CODE
  Relative segment, address: CODE 00001896 - 00001897 (0x2 bytes), align: 1
  Segment part 116.           Intra module refs:   CMultiFunctionKey::Fsm()
                                                   CMultiFunctionKey::~CMultiFunctionKey()
           LOCAL                   ADDRESS         
           =====                   =======         
           ?Subroutine8            00001896 
    -------------------------------------------------------------------------
CODE
  Relative segment, address: CODE 00001898 - 0000189F (0x8 bytes), align: 1
  Segment part 117.           Intra module refs:   ?Subroutine0
                                                   ?Subroutine1
                                                   ?Subroutine2
                                                   ?Subroutine8
           LOCAL                   ADDRESS         
           =====                   =======         
           ?Subroutine9            00001898 
    -------------------------------------------------------------------------
CODE
  Relative segment, address: CODE 000018A0 - 000018A5 (0x6 bytes), align: 1
  Segment part 118.           Intra module refs:   CMultiFunctionKey::CMultiFunctionKey(uint8_t (__version_3 *)())
                                                   CMultiFunctionKey::Fsm()
           LOCAL                   ADDRESS         
           =====                   =======         
           ?Subroutine7            000018A0 
    -------------------------------------------------------------------------
CODE
  Relative segment, address: CODE 000018A6 - 000018A9 (0x4 bytes), align: 1
  Segment part 119.           Intra module refs:   CMultiFunctionKey::Fsm()
           LOCAL                   ADDRESS         
           =====                   =======         
           ?Subroutine5            000018A6 
    -------------------------------------------------------------------------
CODE
  Relative segment, address: CODE 000018AA - 000018AD (0x4 bytes), align: 1
  Segment part 120.           Intra module refs:   ?Subroutine1
                                                   ?Subroutine5
           LOCAL                   ADDRESS         
           =====                   =======         
           ?Subroutine12           000018AA 
    -------------------------------------------------------------------------
CODE
  Relative segment, address: CODE 000018AE - 000018B5 (0x8 bytes), align: 1
  Segment part 121.           Intra module refs:   CMultiFunctionKey::Fsm()
           LOCAL                   ADDRESS         
           =====                   =======         
           ?Subroutine1            000018AE 
    -------------------------------------------------------------------------
CODE
  Relative segment, address: CODE 000018B6 - 000018BF (0xa bytes), align: 1
  Segment part 122.           Intra module refs:   CMultiFunctionKey::Fsm()
           LOCAL                   ADDRESS         
           =====                   =======         
           ?Subroutine0            000018B6 
    -------------------------------------------------------------------------
NEAR_F
  Relative segment, address: CODE 0000036C - 0000036F (0x4 bytes), align: 0
  Segment part 99. ROOT       Intra module refs:   ?Subroutine10
           ENTRY                   ADDRESS         REF BY
           =====                   =======         ======
           CMultiFunctionKey::__vtbl
                                   0000036C 

    *************************************************************************

  FILE NAME : D:\Projects\CurrentProjects\CautoProjects\PSS48Color\Debug\Obj\LightBoard.r90
  PROGRAM MODULE, NAME : LightBoard

  SEGMENTS IN THE MODULE
  ======================
CODE
  Relative segment, address: CODE 000018C0 - 000018C3 (0x4 bytes), align: 1
  Segment part 109.           Intra module refs:   CLightBoard::Set(CAlarmWindow *)
           ENTRY                   ADDRESS         REF BY
           =====                   =======         ======
           CDm163::PulseDelayLAT_B()
                                   000018C0 
    -------------------------------------------------------------------------
NEAR_Z
  Relative segment, address: DATA 00000823 - 00000862 (0x40 bytes), align: 0
  Segment part 102. ROOT 
           ENTRY                   ADDRESS         REF BY
           =====                   =======         ======
           CLightBoard::m_auiBoardLampsControl
                                   00000823 
    -------------------------------------------------------------------------
NEAR_F
  Relative segment, address: CODE 00000370 - 00000373 (0x4 bytes), align: 0
  Segment part 99. ROOT 
           LOCAL                   ADDRESS         
           =====                   =======         
           CDriver::__vtbl         00000370 
    -------------------------------------------------------------------------
NEAR_F
  Relative segment, address: CODE 00000374 - 0000037B (0x8 bytes), align: 0
  Segment part 100. ROOT 
           LOCAL                   ADDRESS         
           =====                   =======         
           CTaskInterface::__vtbl
                                   00000374 
    -------------------------------------------------------------------------
NEAR_F
  Relative segment, address: CODE 0000037C - 00000385 (0xa bytes), align: 0
  Segment part 101. ROOT 
           LOCAL                   ADDRESS         
           =====                   =======         
           CIsRegularButtonPressedInterface::__vtbl
                                   0000037C 
    -------------------------------------------------------------------------
NEAR_F
  Relative segment, address: CODE 00000386 - 000003B5 (0x30 bytes), align: 0
  Segment part 104. ROOT 
           ENTRY                   ADDRESS         REF BY
           =====                   =======         ======
           CLightBoard::m_auiLedMap
                                   00000386 
    -------------------------------------------------------------------------
NEAR_F
  Relative segment, address: CODE 000003B6 - 000003B8 (0x3 bytes), align: 0
  Segment part 105. ROOT 
           ENTRY                   ADDRESS         REF BY
           =====                   =======         ======
           CLightBoard::m_xPixelColorCorrectionData
                                   000003B6 
    -------------------------------------------------------------------------
NEAR_F
  Relative segment, address: CODE 000003B9 - 000003C4 (0xc bytes), align: 0
  Segment part 106. ROOT      Intra module refs:   CLightBoard::Set(CAlarmWindow *)
           ENTRY                   ADDRESS         REF BY
           =====                   =======         ======
           CLightBoard::m_xPixelColorBlack
                                   000003B9 
           CLightBoard::m_xPixelColorGreen
                                   000003BF 
           CLightBoard::m_xPixelColorRed
                                   000003BC 
           CLightBoard::m_xPixelColorYellow
                                   000003C2 
    -------------------------------------------------------------------------
NEAR_F
  Relative segment, address: CODE 000003C5 - 000003C7 (0x3 bytes), align: 0
  Segment part 107. ROOT 
           ENTRY                   ADDRESS         REF BY
           =====                   =======         ======
           CLightBoard::m_xPixelColorBlue
                                   000003C5 
    -------------------------------------------------------------------------
NEAR_F
  Relative segment, address: CODE 000003C8 - 000003CA (0x3 bytes), align: 0
  Segment part 108. ROOT 
           ENTRY                   ADDRESS         REF BY
           =====                   =======         ======
           CLightBoard::m_xPixelColorWhite
                                   000003C8 
    -------------------------------------------------------------------------
CODE
  Relative segment, address: CODE 000018C4 - 000018C7 (0x4 bytes), align: 1
  Segment part 110.
           ENTRY                   ADDRESS         REF BY
           =====                   =======         ======
           CLightBoard::Init(CAlarmWindow *)
                                   000018C4        CPss21::Init() (Pss21)
               calls direct
    -------------------------------------------------------------------------
CODE
  Relative segment, address: CODE 000018C8 - 0000196D (0xa6 bytes), align: 1
  Segment part 111.
           ENTRY                   ADDRESS         REF BY
           =====                   =======         ======
           CLightBoard::Set(CAlarmWindow *)
                                   000018C8        ?Subroutine91 (Pss21)
                                                   CPss21::MainFsm() (Pss21)
               calls direct

    *************************************************************************

  FILE NAME : D:\Projects\CurrentProjects\CautoProjects\PSS48Color\Debug\Obj\LinkControl.r90
  PROGRAM MODULE, NAME : LinkControl

  SEGMENTS IN THE MODULE
  ======================
CODE
  Relative segment, address: CODE 0000196E - 0000197B (0xe bytes), align: 1
  Segment part 104.           Intra module refs:   CModbusRtuLinkControl::CModbusRtuLinkControl()
           ENTRY                   ADDRESS         REF BY
           =====                   =======         ======
           CLinkControl::CLinkControl()
                                   0000196E 
               calls direct
    -------------------------------------------------------------------------
CODE
  Relative segment, address: CODE 0000197C - 0000197D (0x2 bytes), align: 1
  Segment part 105.           Intra module refs:   CLinkControl::CLinkControl()
                                                   CModbusRtuLinkControl::CModbusRtuLinkControl()
           LOCAL                   ADDRESS         
           =====                   =======         
           ?Subroutine5            0000197C 
    -------------------------------------------------------------------------
CODE
  Relative segment, address: CODE 0000197E - 00001983 (0x6 bytes), align: 1
  Segment part 106.           Intra module refs:   ?Subroutine5
                                                   CModbusRtuLinkControl::Fsm()
    -------------------------------------------------------------------------
CODE
  Relative segment, address: CODE 00001984 - 00001999 (0x16 bytes), align: 1
  Segment part 109.
           ENTRY                   ADDRESS         REF BY
           =====                   =======         ======
           CModbusRtuLinkControl::CModbusRtuLinkControl()
                                   00001984        __sti__routine() (Pss21)
               calls direct
    -------------------------------------------------------------------------
CODE
  Relative segment, address: CODE 0000199A - 000019A1 (0x8 bytes), align: 1
  Segment part 110.           Intra module refs:   CLinkControl::CLinkControl()
                                                   CModbusRtuLinkControl::CModbusRtuLinkControl()
                                                   CModbusRtuLinkControl::Fsm()
           LOCAL                   ADDRESS         
           =====                   =======         
           ?Subroutine1            0000199A 
    -------------------------------------------------------------------------
CODE
  Relative segment, address: CODE 000019A2 - 000019D3 (0x32 bytes), align: 1
  Segment part 113.           Intra module refs:   CLinkControl::__vtbl
                                                   CModbusRtuLinkControl::~CModbusRtuLinkControl()
           ENTRY                   ADDRESS         REF BY
           =====                   =======         ======
           CLinkControl::~CLinkControl()
                                   000019A2 
               calls direct
    -------------------------------------------------------------------------
CODE
  Relative segment, address: CODE 000019D4 - 000019DB (0x8 bytes), align: 1
  Segment part 114.           Intra module refs:   CLinkControl::CLinkControl()
                                                   CLinkControl::~CLinkControl()
                                                   CModbusRtuLinkControl::Fsm()
           LOCAL                   ADDRESS         
           =====                   =======         
           ?Subroutine3            000019D4 
    -------------------------------------------------------------------------
CODE
  Relative segment, address: CODE 000019DC - 000019E7 (0xc bytes), align: 1
  Segment part 115.           Intra module refs:   CLinkControl::CLinkControl()
                                                   CLinkControl::~CLinkControl()
           LOCAL                   ADDRESS         
           =====                   =======         
           ?Subroutine2            000019DC 
    -------------------------------------------------------------------------
CODE
  Relative segment, address: CODE 000019E8 - 00001A0B (0x24 bytes), align: 1
  Segment part 116.           Intra module refs:   CModbusRtuLinkControl::__vtbl
           ENTRY                   ADDRESS         REF BY
           =====                   =======         ======
           CModbusRtuLinkControl::~CModbusRtuLinkControl()
                                   000019E8        <Unnamed 9> (Pss21)
               calls direct
    -------------------------------------------------------------------------
CODE
  Relative segment, address: CODE 00001A0C - 00001AB3 (0xa8 bytes), align: 1
  Segment part 117.           Intra module refs:   CModbusRtuLinkControl::__vtbl
           ENTRY                   ADDRESS         REF BY
           =====                   =======         ======
           CModbusRtuLinkControl::Fsm()
                                   00001A0C        ?Subroutine6 (Pss21)
               calls direct
    -------------------------------------------------------------------------
CODE
  Relative segment, address: CODE 00001AB4 - 00001AB9 (0x6 bytes), align: 1
  Segment part 118.           Intra module refs:   CModbusRtuLinkControl::CModbusRtuLinkControl()
                                                   CModbusRtuLinkControl::Fsm()
           LOCAL                   ADDRESS         
           =====                   =======         
           ?Subroutine4            00001AB4 
    -------------------------------------------------------------------------
NEAR_F
  Relative segment, address: CODE 000003CB - 000003CE (0x4 bytes), align: 0
  Segment part 99. ROOT       Intra module refs:   ?Subroutine2
           ENTRY                   ADDRESS         REF BY
           =====                   =======         ======
           CLinkControl::__vtbl    000003CB 
    -------------------------------------------------------------------------
NEAR_F
  Relative segment, address: CODE 000003CF - 000003D2 (0x4 bytes), align: 0
  Segment part 100. ROOT 
           LOCAL                   ADDRESS         
           =====                   =======         
           CDriver::__vtbl         000003CF 
    -------------------------------------------------------------------------
NEAR_F
  Relative segment, address: CODE 000003D3 - 000003DA (0x8 bytes), align: 0
  Segment part 101. ROOT 
           LOCAL                   ADDRESS         
           =====                   =======         
           CTaskInterface::__vtbl
                                   000003D3 
    -------------------------------------------------------------------------
NEAR_F
  Relative segment, address: CODE 000003DB - 000003E4 (0xa bytes), align: 0
  Segment part 102. ROOT 
           LOCAL                   ADDRESS         
           =====                   =======         
           CIsRegularButtonPressedInterface::__vtbl
                                   000003DB 
    -------------------------------------------------------------------------
NEAR_F
  Relative segment, address: CODE 000003E5 - 000003E8 (0x4 bytes), align: 0
  Segment part 103. ROOT      Intra module refs:   CModbusRtuLinkControl::CModbusRtuLinkControl()
           ENTRY                   ADDRESS         REF BY
           =====                   =======         ======
           CModbusRtuLinkControl::__vtbl
                                   000003E5 

    *************************************************************************

  FILE NAME : D:\Projects\CurrentProjects\CautoProjects\PSS48Color\Debug\Obj\main.r90
  PROGRAM MODULE, NAME : main

  SEGMENTS IN THE MODULE
  ======================
CODE
  Relative segment, address: CODE 00001ABA - 00001AC5 (0xc bytes), align: 1
  Segment part 102.
           ENTRY                   ADDRESS         REF BY
           =====                   =======         ======
           main                    00001ABA        ?cstartup_call_main (?C_STARTUP)
               calls direct
    -------------------------------------------------------------------------
NEAR_F
  Relative segment, address: CODE 000003E9 - 000003EC (0x4 bytes), align: 0
  Segment part 99. ROOT 
           LOCAL                   ADDRESS         
           =====                   =======         
           CDriver::__vtbl         000003E9 
    -------------------------------------------------------------------------
NEAR_F
  Relative segment, address: CODE 000003ED - 000003F4 (0x8 bytes), align: 0
  Segment part 100. ROOT 
           LOCAL                   ADDRESS         
           =====                   =======         
           CTaskInterface::__vtbl
                                   000003ED 
    -------------------------------------------------------------------------
NEAR_F
  Relative segment, address: CODE 000003F5 - 000003FE (0xa bytes), align: 0
  Segment part 101. ROOT 
           LOCAL                   ADDRESS         
           =====                   =======         
           CIsRegularButtonPressedInterface::__vtbl
                                   000003F5 

    *************************************************************************

  FILE NAME : D:\Projects\CurrentProjects\CautoProjects\PSS48Color\Debug\Obj\modbus.r90
  PROGRAM MODULE, NAME : modbus

  SEGMENTS IN THE MODULE
  ======================
CODE
  Relative segment, address: CODE 00001AC6 - 00001AE1 (0x1c bytes), align: 1
  Segment part 103.
           ENTRY                   ADDRESS         REF BY
           =====                   =======         ======
           CModbus::CModbus()      00001AC6        CModbusRTU::CModbusRTU() (ModbusRTU)
               calls direct
    -------------------------------------------------------------------------
CODE
  Relative segment, address: CODE 00001AE2 - 00001B07 (0x26 bytes), align: 1
  Segment part 107.           Intra module refs:   CModbus::__vtbl
           ENTRY                   ADDRESS         REF BY
           =====                   =======         ======
           CModbus::~CModbus()     00001AE2        CModbusRTU::~CModbusRTU() (ModbusRTU)
               calls direct
    -------------------------------------------------------------------------
CODE
  Relative segment, address: CODE 00001B08 - 00001B0D (0x6 bytes), align: 1
  Segment part 108.
           ENTRY                   ADDRESS         REF BY
           =====                   =======         ======
           CModbus::SlaveSet(uint8_t)
                                   00001B08        CPss21::ModbusInit() (Pss21)
    -------------------------------------------------------------------------
CODE
  Relative segment, address: CODE 00001B0E - 00001B19 (0xc bytes), align: 1
  Segment part 109.           Intra module refs:   CModbus::__vtbl
           ENTRY                   ADDRESS         REF BY
           =====                   =======         ======
           CModbus::MessengerIsReady()
                                   00001B0E        CModbusRTU::__vtbl_CModbus (ModbusRTU)
    -------------------------------------------------------------------------
CODE
  Relative segment, address: CODE 00001B1A - 00001B1D (0x4 bytes), align: 1
  Segment part 110.           Intra module refs:   CModbus::MessengerIsReady()
           LOCAL                   ADDRESS         
           =====                   =======         
           ?Subroutine60           00001B1A 
    -------------------------------------------------------------------------
CODE
  Relative segment, address: CODE 00001B1E - 00001B21 (0x4 bytes), align: 1
  Segment part 111.           Intra module refs:   CModbus::MessengerIsReady()
           LOCAL                   ADDRESS         
           =====                   =======         
           ?Subroutine59           00001B1E 
    -------------------------------------------------------------------------
CODE
  Relative segment, address: CODE 00001B22 - 00001B45 (0x24 bytes), align: 1
  Segment part 112.
           ENTRY                   ADDRESS         REF BY
           =====                   =======         ======
           CModbus::SendMessage(uint8_t *, uint16_t)
                                   00001B22        ?Subroutine21 (ModbusRTU)
               calls indirect
    -------------------------------------------------------------------------
CODE
  Relative segment, address: CODE 00001B46 - 00001B4B (0x6 bytes), align: 1
  Segment part 113.           Intra module refs:   CModbus::ResponseException(uint8_t, uint8_t, uint8_t, uint8_t *)
                                                   CModbus::SendMessage(uint8_t *, uint16_t)
           LOCAL                   ADDRESS         
           =====                   =======         
           ?Subroutine62           00001B46 
    -------------------------------------------------------------------------
CODE
  Relative segment, address: CODE 00001B4C - 00001B65 (0x1a bytes), align: 1
  Segment part 114.           Intra module refs:   ?Subroutine40
                                                   CModbus::Reply(uint8_t *, uint8_t *, uint16_t)
           ENTRY                   ADDRESS         REF BY
           =====                   =======         ======
           CModbus::ResponseException(uint8_t, uint8_t, uint8_t, uint8_t *)
                                   00001B4C 
               calls indirect
    -------------------------------------------------------------------------
CODE
  Relative segment, address: CODE 00001B66 - 00001BC9 (0x64 bytes), align: 1
  Segment part 116.           Intra module refs:   ?Subroutine15
           ENTRY                   ADDRESS         REF BY
           =====                   =======         ======
           CModbus::ByteToBitPack(uint16_t, uint16_t, uint8_t *, uint8_t *, uint16_t)
                                   00001B66 
               calls direct
    -------------------------------------------------------------------------
CODE
  Relative segment, address: CODE 00001BCA - 00001BF3 (0x2a bytes), align: 1
  Segment part 117.           Intra module refs:   CModbus::Reply(uint8_t *, uint8_t *, uint16_t)
           ENTRY                   ADDRESS         REF BY
           =====                   =======         ======
           CModbus::ReadCoils(uint8_t *, uint8_t *, uint16_t)
                                   00001BCA 
               calls direct and indirect
    -------------------------------------------------------------------------
CODE
  Relative segment, address: CODE 00001BF4 - 00001BF7 (0x4 bytes), align: 1
  Segment part 118.           Intra module refs:   CModbus::ReadCoils(uint8_t *, uint8_t *, uint16_t)
                                                   CModbus::ReadDiscreteInputs(uint8_t *, uint8_t *, uint16_t)
           LOCAL                   ADDRESS         
           =====                   =======         
           ?Subroutine67           00001BF4 
    -------------------------------------------------------------------------
CODE
  Relative segment, address: CODE 00001BF8 - 00001BF9 (0x2 bytes), align: 1
  Segment part 119.           Intra module refs:   CModbus::WriteMultipleCoils(uint8_t *, uint8_t *, uint16_t)
                                                   CModbus::WriteSingleCoil(uint8_t *, uint8_t *, uint16_t)
           LOCAL                   ADDRESS         
           =====                   =======         
           ?Subroutine64           00001BF8 
    -------------------------------------------------------------------------
CODE
  Relative segment, address: CODE 00001BFA - 00001BFB (0x2 bytes), align: 1
  Segment part 120.           Intra module refs:   ?Subroutine64
                                                   CModbus::WriteSingleRegister(uint8_t *, uint8_t *, uint16_t)
    -------------------------------------------------------------------------
CODE
  Relative segment, address: CODE 00001BFC - 00001BFF (0x4 bytes), align: 1
  Segment part 121.           Intra module refs:   ?Subroutine67
                                                   ?Subroutine68
                                                   Segment part 120
    -------------------------------------------------------------------------
CODE
  Relative segment, address: CODE 00001C00 - 00001C01 (0x2 bytes), align: 1
  Segment part 122.           Intra module refs:   ?Subroutine67
           LOCAL                   ADDRESS         
           =====                   =======         
           ?Subroutine33           00001C00 
    -------------------------------------------------------------------------
CODE
  Relative segment, address: CODE 00001C02 - 00001C07 (0x6 bytes), align: 1
  Segment part 123.           Intra module refs:   ?Subroutine33
                                                   ?Subroutine68
    -------------------------------------------------------------------------
CODE
  Relative segment, address: CODE 00001C08 - 00001C33 (0x2c bytes), align: 1
  Segment part 124.           Intra module refs:   CModbus::Reply(uint8_t *, uint8_t *, uint16_t)
           ENTRY                   ADDRESS         REF BY
           =====                   =======         ======
           CModbus::ReadDiscreteInputs(uint8_t *, uint8_t *, uint16_t)
                                   00001C08 
               calls direct and indirect
    -------------------------------------------------------------------------
CODE
  Relative segment, address: CODE 00001C34 - 00001C39 (0x6 bytes), align: 1
  Segment part 125.           Intra module refs:   CModbus::ReadCoils(uint8_t *, uint8_t *, uint16_t)
                                                   CModbus::ReadDiscreteInputs(uint8_t *, uint8_t *, uint16_t)
           LOCAL                   ADDRESS         
           =====                   =======         
           ?Subroutine31           00001C34 
    -------------------------------------------------------------------------
CODE
  Relative segment, address: CODE 00001C3A - 00001C3F (0x6 bytes), align: 1
  Segment part 126.           Intra module refs:   ?Subroutine31
                                                   ?Subroutine32
           LOCAL                   ADDRESS         
           =====                   =======         
           ?Subroutine58           00001C3A 
    -------------------------------------------------------------------------
CODE
  Relative segment, address: CODE 00001C40 - 00001C47 (0x8 bytes), align: 1
  Segment part 127.           Intra module refs:   CModbus::ReadCoils(uint8_t *, uint8_t *, uint16_t)
                                                   CModbus::ReadDiscreteInputs(uint8_t *, uint8_t *, uint16_t)
           LOCAL                   ADDRESS         
           =====                   =======         
           ?Subroutine15           00001C40 
    -------------------------------------------------------------------------
CODE
  Relative segment, address: CODE 00001C48 - 00001C5F (0x18 bytes), align: 1
  Segment part 128.           Intra module refs:   CModbus::ReadCoils(uint8_t *, uint8_t *, uint16_t)
                                                   CModbus::ReadDiscreteInputs(uint8_t *, uint8_t *, uint16_t)
           LOCAL                   ADDRESS         
           =====                   =======         
           ?Subroutine1            00001C48 
    -------------------------------------------------------------------------
CODE
  Relative segment, address: CODE 00001C60 - 00001C87 (0x28 bytes), align: 1
  Segment part 129.           Intra module refs:   CModbus::ReadCoils(uint8_t *, uint8_t *, uint16_t)
                                                   CModbus::ReadDiscreteInputs(uint8_t *, uint8_t *, uint16_t)
           LOCAL                   ADDRESS         
           =====                   =======         
           ?Subroutine0            00001C60 
    -------------------------------------------------------------------------
CODE
  Relative segment, address: CODE 00001C88 - 00001C89 (0x2 bytes), align: 1
  Segment part 130.           Intra module refs:   ?Subroutine0
           LOCAL                   ADDRESS         
           =====                   =======         
           ?Subroutine47           00001C88 
    -------------------------------------------------------------------------
CODE
  Relative segment, address: CODE 00001C8A - 00001C8F (0x6 bytes), align: 1
  Segment part 131.           Intra module refs:   ?Subroutine47
                                                   Segment part 182
    -------------------------------------------------------------------------
CODE
  Relative segment, address: CODE 00001C90 - 00001CC9 (0x3a bytes), align: 1
  Segment part 132.           Intra module refs:   CModbus::Reply(uint8_t *, uint8_t *, uint16_t)
           ENTRY                   ADDRESS         REF BY
           =====                   =======         ======
           CModbus::ReadHoldingRegisters(uint8_t *, uint8_t *, uint16_t)
                                   00001C90 
               calls direct and indirect
    -------------------------------------------------------------------------
CODE
  Relative segment, address: CODE 00001CCA - 00001CCD (0x4 bytes), align: 1
  Segment part 133.           Intra module refs:   CModbus::ReadHoldingRegisters(uint8_t *, uint8_t *, uint16_t)
                                                   CModbus::ReadInputRegisters(uint8_t *, uint8_t *, uint16_t)
           LOCAL                   ADDRESS         
           =====                   =======         
           ?Subroutine68           00001CCA 
    -------------------------------------------------------------------------
CODE
  Relative segment, address: CODE 00001CCE - 00001CD3 (0x6 bytes), align: 1
  Segment part 134.           Intra module refs:   CModbus::ReadHoldingRegisters(uint8_t *, uint8_t *, uint16_t)
           LOCAL                   ADDRESS         
           =====                   =======         
           ?Subroutine10           00001CCE 
    -------------------------------------------------------------------------
CODE
  Relative segment, address: CODE 00001CD4 - 00001CD7 (0x4 bytes), align: 1
  Segment part 135.           Intra module refs:   ?Subroutine10
                                                   ?Subroutine11
           LOCAL                   ADDRESS         
           =====                   =======         
           ?Subroutine56           00001CD4 
    -------------------------------------------------------------------------
CODE
  Relative segment, address: CODE 00001CD8 - 00001CDB (0x4 bytes), align: 1
  Segment part 136.           Intra module refs:   ?Subroutine56
                                                   Segment part 155
    -------------------------------------------------------------------------
CODE
  Relative segment, address: CODE 00001CDC - 00001D17 (0x3c bytes), align: 1
  Segment part 137.           Intra module refs:   CModbus::Reply(uint8_t *, uint8_t *, uint16_t)
           ENTRY                   ADDRESS         REF BY
           =====                   =======         ======
           CModbus::ReadInputRegisters(uint8_t *, uint8_t *, uint16_t)
                                   00001CDC 
               calls direct and indirect
    -------------------------------------------------------------------------
CODE
  Relative segment, address: CODE 00001D18 - 00001D23 (0xc bytes), align: 1
  Segment part 138.           Intra module refs:   CModbus::ReadHoldingRegisters(uint8_t *, uint8_t *, uint16_t)
                                                   CModbus::ReadInputRegisters(uint8_t *, uint8_t *, uint16_t)
           LOCAL                   ADDRESS         
           =====                   =======         
           ?Subroutine35           00001D18 
    -------------------------------------------------------------------------
CODE
  Relative segment, address: CODE 00001D24 - 00001D2D (0xa bytes), align: 1
  Segment part 139.           Intra module refs:   CModbus::ReadHoldingRegisters(uint8_t *, uint8_t *, uint16_t)
                                                   CModbus::ReadInputRegisters(uint8_t *, uint8_t *, uint16_t)
           LOCAL                   ADDRESS         
           =====                   =======         
           ?Subroutine34           00001D24 
    -------------------------------------------------------------------------
CODE
  Relative segment, address: CODE 00001D2E - 00001D35 (0x8 bytes), align: 1
  Segment part 140.           Intra module refs:   CModbus::ReadHoldingRegisters(uint8_t *, uint8_t *, uint16_t)
                                                   CModbus::ReadInputRegisters(uint8_t *, uint8_t *, uint16_t)
           LOCAL                   ADDRESS         
           =====                   =======         
           ?Subroutine32           00001D2E 
    -------------------------------------------------------------------------
CODE
  Relative segment, address: CODE 00001D36 - 00001D39 (0x4 bytes), align: 1
  Segment part 141.           Intra module refs:   CModbus::ReadCoils(uint8_t *, uint8_t *, uint16_t)
                                                   CModbus::ReadDiscreteInputs(uint8_t *, uint8_t *, uint16_t)
                                                   CModbus::ReadHoldingRegisters(uint8_t *, uint8_t *, uint16_t)
                                                   CModbus::ReadInputRegisters(uint8_t *, uint8_t *, uint16_t)
                                                   CModbus::WriteMultipleCoils(uint8_t *, uint8_t *, uint16_t)
                                                   CModbus::WriteSingleCoil(uint8_t *, uint8_t *, uint16_t)
                                                   CModbus::WriteSingleRegister(uint8_t *, uint8_t *, uint16_t)
           LOCAL                   ADDRESS         
           =====                   =======         
           ?Subroutine27           00001D36 
    -------------------------------------------------------------------------
CODE
  Relative segment, address: CODE 00001D3A - 00001D4D (0x14 bytes), align: 1
  Segment part 142.           Intra module refs:   CModbus::ReadHoldingRegisters(uint8_t *, uint8_t *, uint16_t)
                                                   CModbus::ReadInputRegisters(uint8_t *, uint8_t *, uint16_t)
           LOCAL                   ADDRESS         
           =====                   =======         
           ?Subroutine19           00001D3A 
    -------------------------------------------------------------------------
CODE
  Relative segment, address: CODE 00001D4E - 00001D4F (0x2 bytes), align: 1
  Segment part 143.           Intra module refs:   ?Subroutine19
                                                   ?Subroutine4
           LOCAL                   ADDRESS         
           =====                   =======         
           ?Subroutine44           00001D4E 
    -------------------------------------------------------------------------
CODE
  Relative segment, address: CODE 00001D50 - 00001D55 (0x6 bytes), align: 1
  Segment part 144.           Intra module refs:   ?Subroutine0
                                                   ?Subroutine19
                                                   ?Subroutine44
                                                   CModbus::ByteToBitPack(uint16_t, uint16_t, uint8_t *, uint8_t *, uint16_t)
    -------------------------------------------------------------------------
CODE
  Relative segment, address: CODE 00001D56 - 00001D57 (0x2 bytes), align: 1
  Segment part 145.           Intra module refs:   CModbus::ReadHoldingRegisters(uint8_t *, uint8_t *, uint16_t)
                                                   CModbus::ReadInputRegisters(uint8_t *, uint8_t *, uint16_t)
           LOCAL                   ADDRESS         
           =====                   =======         
           ?Subroutine13           00001D56 
    -------------------------------------------------------------------------
CODE
  Relative segment, address: CODE 00001D58 - 00001D5B (0x4 bytes), align: 1
  Segment part 146.           Intra module refs:   ?Subroutine13
                                                   ?Subroutine17
                                                   ?Subroutine39
           LOCAL                   ADDRESS         
           =====                   =======         
           ?Subroutine61           00001D58 
    -------------------------------------------------------------------------
CODE
  Relative segment, address: CODE 00001D5C - 00001D63 (0x8 bytes), align: 1
  Segment part 147.           Intra module refs:   CModbus::ReadInputRegisters(uint8_t *, uint8_t *, uint16_t)
           LOCAL                   ADDRESS         
           =====                   =======         
           ?Subroutine11           00001D5C 
    -------------------------------------------------------------------------
CODE
  Relative segment, address: CODE 00001D64 - 00001D79 (0x16 bytes), align: 1
  Segment part 148.           Intra module refs:   CModbus::ReadHoldingRegisters(uint8_t *, uint8_t *, uint16_t)
                                                   CModbus::ReadInputRegisters(uint8_t *, uint8_t *, uint16_t)
           LOCAL                   ADDRESS         
           =====                   =======         
           ?Subroutine4            00001D64 
    -------------------------------------------------------------------------
CODE
  Relative segment, address: CODE 00001D7A - 00001D7F (0x6 bytes), align: 1
  Segment part 149.           Intra module refs:   ?Subroutine0
                                                   ?Subroutine4
           LOCAL                   ADDRESS         
           =====                   =======         
           ?Subroutine39           00001D7A 
    -------------------------------------------------------------------------
CODE
  Relative segment, address: CODE 00001D80 - 00001D97 (0x18 bytes), align: 1
  Segment part 150.           Intra module refs:   CModbus::ReadHoldingRegisters(uint8_t *, uint8_t *, uint16_t)
                                                   CModbus::ReadInputRegisters(uint8_t *, uint8_t *, uint16_t)
           LOCAL                   ADDRESS         
           =====                   =======         
           ?Subroutine2            00001D80 
    -------------------------------------------------------------------------
CODE
  Relative segment, address: CODE 00001D98 - 00001D9D (0x6 bytes), align: 1
  Segment part 151.           Intra module refs:   ?Subroutine1
                                                   ?Subroutine2
           LOCAL                   ADDRESS         
           =====                   =======         
           ?Subroutine41           00001D98 
    -------------------------------------------------------------------------
CODE
  Relative segment, address: CODE 00001D9E - 00001DA7 (0xa bytes), align: 1
  Segment part 152.           Intra module refs:   ?Subroutine41
                                                   CModbus::PollProgramming(uint8_t *, uint8_t *, uint16_t)
           LOCAL                   ADDRESS         
           =====                   =======         
           ?Subroutine51           00001D9E 
    -------------------------------------------------------------------------
CODE
  Relative segment, address: CODE 00001DA8 - 00001DFF (0x58 bytes), align: 1
  Segment part 153.           Intra module refs:   CModbus::Reply(uint8_t *, uint8_t *, uint16_t)
           ENTRY                   ADDRESS         REF BY
           =====                   =======         ======
           CModbus::WriteSingleCoil(uint8_t *, uint8_t *, uint16_t)
                                   00001DA8 
               calls direct and indirect
    -------------------------------------------------------------------------
CODE
  Relative segment, address: CODE 00001E00 - 00001E01 (0x2 bytes), align: 1
  Segment part 154.           Intra module refs:   CModbus::WriteMultipleCoils(uint8_t *, uint8_t *, uint16_t)
                                                   CModbus::WriteSingleCoil(uint8_t *, uint8_t *, uint16_t)
           LOCAL                   ADDRESS         
           =====                   =======         
           ?Subroutine36           00001E00 
    -------------------------------------------------------------------------
CODE
  Relative segment, address: CODE 00001E02 - 00001E07 (0x6 bytes), align: 1
  Segment part 155.           Intra module refs:   ?Subroutine36
                                                   CModbus::Reply(uint8_t *, uint8_t *, uint16_t)
                                                   CModbus::WriteSingleRegister(uint8_t *, uint8_t *, uint16_t)
    -------------------------------------------------------------------------
CODE
  Relative segment, address: CODE 00001E08 - 00001E0D (0x6 bytes), align: 1
  Segment part 156.           Intra module refs:   CModbus::ReadCoils(uint8_t *, uint8_t *, uint16_t)
                                                   CModbus::ReadDiscreteInputs(uint8_t *, uint8_t *, uint16_t)
                                                   CModbus::WriteMultipleCoils(uint8_t *, uint8_t *, uint16_t)
                                                   CModbus::WriteMultipleRegisters(uint8_t *, uint8_t *, uint16_t)
                                                   CModbus::WriteSingleCoil(uint8_t *, uint8_t *, uint16_t)
           LOCAL                   ADDRESS         
           =====                   =======         
           ?Subroutine30           00001E08 
    -------------------------------------------------------------------------
CODE
  Relative segment, address: CODE 00001E0E - 00001E13 (0x6 bytes), align: 1
  Segment part 157.           Intra module refs:   CModbus::ReadCoils(uint8_t *, uint8_t *, uint16_t)
                                                   CModbus::ReadDiscreteInputs(uint8_t *, uint8_t *, uint16_t)
                                                   CModbus::WriteMultipleCoils(uint8_t *, uint8_t *, uint16_t)
                                                   CModbus::WriteMultipleRegisters(uint8_t *, uint8_t *, uint16_t)
                                                   CModbus::WriteSingleCoil(uint8_t *, uint8_t *, uint16_t)
           LOCAL                   ADDRESS         
           =====                   =======         
           ?Subroutine29           00001E0E 
    -------------------------------------------------------------------------
CODE
  Relative segment, address: CODE 00001E14 - 00001E6B (0x58 bytes), align: 1
  Segment part 158.           Intra module refs:   CModbus::Reply(uint8_t *, uint8_t *, uint16_t)
           ENTRY                   ADDRESS         REF BY
           =====                   =======         ======
           CModbus::WriteSingleRegister(uint8_t *, uint8_t *, uint16_t)
                                   00001E14 
               calls direct and indirect
    -------------------------------------------------------------------------
CODE
  Relative segment, address: CODE 00001E6C - 00001E6F (0x4 bytes), align: 1
  Segment part 159.           Intra module refs:   ?Subroutine3
                                                   CModbus::WriteSingleCoil(uint8_t *, uint8_t *, uint16_t)
                                                   CModbus::WriteSingleRegister(uint8_t *, uint8_t *, uint16_t)
           LOCAL                   ADDRESS         
           =====                   =======         
           ?Subroutine48           00001E6C 
    -------------------------------------------------------------------------
CODE
  Relative segment, address: CODE 00001E70 - 00001E73 (0x4 bytes), align: 1
  Segment part 160.           Intra module refs:   CModbus::Reply(uint8_t *, uint8_t *, uint16_t)
                                                   CModbus::WriteSingleCoil(uint8_t *, uint8_t *, uint16_t)
                                                   CModbus::WriteSingleRegister(uint8_t *, uint8_t *, uint16_t)
           LOCAL                   ADDRESS         
           =====                   =======         
           ?Subroutine17           00001E70 
    -------------------------------------------------------------------------
CODE
  Relative segment, address: CODE 00001E74 - 00001E77 (0x4 bytes), align: 1
  Segment part 161.           Intra module refs:   ?Subroutine13
                                                   ?Subroutine9
                                                   CModbus::PollProgramming(uint8_t *, uint8_t *, uint16_t)
                                                   CModbus::Programming(uint8_t *, uint8_t *, uint16_t)
                                                   CModbus::ReadCoils(uint8_t *, uint8_t *, uint16_t)
                                                   CModbus::ReadDiscreteInputs(uint8_t *, uint8_t *, uint16_t)
                                                   CModbus::WriteSingleRegister(uint8_t *, uint8_t *, uint16_t)
           LOCAL                   ADDRESS         
           =====                   =======         
           ?Subroutine40           00001E74 
    -------------------------------------------------------------------------
CODE
  Relative segment, address: CODE 00001E78 - 00001ECF (0x58 bytes), align: 1
  Segment part 162.           Intra module refs:   CModbus::Reply(uint8_t *, uint8_t *, uint16_t)
           ENTRY                   ADDRESS         REF BY
           =====                   =======         ======
           CModbus::WriteMultipleCoils(uint8_t *, uint8_t *, uint16_t)
                                   00001E78 
               calls direct and indirect
    -------------------------------------------------------------------------
CODE
  Relative segment, address: CODE 00001ED0 - 00001ED5 (0x6 bytes), align: 1
  Segment part 163.           Intra module refs:   CModbus::WriteMultipleCoils(uint8_t *, uint8_t *, uint16_t)
                                                   CModbus::WriteMultipleRegisters(uint8_t *, uint8_t *, uint16_t)
                                                   CModbus::WriteSingleCoil(uint8_t *, uint8_t *, uint16_t)
           LOCAL                   ADDRESS         
           =====                   =======         
           ?Subroutine9            00001ED0 
    -------------------------------------------------------------------------
CODE
  Relative segment, address: CODE 00001ED6 - 00001F53 (0x7e bytes), align: 1
  Segment part 164.           Intra module refs:   CModbus::Reply(uint8_t *, uint8_t *, uint16_t)
           ENTRY                   ADDRESS         REF BY
           =====                   =======         ======
           CModbus::WriteMultipleRegisters(uint8_t *, uint8_t *, uint16_t)
                                   00001ED6 
               calls direct and indirect
    -------------------------------------------------------------------------
CODE
  Relative segment, address: CODE 00001F54 - 00001F55 (0x2 bytes), align: 1
  Segment part 165.           Intra module refs:   CModbus::ReceiveMessage(uint8_t *, uint16_t)
                                                   CModbus::WriteMultipleRegisters(uint8_t *, uint8_t *, uint16_t)
           LOCAL                   ADDRESS         
           =====                   =======         
           ?Subroutine63           00001F54 
    -------------------------------------------------------------------------
CODE
  Relative segment, address: CODE 00001F56 - 00001F59 (0x4 bytes), align: 1
  Segment part 166.           Intra module refs:   ?Subroutine63
                                                   CModbus::ByteToBitPack(uint16_t, uint16_t, uint8_t *, uint8_t *, uint16_t)
    -------------------------------------------------------------------------
CODE
  Relative segment, address: CODE 00001F5A - 00001F5D (0x4 bytes), align: 1
  Segment part 167.           Intra module refs:   CModbus::ByteToBitPack(uint16_t, uint16_t, uint8_t *, uint8_t *, uint16_t)
                                                   CModbus::ReceiveMessage(uint8_t *, uint16_t)
                                                   CModbus::WriteMultipleRegisters(uint8_t *, uint8_t *, uint16_t)
           LOCAL                   ADDRESS         
           =====                   =======         
           ?Subroutine25           00001F5A 
    -------------------------------------------------------------------------
CODE
  Relative segment, address: CODE 00001F5E - 00001F5F (0x2 bytes), align: 1
  Segment part 168.           Intra module refs:   CModbus::Programming(uint8_t *, uint8_t *, uint16_t)
           LOCAL                   ADDRESS         
           =====                   =======         
           ?Subroutine23           00001F5E 
    -------------------------------------------------------------------------
CODE
  Relative segment, address: CODE 00001F60 - 00001F61 (0x2 bytes), align: 1
  Segment part 169.           Intra module refs:   ?Subroutine23
                                                   CModbus::Programming(uint8_t *, uint8_t *, uint16_t)
    -------------------------------------------------------------------------
CODE
  Relative segment, address: CODE 00001F62 - 00001F63 (0x2 bytes), align: 1
  Segment part 170.           Intra module refs:   CModbus::WriteMultipleRegisters(uint8_t *, uint8_t *, uint16_t)
                                                   Segment part 169
    -------------------------------------------------------------------------
CODE
  Relative segment, address: CODE 00001F64 - 00001F69 (0x6 bytes), align: 1
  Segment part 171.           Intra module refs:   CModbus::ByteToBitPack(uint16_t, uint16_t, uint8_t *, uint8_t *, uint16_t)
                                                   Segment part 170
    -------------------------------------------------------------------------
CODE
  Relative segment, address: CODE 00001F6A - 00001F71 (0x8 bytes), align: 1
  Segment part 172.           Intra module refs:   CModbus::WriteMultipleCoils(uint8_t *, uint8_t *, uint16_t)
                                                   CModbus::WriteMultipleRegisters(uint8_t *, uint8_t *, uint16_t)
           LOCAL                   ADDRESS         
           =====                   =======         
           ?Subroutine7            00001F6A 
    -------------------------------------------------------------------------
CODE
  Relative segment, address: CODE 00001F72 - 00001F89 (0x18 bytes), align: 1
  Segment part 173.           Intra module refs:   CModbus::WriteMultipleCoils(uint8_t *, uint8_t *, uint16_t)
                                                   CModbus::WriteMultipleRegisters(uint8_t *, uint8_t *, uint16_t)
           LOCAL                   ADDRESS         
           =====                   =======         
           ?Subroutine3            00001F72 
    -------------------------------------------------------------------------
CODE
  Relative segment, address: CODE 00001F8A - 00001FC7 (0x3e bytes), align: 1
  Segment part 176.           Intra module refs:   CModbus::Reply(uint8_t *, uint8_t *, uint16_t)
           ENTRY                   ADDRESS         REF BY
           =====                   =======         ======
           CModbus::ReportSlaveID(uint8_t *, uint8_t *, uint16_t)
                                   00001F8A 
               calls indirect
    -------------------------------------------------------------------------
CODE
  Relative segment, address: CODE 00001FC8 - 00001FC9 (0x2 bytes), align: 1
  Segment part 177.           Intra module refs:   CModbus::PollProgramming(uint8_t *, uint8_t *, uint16_t)
                                                   CModbus::ReportSlaveID(uint8_t *, uint8_t *, uint16_t)
           LOCAL                   ADDRESS         
           =====                   =======         
           ?Subroutine65           00001FC8 
    -------------------------------------------------------------------------
CODE
  Relative segment, address: CODE 00001FCA - 00001FCD (0x4 bytes), align: 1
  Segment part 178.           Intra module refs:   ?Subroutine65
    -------------------------------------------------------------------------
CODE
  Relative segment, address: CODE 00001FCE - 00001FD3 (0x6 bytes), align: 1
  Segment part 179.           Intra module refs:   CModbus::Programming(uint8_t *, uint8_t *, uint16_t)
                                                   CModbus::ReportSlaveID(uint8_t *, uint8_t *, uint16_t)
                                                   CModbus::ResponseException(uint8_t, uint8_t, uint8_t, uint8_t *)
                                                   CModbus::WriteMultipleRegisters(uint8_t *, uint8_t *, uint16_t)
           LOCAL                   ADDRESS         
           =====                   =======         
           ?Subroutine24           00001FCE 
    -------------------------------------------------------------------------
CODE
  Relative segment, address: CODE 00001FD4 - 00001FD7 (0x4 bytes), align: 1
  Segment part 180.           Intra module refs:   CModbus::ReportSlaveID(uint8_t *, uint8_t *, uint16_t)
                                                   CModbus::ResponseException(uint8_t, uint8_t, uint8_t, uint8_t *)
           LOCAL                   ADDRESS         
           =====                   =======         
           ?Subroutine20           00001FD4 
    -------------------------------------------------------------------------
CODE
  Relative segment, address: CODE 00001FD8 - 00001FDD (0x6 bytes), align: 1
  Segment part 181.           Intra module refs:   CModbus::ReportSlaveID(uint8_t *, uint8_t *, uint16_t)
           LOCAL                   ADDRESS         
           =====                   =======         
           ?Subroutine12           00001FD8 
    -------------------------------------------------------------------------
CODE
  Relative segment, address: CODE 00001FDE - 00001FE1 (0x4 bytes), align: 1
  Segment part 182.           Intra module refs:   ?Subroutine12
                                                   CModbus::ReportSlaveID(uint8_t *, uint8_t *, uint16_t)
    -------------------------------------------------------------------------
CODE
  Relative segment, address: CODE 00001FE2 - 0000211B (0x13a bytes), align: 1
  Segment part 183.           Intra module refs:   CModbus::Reply(uint8_t *, uint8_t *, uint16_t)
           ENTRY                   ADDRESS         REF BY
           =====                   =======         ======
           CModbus::Programming(uint8_t *, uint8_t *, uint16_t)
                                   00001FE2 
               calls direct and indirect
    -------------------------------------------------------------------------
CODE
  Relative segment, address: CODE 0000211C - 00002121 (0x6 bytes), align: 1
  Segment part 184.           Intra module refs:   ?Subroutine17
                                                   ?Subroutine41
                                                   ?Subroutine7
                                                   ?Subroutine8
                                                   CModbus::Programming(uint8_t *, uint8_t *, uint16_t)
                                                   CModbus::ReportSlaveID(uint8_t *, uint8_t *, uint16_t)
           LOCAL                   ADDRESS         
           =====                   =======         
           ?Subroutine49           0000211C 
    -------------------------------------------------------------------------
CODE
  Relative segment, address: CODE 00002122 - 00002133 (0x12 bytes), align: 1
  Segment part 185.           Intra module refs:   CModbus::Programming(uint8_t *, uint8_t *, uint16_t)
           LOCAL                   ADDRESS         
           =====                   =======         
           ?Subroutine6            00002122 
    -------------------------------------------------------------------------
CODE
  Relative segment, address: CODE 00002134 - 0000213D (0xa bytes), align: 1
  Segment part 186.           Intra module refs:   ?Subroutine6
                                                   CModbus::Programming(uint8_t *, uint8_t *, uint16_t)
           LOCAL                   ADDRESS         
           =====                   =======         
           ?Subroutine46           00002134 
    -------------------------------------------------------------------------
CODE
  Relative segment, address: CODE 0000213E - 00002149 (0xc bytes), align: 1
  Segment part 187.           Intra module refs:   ?Subroutine6
           LOCAL                   ADDRESS         
           =====                   =======         
           ?Subroutine45           0000213E 
    -------------------------------------------------------------------------
CODE
  Relative segment, address: CODE 0000214A - 0000214F (0x6 bytes), align: 1
  Segment part 188.           Intra module refs:   CModbus::Programming(uint8_t *, uint8_t *, uint16_t)
           LOCAL                   ADDRESS         
           =====                   =======         
           ?Subroutine5            0000214A 
    -------------------------------------------------------------------------
CODE
  Relative segment, address: CODE 00002150 - 00002153 (0x4 bytes), align: 1
  Segment part 189.           Intra module refs:   ?Subroutine3
                                                   ?Subroutine5
                                                   CModbus::PollProgramming(uint8_t *, uint8_t *, uint16_t)
           LOCAL                   ADDRESS         
           =====                   =======         
           ?Subroutine38           00002150 
    -------------------------------------------------------------------------
CODE
  Relative segment, address: CODE 00002154 - 00002155 (0x2 bytes), align: 1
  Segment part 190.           Intra module refs:   ?Subroutine38
                                                   ?Subroutine39
           LOCAL                   ADDRESS         
           =====                   =======         
           ?Subroutine50           00002154 
    -------------------------------------------------------------------------
CODE
  Relative segment, address: CODE 00002156 - 0000215D (0x8 bytes), align: 1
  Segment part 191.           Intra module refs:   ?Subroutine20
                                                   ?Subroutine50
                                                   CModbus::SendMessage(uint8_t *, uint16_t)
           LOCAL                   ADDRESS         
           =====                   =======         
           ?Subroutine54           00002156 
    -------------------------------------------------------------------------
CODE
  Relative segment, address: CODE 0000215E - 00002167 (0xa bytes), align: 1
  Segment part 192.           Intra module refs:   ?Subroutine20
                                                   ?Subroutine50
           LOCAL                   ADDRESS         
           =====                   =======         
           ?Subroutine53           0000215E 
    -------------------------------------------------------------------------
CODE
  Relative segment, address: CODE 00002168 - 0000218F (0x28 bytes), align: 1
  Segment part 193.           Intra module refs:   CModbus::Reply(uint8_t *, uint8_t *, uint16_t)
           ENTRY                   ADDRESS         REF BY
           =====                   =======         ======
           CModbus::PollProgramming(uint8_t *, uint8_t *, uint16_t)
                                   00002168 
               calls direct and indirect
    -------------------------------------------------------------------------
CODE
  Relative segment, address: CODE 00002190 - 00002193 (0x4 bytes), align: 1
  Segment part 194.           Intra module refs:   CModbus::PollProgramming(uint8_t *, uint8_t *, uint16_t)
                                                   CModbus::ReportSlaveID(uint8_t *, uint8_t *, uint16_t)
           LOCAL                   ADDRESS         
           =====                   =======         
           ?Subroutine37           00002190 
    -------------------------------------------------------------------------
CODE
  Relative segment, address: CODE 00002194 - 0000223F (0xac bytes), align: 1
  Segment part 195.           Intra module refs:   Segment part 210
           ENTRY                   ADDRESS         REF BY
           =====                   =======         ======
           CModbus::Reply(uint8_t *, uint8_t *, uint16_t)
                                   00002194        CModbusRTU::Fsm() (ModbusRTU)
               calls direct and indirect
    -------------------------------------------------------------------------
CODE
  Relative segment, address: CODE 00002240 - 00002249 (0xa bytes), align: 1
  Segment part 196.           Intra module refs:   CModbus::Reply(uint8_t *, uint8_t *, uint16_t)
           LOCAL                   ADDRESS         
           =====                   =======         
           ?Subroutine28           00002240 
    -------------------------------------------------------------------------
CODE
  Relative segment, address: CODE 0000224A - 0000224D (0x4 bytes), align: 1
  Segment part 199.           Intra module refs:   CModbus::ByteToBitPack(uint16_t, uint16_t, uint8_t *, uint8_t *, uint16_t)
           LOCAL                   ADDRESS         
           =====                   =======         
           ?Subroutine66           0000224A 
    -------------------------------------------------------------------------
CODE
  Relative segment, address: CODE 0000224E - 00002257 (0xa bytes), align: 1
  Segment part 205.           Intra module refs:   ?Subroutine49
           LOCAL                   ADDRESS         
           =====                   =======         
           ?Subroutine52           0000224E 
    -------------------------------------------------------------------------
CODE
  Relative segment, address: CODE 00002258 - 000022B7 (0x60 bytes), align: 1
  Segment part 207.
           ENTRY                   ADDRESS         REF BY
           =====                   =======         ======
           CModbus::ReceiveMessage(uint8_t *, uint16_t)
                                   00002258        CModbusRTU::Fsm() (ModbusRTU)
               calls indirect
    -------------------------------------------------------------------------
CODE
  Relative segment, address: CODE 000022B8 - 000022BF (0x8 bytes), align: 1
  Segment part 208.           Intra module refs:   ?Subroutine49
                                                   CModbus::ReceiveMessage(uint8_t *, uint16_t)
           LOCAL                   ADDRESS         
           =====                   =======         
           ?Subroutine55           000022B8 
    -------------------------------------------------------------------------
CODE
  Relative segment, address: CODE 000022C0 - 000022C7 (0x8 bytes), align: 1
  Segment part 209.           Intra module refs:   CModbus::PollProgramming(uint8_t *, uint8_t *, uint16_t)
                                                   CModbus::ReceiveMessage(uint8_t *, uint16_t)
           LOCAL                   ADDRESS         
           =====                   =======         
           ?Subroutine8            000022C0 
    -------------------------------------------------------------------------
CODE
  Relative segment, address: CODE 000022C8 - 000022CD (0x6 bytes), align: 1
  Segment part 211.           Intra module refs:   CModbus::__vtbl
           ENTRY                   ADDRESS         REF BY
           =====                   =======         ======
           CModbus::HEADER_LENGTH()
                                   000022C8 
    -------------------------------------------------------------------------
CODE
  Relative segment, address: CODE 000022CE - 000022D3 (0x6 bytes), align: 1
  Segment part 212.           Intra module refs:   CModbus::__vtbl
           ENTRY                   ADDRESS         REF BY
           =====                   =======         ======
           CModbus::CRC_LENGTH()   000022CE 
    -------------------------------------------------------------------------
SWITCH
  Relative segment, address: CODE 0000087C - 000008AF (0x34 bytes), align: 1
  Segment part 210.           Intra module refs:   CModbus::Reply(uint8_t *, uint8_t *, uint16_t)
    -------------------------------------------------------------------------
NEAR_F
  Relative segment, address: CODE 000003FF - 00000410 (0x12 bytes), align: 0
  Segment part 99. ROOT       Intra module refs:   CModbus::CModbus()
           ENTRY                   ADDRESS         REF BY
           =====                   =======         ======
           CModbus::__vtbl         000003FF 
    -------------------------------------------------------------------------
NEAR_F
  Relative segment, address: CODE 00000411 - 00000414 (0x4 bytes), align: 0
  Segment part 100. ROOT 
           LOCAL                   ADDRESS         
           =====                   =======         
           CDriver::__vtbl         00000411 
    -------------------------------------------------------------------------
NEAR_F
  Relative segment, address: CODE 00000415 - 0000041C (0x8 bytes), align: 0
  Segment part 101. ROOT 
           LOCAL                   ADDRESS         
           =====                   =======         
           CTaskInterface::__vtbl
                                   00000415 
    -------------------------------------------------------------------------
NEAR_F
  Relative segment, address: CODE 0000041D - 00000426 (0xa bytes), align: 0
  Segment part 102. ROOT 
           LOCAL                   ADDRESS         
           =====                   =======         
           CIsRegularButtonPressedInterface::__vtbl
                                   0000041D 

    *************************************************************************

  FILE NAME : D:\Projects\CurrentProjects\CautoProjects\PSS48Color\Debug\Obj\ModbusRTU.r90
  PROGRAM MODULE, NAME : ModbusRTU

  SEGMENTS IN THE MODULE
  ======================
CODE
  Relative segment, address: CODE 000022D4 - 0000231F (0x4c bytes), align: 1
  Segment part 102.
           ENTRY                   ADDRESS         REF BY
           =====                   =======         ======
           CModbusRTU::CModbusRTU()
                                   000022D4        __sti__routine() (Pss21)
               calls direct
    -------------------------------------------------------------------------
CODE
  Relative segment, address: CODE 00002320 - 00002325 (0x6 bytes), align: 1
  Segment part 103.           Intra module refs:   CModbusRTU::CModbusRTU()
                                                   CModbusRTU::FrameCheck(uint8_t *, uint16_t)
           LOCAL                   ADDRESS         
           =====                   =======         
           ?Subroutine40           00002320 
    -------------------------------------------------------------------------
NEAR_F
  Relative segment, address: CODE 00000427 - 00000436 (0x10 bytes), align: 0
  Segment part 99. ROOT       Intra module refs:   CModbusRTU::CModbusRTU()
           ENTRY                   ADDRESS         REF BY
           =====                   =======         ======
           CModbusRTU::__vtbl      00000427 
    -------------------------------------------------------------------------
NEAR_F
  Relative segment, address: CODE 00000437 - 00000448 (0x12 bytes), align: 0
  Segment part 100. ROOT      Intra module refs:   CModbusRTU::CModbusRTU()::__vtbltbl
           ENTRY                   ADDRESS         REF BY
           =====                   =======         ======
           CModbusRTU::__vtbl_CModbus
                                   00000437 
    -------------------------------------------------------------------------
NEAR_F
  Relative segment, address: CODE 00000449 - 0000044A (0x2 bytes), align: 0
  Segment part 101. ROOT      Intra module refs:   CModbusRTU::CModbusRTU()
           LOCAL                   ADDRESS         
           =====                   =======         
           CModbusRTU::CModbusRTU()::__vtbltbl
                                   00000449 
    -------------------------------------------------------------------------
CODE
  Relative segment, address: CODE 00002326 - 00002329 (0x4 bytes), align: 1
  Segment part 105.           Intra module refs:   CModbusRTU::ResponseBasis(uint8_t, uint8_t, uint8_t *)
           LOCAL                   ADDRESS         
           =====                   =======         
           ?Subroutine45           00002326 
    -------------------------------------------------------------------------
CODE
  Relative segment, address: CODE 0000232A - 00002355 (0x2c bytes), align: 1
  Segment part 106.           Intra module refs:   CModbusRTU::__vtbl
                                                   CModbusRTU::~CModbusRTU for CDfaLite/-15/()
           ENTRY                   ADDRESS         REF BY
           =====                   =======         ======
           CModbusRTU::~CModbusRTU()
                                   0000232A        <Unnamed 1> (Pss21)
               calls direct
    -------------------------------------------------------------------------
CODE
  Relative segment, address: CODE 00002356 - 00002359 (0x4 bytes), align: 1
  Segment part 107.           Intra module refs:   CModbusRTU::Init(CUart *, uint32_t, char, uint8_t, uint8_t, uint8_t *, uint8_t *, uint8_t *, uint8_t *, uint16_t *, uint16_t *, uint16_t, uint16_t, uint16_t, uint16_t)
           LOCAL                   ADDRESS         
           =====                   =======         
           ?Subroutine12           00002356 
    -------------------------------------------------------------------------
CODE
  Relative segment, address: CODE 0000235A - 0000235F (0x6 bytes), align: 1
  Segment part 108.           Intra module refs:   ?Subroutine12
                                                   CModbusRTU::Init(CUart *, uint32_t, char, uint8_t, uint8_t, uint8_t *, uint8_t *, uint8_t *, uint8_t *, uint16_t *, uint16_t *, uint16_t, uint16_t, uint16_t, uint16_t)
                                                   CModbusRTU::~CModbusRTU()
    -------------------------------------------------------------------------
CODE
  Relative segment, address: CODE 00002360 - 00002363 (0x4 bytes), align: 1
  Segment part 109.           Intra module refs:   CModbusRTU::__vtbl_CModbus
           ENTRY                   ADDRESS         REF BY
           =====                   =======         ======
           CModbusRTU::~CModbusRTU for CDfaLite/-15/()
                                   00002360 
               calls direct
    -------------------------------------------------------------------------
CODE
  Relative segment, address: CODE 00002364 - 0000245B (0xf8 bytes), align: 1
  Segment part 110.
           ENTRY                   ADDRESS         REF BY
           =====                   =======         ======
           CModbusRTU::Init(CUart *, uint32_t, char, uint8_t, uint8_t, uint8_t *, uint8_t *, uint8_t *, uint8_t *, uint16_t *, uint16_t *, uint16_t, uint16_t, uint16_t, uint16_t)
                                   00002364        CPss21::ModbusInit() (Pss21)
               calls direct
    -------------------------------------------------------------------------
CODE
  Relative segment, address: CODE 0000245C - 00002465 (0xa bytes), align: 1
  Segment part 111.           Intra module refs:   CModbusRTU::Init(CUart *, uint32_t, char, uint8_t, uint8_t, uint8_t *, uint8_t *, uint8_t *, uint8_t *, uint16_t *, uint16_t *, uint16_t, uint16_t, uint16_t, uint16_t)
           LOCAL                   ADDRESS         
           =====                   =======         
           ?Subroutine15           0000245C 
    -------------------------------------------------------------------------
CODE
  Relative segment, address: CODE 00002466 - 0000246B (0x6 bytes), align: 1
  Segment part 112.           Intra module refs:   CModbusRTU::Init(CUart *, uint32_t, char, uint8_t, uint8_t, uint8_t *, uint8_t *, uint8_t *, uint8_t *, uint16_t *, uint16_t *, uint16_t, uint16_t, uint16_t, uint16_t)
           LOCAL                   ADDRESS         
           =====                   =======         
           ?Subroutine5            00002466 
    -------------------------------------------------------------------------
CODE
  Relative segment, address: CODE 0000246C - 00002473 (0x8 bytes), align: 1
  Segment part 113.           Intra module refs:   ?Subroutine28
                                                   ?Subroutine5
           LOCAL                   ADDRESS         
           =====                   =======         
           ?Subroutine43           0000246C 
    -------------------------------------------------------------------------
CODE
  Relative segment, address: CODE 00002474 - 00002477 (0x4 bytes), align: 1
  Segment part 115.           Intra module refs:   ?Subroutine16
           LOCAL                   ADDRESS         
           =====                   =======         
           ?Subroutine49           00002474 
    -------------------------------------------------------------------------
CODE
  Relative segment, address: CODE 00002478 - 0000247B (0x4 bytes), align: 1
  Segment part 120.           Intra module refs:   ?Subroutine20
           LOCAL                   ADDRESS         
           =====                   =======         
           ?Subroutine50           00002478 
    -------------------------------------------------------------------------
CODE
  Relative segment, address: CODE 0000247C - 00002483 (0x8 bytes), align: 1
  Segment part 121.           Intra module refs:   CModbusRTU::Receive(uint8_t *, uint16_t)
                                                   CModbusRTU::Send(uint8_t *, uint16_t)
           LOCAL                   ADDRESS         
           =====                   =======         
           ?Subroutine2            0000247C 
    -------------------------------------------------------------------------
CODE
  Relative segment, address: CODE 00002484 - 00002487 (0x4 bytes), align: 1
  Segment part 123.           Intra module refs:   ?Subroutine21
           LOCAL                   ADDRESS         
           =====                   =======         
           ?Subroutine51           00002484 
    -------------------------------------------------------------------------
CODE
  Relative segment, address: CODE 00002488 - 0000248B (0x4 bytes), align: 1
  Segment part 125.           Intra module refs:   ?Subroutine26
           LOCAL                   ADDRESS         
           =====                   =======         
           ?Subroutine52           00002488 
    -------------------------------------------------------------------------
CODE
  Relative segment, address: CODE 0000248C - 000024AD (0x22 bytes), align: 1
  Segment part 126.           Intra module refs:   CModbusRTU::Tail for CModbus/-15/(uint8_t *, uint16_t)
                                                   CModbusRTU::__vtbl
           ENTRY                   ADDRESS         REF BY
           =====                   =======         ======
           CModbusRTU::Tail(uint8_t *, uint16_t)
                                   0000248C 
               calls direct
    -------------------------------------------------------------------------
CODE
  Relative segment, address: CODE 000024AE - 000024B1 (0x4 bytes), align: 1
  Segment part 127.           Intra module refs:   CModbusRTU::__vtbl_CModbus
           ENTRY                   ADDRESS         REF BY
           =====                   =======         ======
           CModbusRTU::Tail for CModbus/-15/(uint8_t *, uint16_t)
                                   000024AE 
               calls direct
    -------------------------------------------------------------------------
CODE
  Relative segment, address: CODE 000024B2 - 000024CD (0x1c bytes), align: 1
  Segment part 128.           Intra module refs:   CModbusRTU::RequestBasis for CModbus/-15/(uint8_t, uint8_t, uint16_t, uint16_t, uint8_t *)
                                                   CModbusRTU::__vtbl
           ENTRY                   ADDRESS         REF BY
           =====                   =======         ======
           CModbusRTU::RequestBasis(uint8_t, uint8_t, uint16_t, uint16_t, uint8_t *)
                                   000024B2 
    -------------------------------------------------------------------------
CODE
  Relative segment, address: CODE 000024CE - 000024D1 (0x4 bytes), align: 1
  Segment part 129.           Intra module refs:   CModbusRTU::__vtbl_CModbus
           ENTRY                   ADDRESS         REF BY
           =====                   =======         ======
           CModbusRTU::RequestBasis for CModbus/-15/(uint8_t, uint8_t, uint16_t, uint16_t, uint8_t *)
                                   000024CE 
               calls direct
    -------------------------------------------------------------------------
CODE
  Relative segment, address: CODE 000024D2 - 000024DB (0xa bytes), align: 1
  Segment part 130.           Intra module refs:   CModbusRTU::ResponseBasis for CModbus/-15/(uint8_t, uint8_t, uint8_t *)
                                                   CModbusRTU::__vtbl
           ENTRY                   ADDRESS         REF BY
           =====                   =======         ======
           CModbusRTU::ResponseBasis(uint8_t, uint8_t, uint8_t *)
                                   000024D2 
    -------------------------------------------------------------------------
CODE
  Relative segment, address: CODE 000024DC - 000024DF (0x4 bytes), align: 1
  Segment part 131.           Intra module refs:   CModbusRTU::__vtbl_CModbus
           ENTRY                   ADDRESS         REF BY
           =====                   =======         ======
           CModbusRTU::ResponseBasis for CModbus/-15/(uint8_t, uint8_t, uint8_t *)
                                   000024DC 
               calls direct
    -------------------------------------------------------------------------
CODE
  Relative segment, address: CODE 000024E0 - 000024E1 (0x2 bytes), align: 1
  Segment part 132.           Intra module refs:   CModbusRTU::Fsm for CDfaLite/-15/()
                                                   CModbusRTU::RequestBasis for CModbus/-15/(uint8_t, uint8_t, uint16_t, uint16_t, uint8_t *)
                                                   CModbusRTU::ResponseBasis for CModbus/-15/(uint8_t, uint8_t, uint8_t *)
                                                   CModbusRTU::Send for CModbus/-15/(uint8_t *, uint16_t)
                                                   CModbusRTU::Tail for CModbus/-15/(uint8_t *, uint16_t)
                                                   CModbusRTU::~CModbusRTU for CDfaLite/-15/()
           LOCAL                   ADDRESS         
           =====                   =======         
           ?Subroutine13           000024E0 
    -------------------------------------------------------------------------
CODE
  Relative segment, address: CODE 000024E2 - 000024E5 (0x4 bytes), align: 1
  Segment part 133.           Intra module refs:   ?Subroutine0
                                                   ?Subroutine13
           LOCAL                   ADDRESS         
           =====                   =======         
           ?Subroutine46           000024E2 
    -------------------------------------------------------------------------
CODE
  Relative segment, address: CODE 000024E6 - 000024EB (0x6 bytes), align: 1
  Segment part 134.           Intra module refs:   CModbusRTU::Send for CModbus/-15/(uint8_t *, uint16_t)
                                                   CModbusRTU::__vtbl
           ENTRY                   ADDRESS         REF BY
           =====                   =======         ======
           CModbusRTU::Send(uint8_t *, uint16_t)
                                   000024E6 
               calls direct
    -------------------------------------------------------------------------
CODE
  Relative segment, address: CODE 000024EC - 000024EF (0x4 bytes), align: 1
  Segment part 135.           Intra module refs:   CModbusRTU::__vtbl_CModbus
           ENTRY                   ADDRESS         REF BY
           =====                   =======         ======
           CModbusRTU::Send for CModbus/-15/(uint8_t *, uint16_t)
                                   000024EC 
               calls direct
    -------------------------------------------------------------------------
CODE
  Relative segment, address: CODE 000024F0 - 000024F5 (0x6 bytes), align: 1
  Segment part 141.           Intra module refs:   ?Subroutine0
           ENTRY                   ADDRESS         REF BY
           =====                   =======         ======
           CModbusRTU::Receive(uint8_t *, uint16_t)
                                   000024F0 
               calls direct
    -------------------------------------------------------------------------
CODE
  Relative segment, address: CODE 000024F6 - 00002501 (0xc bytes), align: 1
  Segment part 143.           Intra module refs:   CModbusRTU::TimeIsOver(uint16_t)
           LOCAL                   ADDRESS         
           =====                   =======         
           ?Subroutine41           000024F6 
    -------------------------------------------------------------------------
CODE
  Relative segment, address: CODE 00002502 - 0000250D (0xc bytes), align: 1
  Segment part 145.           Intra module refs:   CModbusRTU::GetSystemTime()
           LOCAL                   ADDRESS         
           =====                   =======         
           ?Subroutine42           00002502 
    -------------------------------------------------------------------------
CODE
  Relative segment, address: CODE 0000250E - 00002523 (0x16 bytes), align: 1
  Segment part 149.           Intra module refs:   ?Subroutine29
           ENTRY                   ADDRESS         REF BY
           =====                   =======         ======
           CModbusRTU::TimeIsOver(uint16_t)
                                   0000250E 
    -------------------------------------------------------------------------
CODE
  Relative segment, address: CODE 00002524 - 00002525 (0x2 bytes), align: 1
  Segment part 150.           Intra module refs:   CModbusRTU::TimeIsOver(uint16_t)
           LOCAL                   ADDRESS         
           =====                   =======         
           ?Subroutine27           00002524 
    -------------------------------------------------------------------------
CODE
  Relative segment, address: CODE 00002526 - 0000252B (0x6 bytes), align: 1
  Segment part 151.           Intra module refs:   ?Subroutine1
                                                   ?Subroutine27
                                                   ?Subroutine30
           LOCAL                   ADDRESS         
           =====                   =======         
           ?Subroutine39           00002526 
    -------------------------------------------------------------------------
CODE
  Relative segment, address: CODE 0000252C - 00002535 (0xa bytes), align: 1
  Segment part 153.           Intra module refs:   ?Subroutine31
           ENTRY                   ADDRESS         REF BY
           =====                   =======         ======
           CModbusRTU::GetSystemTime()
                                   0000252C 
    -------------------------------------------------------------------------
CODE
  Relative segment, address: CODE 00002536 - 00002537 (0x2 bytes), align: 1
  Segment part 154.           Intra module refs:   CModbusRTU::GetSystemTime()
           LOCAL                   ADDRESS         
           =====                   =======         
           ?Subroutine10           00002536 
    -------------------------------------------------------------------------
CODE
  Relative segment, address: CODE 00002538 - 00002541 (0xa bytes), align: 1
  Segment part 155.           Intra module refs:   ?Subroutine10
                                                   ?Subroutine27
           LOCAL                   ADDRESS         
           =====                   =======         
           ?Subroutine38           00002538 
    -------------------------------------------------------------------------
CODE
  Relative segment, address: CODE 00002542 - 0000254B (0xa bytes), align: 1
  Segment part 156.           Intra module refs:   ?Subroutine10
           LOCAL                   ADDRESS         
           =====                   =======         
           ?Subroutine33           00002542 
    -------------------------------------------------------------------------
CODE
  Relative segment, address: CODE 0000254C - 00002551 (0x6 bytes), align: 1
  Segment part 158.           Intra module refs:   CModbusRTU::Fsm()
                                                   CModbusRTU::Tail(uint8_t *, uint16_t)
           LOCAL                   ADDRESS         
           =====                   =======         
           ?Subroutine53           0000254C 
    -------------------------------------------------------------------------
CODE
  Relative segment, address: CODE 00002552 - 00002555 (0x4 bytes), align: 1
  Segment part 159.           Intra module refs:   CModbusRTU::Fsm()
                                                   CModbusRTU::Tail(uint8_t *, uint16_t)
           LOCAL                   ADDRESS         
           =====                   =======         
           ?Subroutine17           00002552 
    -------------------------------------------------------------------------
CODE
  Relative segment, address: CODE 00002556 - 0000258B (0x36 bytes), align: 1
  Segment part 160.           Intra module refs:   ?Subroutine19
           ENTRY                   ADDRESS         REF BY
           =====                   =======         ======
           CModbusRTU::FrameCheck(uint8_t *, uint16_t)
                                   00002556 
               calls direct
    -------------------------------------------------------------------------
CODE
  Relative segment, address: CODE 0000258C - 0000258D (0x2 bytes), align: 1
  Segment part 161.           Intra module refs:   CModbusRTU::FrameCheck(uint8_t *, uint16_t)
           LOCAL                   ADDRESS         
           =====                   =======         
           ?Subroutine11           0000258C 
    -------------------------------------------------------------------------
CODE
  Relative segment, address: CODE 0000258E - 00002591 (0x4 bytes), align: 1
  Segment part 162.           Intra module refs:   ?Subroutine11
                                                   CModbusRTU::Tail(uint8_t *, uint16_t)
           LOCAL                   ADDRESS         
           =====                   =======         
           ?Subroutine32           0000258E 
    -------------------------------------------------------------------------
CODE
  Relative segment, address: CODE 00002592 - 000026F7 (0x166 bytes), align: 1
  Segment part 163.           Intra module refs:   CModbusRTU::Fsm for CDfaLite/-15/()
                                                   CModbusRTU::__vtbl
                                                   Segment part 192
           ENTRY                   ADDRESS         REF BY
           =====                   =======         ======
           CModbusRTU::Fsm()       00002592        ?Subroutine74 (Pss21)
               calls direct
    -------------------------------------------------------------------------
CODE
  Relative segment, address: CODE 000026F8 - 000026FB (0x4 bytes), align: 1
  Segment part 164.           Intra module refs:   CModbusRTU::Fsm()
           LOCAL                   ADDRESS         
           =====                   =======         
           ?Subroutine26           000026F8 
    -------------------------------------------------------------------------
CODE
  Relative segment, address: CODE 000026FC - 00002705 (0xa bytes), align: 1
  Segment part 165.           Intra module refs:   CModbusRTU::Fsm()
           LOCAL                   ADDRESS         
           =====                   =======         
           ?Subroutine25           000026FC 
    -------------------------------------------------------------------------
CODE
  Relative segment, address: CODE 00002706 - 0000270B (0x6 bytes), align: 1
  Segment part 166.           Intra module refs:   CModbusRTU::Fsm()
           LOCAL                   ADDRESS         
           =====                   =======         
           ?Subroutine24           00002706 
    -------------------------------------------------------------------------
CODE
  Relative segment, address: CODE 0000270C - 0000270F (0x4 bytes), align: 1
  Segment part 167.           Intra module refs:   ?Subroutine22
                                                   ?Subroutine24
           LOCAL                   ADDRESS         
           =====                   =======         
           ?Subroutine35           0000270C 
    -------------------------------------------------------------------------
CODE
  Relative segment, address: CODE 00002710 - 00002713 (0x4 bytes), align: 1
  Segment part 168.           Intra module refs:   ?Subroutine30
                                                   ?Subroutine35
           LOCAL                   ADDRESS         
           =====                   =======         
           ?Subroutine48           00002710 
    -------------------------------------------------------------------------
CODE
  Relative segment, address: CODE 00002714 - 00002715 (0x2 bytes), align: 1
  Segment part 169.           Intra module refs:   ?Subroutine19
                                                   CModbusRTU::Fsm()
           LOCAL                   ADDRESS         
           =====                   =======         
           ?Subroutine36           00002714 
    -------------------------------------------------------------------------
CODE
  Relative segment, address: CODE 00002716 - 0000271D (0x8 bytes), align: 1
  Segment part 170.           Intra module refs:   ?Subroutine1
                                                   ?Subroutine36
    -------------------------------------------------------------------------
CODE
  Relative segment, address: CODE 0000271E - 00002723 (0x6 bytes), align: 1
  Segment part 171.           Intra module refs:   CModbusRTU::Fsm()
           LOCAL                   ADDRESS         
           =====                   =======         
           ?Subroutine22           0000271E 
    -------------------------------------------------------------------------
CODE
  Relative segment, address: CODE 00002724 - 0000272B (0x8 bytes), align: 1
  Segment part 172.           Intra module refs:   CModbusRTU::Fsm()
           LOCAL                   ADDRESS         
           =====                   =======         
           ?Subroutine21           00002724 
    -------------------------------------------------------------------------
CODE
  Relative segment, address: CODE 0000272C - 0000272F (0x4 bytes), align: 1
  Segment part 173.           Intra module refs:   CModbusRTU::Fsm()
           LOCAL                   ADDRESS         
           =====                   =======         
           ?Subroutine20           0000272C 
    -------------------------------------------------------------------------
CODE
  Relative segment, address: CODE 00002730 - 00002737 (0x8 bytes), align: 1
  Segment part 174.           Intra module refs:   CModbusRTU::Fsm()
           LOCAL                   ADDRESS         
           =====                   =======         
           ?Subroutine19           00002730 
    -------------------------------------------------------------------------
CODE
  Relative segment, address: CODE 00002738 - 0000273B (0x4 bytes), align: 1
  Segment part 175.           Intra module refs:   ?Subroutine19
                                                   ?Subroutine22
                                                   ?Subroutine24
                                                   ?Subroutine29
           LOCAL                   ADDRESS         
           =====                   =======         
           ?Subroutine47           00002738 
    -------------------------------------------------------------------------
CODE
  Relative segment, address: CODE 0000273C - 00002741 (0x6 bytes), align: 1
  Segment part 176.           Intra module refs:   CModbusRTU::Fsm()
           LOCAL                   ADDRESS         
           =====                   =======         
           ?Subroutine16           0000273C 
    -------------------------------------------------------------------------
CODE
  Relative segment, address: CODE 00002742 - 00002745 (0x4 bytes), align: 1
  Segment part 177.           Intra module refs:   ?Subroutine1
                                                   ?Subroutine16
                                                   ?Subroutine20
                                                   ?Subroutine21
           LOCAL                   ADDRESS         
           =====                   =======         
           ?Subroutine30           00002742 
    -------------------------------------------------------------------------
CODE
  Relative segment, address: CODE 00002746 - 00002749 (0x4 bytes), align: 1
  Segment part 178.           Intra module refs:   CModbusRTU::Fsm()
           LOCAL                   ADDRESS         
           =====                   =======         
           ?Subroutine14           00002746 
    -------------------------------------------------------------------------
CODE
  Relative segment, address: CODE 0000274A - 0000274F (0x6 bytes), align: 1
  Segment part 179.           Intra module refs:   ?Subroutine14
                                                   ?Subroutine7
                                                   CModbusRTU::Fsm()
           LOCAL                   ADDRESS         
           =====                   =======         
           ?Subroutine29           0000274A 
    -------------------------------------------------------------------------
CODE
  Relative segment, address: CODE 00002750 - 00002757 (0x8 bytes), align: 1
  Segment part 180.           Intra module refs:   CModbusRTU::Fsm()
           LOCAL                   ADDRESS         
           =====                   =======         
           ?Subroutine7            00002750 
    -------------------------------------------------------------------------
CODE
  Relative segment, address: CODE 00002758 - 00002759 (0x2 bytes), align: 1
  Segment part 181.           Intra module refs:   CModbusRTU::Fsm()
           LOCAL                   ADDRESS         
           =====                   =======         
           ?Subroutine6            00002758 
    -------------------------------------------------------------------------
CODE
  Relative segment, address: CODE 0000275A - 0000275D (0x4 bytes), align: 1
  Segment part 182.           Intra module refs:   ?Subroutine3
                                                   ?Subroutine6
           LOCAL                   ADDRESS         
           =====                   =======         
           ?Subroutine28           0000275A 
    -------------------------------------------------------------------------
CODE
  Relative segment, address: CODE 0000275E - 00002763 (0x6 bytes), align: 1
  Segment part 183.           Intra module refs:   CModbusRTU::Fsm()
           LOCAL                   ADDRESS         
           =====                   =======         
           ?Subroutine3            0000275E 
    -------------------------------------------------------------------------
CODE
  Relative segment, address: CODE 00002764 - 00002771 (0xe bytes), align: 1
  Segment part 184.           Intra module refs:   ?Subroutine3
                                                   CModbusRTU::Fsm()
           LOCAL                   ADDRESS         
           =====                   =======         
           ?Subroutine34           00002764 
    -------------------------------------------------------------------------
CODE
  Relative segment, address: CODE 00002772 - 00002775 (0x4 bytes), align: 1
  Segment part 185.           Intra module refs:   ?Subroutine1
                                                   ?Subroutine16
                                                   ?Subroutine3
                                                   ?Subroutine6
           LOCAL                   ADDRESS         
           =====                   =======         
           ?Subroutine31           00002772 
    -------------------------------------------------------------------------
CODE
  Relative segment, address: CODE 00002776 - 0000278D (0x18 bytes), align: 1
  Segment part 186.           Intra module refs:   CModbusRTU::Fsm()
           LOCAL                   ADDRESS         
           =====                   =======         
           ?Subroutine1            00002776 
    -------------------------------------------------------------------------
CODE
  Relative segment, address: CODE 0000278E - 00002795 (0x8 bytes), align: 1
  Segment part 187.           Intra module refs:   ?Subroutine1
                                                   CModbusRTU::Fsm()
    -------------------------------------------------------------------------
CODE
  Relative segment, address: CODE 00002796 - 000027B3 (0x1e bytes), align: 1
  Segment part 188.           Intra module refs:   CModbusRTU::Fsm()
           LOCAL                   ADDRESS         
           =====                   =======         
           ?Subroutine0            00002796 
    -------------------------------------------------------------------------
CODE
  Relative segment, address: CODE 000027B4 - 000027B7 (0x4 bytes), align: 1
  Segment part 189.           Intra module refs:   ?Subroutine19
                                                   CModbusRTU::Fsm()
           LOCAL                   ADDRESS         
           =====                   =======         
           ?Subroutine37           000027B4 
    -------------------------------------------------------------------------
CODE
  Relative segment, address: CODE 000027B8 - 000027BD (0x6 bytes), align: 1
  Segment part 190.           Intra module refs:   ?Subroutine0
                                                   ?Subroutine37
                                                   CModbusRTU::Fsm()
    -------------------------------------------------------------------------
CODE
  Relative segment, address: CODE 000027BE - 000027C1 (0x4 bytes), align: 1
  Segment part 191.           Intra module refs:   CModbusRTU::__vtbl_CModbus
           ENTRY                   ADDRESS         REF BY
           =====                   =======         ======
           CModbusRTU::Fsm for CDfaLite/-15/()
                                   000027BE 
               calls direct
    -------------------------------------------------------------------------
CODE
  Relative segment, address: CODE 000027C2 - 000027C7 (0x6 bytes), align: 1
  Segment part 193.           Intra module refs:   CModbusRTU::HEADER_LENGTH for CModbus/-15/()
                                                   CModbusRTU::__vtbl
           ENTRY                   ADDRESS         REF BY
           =====                   =======         ======
           CModbusRTU::HEADER_LENGTH()
                                   000027C2 
    -------------------------------------------------------------------------
CODE
  Relative segment, address: CODE 000027C8 - 000027CF (0x8 bytes), align: 1
  Segment part 194.           Intra module refs:   CModbusRTU::__vtbl_CModbus
           ENTRY                   ADDRESS         REF BY
           =====                   =======         ======
           CModbusRTU::HEADER_LENGTH for CModbus/-15/()
                                   000027C8 
               calls direct
    -------------------------------------------------------------------------
CODE
  Relative segment, address: CODE 000027D0 - 000027D5 (0x6 bytes), align: 1
  Segment part 195.           Intra module refs:   CModbusRTU::CRC_LENGTH for CModbus/-15/()
                                                   CModbusRTU::__vtbl
           ENTRY                   ADDRESS         REF BY
           =====                   =======         ======
           CModbusRTU::CRC_LENGTH()
                                   000027D0 
    -------------------------------------------------------------------------
CODE
  Relative segment, address: CODE 000027D6 - 000027DD (0x8 bytes), align: 1
  Segment part 196.           Intra module refs:   CModbusRTU::__vtbl_CModbus
           ENTRY                   ADDRESS         REF BY
           =====                   =======         ======
           CModbusRTU::CRC_LENGTH for CModbus/-15/()
                                   000027D6 
               calls direct
    -------------------------------------------------------------------------
SWITCH
  Relative segment, address: CODE 000008B0 - 000008D5 (0x26 bytes), align: 1
  Segment part 192.           Intra module refs:   CModbusRTU::Fsm()

    *************************************************************************

  FILE NAME : D:\Projects\CurrentProjects\CautoProjects\PSS48Color\Debug\Obj\ModuleMrXX.r90
  PROGRAM MODULE, NAME : ModuleMrXX

  SEGMENTS IN THE MODULE
  ======================
CODE
  Relative segment, address: CODE 000027DE - 000027EF (0x12 bytes), align: 1
  Segment part 104.           Intra module refs:   CModuleMrXXDriver::new CModuleMrXXDriver(uint8_t)
           ENTRY                   ADDRESS         REF BY
           =====                   =======         ======
           CModuleMrXXDriver::CModuleMrXXDriver(uint8_t)
                                   000027DE 
               calls direct
    -------------------------------------------------------------------------
CODE
  Relative segment, address: CODE 000027F0 - 000027F5 (0x6 bytes), align: 1
  Segment part 105.           Intra module refs:   CModuleMrXXDriver::CModuleMrXXDriver(uint8_t)
                                                   CModuleMrXXDriver::Exchange()
           LOCAL                   ADDRESS         
           =====                   =======         
           ?Subroutine11           000027F0 
    -------------------------------------------------------------------------
CODE
  Relative segment, address: CODE 000027F6 - 0000280B (0x16 bytes), align: 1
  Segment part 106.
           ENTRY                   ADDRESS         REF BY
           =====                   =======         ======
           CModuleMrXXDriver::new CModuleMrXXDriver(uint8_t)
                                   000027F6        CPss21::CreateDevices() (Pss21)
               calls direct
    -------------------------------------------------------------------------
CODE
  Relative segment, address: CODE 0000280C - 00002811 (0x6 bytes), align: 1
  Segment part 108.           Intra module refs:   CModuleMrXXDriver::DataExchange()
                                                   CModuleMrXXDriver::WriteDataBase()
           LOCAL                   ADDRESS         
           =====                   =======         
           ?Subroutine12           0000280C 
    -------------------------------------------------------------------------
CODE
  Relative segment, address: CODE 00002812 - 0000282D (0x1c bytes), align: 1
  Segment part 109.           Intra module refs:   CModuleMrXXDriver::CModuleMrXXDriver(uint8_t)
           LOCAL                   ADDRESS         
           =====                   =======         
           ?Subroutine0            00002812 
    -------------------------------------------------------------------------
CODE
  Relative segment, address: CODE 0000282E - 0000283B (0xe bytes), align: 1
  Segment part 111.           Intra module refs:   CModuleMrXXDriver::new CModuleMrXXDriver(uint8_t)
           LOCAL                   ADDRESS         
           =====                   =======         
           ?Subroutine6            0000282E 
    -------------------------------------------------------------------------
CODE
  Relative segment, address: CODE 0000283C - 00002865 (0x2a bytes), align: 1
  Segment part 112.           Intra module refs:   CModuleMrXXDriver::__vtbl
                                                   CModuleMrXXDriver::~CModuleMrXXDriver for CDfaLite/-11/()
           ENTRY                   ADDRESS         REF BY
           =====                   =======         ======
           CModuleMrXXDriver::~CModuleMrXXDriver()
                                   0000283C 
               calls direct
    -------------------------------------------------------------------------
CODE
  Relative segment, address: CODE 00002866 - 0000286B (0x6 bytes), align: 1
  Segment part 113.           Intra module refs:   CModuleMrXXDriver::__vtbl_CDfa
           ENTRY                   ADDRESS         REF BY
           =====                   =======         ======
           CModuleMrXXDriver::~CModuleMrXXDriver for CDfaLite/-11/()
                                   00002866 
               calls direct
    -------------------------------------------------------------------------
CODE
  Relative segment, address: CODE 0000286C - 00002913 (0xa8 bytes), align: 1
  Segment part 114.           Intra module refs:   CModuleMrXXDriver::__vtbl
           ENTRY                   ADDRESS         REF BY
           =====                   =======         ======
           CModuleMrXXDriver::Allocate(TMemoryAllocationConext &)
                                   0000286C 
               calls direct
    -------------------------------------------------------------------------
CODE
  Relative segment, address: CODE 00002914 - 00002975 (0x62 bytes), align: 1
  Segment part 115.           Intra module refs:   CModuleMrXXDriver::DataExchange()
           ENTRY                   ADDRESS         REF BY
           =====                   =======         ======
           CModuleMrXXDriver::WriteDataBase()
                                   00002914 
               calls direct
    -------------------------------------------------------------------------
CODE
  Relative segment, address: CODE 00002976 - 00002AF9 (0x184 bytes), align: 1
  Segment part 116.           Intra module refs:   CModuleMrXXDriver::DataExchange()
           ENTRY                   ADDRESS         REF BY
           =====                   =======         ======
           CModuleMrXXDriver::Exchange()
                                   00002976 
               calls direct
    -------------------------------------------------------------------------
CODE
  Relative segment, address: CODE 00002AFA - 00002B03 (0xa bytes), align: 1
  Segment part 117.           Intra module refs:   CModuleMrXXDriver::Exchange()
                                                   CModuleMrXXDriver::WriteDataBase()
           LOCAL                   ADDRESS         
           =====                   =======         
           ?Subroutine10           00002AFA 
    -------------------------------------------------------------------------
CODE
  Relative segment, address: CODE 00002B04 - 00002B05 (0x2 bytes), align: 1
  Segment part 118.           Intra module refs:   CModuleMrXXDriver::Exchange()
                                                   CModuleMrXXDriver::WriteDataBase()
           LOCAL                   ADDRESS         
           =====                   =======         
           ?Subroutine8            00002B04 
    -------------------------------------------------------------------------
CODE
  Relative segment, address: CODE 00002B06 - 00002B0B (0x6 bytes), align: 1
  Segment part 119.           Intra module refs:   ?Subroutine8
                                                   CModuleMrXXDriver::Exchange()
                                                   CModuleMrXXDriver::WriteDataBase()
    -------------------------------------------------------------------------
CODE
  Relative segment, address: CODE 00002B0C - 00002B19 (0xe bytes), align: 1
  Segment part 120.           Intra module refs:   CModuleMrXXDriver::Exchange()
           LOCAL                   ADDRESS         
           =====                   =======         
           ?Subroutine7            00002B0C 
    -------------------------------------------------------------------------
CODE
  Relative segment, address: CODE 00002B1A - 00002B23 (0xa bytes), align: 1
  Segment part 121.           Intra module refs:   CModuleMrXXDriver::Exchange()
           LOCAL                   ADDRESS         
           =====                   =======         
           ?Subroutine5            00002B1A 
    -------------------------------------------------------------------------
CODE
  Relative segment, address: CODE 00002B24 - 00002B31 (0xe bytes), align: 1
  Segment part 122.           Intra module refs:   CModuleMrXXDriver::Exchange()
           LOCAL                   ADDRESS         
           =====                   =======         
           ?Subroutine4            00002B24 
    -------------------------------------------------------------------------
CODE
  Relative segment, address: CODE 00002B32 - 00002B35 (0x4 bytes), align: 1
  Segment part 123.           Intra module refs:   ?Subroutine4
                                                   ?Subroutine9
           LOCAL                   ADDRESS         
           =====                   =======         
           ?Subroutine13           00002B32 
    -------------------------------------------------------------------------
CODE
  Relative segment, address: CODE 00002B36 - 00002B47 (0x12 bytes), align: 1
  Segment part 124.           Intra module refs:   CModuleMrXXDriver::Exchange()
           LOCAL                   ADDRESS         
           =====                   =======         
           ?Subroutine3            00002B36 
    -------------------------------------------------------------------------
CODE
  Relative segment, address: CODE 00002B48 - 00002B5B (0x14 bytes), align: 1
  Segment part 125.           Intra module refs:   CModuleMrXXDriver::Exchange()
                                                   CModuleMrXXDriver::WriteDataBase()
           LOCAL                   ADDRESS         
           =====                   =======         
           ?Subroutine2            00002B48 
    -------------------------------------------------------------------------
CODE
  Relative segment, address: CODE 00002B5C - 00002B75 (0x1a bytes), align: 1
  Segment part 126.           Intra module refs:   CModuleMrXXDriver::Exchange()
                                                   CModuleMrXXDriver::WriteDataBase()
           LOCAL                   ADDRESS         
           =====                   =======         
           ?Subroutine1            00002B5C 
    -------------------------------------------------------------------------
CODE
  Relative segment, address: CODE 00002B76 - 00002B95 (0x20 bytes), align: 1
  Segment part 127.           Intra module refs:   CModuleMrXXDriver::__vtbl
           ENTRY                   ADDRESS         REF BY
           =====                   =======         ======
           CModuleMrXXDriver::DataExchange()
                                   00002B76 
               calls direct
    -------------------------------------------------------------------------
CODE
  Relative segment, address: CODE 00002B96 - 00002B9D (0x8 bytes), align: 1
  Segment part 128.           Intra module refs:   CModuleMrXXDriver::DataExchange()
                                                   CModuleMrXXDriver::WriteDataBase()
           LOCAL                   ADDRESS         
           =====                   =======         
           ?Subroutine9            00002B96 
    -------------------------------------------------------------------------
NEAR_F
  Relative segment, address: CODE 0000044B - 0000044E (0x4 bytes), align: 0
  Segment part 99. ROOT 
           LOCAL                   ADDRESS         
           =====                   =======         
           CDriver::__vtbl         0000044B 
    -------------------------------------------------------------------------
NEAR_F
  Relative segment, address: CODE 0000044F - 00000456 (0x8 bytes), align: 0
  Segment part 100. ROOT 
           LOCAL                   ADDRESS         
           =====                   =======         
           CTaskInterface::__vtbl
                                   0000044F 
    -------------------------------------------------------------------------
NEAR_F
  Relative segment, address: CODE 00000457 - 00000460 (0xa bytes), align: 0
  Segment part 101. ROOT 
           LOCAL                   ADDRESS         
           =====                   =======         
           CIsRegularButtonPressedInterface::__vtbl
                                   00000457 
    -------------------------------------------------------------------------
NEAR_F
  Relative segment, address: CODE 00000461 - 00000466 (0x6 bytes), align: 0
  Segment part 102. ROOT      Intra module refs:   ?Subroutine0
           ENTRY                   ADDRESS         REF BY
           =====                   =======         ======
           CModuleMrXXDriver::__vtbl
                                   00000461 
    -------------------------------------------------------------------------
NEAR_F
  Relative segment, address: CODE 00000467 - 0000046A (0x4 bytes), align: 0
  Segment part 103. ROOT      Intra module refs:   ?Subroutine0
           ENTRY                   ADDRESS         REF BY
           =====                   =======         ======
           CModuleMrXXDriver::__vtbl_CDfa
                                   00000467 

    *************************************************************************

  FILE NAME : D:\Projects\CurrentProjects\CautoProjects\PSS48Color\Debug\Obj\Mvsn21.r90
  PROGRAM MODULE, NAME : Mvsn21

  SEGMENTS IN THE MODULE
  ======================
CODE
  Relative segment, address: CODE 00002B9E - 00002BC3 (0x26 bytes), align: 1
  Segment part 104.           Intra module refs:   CMvsn21Driver::new CMvsn21Driver(uint8_t)
           ENTRY                   ADDRESS         REF BY
           =====                   =======         ======
           CMvsn21Driver::CMvsn21Driver(uint8_t)
                                   00002B9E 
               calls direct
    -------------------------------------------------------------------------
CODE
  Relative segment, address: CODE 00002BC4 - 00002BC9 (0x6 bytes), align: 1
  Segment part 105.           Intra module refs:   CMvsn21Driver::CMvsn21Driver(uint8_t)
                                                   CMvsn21Driver::DataExchange()
           LOCAL                   ADDRESS         
           =====                   =======         
           ?Subroutine0            00002BC4 
    -------------------------------------------------------------------------
CODE
  Relative segment, address: CODE 00002BCA - 00002BE9 (0x20 bytes), align: 1
  Segment part 106.
           ENTRY                   ADDRESS         REF BY
           =====                   =======         ======
           CMvsn21Driver::new CMvsn21Driver(uint8_t)
                                   00002BCA        CPss21::CreateDevices() (Pss21)
               calls direct
    -------------------------------------------------------------------------
CODE
  Relative segment, address: CODE 00002BEA - 00002C13 (0x2a bytes), align: 1
  Segment part 107.           Intra module refs:   CMvsn21Driver::__vtbl
                                                   CMvsn21Driver::~CMvsn21Driver for CDfaLite/-11/()
           ENTRY                   ADDRESS         REF BY
           =====                   =======         ======
           CMvsn21Driver::~CMvsn21Driver()
                                   00002BEA 
               calls direct
    -------------------------------------------------------------------------
CODE
  Relative segment, address: CODE 00002C14 - 00002C19 (0x6 bytes), align: 1
  Segment part 108.           Intra module refs:   CMvsn21Driver::__vtbl_CDfa
           ENTRY                   ADDRESS         REF BY
           =====                   =======         ======
           CMvsn21Driver::~CMvsn21Driver for CDfaLite/-11/()
                                   00002C14 
               calls direct
    -------------------------------------------------------------------------
CODE
  Relative segment, address: CODE 00002C1A - 00002C77 (0x5e bytes), align: 1
  Segment part 109.           Intra module refs:   CMvsn21Driver::__vtbl
           ENTRY                   ADDRESS         REF BY
           =====                   =======         ======
           CMvsn21Driver::Allocate(TMemoryAllocationConext &)
                                   00002C1A 
    -------------------------------------------------------------------------
CODE
  Relative segment, address: CODE 00002C78 - 00002D5B (0xe4 bytes), align: 1
  Segment part 110.           Intra module refs:   CMvsn21Driver::__vtbl
           ENTRY                   ADDRESS         REF BY
           =====                   =======         ======
           CMvsn21Driver::DataExchange()
                                   00002C78 
               calls direct
    -------------------------------------------------------------------------
NEAR_F
  Relative segment, address: CODE 0000046B - 0000046E (0x4 bytes), align: 0
  Segment part 99. ROOT 
           LOCAL                   ADDRESS         
           =====                   =======         
           CDriver::__vtbl         0000046B 
    -------------------------------------------------------------------------
NEAR_F
  Relative segment, address: CODE 0000046F - 00000476 (0x8 bytes), align: 0
  Segment part 100. ROOT 
           LOCAL                   ADDRESS         
           =====                   =======         
           CTaskInterface::__vtbl
                                   0000046F 
    -------------------------------------------------------------------------
NEAR_F
  Relative segment, address: CODE 00000477 - 00000480 (0xa bytes), align: 0
  Segment part 101. ROOT 
           LOCAL                   ADDRESS         
           =====                   =======         
           CIsRegularButtonPressedInterface::__vtbl
                                   00000477 
    -------------------------------------------------------------------------
NEAR_F
  Relative segment, address: CODE 00000481 - 00000486 (0x6 bytes), align: 0
  Segment part 102. ROOT      Intra module refs:   CMvsn21Driver::CMvsn21Driver(uint8_t)
           ENTRY                   ADDRESS         REF BY
           =====                   =======         ======
           CMvsn21Driver::__vtbl   00000481 
    -------------------------------------------------------------------------
NEAR_F
  Relative segment, address: CODE 00000487 - 0000048A (0x4 bytes), align: 0
  Segment part 103. ROOT      Intra module refs:   CMvsn21Driver::CMvsn21Driver(uint8_t)
           ENTRY                   ADDRESS         REF BY
           =====                   =======         ======
           CMvsn21Driver::__vtbl_CDfa
                                   00000487 

    *************************************************************************

  FILE NAME : D:\Projects\CurrentProjects\CautoProjects\PSS48Color\Debug\Obj\NotifyerControl.r90
  PROGRAM MODULE, NAME : NotifyerControl

  SEGMENTS IN THE MODULE
  ======================
CODE
  Relative segment, address: CODE 00002D5C - 00002D71 (0x16 bytes), align: 1
  Segment part 107.           Intra module refs:   ?Subroutine27
           ENTRY                   ADDRESS         REF BY
           =====                   =======         ======
           CNotifyerControl::CNotifyerControl()
                                   00002D5C 
               calls direct
    -------------------------------------------------------------------------
CODE
  Relative segment, address: CODE 00002D72 - 00002D79 (0x8 bytes), align: 1
  Segment part 109.
           ENTRY                   ADDRESS         REF BY
           =====                   =======         ======
           CPreventiveAlarmWindowNotifyerControl::CPreventiveAlarmWindowNotifyerControl()
                                   00002D72        __sti__routine() (Pss21)
               calls direct
    -------------------------------------------------------------------------
CODE
  Relative segment, address: CODE 00002D7A - 00002D7F (0x6 bytes), align: 1
  Segment part 111.
           ENTRY                   ADDRESS         REF BY
           =====                   =======         ======
           CEmergencyAlarmWindowNotifyerControl::CEmergencyAlarmWindowNotifyerControl()
                                   00002D7A        __sti__routine() (Pss21)
               calls direct
    -------------------------------------------------------------------------
CODE
  Relative segment, address: CODE 00002D80 - 00002D83 (0x4 bytes), align: 1
  Segment part 112.           Intra module refs:   CBuzzerNotifyerControl::CBuzzerNotifyerControl()
                                                   CEmergencyAlarmWindowNotifyerControl::CEmergencyAlarmWindowNotifyerControl()
                                                   CPreventiveAlarmWindowNotifyerControl::CPreventiveAlarmWindowNotifyerControl()
           LOCAL                   ADDRESS         
           =====                   =======         
           ?Subroutine1            00002D80 
    -------------------------------------------------------------------------
CODE
  Relative segment, address: CODE 00002D84 - 00002D87 (0x4 bytes), align: 1
  Segment part 113.           Intra module refs:   ?Subroutine1
                                                   CStatusLedNotifyerControl::CStatusLedNotifyerControl()
           LOCAL                   ADDRESS         
           =====                   =======         
           ?Subroutine35           00002D84 
    -------------------------------------------------------------------------
CODE
  Relative segment, address: CODE 00002D88 - 00002D93 (0xc bytes), align: 1
  Segment part 117.
           ENTRY                   ADDRESS         REF BY
           =====                   =======         ======
           CStatusLedNotifyerControl::CStatusLedNotifyerControl()
                                   00002D88        __sti__routine() (Pss21)
               calls direct
    -------------------------------------------------------------------------
CODE
  Relative segment, address: CODE 00002D94 - 00002D97 (0x4 bytes), align: 1
  Segment part 118.           Intra module refs:   ?Subroutine35
                                                   CNotifyerControl::CNotifyerControl()
           LOCAL                   ADDRESS         
           =====                   =======         
           ?Subroutine21           00002D94 
    -------------------------------------------------------------------------
CODE
  Relative segment, address: CODE 00002D98 - 00002D9D (0x6 bytes), align: 1
  Segment part 119.           Intra module refs:   ?Subroutine21
                                                   CNotifyerControl::Fsm()
           LOCAL                   ADDRESS         
           =====                   =======         
           ?Subroutine28           00002D98 
    -------------------------------------------------------------------------
CODE
  Relative segment, address: CODE 00002D9E - 00002D9F (0x2 bytes), align: 1
  Segment part 120.           Intra module refs:   CBuzzerNotifyerControl::CBuzzerNotifyerControl()
                                                   CEmergencyAlarmWindowNotifyerControl::CEmergencyAlarmWindowNotifyerControl()
                                                   CPreventiveAlarmWindowNotifyerControl::CPreventiveAlarmWindowNotifyerControl()
                                                   CStatusLedNotifyerControl::CStatusLedNotifyerControl()
           LOCAL                   ADDRESS         
           =====                   =======         
           ?Subroutine2            00002D9E 
    -------------------------------------------------------------------------
CODE
  Relative segment, address: CODE 00002DA0 - 00002DA1 (0x2 bytes), align: 1
  Segment part 121.           Intra module refs:   ?Subroutine2
           LOCAL                   ADDRESS         
           =====                   =======         
           ?Subroutine27           00002DA0 
    -------------------------------------------------------------------------
CODE
  Relative segment, address: CODE 00002DA2 - 00002DA9 (0x8 bytes), align: 1
  Segment part 122.           Intra module refs:   ?Subroutine2
                                                   CNotifyerControl::CNotifyerControl()
                                                   CNotifyerControl::Fsm()
           LOCAL                   ADDRESS         
           =====                   =======         
           ?Subroutine17           00002DA2 
    -------------------------------------------------------------------------
CODE
  Relative segment, address: CODE 00002DAA - 00002DB1 (0x8 bytes), align: 1
  Segment part 124.
           ENTRY                   ADDRESS         REF BY
           =====                   =======         ======
           CBuzzerNotifyerControl::CBuzzerNotifyerControl()
                                   00002DAA        __sti__routine() (Pss21)
               calls direct
    -------------------------------------------------------------------------
CODE
  Relative segment, address: CODE 00002DB2 - 00002DD3 (0x22 bytes), align: 1
  Segment part 126.           Intra module refs:   ?Subroutine0
                                                   CNotifyerControl::__vtbl
           ENTRY                   ADDRESS         REF BY
           =====                   =======         ======
           CNotifyerControl::~CNotifyerControl()
                                   00002DB2 
               calls direct
    -------------------------------------------------------------------------
CODE
  Relative segment, address: CODE 00002DD4 - 00002DDB (0x8 bytes), align: 1
  Segment part 127.           Intra module refs:   ?Subroutine5
                                                   CNotifyerControl::CNotifyerControl()
                                                   CNotifyerControl::~CNotifyerControl()
           LOCAL                   ADDRESS         
           =====                   =======         
           ?Subroutine18           00002DD4 
    -------------------------------------------------------------------------
CODE
  Relative segment, address: CODE 00002DDC - 00002DDF (0x4 bytes), align: 1
  Segment part 128.           Intra module refs:   CNotifyerControl::CNotifyerControl()
                                                   CNotifyerControl::~CNotifyerControl()
           LOCAL                   ADDRESS         
           =====                   =======         
           ?Subroutine3            00002DDC 
    -------------------------------------------------------------------------
CODE
  Relative segment, address: CODE 00002DE0 - 00002DE7 (0x8 bytes), align: 1
  Segment part 129.           Intra module refs:   ?Subroutine1
                                                   ?Subroutine3
                                                   CStatusLedNotifyerControl::CStatusLedNotifyerControl()
           LOCAL                   ADDRESS         
           =====                   =======         
           ?Subroutine19           00002DE0 
    -------------------------------------------------------------------------
CODE
  Relative segment, address: CODE 00002DE8 - 00002EAF (0xc8 bytes), align: 1
  Segment part 130.           Intra module refs:   CBuzzerNotifyerControl::__vtbl
                                                   CEmergencyAlarmWindowNotifyerControl::__vtbl
                                                   CNotifyerControl::__vtbl
                                                   CPreventiveAlarmWindowNotifyerControl::__vtbl
                                                   CStatusLedNotifyerControl::__vtbl
                                                   Segment part 182
           ENTRY                   ADDRESS         REF BY
           =====                   =======         ======
           CNotifyerControl::Fsm()
                                   00002DE8        ?Subroutine98 (Pss21)
               calls direct and indirect
    -------------------------------------------------------------------------
CODE
  Relative segment, address: CODE 00002EB0 - 00002EB1 (0x2 bytes), align: 1
  Segment part 131.           Intra module refs:   CNotifyerControl::Fsm()
           LOCAL                   ADDRESS         
           =====                   =======         
           ?Subroutine8            00002EB0 
    -------------------------------------------------------------------------
CODE
  Relative segment, address: CODE 00002EB2 - 00002EB7 (0x6 bytes), align: 1
  Segment part 132.           Intra module refs:   ?Subroutine14
                                                   ?Subroutine6
                                                   ?Subroutine8
                                                   CNotifyerControl::Fsm()
                                                   Segment part 135
           LOCAL                   ADDRESS         
           =====                   =======         
           ?Subroutine25           00002EB2 
    -------------------------------------------------------------------------
CODE
  Relative segment, address: CODE 00002EB8 - 00002EC1 (0xa bytes), align: 1
  Segment part 133.           Intra module refs:   ?Subroutine25
                                                   CNotifyerControl::Fsm()
           LOCAL                   ADDRESS         
           =====                   =======         
           ?Subroutine26           00002EB8 
    -------------------------------------------------------------------------
CODE
  Relative segment, address: CODE 00002EC2 - 00002EC5 (0x4 bytes), align: 1
  Segment part 134.           Intra module refs:   CNotifyerControl::Fsm()
           LOCAL                   ADDRESS         
           =====                   =======         
           ?Subroutine6            00002EC2 
    -------------------------------------------------------------------------
CODE
  Relative segment, address: CODE 00002EC6 - 00002ECD (0x8 bytes), align: 1
  Segment part 135.           Intra module refs:   ?Subroutine6
                                                   CNotifyerControl::Fsm()
    -------------------------------------------------------------------------
CODE
  Relative segment, address: CODE 00002ECE - 00002EDB (0xe bytes), align: 1
  Segment part 136.           Intra module refs:   ?Subroutine4
                                                   ?Subroutine8
                                                   Segment part 135
           LOCAL                   ADDRESS         
           =====                   =======         
           ?Subroutine15           00002ECE 
    -------------------------------------------------------------------------
CODE
  Relative segment, address: CODE 00002EDC - 00002EE5 (0xa bytes), align: 1
  Segment part 137.           Intra module refs:   CNotifyerControl::Fsm()
           LOCAL                   ADDRESS         
           =====                   =======         
           ?Subroutine5            00002EDC 
    -------------------------------------------------------------------------
CODE
  Relative segment, address: CODE 00002EE6 - 00002EE7 (0x2 bytes), align: 1
  Segment part 138.           Intra module refs:   CNotifyerControl::Fsm()
           LOCAL                   ADDRESS         
           =====                   =======         
           ?Subroutine4            00002EE6 
    -------------------------------------------------------------------------
CODE
  Relative segment, address: CODE 00002EE8 - 00002EEB (0x4 bytes), align: 1
  Segment part 139.           Intra module refs:   ?Subroutine4
                                                   CNotifyerControl::Fsm()
           LOCAL                   ADDRESS         
           =====                   =======         
           ?Subroutine14           00002EE8 
    -------------------------------------------------------------------------
CODE
  Relative segment, address: CODE 00002EEC - 00002EF3 (0x8 bytes), align: 1
  Segment part 140.           Intra module refs:   ?Subroutine14
                                                   ?Subroutine15
                                                   CNotifyerControl::Fsm()
                                                   Segment part 135
           LOCAL                   ADDRESS         
           =====                   =======         
           ?Subroutine24           00002EEC 
    -------------------------------------------------------------------------
CODE
  Relative segment, address: CODE 00002EF4 - 00002EF5 (0x2 bytes), align: 1
  Segment part 141.           Intra module refs:   CPreventiveAlarmWindowNotifyerControl::__vtbl
           ENTRY                   ADDRESS         REF BY
           =====                   =======         ======
           CPreventiveAlarmWindowNotifyerControl::~CPreventiveAlarmWindowNotifyerControl()
                                   00002EF4        <Unnamed 5> (Pss21)
               calls direct
    -------------------------------------------------------------------------
CODE
  Relative segment, address: CODE 00002EF6 - 00002F11 (0x1c bytes), align: 1
  Segment part 142.           Intra module refs:   CPreventiveAlarmWindowNotifyerControl::__vtbl
           ENTRY                   ADDRESS         REF BY
           =====                   =======         ======
           CPreventiveAlarmWindowNotifyerControl::AlarmSet(uint8_t)
                                   00002EF6        ?Subroutine62 (Pss21)
    -------------------------------------------------------------------------
CODE
  Relative segment, address: CODE 00002F12 - 00002F15 (0x4 bytes), align: 1
  Segment part 143.           Intra module refs:   CBuzzerNotifyerControl::AlarmSet(uint8_t)
                                                   CEmergencyAlarmWindowNotifyerControl::AlarmSet(uint8_t)
                                                   CPreventiveAlarmWindowNotifyerControl::AlarmSet(uint8_t)
                                                   CStatusLedNotifyerControl::AlarmSet(uint8_t)
           LOCAL                   ADDRESS         
           =====                   =======         
           ?Subroutine29           00002F12 
    -------------------------------------------------------------------------
CODE
  Relative segment, address: CODE 00002F16 - 00002F17 (0x2 bytes), align: 1
  Segment part 144.           Intra module refs:   CPreventiveAlarmWindowNotifyerControl::__vtbl
           ENTRY                   ADDRESS         REF BY
           =====                   =======         ======
           CPreventiveAlarmWindowNotifyerControl::NotifyerNormalOn()
                                   00002F16 
    -------------------------------------------------------------------------
CODE
  Relative segment, address: CODE 00002F18 - 00002F19 (0x2 bytes), align: 1
  Segment part 145.           Intra module refs:   CPreventiveAlarmWindowNotifyerControl::__vtbl
           ENTRY                   ADDRESS         REF BY
           =====                   =======         ======
           CPreventiveAlarmWindowNotifyerControl::NotifyerIndicationOn()
                                   00002F18 
               calls direct
    -------------------------------------------------------------------------
CODE
  Relative segment, address: CODE 00002F1A - 00002F1D (0x4 bytes), align: 1
  Segment part 146.           Intra module refs:   CPreventiveAlarmWindowNotifyerControl::__vtbl
           ENTRY                   ADDRESS         REF BY
           =====                   =======         ======
           CPreventiveAlarmWindowNotifyerControl::NotifyerPreventiveOn()
                                   00002F1A 
               calls direct
    -------------------------------------------------------------------------
CODE
  Relative segment, address: CODE 00002F1E - 00002F1F (0x2 bytes), align: 1
  Segment part 147.           Intra module refs:   CEmergencyAlarmWindowNotifyerControl::NotifyerIndicationOn()
                                                   CPreventiveAlarmWindowNotifyerControl::NotifyerIndicationOn()
           LOCAL                   ADDRESS         
           =====                   =======         
           ?Subroutine32           00002F1E 
    -------------------------------------------------------------------------
CODE
  Relative segment, address: CODE 00002F20 - 00002F23 (0x4 bytes), align: 1
  Segment part 148.           Intra module refs:   ?Subroutine32
                                                   CEmergencyAlarmWindowNotifyerControl::NotifyerEmergencyOn()
                                                   CPreventiveAlarmWindowNotifyerControl::NotifyerPreventiveOn()
    -------------------------------------------------------------------------
CODE
  Relative segment, address: CODE 00002F24 - 00002F25 (0x2 bytes), align: 1
  Segment part 149.           Intra module refs:   CPreventiveAlarmWindowNotifyerControl::__vtbl
           ENTRY                   ADDRESS         REF BY
           =====                   =======         ======
           CPreventiveAlarmWindowNotifyerControl::NotifyerEmergencyOn()
                                   00002F24 
    -------------------------------------------------------------------------
CODE
  Relative segment, address: CODE 00002F26 - 00002F29 (0x4 bytes), align: 1
  Segment part 150.           Intra module refs:   CPreventiveAlarmWindowNotifyerControl::__vtbl
           ENTRY                   ADDRESS         REF BY
           =====                   =======         ======
           CPreventiveAlarmWindowNotifyerControl::NotifyerOff()
                                   00002F26 
               calls direct
    -------------------------------------------------------------------------
CODE
  Relative segment, address: CODE 00002F2A - 00002F2B (0x2 bytes), align: 1
  Segment part 151.           Intra module refs:   CEmergencyAlarmWindowNotifyerControl::__vtbl
           ENTRY                   ADDRESS         REF BY
           =====                   =======         ======
           CEmergencyAlarmWindowNotifyerControl::~CEmergencyAlarmWindowNotifyerControl()
                                   00002F2A        <Unnamed 6> (Pss21)
               calls direct
    -------------------------------------------------------------------------
CODE
  Relative segment, address: CODE 00002F2C - 00002F49 (0x1e bytes), align: 1
  Segment part 152.           Intra module refs:   CEmergencyAlarmWindowNotifyerControl::__vtbl
           ENTRY                   ADDRESS         REF BY
           =====                   =======         ======
           CEmergencyAlarmWindowNotifyerControl::AlarmSet(uint8_t)
                                   00002F2C        ?Subroutine63 (Pss21)
    -------------------------------------------------------------------------
CODE
  Relative segment, address: CODE 00002F4A - 00002F4B (0x2 bytes), align: 1
  Segment part 153.           Intra module refs:   CEmergencyAlarmWindowNotifyerControl::__vtbl
           ENTRY                   ADDRESS         REF BY
           =====                   =======         ======
           CEmergencyAlarmWindowNotifyerControl::NotifyerNormalOn()
                                   00002F4A 
    -------------------------------------------------------------------------
CODE
  Relative segment, address: CODE 00002F4C - 00002F4D (0x2 bytes), align: 1
  Segment part 154.           Intra module refs:   CEmergencyAlarmWindowNotifyerControl::__vtbl
           ENTRY                   ADDRESS         REF BY
           =====                   =======         ======
           CEmergencyAlarmWindowNotifyerControl::NotifyerIndicationOn()
                                   00002F4C 
               calls direct
    -------------------------------------------------------------------------
CODE
  Relative segment, address: CODE 00002F4E - 00002F4F (0x2 bytes), align: 1
  Segment part 155.           Intra module refs:   CEmergencyAlarmWindowNotifyerControl::__vtbl
           ENTRY                   ADDRESS         REF BY
           =====                   =======         ======
           CEmergencyAlarmWindowNotifyerControl::NotifyerPreventiveOn()
                                   00002F4E 
    -------------------------------------------------------------------------
CODE
  Relative segment, address: CODE 00002F50 - 00002F53 (0x4 bytes), align: 1
  Segment part 156.           Intra module refs:   CEmergencyAlarmWindowNotifyerControl::__vtbl
           ENTRY                   ADDRESS         REF BY
           =====                   =======         ======
           CEmergencyAlarmWindowNotifyerControl::NotifyerEmergencyOn()
                                   00002F50 
               calls direct
    -------------------------------------------------------------------------
CODE
  Relative segment, address: CODE 00002F54 - 00002F57 (0x4 bytes), align: 1
  Segment part 157.           Intra module refs:   CEmergencyAlarmWindowNotifyerControl::__vtbl
           ENTRY                   ADDRESS         REF BY
           =====                   =======         ======
           CEmergencyAlarmWindowNotifyerControl::NotifyerOff()
                                   00002F54 
               calls direct
    -------------------------------------------------------------------------
CODE
  Relative segment, address: CODE 00002F58, align: 1
  Segment part 158.           Intra module refs:   CStatusLedNotifyerControl::__vtbl
           ENTRY                   ADDRESS         REF BY
           =====                   =======         ======
           CStatusLedNotifyerControl::~CStatusLedNotifyerControl()
                                   00002F58        <Unnamed 7> (Pss21)
               calls direct
    -------------------------------------------------------------------------
CODE
  Relative segment, address: CODE 00002F58 - 00002F59 (0x2 bytes), align: 1
  Segment part 159.           Intra module refs:   CBuzzerNotifyerControl::~CBuzzerNotifyerControl()
                                                   CEmergencyAlarmWindowNotifyerControl::~CEmergencyAlarmWindowNotifyerControl()
                                                   CPreventiveAlarmWindowNotifyerControl::~CPreventiveAlarmWindowNotifyerControl()
                                                   CStatusLedNotifyerControl::~CStatusLedNotifyerControl()
           LOCAL                   ADDRESS         
           =====                   =======         
           ?Subroutine31           00002F58 
    -------------------------------------------------------------------------
CODE
  Relative segment, address: CODE 00002F5A - 00002F5D (0x4 bytes), align: 1
  Segment part 160.           Intra module refs:   ?Subroutine31
                                                   CNotifyerControl::~CNotifyerControl()
    -------------------------------------------------------------------------
CODE
  Relative segment, address: CODE 00002F5E - 00002F75 (0x18 bytes), align: 1
  Segment part 161.           Intra module refs:   ?Subroutine31
           LOCAL                   ADDRESS         
           =====                   =======         
           ?Subroutine0            00002F5E 
    -------------------------------------------------------------------------
CODE
  Relative segment, address: CODE 00002F76 - 00002F7F (0xa bytes), align: 1
  Segment part 162.           Intra module refs:   ?Subroutine0
                                                   CNotifyerControl::~CNotifyerControl()
           LOCAL                   ADDRESS         
           =====                   =======         
           ?Subroutine22           00002F76 
    -------------------------------------------------------------------------
CODE
  Relative segment, address: CODE 00002F80 - 00002F8B (0xc bytes), align: 1
  Segment part 163.           Intra module refs:   ?Subroutine0
                                                   CNotifyerControl::~CNotifyerControl()
           LOCAL                   ADDRESS         
           =====                   =======         
           ?Subroutine20           00002F80 
    -------------------------------------------------------------------------
CODE
  Relative segment, address: CODE 00002F8C - 00002FB1 (0x26 bytes), align: 1
  Segment part 164.           Intra module refs:   CStatusLedNotifyerControl::__vtbl
           ENTRY                   ADDRESS         REF BY
           =====                   =======         ======
           CStatusLedNotifyerControl::AlarmSet(uint8_t)
                                   00002F8C        ?Subroutine64 (Pss21)
    -------------------------------------------------------------------------
CODE
  Relative segment, address: CODE 00002FB2 - 00002FBB (0xa bytes), align: 1
  Segment part 165.           Intra module refs:   CBuzzerNotifyerControl::AlarmSet(uint8_t)
                                                   CEmergencyAlarmWindowNotifyerControl::AlarmSet(uint8_t)
                                                   CPreventiveAlarmWindowNotifyerControl::AlarmSet(uint8_t)
                                                   CStatusLedNotifyerControl::AlarmSet(uint8_t)
           LOCAL                   ADDRESS         
           =====                   =======         
           ?Subroutine13           00002FB2 
    -------------------------------------------------------------------------
CODE
  Relative segment, address: CODE 00002FBC, align: 1
  Segment part 166.           Intra module refs:   CStatusLedNotifyerControl::__vtbl
           ENTRY                   ADDRESS         REF BY
           =====                   =======         ======
           CStatusLedNotifyerControl::NotifyerNormalOn()
                                   00002FBC 
    -------------------------------------------------------------------------
CODE
  Relative segment, address: CODE 00002FBC - 00002FBF (0x4 bytes), align: 1
  Segment part 167.           Intra module refs:   CStatusLedNotifyerControl::NotifyerEmergencyOn()
                                                   CStatusLedNotifyerControl::NotifyerNormalOn()
                                                   CStatusLedNotifyerControl::NotifyerPreventiveOn()
           LOCAL                   ADDRESS         
           =====                   =======         
           ?Subroutine30           00002FBC 
    -------------------------------------------------------------------------
CODE
  Relative segment, address: CODE 00002FC0 - 00002FC1 (0x2 bytes), align: 1
  Segment part 168.           Intra module refs:   CStatusLedNotifyerControl::__vtbl
           ENTRY                   ADDRESS         REF BY
           =====                   =======         ======
           CStatusLedNotifyerControl::NotifyerIndicationOn()
                                   00002FC0 
    -------------------------------------------------------------------------
CODE
  Relative segment, address: CODE 00002FC2 - 00002FC3 (0x2 bytes), align: 1
  Segment part 169.           Intra module refs:   CStatusLedNotifyerControl::__vtbl
           ENTRY                   ADDRESS         REF BY
           =====                   =======         ======
           CStatusLedNotifyerControl::NotifyerPreventiveOn()
                                   00002FC2 
    -------------------------------------------------------------------------
CODE
  Relative segment, address: CODE 00002FC4 - 00002FC5 (0x2 bytes), align: 1
  Segment part 170.           Intra module refs:   CStatusLedNotifyerControl::__vtbl
           ENTRY                   ADDRESS         REF BY
           =====                   =======         ======
           CStatusLedNotifyerControl::NotifyerEmergencyOn()
                                   00002FC4 
    -------------------------------------------------------------------------
CODE
  Relative segment, address: CODE 00002FC6 - 00002FC9 (0x4 bytes), align: 1
  Segment part 171.           Intra module refs:   CStatusLedNotifyerControl::__vtbl
           ENTRY                   ADDRESS         REF BY
           =====                   =======         ======
           CStatusLedNotifyerControl::NotifyerOff()
                                   00002FC6 
               calls direct
    -------------------------------------------------------------------------
CODE
  Relative segment, address: CODE 00002FCA - 00002FCD (0x4 bytes), align: 1
  Segment part 172.           Intra module refs:   CEmergencyAlarmWindowNotifyerControl::NotifyerOff()
                                                   CPreventiveAlarmWindowNotifyerControl::NotifyerOff()
           LOCAL                   ADDRESS         
           =====                   =======         
           ?Subroutine33           00002FCA 
    -------------------------------------------------------------------------
CODE
  Relative segment, address: CODE 00002FCE - 00002FD1 (0x4 bytes), align: 1
  Segment part 173.           Intra module refs:   ?Subroutine33
                                                   CBuzzerNotifyerControl::NotifyerOff()
                                                   CStatusLedNotifyerControl::NotifyerOff()
    -------------------------------------------------------------------------
CODE
  Relative segment, address: CODE 00002FD2 - 00002FD3 (0x2 bytes), align: 1
  Segment part 174.           Intra module refs:   CBuzzerNotifyerControl::__vtbl
           ENTRY                   ADDRESS         REF BY
           =====                   =======         ======
           CBuzzerNotifyerControl::~CBuzzerNotifyerControl()
                                   00002FD2        <Unnamed 8> (Pss21)
               calls direct
    -------------------------------------------------------------------------
CODE
  Relative segment, address: CODE 00002FD4 - 00003001 (0x2e bytes), align: 1
  Segment part 175.           Intra module refs:   CBuzzerNotifyerControl::__vtbl
           ENTRY                   ADDRESS         REF BY
           =====                   =======         ======
           CBuzzerNotifyerControl::AlarmSet(uint8_t)
                                   00002FD4        Segment part 283 (Pss21)
    -------------------------------------------------------------------------
CODE
  Relative segment, address: CODE 00003002, align: 1
  Segment part 176.           Intra module refs:   CBuzzerNotifyerControl::__vtbl
           ENTRY                   ADDRESS         REF BY
           =====                   =======         ======
           CBuzzerNotifyerControl::NotifyerNormalOn()
                                   00003002 
               calls direct
    -------------------------------------------------------------------------
CODE
  Relative segment, address: CODE 00003002 - 00003005 (0x4 bytes), align: 1
  Segment part 177.           Intra module refs:   CBuzzerNotifyerControl::NotifyerIndicationOn()
                                                   CBuzzerNotifyerControl::NotifyerNormalOn()
           LOCAL                   ADDRESS         
           =====                   =======         
           ?Subroutine34           00003002 
    -------------------------------------------------------------------------
CODE
  Relative segment, address: CODE 00003006 - 00003007 (0x2 bytes), align: 1
  Segment part 178.           Intra module refs:   CBuzzerNotifyerControl::__vtbl
           ENTRY                   ADDRESS         REF BY
           =====                   =======         ======
           CBuzzerNotifyerControl::NotifyerIndicationOn()
                                   00003006 
               calls direct
    -------------------------------------------------------------------------
CODE
  Relative segment, address: CODE 00003008 - 0000300B (0x4 bytes), align: 1
  Segment part 179.           Intra module refs:   CBuzzerNotifyerControl::__vtbl
           ENTRY                   ADDRESS         REF BY
           =====                   =======         ======
           CBuzzerNotifyerControl::NotifyerPreventiveOn()
                                   00003008 
               calls direct
    -------------------------------------------------------------------------
CODE
  Relative segment, address: CODE 0000300C - 0000300F (0x4 bytes), align: 1
  Segment part 180.           Intra module refs:   CBuzzerNotifyerControl::__vtbl
           ENTRY                   ADDRESS         REF BY
           =====                   =======         ======
           CBuzzerNotifyerControl::NotifyerEmergencyOn()
                                   0000300C 
               calls direct
    -------------------------------------------------------------------------
CODE
  Relative segment, address: CODE 00003010 - 00003015 (0x6 bytes), align: 1
  Segment part 181.           Intra module refs:   CBuzzerNotifyerControl::__vtbl
           ENTRY                   ADDRESS         REF BY
           =====                   =======         ======
           CBuzzerNotifyerControl::NotifyerOff()
                                   00003010 
               calls direct
    -------------------------------------------------------------------------
CODE
  Relative segment, address: CODE 00003016 - 0000301B (0x6 bytes), align: 1
  Segment part 183.           Intra module refs:   CBuzzerNotifyerControl::__vtbl
                                                   CNotifyerControl::__vtbl
                                                   CStatusLedNotifyerControl::__vtbl
           ENTRY                   ADDRESS         REF BY
           =====                   =======         ======
           CNotifyerControl::NORMAL_SIGNAL_ON_TIME()
                                   00003016 
    -------------------------------------------------------------------------
CODE
  Relative segment, address: CODE 0000301C - 00003021 (0x6 bytes), align: 1
  Segment part 184.           Intra module refs:   CBuzzerNotifyerControl::__vtbl
                                                   CNotifyerControl::__vtbl
                                                   CStatusLedNotifyerControl::__vtbl
           ENTRY                   ADDRESS         REF BY
           =====                   =======         ======
           CNotifyerControl::NORMAL_SIGNAL_OFF_TIME()
                                   0000301C 
    -------------------------------------------------------------------------
CODE
  Relative segment, address: CODE 00003022 - 00003027 (0x6 bytes), align: 1
  Segment part 185.           Intra module refs:   CBuzzerNotifyerControl::__vtbl
                                                   CNotifyerControl::__vtbl
                                                   CStatusLedNotifyerControl::__vtbl
           ENTRY                   ADDRESS         REF BY
           =====                   =======         ======
           CNotifyerControl::WARNING_SIGNAL_ON_TIME()
                                   00003022 
    -------------------------------------------------------------------------
CODE
  Relative segment, address: CODE 00003028 - 0000302D (0x6 bytes), align: 1
  Segment part 186.           Intra module refs:   CBuzzerNotifyerControl::__vtbl
                                                   CNotifyerControl::__vtbl
                                                   CStatusLedNotifyerControl::__vtbl
           ENTRY                   ADDRESS         REF BY
           =====                   =======         ======
           CNotifyerControl::WARNING_SIGNAL_OFF_TIME()
                                   00003028 
    -------------------------------------------------------------------------
CODE
  Relative segment, address: CODE 0000302E - 00003033 (0x6 bytes), align: 1
  Segment part 187.           Intra module refs:   CBuzzerNotifyerControl::__vtbl
                                                   CNotifyerControl::__vtbl
                                                   CStatusLedNotifyerControl::__vtbl
           ENTRY                   ADDRESS         REF BY
           =====                   =======         ======
           CNotifyerControl::ALARM_SIGNAL_ON_TIME()
                                   0000302E 
    -------------------------------------------------------------------------
CODE
  Relative segment, address: CODE 00003034 - 00003039 (0x6 bytes), align: 1
  Segment part 188.           Intra module refs:   CBuzzerNotifyerControl::__vtbl
                                                   CNotifyerControl::__vtbl
                                                   CStatusLedNotifyerControl::__vtbl
           ENTRY                   ADDRESS         REF BY
           =====                   =======         ======
           CNotifyerControl::ALARM_SIGNAL_OFF_TIME()
                                   00003034 
    -------------------------------------------------------------------------
CODE
  Relative segment, address: CODE 0000303A - 0000303F (0x6 bytes), align: 1
  Segment part 189.           Intra module refs:   CBuzzerNotifyerControl::__vtbl
                                                   CEmergencyAlarmWindowNotifyerControl::__vtbl
                                                   CNotifyerControl::__vtbl
                                                   CPreventiveAlarmWindowNotifyerControl::__vtbl
                                                   CStatusLedNotifyerControl::__vtbl
           ENTRY                   ADDRESS         REF BY
           =====                   =======         ======
           CNotifyerControl::ERROR_SIGNAL_ON_TIME()
                                   0000303A 
    -------------------------------------------------------------------------
CODE
  Relative segment, address: CODE 00003040 - 00003045 (0x6 bytes), align: 1
  Segment part 190.           Intra module refs:   CBuzzerNotifyerControl::__vtbl
                                                   CEmergencyAlarmWindowNotifyerControl::__vtbl
                                                   CNotifyerControl::__vtbl
                                                   CPreventiveAlarmWindowNotifyerControl::__vtbl
                                                   CStatusLedNotifyerControl::__vtbl
           ENTRY                   ADDRESS         REF BY
           =====                   =======         ======
           CNotifyerControl::ERROR_SIGNAL_OFF_TIME()
                                   00003040 
    -------------------------------------------------------------------------
CODE
  Relative segment, address: CODE 00003046 - 0000304B (0x6 bytes), align: 1
  Segment part 191.           Intra module refs:   CBuzzerNotifyerControl::__vtbl
                                                   CEmergencyAlarmWindowNotifyerControl::__vtbl
                                                   CNotifyerControl::__vtbl
                                                   CPreventiveAlarmWindowNotifyerControl::__vtbl
                                                   CStatusLedNotifyerControl::__vtbl
           ENTRY                   ADDRESS         REF BY
           =====                   =======         ======
           CNotifyerControl::ERROR_SIGNAL_PAUSE_TIME()
                                   00003046 
    -------------------------------------------------------------------------
CODE
  Relative segment, address: CODE 0000304C - 00003051 (0x6 bytes), align: 1
  Segment part 192.           Intra module refs:   CBuzzerNotifyerControl::__vtbl
                                                   CEmergencyAlarmWindowNotifyerControl::__vtbl
                                                   CNotifyerControl::__vtbl
                                                   CPreventiveAlarmWindowNotifyerControl::__vtbl
                                                   CStatusLedNotifyerControl::__vtbl
           ENTRY                   ADDRESS         REF BY
           =====                   =======         ======
           CNotifyerControl::BEEP_SIGNAL_ON_TIME()
                                   0000304C 
    -------------------------------------------------------------------------
CODE
  Relative segment, address: CODE 00003052 - 00003057 (0x6 bytes), align: 1
  Segment part 193.           Intra module refs:   CPreventiveAlarmWindowNotifyerControl::__vtbl
           ENTRY                   ADDRESS         REF BY
           =====                   =======         ======
           CPreventiveAlarmWindowNotifyerControl::NORMAL_SIGNAL_ON_TIME()
                                   00003052 
    -------------------------------------------------------------------------
CODE
  Relative segment, address: CODE 00003058 - 0000305D (0x6 bytes), align: 1
  Segment part 194.           Intra module refs:   CPreventiveAlarmWindowNotifyerControl::__vtbl
           ENTRY                   ADDRESS         REF BY
           =====                   =======         ======
           CPreventiveAlarmWindowNotifyerControl::NORMAL_SIGNAL_OFF_TIME()
                                   00003058 
    -------------------------------------------------------------------------
CODE
  Relative segment, address: CODE 0000305E - 00003063 (0x6 bytes), align: 1
  Segment part 195.           Intra module refs:   CPreventiveAlarmWindowNotifyerControl::__vtbl
           ENTRY                   ADDRESS         REF BY
           =====                   =======         ======
           CPreventiveAlarmWindowNotifyerControl::WARNING_SIGNAL_ON_TIME()
                                   0000305E 
    -------------------------------------------------------------------------
CODE
  Relative segment, address: CODE 00003064 - 00003069 (0x6 bytes), align: 1
  Segment part 196.           Intra module refs:   CPreventiveAlarmWindowNotifyerControl::__vtbl
           ENTRY                   ADDRESS         REF BY
           =====                   =======         ======
           CPreventiveAlarmWindowNotifyerControl::WARNING_SIGNAL_OFF_TIME()
                                   00003064 
    -------------------------------------------------------------------------
CODE
  Relative segment, address: CODE 0000306A - 0000306F (0x6 bytes), align: 1
  Segment part 197.           Intra module refs:   CPreventiveAlarmWindowNotifyerControl::__vtbl
           ENTRY                   ADDRESS         REF BY
           =====                   =======         ======
           CPreventiveAlarmWindowNotifyerControl::ALARM_SIGNAL_ON_TIME()
                                   0000306A 
    -------------------------------------------------------------------------
CODE
  Relative segment, address: CODE 00003070 - 00003075 (0x6 bytes), align: 1
  Segment part 198.           Intra module refs:   CPreventiveAlarmWindowNotifyerControl::__vtbl
           ENTRY                   ADDRESS         REF BY
           =====                   =======         ======
           CPreventiveAlarmWindowNotifyerControl::ALARM_SIGNAL_OFF_TIME()
                                   00003070 
    -------------------------------------------------------------------------
CODE
  Relative segment, address: CODE 00003076 - 0000307B (0x6 bytes), align: 1
  Segment part 199.           Intra module refs:   CEmergencyAlarmWindowNotifyerControl::__vtbl
           ENTRY                   ADDRESS         REF BY
           =====                   =======         ======
           CEmergencyAlarmWindowNotifyerControl::NORMAL_SIGNAL_ON_TIME()
                                   00003076 
    -------------------------------------------------------------------------
CODE
  Relative segment, address: CODE 0000307C - 00003081 (0x6 bytes), align: 1
  Segment part 200.           Intra module refs:   CEmergencyAlarmWindowNotifyerControl::__vtbl
           ENTRY                   ADDRESS         REF BY
           =====                   =======         ======
           CEmergencyAlarmWindowNotifyerControl::NORMAL_SIGNAL_OFF_TIME()
                                   0000307C 
    -------------------------------------------------------------------------
CODE
  Relative segment, address: CODE 00003082 - 00003087 (0x6 bytes), align: 1
  Segment part 201.           Intra module refs:   CEmergencyAlarmWindowNotifyerControl::__vtbl
           ENTRY                   ADDRESS         REF BY
           =====                   =======         ======
           CEmergencyAlarmWindowNotifyerControl::WARNING_SIGNAL_ON_TIME()
                                   00003082 
    -------------------------------------------------------------------------
CODE
  Relative segment, address: CODE 00003088 - 0000308D (0x6 bytes), align: 1
  Segment part 202.           Intra module refs:   CEmergencyAlarmWindowNotifyerControl::__vtbl
           ENTRY                   ADDRESS         REF BY
           =====                   =======         ======
           CEmergencyAlarmWindowNotifyerControl::WARNING_SIGNAL_OFF_TIME()
                                   00003088 
    -------------------------------------------------------------------------
CODE
  Relative segment, address: CODE 0000308E - 00003093 (0x6 bytes), align: 1
  Segment part 203.           Intra module refs:   CEmergencyAlarmWindowNotifyerControl::__vtbl
           ENTRY                   ADDRESS         REF BY
           =====                   =======         ======
           CEmergencyAlarmWindowNotifyerControl::ALARM_SIGNAL_ON_TIME()
                                   0000308E 
    -------------------------------------------------------------------------
CODE
  Relative segment, address: CODE 00003094 - 00003099 (0x6 bytes), align: 1
  Segment part 204.           Intra module refs:   CEmergencyAlarmWindowNotifyerControl::__vtbl
           ENTRY                   ADDRESS         REF BY
           =====                   =======         ======
           CEmergencyAlarmWindowNotifyerControl::ALARM_SIGNAL_OFF_TIME()
                                   00003094 
    -------------------------------------------------------------------------
SWITCH
  Relative segment, address: CODE 000008D6 - 0000090F (0x3a bytes), align: 1
  Segment part 182.           Intra module refs:   CNotifyerControl::Fsm()
    -------------------------------------------------------------------------
NEAR_F
  Relative segment, address: CODE 0000048B - 000004AE (0x24 bytes), align: 0
  Segment part 99. ROOT       Intra module refs:   ?Subroutine3
           ENTRY                   ADDRESS         REF BY
           =====                   =======         ======
           CNotifyerControl::__vtbl
                                   0000048B 
    -------------------------------------------------------------------------
NEAR_F
  Relative segment, address: CODE 000004AF - 000004D2 (0x24 bytes), align: 0
  Segment part 100. ROOT      Intra module refs:   CPreventiveAlarmWindowNotifyerControl::CPreventiveAlarmWindowNotifyerControl()
           ENTRY                   ADDRESS         REF BY
           =====                   =======         ======
           CPreventiveAlarmWindowNotifyerControl::__vtbl
                                   000004AF 
    -------------------------------------------------------------------------
NEAR_F
  Relative segment, address: CODE 000004D3 - 000004F6 (0x24 bytes), align: 0
  Segment part 101. ROOT      Intra module refs:   CEmergencyAlarmWindowNotifyerControl::CEmergencyAlarmWindowNotifyerControl()
           ENTRY                   ADDRESS         REF BY
           =====                   =======         ======
           CEmergencyAlarmWindowNotifyerControl::__vtbl
                                   000004D3 
    -------------------------------------------------------------------------
NEAR_F
  Relative segment, address: CODE 000004F7 - 000004FA (0x4 bytes), align: 0
  Segment part 102. ROOT 
           LOCAL                   ADDRESS         
           =====                   =======         
           CDriver::__vtbl         000004F7 
    -------------------------------------------------------------------------
NEAR_F
  Relative segment, address: CODE 000004FB - 00000502 (0x8 bytes), align: 0
  Segment part 103. ROOT 
           LOCAL                   ADDRESS         
           =====                   =======         
           CTaskInterface::__vtbl
                                   000004FB 
    -------------------------------------------------------------------------
NEAR_F
  Relative segment, address: CODE 00000503 - 0000050C (0xa bytes), align: 0
  Segment part 104. ROOT 
           LOCAL                   ADDRESS         
           =====                   =======         
           CIsRegularButtonPressedInterface::__vtbl
                                   00000503 
    -------------------------------------------------------------------------
NEAR_F
  Relative segment, address: CODE 0000050D - 00000530 (0x24 bytes), align: 0
  Segment part 105. ROOT      Intra module refs:   CStatusLedNotifyerControl::CStatusLedNotifyerControl()
           ENTRY                   ADDRESS         REF BY
           =====                   =======         ======
           CStatusLedNotifyerControl::__vtbl
                                   0000050D 
    -------------------------------------------------------------------------
NEAR_F
  Relative segment, address: CODE 00000531 - 00000554 (0x24 bytes), align: 0
  Segment part 106. ROOT      Intra module refs:   CBuzzerNotifyerControl::CBuzzerNotifyerControl()
           ENTRY                   ADDRESS         REF BY
           =====                   =======         ======
           CBuzzerNotifyerControl::__vtbl
                                   00000531 

    *************************************************************************

  FILE NAME : D:\Projects\CurrentProjects\CautoProjects\PSS48Color\Debug\Obj\Pixel.r90
  PROGRAM MODULE, NAME : Pixel

  SEGMENTS IN THE MODULE
  ======================
CODE
  Relative segment, address: CODE 0000309A - 0000309F (0x6 bytes), align: 1
  Segment part 100.           Intra module refs:   CPss48BoardPixel::SetData(TPixelColorData __farflash *)
           LOCAL                   ADDRESS         
           =====                   =======         
           ?Subroutine6            0000309A 
    -------------------------------------------------------------------------
CODE
  Relative segment, address: CODE 000030A0 - 000030A3 (0x4 bytes), align: 1
  Segment part 102.           Intra module refs:   ?Subroutine5
           LOCAL                   ADDRESS         
           =====                   =======         
           ?Subroutine7            000030A0 
    -------------------------------------------------------------------------
CODE
  Relative segment, address: CODE 000030A4 - 000030B3 (0x10 bytes), align: 1
  Segment part 104.
           ENTRY                   ADDRESS         REF BY
           =====                   =======         ======
           CPss48BoardPixel::SetData(TPixelColorData __farflash *)
                                   000030A4        CLightBoard::Set(CAlarmWindow *) (LightBoard)
               calls direct
    -------------------------------------------------------------------------
CODE
  Relative segment, address: CODE 000030B4 - 000030BD (0xa bytes), align: 1
  Segment part 105.           Intra module refs:   CPss48BoardPixel::SetData(TPixelColorData __farflash *)
           LOCAL                   ADDRESS         
           =====                   =======         
           ?Subroutine2            000030B4 
    -------------------------------------------------------------------------
CODE
  Relative segment, address: CODE 000030BE - 000030BF (0x2 bytes), align: 1
  Segment part 106.           Intra module refs:   CPss48BoardPixel::SetData(TPixelColorData __farflash *)
           LOCAL                   ADDRESS         
           =====                   =======         
           ?Subroutine0            000030BE 
    -------------------------------------------------------------------------
CODE
  Relative segment, address: CODE 000030C0 - 000030C7 (0x8 bytes), align: 1
  Segment part 107.           Intra module refs:   ?Subroutine0
                                                   CPss48BoardPixel::SetData(TPixelColorData __farflash *)
           LOCAL                   ADDRESS         
           =====                   =======         
           ?Subroutine5            000030C0 
    -------------------------------------------------------------------------
CODE
  Relative segment, address: CODE 000030C8 - 000030CF (0x8 bytes), align: 1
  Segment part 108.           Intra module refs:   ?Subroutine0
                                                   CPss48BoardPixel::SetData(TPixelColorData __farflash *)
           LOCAL                   ADDRESS         
           =====                   =======         
           ?Subroutine4            000030C8 

    *************************************************************************

  FILE NAME : D:\Projects\CurrentProjects\CautoProjects\PSS48Color\Debug\Obj\Platform.r90
  PROGRAM MODULE, NAME : Platform

  SEGMENTS IN THE MODULE
  ======================
CODE
  Relative segment, address: CODE 000030D0 - 00003139 (0x6a bytes), align: 1
  Segment part 119.
           ENTRY                   ADDRESS         REF BY
           =====                   =======         ======
           CUart::CUart(uint8_t volatile *, uint8_t volatile *, uint8_t volatile *, uint8_t volatile *, uint8_t volatile *, uint8_t volatile *, uint8_t volatile *, uint8_t, uint8_t volatile *, uint8_t)
                                   000030D0        __sti__routine() (Pss21)
               calls direct
    -------------------------------------------------------------------------
CODE
  Relative segment, address: CODE 0000313A - 0000313B (0x2 bytes), align: 1
  Segment part 127.           Intra module refs:   CUart::Read(uint8_t *, uint16_t)
           LOCAL                   ADDRESS         
           =====                   =======         
           ?Subroutine5            0000313A 
    -------------------------------------------------------------------------
CODE
  Relative segment, address: CODE 0000313C - 0000313F (0x4 bytes), align: 1
  Segment part 128.           Intra module refs:   ?Subroutine5
                                                   CUart::Write(uint8_t *, uint16_t)
           LOCAL                   ADDRESS         
           =====                   =======         
           ?Subroutine30           0000313C 
    -------------------------------------------------------------------------
CODE
  Relative segment, address: CODE 00003140 - 00003141 (0x2 bytes), align: 1
  Segment part 130.           Intra module refs:   CUart::__vtbl
           ENTRY                   ADDRESS         REF BY
           =====                   =======         ======
           CUart::~CUart()         00003140        <Unnamed 0> (Pss21)
               calls direct
    -------------------------------------------------------------------------
CODE
  Relative segment, address: CODE 00003142 - 00003183 (0x42 bytes), align: 1
  Segment part 131.
           ENTRY                   ADDRESS         REF BY
           =====                   =======         ======
           CUart::Init(uint32_t, uint8_t, uint8_t, uint8_t, uint8_t *, uint8_t *)
                                   00003142        CModbusRTU::Init(CUart *, uint32_t, char, uint8_t, uint8_t, uint8_t *, uint8_t *, uint8_t *, uint8_t *, uint16_t *, uint16_t *, uint16_t, uint16_t, uint16_t, uint16_t) (ModbusRTU)
               calls direct
    -------------------------------------------------------------------------
CODE
  Relative segment, address: CODE 00003184 - 00003193 (0x10 bytes), align: 1
  Segment part 132.
           ENTRY                   ADDRESS         REF BY
           =====                   =======         ======
           CUart::Reset()          00003184        ?Subroutine1 (ModbusRTU)
                                                   ?Subroutine49 (ModbusRTU)
    -------------------------------------------------------------------------
CODE
  Relative segment, address: CODE 00003194 - 00003195 (0x2 bytes), align: 1
  Segment part 135.           Intra module refs:   CUart::Enable()
           LOCAL                   ADDRESS         
           =====                   =======         
           ?Subroutine14           00003194 
    -------------------------------------------------------------------------
CODE
  Relative segment, address: CODE 00003196 - 0000319B (0x6 bytes), align: 1
  Segment part 136.           Intra module refs:   ?Subroutine14
                                                   CUart::TxcInterruptHandler()
           LOCAL                   ADDRESS         
           =====                   =======         
           ?Subroutine27           00003196 
    -------------------------------------------------------------------------
CODE
  Relative segment, address: CODE 0000319C - 0000319F (0x4 bytes), align: 1
  Segment part 137.           Intra module refs:   CUart::TxcInterruptHandler()
           LOCAL                   ADDRESS         
           =====                   =======         
           ?Subroutine4            0000319C 
    -------------------------------------------------------------------------
CODE
  Relative segment, address: CODE 000031A0 - 000031A5 (0x6 bytes), align: 1
  Segment part 138.           Intra module refs:   ?Subroutine4
                                                   CUart::TransmitDisable()
    -------------------------------------------------------------------------
CODE
  Relative segment, address: CODE 000031A6 - 000031A9 (0x4 bytes), align: 1
  Segment part 139.           Intra module refs:   ?Subroutine4
                                                   ?Subroutine6
                                                   Segment part 138
           LOCAL                   ADDRESS         
           =====                   =======         
           ?Subroutine31           000031A6 
    -------------------------------------------------------------------------
CODE
  Relative segment, address: CODE 000031AA - 000031B3 (0xa bytes), align: 1
  Segment part 140.
           ENTRY                   ADDRESS         REF BY
           =====                   =======         ======
           CUart::Enable()         000031AA        ?Subroutine1 (ModbusRTU)
    -------------------------------------------------------------------------
CODE
  Relative segment, address: CODE 000031B4 - 000031BD (0xa bytes), align: 1
  Segment part 141.           Intra module refs:   CUart::Enable()
                                                   CUart::UdreInterruptHandler()
           LOCAL                   ADDRESS         
           =====                   =======         
           ?Subroutine12           000031B4 
    -------------------------------------------------------------------------
CODE
  Relative segment, address: CODE 000031BE - 000031C9 (0xc bytes), align: 1
  Segment part 142.           Intra module refs:   CUart::Enable()
           LOCAL                   ADDRESS         
           =====                   =======         
           ?Subroutine6            000031BE 
    -------------------------------------------------------------------------
CODE
  Relative segment, address: CODE 000031CA - 000031D5 (0xc bytes), align: 1
  Segment part 143.
           ENTRY                   ADDRESS         REF BY
           =====                   =======         ======
           CUart::Disable()        000031CA        ?Subroutine50 (ModbusRTU)
    -------------------------------------------------------------------------
CODE
  Relative segment, address: CODE 000031D6 - 000031D9 (0x4 bytes), align: 1
  Segment part 144.           Intra module refs:   CUart::Disable()
                                                   CUart::Rs485RtsOff()
                                                   CUart::Rs485RtsOn()
           LOCAL                   ADDRESS         
           =====                   =======         
           ?Subroutine32           000031D6 
    -------------------------------------------------------------------------
CODE
  Relative segment, address: CODE 000031DA - 000031ED (0x14 bytes), align: 1
  Segment part 145.           Intra module refs:   CUart::TransmitEnable()
           ENTRY                   ADDRESS         REF BY
           =====                   =======         ======
           CUart::Rs485RtsOn()     000031DA 
               calls direct
    -------------------------------------------------------------------------
CODE
  Relative segment, address: CODE 000031EE - 000031F5 (0x8 bytes), align: 1
  Segment part 146.           Intra module refs:   ?Subroutine2
                                                   CUart::CUart(uint8_t volatile *, uint8_t volatile *, uint8_t volatile *, uint8_t volatile *, uint8_t volatile *, uint8_t volatile *, uint8_t volatile *, uint8_t, uint8_t volatile *, uint8_t)
                                                   CUart::Rs485RtsOn()
           LOCAL                   ADDRESS         
           =====                   =======         
           ?Subroutine22           000031EE 
    -------------------------------------------------------------------------
CODE
  Relative segment, address: CODE 000031F6 - 000031FD (0x8 bytes), align: 1
  Segment part 147.           Intra module refs:   CUart::TransmitDisable()
           ENTRY                   ADDRESS         REF BY
           =====                   =======         ======
           CUart::Rs485RtsOff()    000031F6 
               calls direct
    -------------------------------------------------------------------------
CODE
  Relative segment, address: CODE 000031FE - 0000320F (0x12 bytes), align: 1
  Segment part 148.           Intra module refs:   CUart::CUart(uint8_t volatile *, uint8_t volatile *, uint8_t volatile *, uint8_t volatile *, uint8_t volatile *, uint8_t volatile *, uint8_t volatile *, uint8_t, uint8_t volatile *, uint8_t)
                                                   CUart::Rs485RtsOff()
           LOCAL                   ADDRESS         
           =====                   =======         
           ?Subroutine2            000031FE 
    -------------------------------------------------------------------------
CODE
  Relative segment, address: CODE 00003210 - 0000323B (0x2c bytes), align: 1
  Segment part 149.
           ENTRY                   ADDRESS         REF BY
           =====                   =======         ======
           CUart::TransmitEnable()
                                   00003210        ?Subroutine51 (ModbusRTU)
               calls direct
    -------------------------------------------------------------------------
CODE
  Relative segment, address: CODE 0000323C - 00003241 (0x6 bytes), align: 1
  Segment part 150.           Intra module refs:   CUart::TransmitDisable()
                                                   CUart::TransmitEnable()
           LOCAL                   ADDRESS         
           =====                   =======         
           ?Subroutine28           0000323C 
    -------------------------------------------------------------------------
CODE
  Relative segment, address: CODE 00003242 - 00003247 (0x6 bytes), align: 1
  Segment part 151.           Intra module refs:   CUart::Disable()
                                                   CUart::TransmitEnable()
                                                   CUart::UdreInterruptHandler()
           LOCAL                   ADDRESS         
           =====                   =======         
           ?Subroutine16           00003242 
    -------------------------------------------------------------------------
CODE
  Relative segment, address: CODE 00003248 - 0000325D (0x16 bytes), align: 1
  Segment part 152.
           ENTRY                   ADDRESS         REF BY
           =====                   =======         ======
           CUart::TransmitDisable()
                                   00003248        ?Subroutine52 (ModbusRTU)
               calls direct
    -------------------------------------------------------------------------
CODE
  Relative segment, address: CODE 0000325E - 0000326B (0xe bytes), align: 1
  Segment part 153.
           ENTRY                   ADDRESS         REF BY
           =====                   =======         ======
           CUart::Write(uint8_t *, uint16_t)
                                   0000325E        CModbusRTU::Send(uint8_t *, uint16_t) (ModbusRTU)
    -------------------------------------------------------------------------
CODE
  Relative segment, address: CODE 0000326C - 000032BF (0x54 bytes), align: 1
  Segment part 154.
           ENTRY                   ADDRESS         REF BY
           =====                   =======         ======
           CUart::Read(uint8_t *, uint16_t)
                                   0000326C        CModbusRTU::Receive(uint8_t *, uint16_t) (ModbusRTU)
    -------------------------------------------------------------------------
CODE
  Relative segment, address: CODE 000032C0 - 000032C5 (0x6 bytes), align: 1
  Segment part 155.           Intra module refs:   CUart::Read(uint8_t *, uint16_t)
                                                   CUart::RecvInterruptHandler()
           LOCAL                   ADDRESS         
           =====                   =======         
           ?Subroutine38           000032C0 
    -------------------------------------------------------------------------
CODE
  Relative segment, address: CODE 000032C6 - 00003305 (0x40 bytes), align: 1
  Segment part 156.           Intra module refs:   SIG_UART1_DATA()
           ENTRY                   ADDRESS         REF BY
           =====                   =======         ======
           CUart::UdreInterruptHandler()
                                   000032C6 
    -------------------------------------------------------------------------
CODE
  Relative segment, address: CODE 00003306 - 00003309 (0x4 bytes), align: 1
  Segment part 157.           Intra module refs:   CEeprom::ReadyInterruptHandler()
                                                   CUart::UdreInterruptHandler()
           LOCAL                   ADDRESS         
           =====                   =======         
           ?Subroutine33           00003306 
    -------------------------------------------------------------------------
CODE
  Relative segment, address: CODE 0000330A - 00003315 (0xc bytes), align: 1
  Segment part 158.           Intra module refs:   SIG_UART1_TXC()
           ENTRY                   ADDRESS         REF BY
           =====                   =======         ======
           CUart::TxcInterruptHandler()
                                   0000330A 
    -------------------------------------------------------------------------
CODE
  Relative segment, address: CODE 00003316 - 00003349 (0x34 bytes), align: 1
  Segment part 159.           Intra module refs:   SIG_UART1_RECV()
           ENTRY                   ADDRESS         REF BY
           =====                   =======         ======
           CUart::RecvInterruptHandler()
                                   00003316 
    -------------------------------------------------------------------------
CODE
  Relative segment, address: CODE 0000334A - 0000334D (0x4 bytes), align: 1
  Segment part 160.           Intra module refs:   CUart::Read(uint8_t *, uint16_t)
                                                   CUart::RecvInterruptHandler()
           LOCAL                   ADDRESS         
           =====                   =======         
           ?Subroutine17           0000334A 
    -------------------------------------------------------------------------
CODE
  Relative segment, address: CODE 0000334E - 00003353 (0x6 bytes), align: 1
  Segment part 161.           Intra module refs:   SIG_UART1_DATA()::??INTVEC 124
           ENTRY                   ADDRESS         REF BY
           =====                   =======         ======
           SIG_UART1_DATA()        0000334E 
               interrupt function
               calls direct
    -------------------------------------------------------------------------
CODE
  Relative segment, address: CODE 00003354 - 00003357 (0x4 bytes), align: 1
  Segment part 162.           Intra module refs:   EEPROM_EE_READY()
                                                   SIG_UART1_DATA()
           LOCAL                   ADDRESS         
           =====                   =======         
           ?Subroutine39           00003354 
    -------------------------------------------------------------------------
CODE
  Relative segment, address: CODE 00003358 - 0000335F (0x8 bytes), align: 1
  Segment part 163.           Intra module refs:   SIG_UART1_TXC()::??INTVEC 128
           ENTRY                   ADDRESS         REF BY
           =====                   =======         ======
           SIG_UART1_TXC()         00003358 
               interrupt function
               calls direct
    -------------------------------------------------------------------------
CODE
  Relative segment, address: CODE 00003360 - 00003363 (0x4 bytes), align: 1
  Segment part 164.           Intra module refs:   SIG_UART1_RECV()
                                                   SIG_UART1_TXC()
                                                   SystemTickInterrupt()
           LOCAL                   ADDRESS         
           =====                   =======         
           ?Subroutine40           00003360 
    -------------------------------------------------------------------------
CODE
  Relative segment, address: CODE 00003364 - 00003371 (0xe bytes), align: 1
  Segment part 165.           Intra module refs:   SIG_UART1_RECV()::??INTVEC 120
           ENTRY                   ADDRESS         REF BY
           =====                   =======         ======
           SIG_UART1_RECV()        00003364 
               interrupt function
               calls direct
    -------------------------------------------------------------------------
CODE
  Relative segment, address: CODE 00003372 - 00003375 (0x4 bytes), align: 1
  Segment part 166.           Intra module refs:   SIG_UART1_RECV()
                                                   SIG_UART1_TXC()
           LOCAL                   ADDRESS         
           =====                   =======         
           ?Subroutine19           00003372 
    -------------------------------------------------------------------------
CODE
  Relative segment, address: CODE 00003376 - 00003385 (0x10 bytes), align: 1
  Segment part 167.           Intra module refs:   ?Subroutine18
                                                   ?Subroutine19
           LOCAL                   ADDRESS         
           =====                   =======         
           ?Subroutine23           00003376 
    -------------------------------------------------------------------------
CODE
  Relative segment, address: CODE 00003386 - 0000338B (0x6 bytes), align: 1
  Segment part 168.           Intra module refs:   SIG_UART1_RECV()
                                                   SIG_UART1_TXC()
           LOCAL                   ADDRESS         
           =====                   =======         
           ?Subroutine10           00003386 
    -------------------------------------------------------------------------
CODE
  Relative segment, address: CODE 0000338C - 00003395 (0xa bytes), align: 1
  Segment part 169.           Intra module refs:   ?Subroutine10
                                                   SIG_UART1_DATA()
           LOCAL                   ADDRESS         
           =====                   =======         
           ?Subroutine24           0000338C 
    -------------------------------------------------------------------------
CODE
  Relative segment, address: CODE 00003396 - 0000339D (0x8 bytes), align: 1
  Segment part 170.           Intra module refs:   ?Subroutine10
                                                   ?Subroutine11
           LOCAL                   ADDRESS         
           =====                   =======         
           ?Subroutine21           00003396 
    -------------------------------------------------------------------------
CODE
  Relative segment, address: CODE 0000339E - 000033A5 (0x8 bytes), align: 1
  Segment part 171.           Intra module refs:   ?Subroutine21
                                                   SystemTickInterrupt()
    -------------------------------------------------------------------------
NEAR_Z
  Relative segment, address: DATA 00000863 - 0000086B (0x9 bytes), align: 0
  Segment part 111. ROOT      Intra module refs:   CEeprom::ReadyInterruptHandler()
                                                   CEeprom::WriteInterrupt(uint16_t, uint8_t *, uint16_t)
           ENTRY                   ADDRESS         REF BY
           =====                   =======         ======
           CEeprom::m_bBufferIsWrited
                                   0000086B        CDataStore::Fsm() (DataStore)
                                                   CEeprom::StartWrite() (DataStore)
           CEeprom::m_nuiBufferByteCounter
                                   00000867 
           CEeprom::m_puiBuffer    00000863 
           CEeprom::m_uiAddress    00000865 
           CEeprom::m_uiLength     00000869 
    -------------------------------------------------------------------------
CODE
  Relative segment, address: CODE 000033A6 - 000033A7 (0x2 bytes), align: 1
  Segment part 175.           Intra module refs:   CEeprom::__vtbl
           ENTRY                   ADDRESS         REF BY
           =====                   =======         ======
           CEeprom::~CEeprom()     000033A6 
               calls direct
    -------------------------------------------------------------------------
CODE
  Relative segment, address: CODE 000033A8 - 000033BB (0x14 bytes), align: 1
  Segment part 176.           Intra module refs:   CEeprom::Read(uint8_t *, uint16_t, uint16_t)
           ENTRY                   ADDRESS         REF BY
           =====                   =======         ======
           CEeprom::ReadByte(uint16_t)
                                   000033A8 
    -------------------------------------------------------------------------
CODE
  Relative segment, address: CODE 000033BC - 000033D3 (0x18 bytes), align: 1
  Segment part 177.
           ENTRY                   ADDRESS         REF BY
           =====                   =======         ======
           CEeprom::Read(uint8_t *, uint16_t, uint16_t)
                                   000033BC        CDataStore::ReadBlock(uint8_t *, uint8_t) (DataStore)
               calls direct
    -------------------------------------------------------------------------
CODE
  Relative segment, address: CODE 000033D4 - 000033D7 (0x4 bytes), align: 1
  Segment part 178.           Intra module refs:   CEeprom::Read(uint8_t *, uint16_t, uint16_t)
           LOCAL                   ADDRESS         
           =====                   =======         
           ?Subroutine34           000033D4 
    -------------------------------------------------------------------------
CODE
  Relative segment, address: CODE 000033D8 - 000033EF (0x18 bytes), align: 1
  Segment part 181.
           ENTRY                   ADDRESS         REF BY
           =====                   =======         ======
           CEeprom::WriteInterrupt(uint16_t, uint8_t *, uint16_t)
                                   000033D8        CDataStore::Write(uint8_t *, uint16_t, uint8_t) (DataStore)
    -------------------------------------------------------------------------
CODE
  Relative segment, address: CODE 000033F0 - 0000344B (0x5c bytes), align: 1
  Segment part 182.           Intra module refs:   EEPROM_EE_READY()
           ENTRY                   ADDRESS         REF BY
           =====                   =======         ======
           CEeprom::ReadyInterruptHandler()
                                   000033F0 
    -------------------------------------------------------------------------
CODE
  Relative segment, address: CODE 0000344C - 00003451 (0x6 bytes), align: 1
  Segment part 183.           Intra module refs:   EEPROM_EE_READY()::??INTVEC 88
           ENTRY                   ADDRESS         REF BY
           =====                   =======         ======
           EEPROM_EE_READY()       0000344C 
               interrupt function
               calls direct
    -------------------------------------------------------------------------
CODE
  Relative segment, address: CODE 00003452 - 00003459 (0x8 bytes), align: 1
  Segment part 184.           Intra module refs:   ?Subroutine39
           LOCAL                   ADDRESS         
           =====                   =======         
           ?Subroutine18           00003452 
    -------------------------------------------------------------------------
CODE
  Relative segment, address: CODE 0000345A - 0000345F (0x6 bytes), align: 1
  Segment part 185.           Intra module refs:   ?Subroutine18
                                                   ?Subroutine40
           LOCAL                   ADDRESS         
           =====                   =======         
           ?Subroutine26           0000345A 
    -------------------------------------------------------------------------
CODE
  Relative segment, address: CODE 00003460 - 0000346B (0xc bytes), align: 1
  Segment part 186.           Intra module refs:   EEPROM_EE_READY()
                                                   SIG_UART1_DATA()
           LOCAL                   ADDRESS         
           =====                   =======         
           ?Subroutine11           00003460 
    -------------------------------------------------------------------------
CODE
  Relative segment, address: CODE 0000346C - 00003471 (0x6 bytes), align: 1
  Segment part 187.           Intra module refs:   ?Subroutine11
                                                   SIG_UART1_RECV()
                                                   SIG_UART1_TXC()
                                                   SystemTickInterrupt()
           LOCAL                   ADDRESS         
           =====                   =======         
           ?Subroutine25           0000346C 
    -------------------------------------------------------------------------
NEAR_F
  Relative segment, address: CODE 00000555 - 00000556 (0x2 bytes), align: 0
  Segment part 104. ROOT      Intra module refs:   CUart::CUart(uint8_t volatile *, uint8_t volatile *, uint8_t volatile *, uint8_t volatile *, uint8_t volatile *, uint8_t volatile *, uint8_t volatile *, uint8_t, uint8_t volatile *, uint8_t)
           ENTRY                   ADDRESS         REF BY
           =====                   =======         ======
           CUart::__vtbl           00000555 
    -------------------------------------------------------------------------
NEAR_F
  Relative segment, address: CODE 00000557 - 00000558 (0x2 bytes), align: 0
  Segment part 105. ROOT 
           ENTRY                   ADDRESS         REF BY
           =====                   =======         ======
           CEeprom::__vtbl         00000557 
    -------------------------------------------------------------------------
NEAR_F
  Relative segment, address: CODE 00000559 - 0000055A (0x2 bytes), align: 0
  Segment part 106. ROOT 
           ENTRY                   ADDRESS         REF BY
           =====                   =======         ======
           CPlatform::__vtbl       00000559 
    -------------------------------------------------------------------------
NEAR_F
  Relative segment, address: CODE 0000055B - 0000055E (0x4 bytes), align: 0
  Segment part 107. ROOT 
           LOCAL                   ADDRESS         
           =====                   =======         
           CDriver::__vtbl         0000055B 
    -------------------------------------------------------------------------
NEAR_F
  Relative segment, address: CODE 0000055F - 00000566 (0x8 bytes), align: 0
  Segment part 108. ROOT 
           LOCAL                   ADDRESS         
           =====                   =======         
           CTaskInterface::__vtbl
                                   0000055F 
    -------------------------------------------------------------------------
NEAR_F
  Relative segment, address: CODE 00000567 - 00000570 (0xa bytes), align: 0
  Segment part 109. ROOT 
           LOCAL                   ADDRESS         
           =====                   =======         
           CIsRegularButtonPressedInterface::__vtbl
                                   00000567 
    -------------------------------------------------------------------------
NEAR_F
  Relative segment, address: CODE 00000571 - 00000572 (0x2 bytes), align: 0
  Segment part 110. ROOT 
           ENTRY                   ADDRESS         REF BY
           =====                   =======         ======
           CSpi::__vtbl            00000571 
    -------------------------------------------------------------------------
NEAR_F
  Relative segment, address: CODE 00000573 - 00000832 (0x2c0 bytes), align: 0
  Segment part 113. ROOT      Intra module refs:   CFlash::ReadBlock(uint8_t *, uint8_t)
           ENTRY                   ADDRESS         REF BY
           =====                   =======         ======
           CFlash::axDataBaseBlocksPositionData
                                   00000573 
           CFlash::xMainDataBase   0000059F 
    -------------------------------------------------------------------------
CODE
  Relative segment, address: CODE 00003472 - 00003497 (0x26 bytes), align: 1
  Segment part 188.           Intra module refs:   CFlash::ReadBlock(uint8_t *, uint8_t)
           ENTRY                   ADDRESS         REF BY
           =====                   =======         ======
           CFlash::Read(uint8_t *, uint8_t __farflash *, uint16_t)
                                   00003472 
    -------------------------------------------------------------------------
CODE
  Relative segment, address: CODE 00003498 - 0000349B (0x4 bytes), align: 1
  Segment part 189.           Intra module refs:   CFlash::Read(uint8_t *, uint8_t __farflash *, uint16_t)
                                                   CSpi::Exchange(uint8_t *, uint8_t *, uint16_t)
           LOCAL                   ADDRESS         
           =====                   =======         
           ?Subroutine35           00003498 
    -------------------------------------------------------------------------
CODE
  Relative segment, address: CODE 0000349C - 000034F9 (0x5e bytes), align: 1
  Segment part 190.
           ENTRY                   ADDRESS         REF BY
           =====                   =======         ======
           CFlash::ReadBlock(uint8_t *, uint8_t)
                                   0000349C        CDataStore::ReadBlockFlash(uint8_t *, uint8_t) (DataStore)
               calls direct
    -------------------------------------------------------------------------
CODE
  Relative segment, address: CODE 000034FA - 00003503 (0xa bytes), align: 1
  Segment part 191.           Intra module refs:   CFlash::ReadBlock(uint8_t *, uint8_t)
           LOCAL                   ADDRESS         
           =====                   =======         
           ?Subroutine15           000034FA 
    -------------------------------------------------------------------------
CODE
  Relative segment, address: CODE 00003504, align: 1
  Segment part 194.           Intra module refs:   CSpi::__vtbl
           ENTRY                   ADDRESS         REF BY
           =====                   =======         ======
           CSpi::~CSpi()           00003504 
               calls direct
    -------------------------------------------------------------------------
CODE
  Relative segment, address: CODE 00003504 - 00003513 (0x10 bytes), align: 1
  Segment part 195.           Intra module refs:   CEeprom::~CEeprom()
                                                   CPlatform::~CPlatform()
                                                   CSpi::~CSpi()
                                                   CUart::~CUart()
           LOCAL                   ADDRESS         
           =====                   =======         
           ?Subroutine8            00003504 
    -------------------------------------------------------------------------
CODE
  Relative segment, address: CODE 00003514 - 00003525 (0x12 bytes), align: 1
  Segment part 196.
           ENTRY                   ADDRESS         REF BY
           =====                   =======         ======
           CSpi::Init()            00003514        CPss21::MainFsm() (Pss21)
    -------------------------------------------------------------------------
CODE
  Relative segment, address: CODE 00003526 - 00003529 (0x4 bytes), align: 1
  Segment part 197.
           ENTRY                   ADDRESS         REF BY
           =====                   =======         ======
           CSpi::Enable()          00003526        CPss21::ConnectDevice(uint8_t) (Pss21)
    -------------------------------------------------------------------------
CODE
  Relative segment, address: CODE 0000352A - 0000352D (0x4 bytes), align: 1
  Segment part 198.
           ENTRY                   ADDRESS         REF BY
           =====                   =======         ======
           CSpi::Disable()         0000352A        CPss21::DisconnectDevice() (Pss21)
    -------------------------------------------------------------------------
CODE
  Relative segment, address: CODE 0000352E - 0000354D (0x20 bytes), align: 1
  Segment part 199.           Intra module refs:   CSpi::Exchange(uint8_t *, uint8_t *, uint16_t)
           ENTRY                   ADDRESS         REF BY
           =====                   =======         ======
           CSpi::Exchange(uint8_t)
                                   0000352E 
    -------------------------------------------------------------------------
CODE
  Relative segment, address: CODE 0000354E - 0000357F (0x32 bytes), align: 1
  Segment part 200.
           ENTRY                   ADDRESS         REF BY
           =====                   =======         ======
           CSpi::Exchange(uint8_t *, uint8_t *, uint16_t)
                                   0000354E        ?Subroutine2 (ModuleMrXX)
                                                   ?Subroutine20 (Pss21)
                                                   CMvsn21Driver::DataExchange() (Mvsn21)
               calls direct
    -------------------------------------------------------------------------
CODE
  Relative segment, address: CODE 00003580 - 00003585 (0x6 bytes), align: 1
  Segment part 201.           Intra module refs:   CFlash::Read(uint8_t *, uint8_t __farflash *, uint16_t)
                                                   CSpi::Exchange(uint8_t *, uint8_t *, uint16_t)
           LOCAL                   ADDRESS         
           =====                   =======         
           ?Subroutine20           00003580 
    -------------------------------------------------------------------------
CODE
  Relative segment, address: CODE 00003586 - 0000359B (0x16 bytes), align: 1
  Segment part 203.
           ENTRY                   ADDRESS         REF BY
           =====                   =======         ======
           delay_ms(uint16_t)      00003586        CDataBase::RestoreDefault() (DataBase)
                                                   CDataStore::Check() (DataStore)
                                                   CPss21::SearchModules() (Pss21)
    -------------------------------------------------------------------------
CODE
  Relative segment, address: CODE 0000359C - 000035A5 (0xa bytes), align: 1
  Segment part 205.           Intra module refs:   delay_ms(uint16_t)
           LOCAL                   ADDRESS         
           =====                   =======         
           ?Subroutine13           0000359C 
    -------------------------------------------------------------------------
NEAR_Z
  Relative segment, address: DATA 0000086C - 0000086D (0x2 bytes), align: 0
  Segment part 114. ROOT      Intra module refs:   SystemTickInterrupt()
           ENTRY                   ADDRESS         REF BY
           =====                   =======         ======
           CPlatform::m_uiSystemTick
                                   0000086C        ?Subroutine0 (Timer)
                                                   ?Subroutine2 (Timer)
                                                   ?Subroutine33 (ModbusRTU)
                                                   CModbusRTU::TimeIsOver(uint16_t) (ModbusRTU)
    -------------------------------------------------------------------------
NEAR_Z
  Relative segment, address: DATA 0000086E - 0000086E (0x1 bytes), align: 0
  Segment part 115. ROOT 
           ENTRY                   ADDRESS         REF BY
           =====                   =======         ======
           CPlatform::m_uiWatchDogStepID
                                   0000086E 
    -------------------------------------------------------------------------
NEAR_Z
  Relative segment, address: DATA 0000086F - 00000870 (0x2 bytes), align: 0
  Segment part 116. ROOT      Intra module refs:   ?Subroutine24
           ENTRY                   ADDRESS         REF BY
           =====                   =======         ======
           CPlatform::m_pxUart1    0000086F        CPss21::ModbusInit() (Pss21)
    -------------------------------------------------------------------------
CODE
  Relative segment, address: CODE 000035A6 - 000035A7 (0x2 bytes), align: 1
  Segment part 209.           Intra module refs:   CPlatform::__vtbl
           ENTRY                   ADDRESS         REF BY
           =====                   =======         ======
           CPlatform::~CPlatform()
                                   000035A6 
               calls direct
    -------------------------------------------------------------------------
CODE
  Relative segment, address: CODE 000035A8 - 000035B7 (0x10 bytes), align: 1
  Segment part 210.           Intra module refs:   CPlatform::Init()
           ENTRY                   ADDRESS         REF BY
           =====                   =======         ======
           CPlatform::SystemTickInit()
                                   000035A8 
    -------------------------------------------------------------------------
CODE
  Relative segment, address: CODE 000035B8 - 000035D3 (0x1c bytes), align: 1
  Segment part 211.
           ENTRY                   ADDRESS         REF BY
           =====                   =======         ======
           CPlatform::Init()       000035B8        CPss21::MainFsm() (Pss21)
               calls direct
    -------------------------------------------------------------------------
CODE
  Relative segment, address: CODE 000035D4 - 00003607 (0x34 bytes), align: 1
  Segment part 212.
           ENTRY                   ADDRESS         REF BY
           =====                   =======         ======
           CPlatform::BuzzerTimerFrequencySet(uint16_t)
                                   000035D4        ?Subroutine1 (Buzzer)
               calls direct
    -------------------------------------------------------------------------
CODE
  Relative segment, address: CODE 00003608 - 0000360D (0x6 bytes), align: 1
  Segment part 213.           Intra module refs:   CPlatform::BuzzerTimerFrequencySet(uint16_t)
                                                   CPlatform::BuzzerTimerStop()
           LOCAL                   ADDRESS         
           =====                   =======         
           ?Subroutine29           00003608 
    -------------------------------------------------------------------------
CODE
  Relative segment, address: CODE 0000360E - 0000361F (0x12 bytes), align: 1
  Segment part 214.           Intra module refs:   CPlatform::BuzzerTimerFrequencySet(uint16_t)
                                                   CUart::Init(uint32_t, uint8_t, uint8_t, uint8_t, uint8_t *, uint8_t *)
           LOCAL                   ADDRESS         
           =====                   =======         
           ?Subroutine3            0000360E 
    -------------------------------------------------------------------------
CODE
  Relative segment, address: CODE 00003620 - 00003631 (0x12 bytes), align: 1
  Segment part 215.
           ENTRY                   ADDRESS         REF BY
           =====                   =======         ======
           CPlatform::BuzzerTimerStop()
                                   00003620        CBuzzer::Off() (Buzzer)
    -------------------------------------------------------------------------
CODE
  Relative segment, address: CODE 00003632 - 00003651 (0x20 bytes), align: 1
  Segment part 216.           Intra module refs:   SystemTickInterrupt()::??INTVEC 36
           ENTRY                   ADDRESS         REF BY
           =====                   =======         ======
           SystemTickInterrupt()   00003632 
               interrupt function
    -------------------------------------------------------------------------
INTVEC
  Common segment, address: CODE 00000000 - 00000027 (0x28 bytes), align: 1
  Segment part 97. ROOT 
           ENTRY                   ADDRESS         REF BY
           =====                   =======         ======
           SystemTickInterrupt()::??INTVEC 36
                                   00000024 
    -------------------------------------------------------------------------
INTVEC
  Common segment, address: CODE 00000000 - 0000005B (0x5c bytes), align: 1
  Segment part 98. ROOT 
           ENTRY                   ADDRESS         REF BY
           =====                   =======         ======
           EEPROM_EE_READY()::??INTVEC 88
                                   00000058 
    -------------------------------------------------------------------------
INTVEC
  Common segment, address: CODE 00000000 - 0000007B (0x7c bytes), align: 1
  Segment part 99. ROOT 
           ENTRY                   ADDRESS         REF BY
           =====                   =======         ======
           SIG_UART1_RECV()::??INTVEC 120
                                   00000078 
    -------------------------------------------------------------------------
INTVEC
  Common segment, address: CODE 00000000 - 0000007F (0x80 bytes), align: 1
  Segment part 100. ROOT 
           ENTRY                   ADDRESS         REF BY
           =====                   =======         ======
           SIG_UART1_DATA()::??INTVEC 124
                                   0000007C 
    -------------------------------------------------------------------------
INTVEC
  Common segment, address: CODE 00000000 - 00000083 (0x84 bytes), align: 1
  Segment part 101. ROOT 
           ENTRY                   ADDRESS         REF BY
           =====                   =======         ======
           SIG_UART1_TXC()::??INTVEC 128
                                   00000080 

    *************************************************************************

  FILE NAME : D:\Projects\CurrentProjects\CautoProjects\PSS48Color\Debug\Obj\Pss21.r90
  PROGRAM MODULE, NAME : Pss21

  SEGMENTS IN THE MODULE
  ======================
NEAR_Z
  Relative segment, address: DATA 00000871 - 00000970 (0x100 bytes), align: 0
  Segment part 102. ROOT      Intra module refs:   CPss21::AllAlarmWindowOff()
                                                   CPss21::MainFsm()
                                                   CPss21::ModbusInit()
           ENTRY                   ADDRESS         REF BY
           =====                   =======         ======
           CPss21::m_aucRtuHoldingRegistersArray
                                   00000871        CLightBoard::Set(CAlarmWindow *) (LightBoard)
    -------------------------------------------------------------------------
CODE
  Relative segment, address: CODE 00003652 - 00003751 (0x100 bytes), align: 1
  Segment part 136.           Intra module refs:   Segment part 135
           LOCAL                   ADDRESS         
           =====                   =======         
           __sti__routine()        00003652 
               calls direct
    -------------------------------------------------------------------------
CODE
  Relative segment, address: CODE 00003752 - 00003755 (0x4 bytes), align: 1
  Segment part 137.           Intra module refs:   __sti__routine()
           LOCAL                   ADDRESS         
           =====                   =======         
           ?Subroutine77           00003752 
    -------------------------------------------------------------------------
CODE
  Relative segment, address: CODE 00003756 - 00003759 (0x4 bytes), align: 1
  Segment part 138.           Intra module refs:   __sti__routine()
           LOCAL                   ADDRESS         
           =====                   =======         
           ?Subroutine12           00003756 
    -------------------------------------------------------------------------
CODE
  Relative segment, address: CODE 0000375A - 0000375F (0x6 bytes), align: 1
  Segment part 139.           Intra module refs:   Segment part 114
           LOCAL                   ADDRESS         
           =====                   =======         
           <Unnamed 0>             0000375A 
               calls direct
    -------------------------------------------------------------------------
CODE
  Relative segment, address: CODE 00003760 - 00003765 (0x6 bytes), align: 1
  Segment part 140.           Intra module refs:   Segment part 114
           LOCAL                   ADDRESS         
           =====                   =======         
           <Unnamed 1>             00003760 
               calls direct
    -------------------------------------------------------------------------
CODE
  Relative segment, address: CODE 00003766 - 0000376B (0x6 bytes), align: 1
  Segment part 141.           Intra module refs:   Segment part 114
           LOCAL                   ADDRESS         
           =====                   =======         
           <Unnamed 2>             00003766 
               calls direct
    -------------------------------------------------------------------------
CODE
  Relative segment, address: CODE 0000376C - 00003771 (0x6 bytes), align: 1
  Segment part 142.           Intra module refs:   Segment part 114
           LOCAL                   ADDRESS         
           =====                   =======         
           <Unnamed 3>             0000376C 
               calls direct
    -------------------------------------------------------------------------
CODE
  Relative segment, address: CODE 00003772 - 00003777 (0x6 bytes), align: 1
  Segment part 143.           Intra module refs:   Segment part 114
           LOCAL                   ADDRESS         
           =====                   =======         
           <Unnamed 4>             00003772 
               calls direct
    -------------------------------------------------------------------------
CODE
  Relative segment, address: CODE 00003778 - 0000377D (0x6 bytes), align: 1
  Segment part 144.           Intra module refs:   Segment part 114
           LOCAL                   ADDRESS         
           =====                   =======         
           <Unnamed 5>             00003778 
               calls direct
    -------------------------------------------------------------------------
CODE
  Relative segment, address: CODE 0000377E - 00003783 (0x6 bytes), align: 1
  Segment part 145.           Intra module refs:   Segment part 114
           LOCAL                   ADDRESS         
           =====                   =======         
           <Unnamed 6>             0000377E 
               calls direct
    -------------------------------------------------------------------------
NEAR_Z
  Relative segment, address: DATA 00000971 - 00000993 (0x23 bytes), align: 0
  Segment part 104. ROOT      Intra module refs:   ?Subroutine31
                                                   CPss21::ConfigurationInit()
                                                   CPss21::ModbusDefaultInit()
                                                   CPss21::ModbusInit()
                                                   CPss21::ModbusRtuLinkControlInProgress()
                                                   CPss21::SetModeModbusRtuLinkControlInProgress(bool)
           ENTRY                   ADDRESS         REF BY
           =====                   =======         ======
           CPss21::m_apxErrorAlarmDfa
                                   00000978 
           CPss21::m_aucRtuInputRegistersArray
                                   00000984 
           CPss21::m_xDeviceState
                                   0000097C 
           CPss21::m_xModbusSettings
                                   00000971        CUart::Init(uint32_t, uint8_t, uint8_t, uint8_t, uint8_t *, uint8_t *) (Platform)
    -------------------------------------------------------------------------
NEAR_Z
  Relative segment, address: DATA 00000994 - 00000A0B (0x78 bytes), align: 0
  Segment part 105. ROOT      Intra module refs:   CPss21::GetDiscreteInputState(uint8_t)
                                                   CPss21::InitAllocationContext(TMemoryAllocationConext &)
                                                   CPss21::ModbusDeviceControl(uint8_t *, uint16_t, uint16_t)
                                                   CPss21::ModbusInit()
           ENTRY                   ADDRESS         REF BY
           =====                   =======         ======
           CPss21::m_aucRtuDiscreteDataArray
                                   00000994 
    -------------------------------------------------------------------------
NEAR_Z
  Relative segment, address: DATA 00000A0C - 00000B0B (0x100 bytes), align: 0
  Segment part 106. ROOT      Intra module refs:   CPss21::ConfigurationInit()
                                                   CPss21::ModbusInit()
           ENTRY                   ADDRESS         REF BY
           =====                   =======         ======
           CPss21::m_auiReceiveMessageBuff
                                   00000A0C 
    -------------------------------------------------------------------------
NEAR_Z
  Relative segment, address: DATA 00000B0C - 00000C0B (0x100 bytes), align: 0
  Segment part 107. ROOT      Intra module refs:   ?Subroutine40
                                                   ?Subroutine72
                                                   CPss21::ConfigurationInit()
           ENTRY                   ADDRESS         REF BY
           =====                   =======         ======
           CPss21::m_auiIntermediateBuff
                                   00000B0C        CDataBase::RestoreDefault() (DataBase)
                                                   CDataStore::Init() (DataStore)
    -------------------------------------------------------------------------
NEAR_Z
  Relative segment, address: DATA 00000C0C - 00000C4B (0x40 bytes), align: 0
  Segment part 108. ROOT      Intra module refs:   ?Subroutine20
                                                   CPss21::InitAllocationContext(TMemoryAllocationConext &)
                                                   CPss21::SearchModules()
           ENTRY                   ADDRESS         REF BY
           =====                   =======         ======
           CPss21::m_auiSpiRxBuffer
                                   00000C0C 
    -------------------------------------------------------------------------
NEAR_Z
  Relative segment, address: DATA 00000C4C - 00000C8B (0x40 bytes), align: 0
  Segment part 109. ROOT      Intra module refs:   ?Subroutine20
                                                   CPss21::InitAllocationContext(TMemoryAllocationConext &)
                                                   CPss21::SearchModules()
           ENTRY                   ADDRESS         REF BY
           =====                   =======         ======
           CPss21::m_auiSpiTxBuffer
                                   00000C4C 
    -------------------------------------------------------------------------
NEAR_I
  Relative segment, address: DATA 00000746 - 00000799 (0x54 bytes), align: 0
  Segment part 113. ROOT      Intra module refs:   __sti__routine()
    -------------------------------------------------------------------------
NEAR_F
  Relative segment, address: CODE 00000833 - 00000836 (0x4 bytes), align: 0
  Segment part 99. ROOT 
           LOCAL                   ADDRESS         
           =====                   =======         
           CDriver::__vtbl         00000833 
    -------------------------------------------------------------------------
NEAR_F
  Relative segment, address: CODE 00000837 - 0000083E (0x8 bytes), align: 0
  Segment part 100. ROOT 
           LOCAL                   ADDRESS         
           =====                   =======         
           CTaskInterface::__vtbl
                                   00000837 
    -------------------------------------------------------------------------
NEAR_F
  Relative segment, address: CODE 0000083F - 00000848 (0xa bytes), align: 0
  Segment part 101. ROOT 
           LOCAL                   ADDRESS         
           =====                   =======         
           CIsRegularButtonPressedInterface::__vtbl
                                   0000083F 
    -------------------------------------------------------------------------
NEAR_F
  Relative segment, address: CODE 00000849 - 00000878 (0x30 bytes), align: 0
  Segment part 134. ROOT      Intra module refs:   CPss21::ErrorWindowOn(uint8_t)
           ENTRY                   ADDRESS         REF BY
           =====                   =======         ======
           CPss21::m_auiErrorLedOn
                                   00000849 
    -------------------------------------------------------------------------
CODE
  Relative segment, address: CODE 00003784 - 00003785 (0x2 bytes), align: 1
  Segment part 146.           Intra module refs:   <Unnamed 0>
                                                   <Unnamed 11>
                                                   <Unnamed 1>
                                                   <Unnamed 2>
                                                   <Unnamed 3>
                                                   <Unnamed 4>
                                                   <Unnamed 5>
                                                   <Unnamed 6>
                                                   <Unnamed 7>
                                                   <Unnamed 8>
                                                   <Unnamed 9>
                                                   CPss21::SearchModules()
           LOCAL                   ADDRESS         
           =====                   =======         
           ?Subroutine19           00003784 
    -------------------------------------------------------------------------
CODE
  Relative segment, address: CODE 00003786 - 00003789 (0x4 bytes), align: 1
  Segment part 147.           Intra module refs:   ?Subroutine19
                                                   Segment part 168
           LOCAL                   ADDRESS         
           =====                   =======         
           ?Subroutine83           00003786 
    -------------------------------------------------------------------------
CODE
  Relative segment, address: CODE 0000378A - 0000378F (0x6 bytes), align: 1
  Segment part 148.           Intra module refs:   Segment part 114
           LOCAL                   ADDRESS         
           =====                   =======         
           <Unnamed 7>             0000378A 
               calls direct
    -------------------------------------------------------------------------
CODE
  Relative segment, address: CODE 00003790 - 00003795 (0x6 bytes), align: 1
  Segment part 149.           Intra module refs:   Segment part 114
           LOCAL                   ADDRESS         
           =====                   =======         
           <Unnamed 8>             00003790 
               calls direct
    -------------------------------------------------------------------------
CODE
  Relative segment, address: CODE 00003796 - 0000379B (0x6 bytes), align: 1
  Segment part 150.           Intra module refs:   Segment part 114
           LOCAL                   ADDRESS         
           =====                   =======         
           <Unnamed 9>             00003796 
               calls direct
    -------------------------------------------------------------------------
CODE
  Relative segment, address: CODE 0000379C - 000037A5 (0xa bytes), align: 1
  Segment part 151.           Intra module refs:   Segment part 114
           LOCAL                   ADDRESS         
           =====                   =======         
           <Unnamed 10>            0000379C 
               calls direct
    -------------------------------------------------------------------------
CODE
  Relative segment, address: CODE 000037A6 - 000037AD (0x8 bytes), align: 1
  Segment part 152.           Intra module refs:   <Unnamed 10>
                                                   __sti__routine()
           LOCAL                   ADDRESS         
           =====                   =======         
           ?Subroutine16           000037A6 
    -------------------------------------------------------------------------
CODE
  Relative segment, address: CODE 000037AE - 000037B3 (0x6 bytes), align: 1
  Segment part 153.           Intra module refs:   ?Subroutine16
                                                   ?Subroutine91
                                                   CPss21::Init()
                                                   CPss21::MainFsm()
           LOCAL                   ADDRESS         
           =====                   =======         
           ?Subroutine78           000037AE 
    -------------------------------------------------------------------------
CODE
  Relative segment, address: CODE 000037B4 - 000037B9 (0x6 bytes), align: 1
  Segment part 154.           Intra module refs:   <Unnamed 10>
           LOCAL                   ADDRESS         
           =====                   =======         
           <Unnamed 11>            000037B4 
               calls direct
    -------------------------------------------------------------------------
CODE
  Relative segment, address: CODE 000037BA - 00003849 (0x90 bytes), align: 1
  Segment part 155.           Intra module refs:   CPss21::MainFsm()
                                                   CPss21::ModbusDefaultInit()
           ENTRY                   ADDRESS         REF BY
           =====                   =======         ======
           CPss21::ModbusInit()    000037BA 
               calls direct
    -------------------------------------------------------------------------
CODE
  Relative segment, address: CODE 0000384A - 0000384F (0x6 bytes), align: 1
  Segment part 156.           Intra module refs:   CPss21::ModbusInit()
                                                   CPss21::ModulesInteraction(uint8_t)
           LOCAL                   ADDRESS         
           =====                   =======         
           ?Subroutine79           0000384A 
    -------------------------------------------------------------------------
CODE
  Relative segment, address: CODE 00003850 - 00003855 (0x6 bytes), align: 1
  Segment part 157.           Intra module refs:   ?Subroutine2
                                                   CPss21::ModbusInit()
                                                   __sti__routine()
           LOCAL                   ADDRESS         
           =====                   =======         
           ?Subroutine80           00003850 
    -------------------------------------------------------------------------
CODE
  Relative segment, address: CODE 00003856 - 0000385B (0x6 bytes), align: 1
  Segment part 158.           Intra module refs:   CPss21::ModbusInit()
           LOCAL                   ADDRESS         
           =====                   =======         
           ?Subroutine2            00003856 
    -------------------------------------------------------------------------
CODE
  Relative segment, address: CODE 0000385C - 0000386B (0x10 bytes), align: 1
  Segment part 159.           Intra module refs:   CPss21::KeyStateProcessing()
                                                   CPss21::MainFsm()
           ENTRY                   ADDRESS         REF BY
           =====                   =======         ======
           CPss21::ModbusDefaultInit()
                                   0000385C 
               calls direct
    -------------------------------------------------------------------------
CODE
  Relative segment, address: CODE 0000386C - 00003887 (0x1c bytes), align: 1
  Segment part 160.           Intra module refs:   ?Subroutine5
                                                   CPss21::Init()
                                                   CPss21::MainFsm()
           ENTRY                   ADDRESS         REF BY
           =====                   =======         ======
           CPss21::AllAlarmWindowOff()
                                   0000386C        CErrorAlarmDfa::Fsm() (Alarm)
               calls direct
    -------------------------------------------------------------------------
CODE
  Relative segment, address: CODE 00003888 - 000038A3 (0x1c bytes), align: 1
  Segment part 161.           Intra module refs:   CPss21::MainFsm()
           ENTRY                   ADDRESS         REF BY
           =====                   =======         ======
           CPss21::Init()          00003888 
               calls direct
    -------------------------------------------------------------------------
CODE
  Relative segment, address: CODE 000038A4 - 000038B9 (0x16 bytes), align: 1
  Segment part 162.           Intra module refs:   CPss21::MainFsm()
           ENTRY                   ADDRESS         REF BY
           =====                   =======         ======
           CPss21::AddressBusInit()
                                   000038A4 
    -------------------------------------------------------------------------
CODE
  Relative segment, address: CODE 000038BA - 000038E7 (0x2e bytes), align: 1
  Segment part 163.           Intra module refs:   ?Subroutine36
           ENTRY                   ADDRESS         REF BY
           =====                   =======         ======
           CPss21::ConnectDevice(uint8_t)
                                   000038BA        ?Subroutine1 (ModuleMrXX)
                                                   CMvsn21Driver::DataExchange() (Mvsn21)
               calls direct
    -------------------------------------------------------------------------
CODE
  Relative segment, address: CODE 000038E8 - 000038F7 (0x10 bytes), align: 1
  Segment part 164.           Intra module refs:   ?Subroutine20
           ENTRY                   ADDRESS         REF BY
           =====                   =======         ======
           CPss21::DisconnectDevice()
                                   000038E8        ?Subroutine2 (ModuleMrXX)
                                                   CMvsn21Driver::DataExchange() (Mvsn21)
               calls direct
    -------------------------------------------------------------------------
CODE
  Relative segment, address: CODE 000038F8 - 00003995 (0x9e bytes), align: 1
  Segment part 165.           Intra module refs:   CPss21::MainFsm()
           ENTRY                   ADDRESS         REF BY
           =====                   =======         ======
           CPss21::SearchModules()
                                   000038F8 
               calls direct
    -------------------------------------------------------------------------
CODE
  Relative segment, address: CODE 00003996 - 0000399B (0x6 bytes), align: 1
  Segment part 166.           Intra module refs:   CPss21::CreateDevices()
                                                   CPss21::SearchModules()
           LOCAL                   ADDRESS         
           =====                   =======         
           ?Subroutine92           00003996 
    -------------------------------------------------------------------------
CODE
  Relative segment, address: CODE 0000399C - 0000399D (0x2 bytes), align: 1
  Segment part 167.           Intra module refs:   CPss21::ConfigurationInit()
                                                   CPss21::Init()
                                                   CPss21::SearchModules()
           LOCAL                   ADDRESS         
           =====                   =======         
           ?Subroutine4            0000399C 
    -------------------------------------------------------------------------
CODE
  Relative segment, address: CODE 0000399E - 000039A1 (0x4 bytes), align: 1
  Segment part 168.           Intra module refs:   ?Subroutine4
                                                   __sti__routine()
    -------------------------------------------------------------------------
CODE
  Relative segment, address: CODE 000039A2 - 000039F9 (0x58 bytes), align: 1
  Segment part 169.           Intra module refs:   CPss21::CreateDevices()
           ENTRY                   ADDRESS         REF BY
           =====                   =======         ======
           CPss21::InitAllocationContext(TMemoryAllocationConext &)
                                   000039A2 
    -------------------------------------------------------------------------
CODE
  Relative segment, address: CODE 000039FA - 00003A5D (0x64 bytes), align: 1
  Segment part 170.           Intra module refs:   CPss21::MainFsm()
           ENTRY                   ADDRESS         REF BY
           =====                   =======         ======
           CPss21::CreateDevices()
                                   000039FA 
               calls direct and indirect
    -------------------------------------------------------------------------
CODE
  Relative segment, address: CODE 00003A5E - 00003A6F (0x12 bytes), align: 1
  Segment part 173.           Intra module refs:   CPss21::SearchModules()
           LOCAL                   ADDRESS         
           =====                   =======         
           ?Subroutine36           00003A5E 
    -------------------------------------------------------------------------
CODE
  Relative segment, address: CODE 00003A70 - 00003A73 (0x4 bytes), align: 1
  Segment part 174.           Intra module refs:   CPss21::ConfigurationInit()
                                                   CPss21::Init()
                                                   CPss21::SearchModules()
           LOCAL                   ADDRESS         
           =====                   =======         
           ?Subroutine35           00003A70 
    -------------------------------------------------------------------------
CODE
  Relative segment, address: CODE 00003A74 - 00003A83 (0x10 bytes), align: 1
  Segment part 175.           Intra module refs:   CPss21::SearchModules()
           LOCAL                   ADDRESS         
           =====                   =======         
           ?Subroutine20           00003A74 
    -------------------------------------------------------------------------
CODE
  Relative segment, address: CODE 00003A84 - 00003AD3 (0x50 bytes), align: 1
  Segment part 176.           Intra module refs:   CPss21::ModbusDeviceControl(uint8_t *, uint16_t, uint16_t)
           ENTRY                   ADDRESS         REF BY
           =====                   =======         ======
           CPss21::SetBytesFromBits(uint8_t *, uint8_t *, uint16_t)
                                   00003A84 
               calls direct
    -------------------------------------------------------------------------
CODE
  Relative segment, address: CODE 00003AD4 - 00003AE5 (0x12 bytes), align: 1
  Segment part 177.           Intra module refs:   CPss21::ModbusDeviceControl(uint8_t *, uint16_t, uint16_t)
           ENTRY                   ADDRESS         REF BY
           =====                   =======         ======
           CPss21::SendToDevicesModbusReset()
                                   00003AD4 
    -------------------------------------------------------------------------
CODE
  Relative segment, address: CODE 00003AE6 - 00003AE9 (0x4 bytes), align: 1
  Segment part 178.           Intra module refs:   ?Subroutine30
                                                   CPss21::SendToDevicesModbusReset()
                                                   CPss21::SendToDevicesReset()
           LOCAL                   ADDRESS         
           =====                   =======         
           ?Subroutine84           00003AE6 
    -------------------------------------------------------------------------
CODE
  Relative segment, address: CODE 00003AEA - 00003AFB (0x12 bytes), align: 1
  Segment part 179.           Intra module refs:   CPss21::ModbusDeviceControl(uint8_t *, uint16_t, uint16_t)
           ENTRY                   ADDRESS         REF BY
           =====                   =======         ======
           CPss21::SendToDevicesModbusReceipt()
                                   00003AEA 
    -------------------------------------------------------------------------
CODE
  Relative segment, address: CODE 00003AFC - 00003B03 (0x8 bytes), align: 1
  Segment part 180.           Intra module refs:   CPss21::SendToDevicesModbusReceipt()
                                                   CPss21::SendToDevicesReceipt()
           LOCAL                   ADDRESS         
           =====                   =======         
           ?Subroutine27           00003AFC 
    -------------------------------------------------------------------------
CODE
  Relative segment, address: CODE 00003B04 - 00003B09 (0x6 bytes), align: 1
  Segment part 181.           Intra module refs:   ?Subroutine27
                                                   CPss21::ModbusInit()
                                                   CPss21::ModulesInteraction(uint8_t)
    -------------------------------------------------------------------------
CODE
  Relative segment, address: CODE 00003B0A - 00003B13 (0xa bytes), align: 1
  Segment part 182.           Intra module refs:   ?Subroutine27
                                                   CPss21::CreateDevices()
           LOCAL                   ADDRESS         
           =====                   =======         
           ?Subroutine67           00003B0A 
    -------------------------------------------------------------------------
CODE
  Relative segment, address: CODE 00003B14 - 00003B67 (0x54 bytes), align: 1
  Segment part 183.           Intra module refs:   CPss21::ModbusDeviceControl(uint8_t, uint16_t)
           ENTRY                   ADDRESS         REF BY
           =====                   =======         ======
           CPss21::ModbusDeviceControl(uint8_t *, uint16_t, uint16_t)
                                   00003B14        CModbus::WriteMultipleCoils(uint8_t *, uint8_t *, uint16_t) (modbus)
               calls direct
    -------------------------------------------------------------------------
CODE
  Relative segment, address: CODE 00003B68 - 00003B79 (0x12 bytes), align: 1
  Segment part 184.
           ENTRY                   ADDRESS         REF BY
           =====                   =======         ======
           CPss21::ModbusDeviceControl(uint8_t, uint16_t)
                                   00003B68        CModbus::WriteSingleCoil(uint8_t *, uint8_t *, uint16_t) (modbus)
               calls direct
    -------------------------------------------------------------------------
CODE
  Relative segment, address: CODE 00003B7A - 00003B85 (0xc bytes), align: 1
  Segment part 185.
           ENTRY                   ADDRESS         REF BY
           =====                   =======         ======
           CPss21::ModbusRtuLinkControlIsOn()
                                   00003B7A        CModbusRtuLinkControl::Fsm() (LinkControl)
    -------------------------------------------------------------------------
CODE
  Relative segment, address: CODE 00003B86 - 00003B89 (0x4 bytes), align: 1
  Segment part 186.           Intra module refs:   CPss21::ModbusRtuLinkControlInProgress()
                                                   CPss21::ModbusRtuLinkControlIsOn()
           LOCAL                   ADDRESS         
           =====                   =======         
           ?Subroutine86           00003B86 
    -------------------------------------------------------------------------
CODE
  Relative segment, address: CODE 00003B8A - 00003B8D (0x4 bytes), align: 1
  Segment part 187.           Intra module refs:   ?Subroutine45
                                                   CPss21::ModbusRtuLinkControlInProgress()
                                                   CPss21::ModbusRtuLinkControlIsOn()
           LOCAL                   ADDRESS         
           =====                   =======         
           ?Subroutine85           00003B8A 
    -------------------------------------------------------------------------
CODE
  Relative segment, address: CODE 00003B8E - 00003B97 (0xa bytes), align: 1
  Segment part 188.
           ENTRY                   ADDRESS         REF BY
           =====                   =======         ======
           CPss21::GetTimeoutModbusRtuLinkControl()
                                   00003B8E        CModbusRtuLinkControl::Fsm() (LinkControl)
               calls direct
    -------------------------------------------------------------------------
CODE
  Relative segment, address: CODE 00003B98 - 00003B9B (0x4 bytes), align: 1
  Segment part 189.           Intra module refs:   ?Subroutine75
                                                   CPss21::GetTimeoutModbusRtuLinkControl()
           LOCAL                   ADDRESS         
           =====                   =======         
           ?Subroutine94           00003B98 
    -------------------------------------------------------------------------
CODE
  Relative segment, address: CODE 00003B9C - 00003BA5 (0xa bytes), align: 1
  Segment part 190.
           ENTRY                   ADDRESS         REF BY
           =====                   =======         ======
           CPss21::ModbusRtuLinkControlInProgress()
                                   00003B9C        CModbusRtuLinkControl::Fsm() (LinkControl)
    -------------------------------------------------------------------------
CODE
  Relative segment, address: CODE 00003BA6 - 00003BBF (0x1a bytes), align: 1
  Segment part 191.
           ENTRY                   ADDRESS         REF BY
           =====                   =======         ======
           CPss21::SetModeModbusRtuLinkControlInProgress(bool)
                                   00003BA6        CModbusRtuLinkControl::Fsm() (LinkControl)
               calls direct
    -------------------------------------------------------------------------
CODE
  Relative segment, address: CODE 00003BC0 - 00003BD1 (0x12 bytes), align: 1
  Segment part 192.           Intra module refs:   ?Subroutine46
           ENTRY                   ADDRESS         REF BY
           =====                   =======         ======
           CPss21::SendToDevicesReceipt()
                                   00003BC0 
    -------------------------------------------------------------------------
CODE
  Relative segment, address: CODE 00003BD2 - 00003BD5 (0x4 bytes), align: 1
  Segment part 193.           Intra module refs:   CPss21::SendToDevicesModbusReceipt()
                                                   CPss21::SendToDevicesModbusReset()
                                                   CPss21::SendToDevicesReceipt()
                                                   CPss21::SendToDevicesReset()
           LOCAL                   ADDRESS         
           =====                   =======         
           ?Subroutine45           00003BD2 
    -------------------------------------------------------------------------
CODE
  Relative segment, address: CODE 00003BD6 - 00003BD9 (0x4 bytes), align: 1
  Segment part 194.           Intra module refs:   CPss21::ModulesInteraction(uint8_t)
                                                   CPss21::SendToDevicesModbusReceipt()
                                                   CPss21::SendToDevicesModbusReset()
                                                   CPss21::SendToDevicesReceipt()
                                                   CPss21::SendToDevicesReset()
           LOCAL                   ADDRESS         
           =====                   =======         
           ?Subroutine37           00003BD6 
    -------------------------------------------------------------------------
CODE
  Relative segment, address: CODE 00003BDA - 00003BDD (0x4 bytes), align: 1
  Segment part 195.           Intra module refs:   ?Subroutine33
                                                   ?Subroutine37
           LOCAL                   ADDRESS         
           =====                   =======         
           ?Subroutine87           00003BDA 
    -------------------------------------------------------------------------
CODE
  Relative segment, address: CODE 00003BDE - 00003BE5 (0x8 bytes), align: 1
  Segment part 196.           Intra module refs:   CPss21::SendToDevicesModbusReceipt()
                                                   CPss21::SendToDevicesReceipt()
           LOCAL                   ADDRESS         
           =====                   =======         
           ?Subroutine30           00003BDE 
    -------------------------------------------------------------------------
CODE
  Relative segment, address: CODE 00003BE6 - 00003BF9 (0x14 bytes), align: 1
  Segment part 197.           Intra module refs:   ?Subroutine48
           ENTRY                   ADDRESS         REF BY
           =====                   =======         ======
           CPss21::SendToDevicesReset()
                                   00003BE6 
    -------------------------------------------------------------------------
CODE
  Relative segment, address: CODE 00003BFA - 00003C09 (0x10 bytes), align: 1
  Segment part 198.           Intra module refs:   CPss21::SendToDevicesModbusReset()
                                                   CPss21::SendToDevicesReset()
           LOCAL                   ADDRESS         
           =====                   =======         
           ?Subroutine29           00003BFA 
    -------------------------------------------------------------------------
CODE
  Relative segment, address: CODE 00003C0A - 00003CA7 (0x9e bytes), align: 1
  Segment part 199.           Intra module refs:   ?Subroutine58
                                                   ?Subroutine6
           ENTRY                   ADDRESS         REF BY
           =====                   =======         ======
           CPss21::KeyStateProcessing()
                                   00003C0A 
               calls direct
    -------------------------------------------------------------------------
CODE
  Relative segment, address: CODE 00003CA8 - 00003CAB (0x4 bytes), align: 1
  Segment part 200.           Intra module refs:   CPss21::AlarmTypeSet(uint8_t)
                                                   CPss21::KeyStateProcessing()
           LOCAL                   ADDRESS         
           =====                   =======         
           ?Subroutine88           00003CA8 
    -------------------------------------------------------------------------
CODE
  Relative segment, address: CODE 00003CAC - 00003CAF (0x4 bytes), align: 1
  Segment part 201.           Intra module refs:   CPss21::KeyStateProcessing()
           LOCAL                   ADDRESS         
           =====                   =======         
           ?Subroutine49           00003CAC 
    -------------------------------------------------------------------------
CODE
  Relative segment, address: CODE 00003CB0 - 00003CB3 (0x4 bytes), align: 1
  Segment part 202.           Intra module refs:   ?Subroutine46
                                                   ?Subroutine48
                                                   ?Subroutine49
           LOCAL                   ADDRESS         
           =====                   =======         
           ?Subroutine89           00003CB0 
    -------------------------------------------------------------------------
CODE
  Relative segment, address: CODE 00003CB4 - 00003CBB (0x8 bytes), align: 1
  Segment part 203.           Intra module refs:   CPss21::KeyStateProcessing()
           LOCAL                   ADDRESS         
           =====                   =======         
           ?Subroutine48           00003CB4 
    -------------------------------------------------------------------------
CODE
  Relative segment, address: CODE 00003CBC - 00003CC3 (0x8 bytes), align: 1
  Segment part 204.           Intra module refs:   CPss21::KeyStateProcessing()
           LOCAL                   ADDRESS         
           =====                   =======         
           ?Subroutine46           00003CBC 
    -------------------------------------------------------------------------
CODE
  Relative segment, address: CODE 00003CC4 - 00003CC5 (0x2 bytes), align: 1
  Segment part 205.           Intra module refs:   CPss21::KeyStateProcessing()
           LOCAL                   ADDRESS         
           =====                   =======         
           ?Subroutine13           00003CC4 
    -------------------------------------------------------------------------
CODE
  Relative segment, address: CODE 00003CC6 - 00003CC9 (0x4 bytes), align: 1
  Segment part 206.           Intra module refs:   ?Subroutine13
                                                   ?Subroutine8
                                                   ?Subroutine9
           LOCAL                   ADDRESS         
           =====                   =======         
           ?Subroutine90           00003CC6 
    -------------------------------------------------------------------------
CODE
  Relative segment, address: CODE 00003CCA - 00003CCD (0x4 bytes), align: 1
  Segment part 207.           Intra module refs:   ?Subroutine13
                                                   CPss21::KeyStateProcessing()
           LOCAL                   ADDRESS         
           =====                   =======         
           ?Subroutine60           00003CCA 
    -------------------------------------------------------------------------
CODE
  Relative segment, address: CODE 00003CCE - 00003CD1 (0x4 bytes), align: 1
  Segment part 208.           Intra module refs:   ?Subroutine11
                                                   ?Subroutine60
                                                   ?Subroutine8
                                                   CPss21::KeyStateProcessing()
           LOCAL                   ADDRESS         
           =====                   =======         
           ?Subroutine95           00003CCE 
    -------------------------------------------------------------------------
CODE
  Relative segment, address: CODE 00003CD2 - 00003CD7 (0x6 bytes), align: 1
  Segment part 209.           Intra module refs:   CPss21::KeyStateProcessing()
           LOCAL                   ADDRESS         
           =====                   =======         
           ?Subroutine11           00003CD2 
    -------------------------------------------------------------------------
CODE
  Relative segment, address: CODE 00003CD8 - 00003CDF (0x8 bytes), align: 1
  Segment part 210.           Intra module refs:   CPss21::KeyStateProcessing()
           LOCAL                   ADDRESS         
           =====                   =======         
           ?Subroutine8            00003CD8 
    -------------------------------------------------------------------------
CODE
  Relative segment, address: CODE 00003CE0 - 00003CF1 (0x12 bytes), align: 1
  Segment part 211.           Intra module refs:   ?Subroutine53
           ENTRY                   ADDRESS         REF BY
           =====                   =======         ======
           CPss21::ReceiptResetGlobalFlagsClear()
                                   00003CE0 
    -------------------------------------------------------------------------
CODE
  Relative segment, address: CODE 00003CF2 - 00003D15 (0x24 bytes), align: 1
  Segment part 212.           Intra module refs:   CPss21::MainFsm()
           ENTRY                   ADDRESS         REF BY
           =====                   =======         ======
           CPss21::ModulesInteraction(uint8_t)
                                   00003CF2 
               calls indirect
    -------------------------------------------------------------------------
CODE
  Relative segment, address: CODE 00003D16 - 00003D37 (0x22 bytes), align: 1
  Segment part 213.           Intra module refs:   CPss21::CreateDevices()
           LOCAL                   ADDRESS         
           =====                   =======         
           ?Subroutine34           00003D16 
    -------------------------------------------------------------------------
CODE
  Relative segment, address: CODE 00003D38 - 00003D3D (0x6 bytes), align: 1
  Segment part 214.           Intra module refs:   ?Subroutine34
                                                   CPss21::ErrorMainCycle()
                                                   CPss21::Init()
                                                   CPss21::ModbusDeviceControl(uint8_t *, uint16_t, uint16_t)
                                                   CPss21::ModulesInteraction(uint8_t)
                                                   CPss21::ReceiptResetGlobalFlagsClear()
    -------------------------------------------------------------------------
CODE
  Relative segment, address: CODE 00003D3E - 00003F27 (0x1ea bytes), align: 1
  Segment part 215.           Intra module refs:   CPss21::MainFsm()
           ENTRY                   ADDRESS         REF BY
           =====                   =======         ======
           CPss21::ConfigurationInit()
                                   00003D3E 
               calls direct
    -------------------------------------------------------------------------
CODE
  Relative segment, address: CODE 00003F28 - 00003F2B (0x4 bytes), align: 1
  Segment part 216.           Intra module refs:   CPss21::ConfigurationInit()
           LOCAL                   ADDRESS         
           =====                   =======         
           ?Subroutine51           00003F28 
    -------------------------------------------------------------------------
CODE
  Relative segment, address: CODE 00003F2C - 00003F2D (0x2 bytes), align: 1
  Segment part 217.           Intra module refs:   CPss21::ConfigurationInit()
           LOCAL                   ADDRESS         
           =====                   =======         
           ?Subroutine47           00003F2C 
    -------------------------------------------------------------------------
CODE
  Relative segment, address: CODE 00003F2E - 00003F31 (0x4 bytes), align: 1
  Segment part 218.           Intra module refs:   ?Subroutine47
                                                   CPss21::ConfigurationInit()
           LOCAL                   ADDRESS         
           =====                   =======         
           ?Subroutine72           00003F2E 
    -------------------------------------------------------------------------
CODE
  Relative segment, address: CODE 00003F32 - 00003F35 (0x4 bytes), align: 1
  Segment part 219.           Intra module refs:   ?Subroutine42
                                                   ?Subroutine72
           LOCAL                   ADDRESS         
           =====                   =======         
           ?Subroutine96           00003F32 
    -------------------------------------------------------------------------
CODE
  Relative segment, address: CODE 00003F36 - 00003F39 (0x4 bytes), align: 1
  Segment part 220.           Intra module refs:   CPss21::ConfigurationInit()
           LOCAL                   ADDRESS         
           =====                   =======         
           ?Subroutine42           00003F36 
    -------------------------------------------------------------------------
CODE
  Relative segment, address: CODE 00003F3A - 00003F45 (0xc bytes), align: 1
  Segment part 221.           Intra module refs:   CPss21::ConfigurationInit()
           LOCAL                   ADDRESS         
           =====                   =======         
           ?Subroutine40           00003F3A 
    -------------------------------------------------------------------------
CODE
  Relative segment, address: CODE 00003F46 - 00003F4F (0xa bytes), align: 1
  Segment part 222.           Intra module refs:   CPss21::ConfigurationInit()
           LOCAL                   ADDRESS         
           =====                   =======         
           ?Subroutine28           00003F46 
    -------------------------------------------------------------------------
CODE
  Relative segment, address: CODE 00003F50 - 00003F57 (0x8 bytes), align: 1
  Segment part 223.           Intra module refs:   ?Subroutine28
                                                   CPss21::AlarmsProcessing()
                                                   CPss21::ConfigurationInit()
           LOCAL                   ADDRESS         
           =====                   =======         
           ?Subroutine66           00003F50 
    -------------------------------------------------------------------------
CODE
  Relative segment, address: CODE 00003F58 - 00003F7B (0x24 bytes), align: 1
  Segment part 224.           Intra module refs:   CPss21::DiscreteSignalsProcessing()
           ENTRY                   ADDRESS         REF BY
           =====                   =======         ======
           CPss21::DiscreteOutputControlClear()
                                   00003F58 
    -------------------------------------------------------------------------
CODE
  Relative segment, address: CODE 00003F7C - 00003F81 (0x6 bytes), align: 1
  Segment part 225.           Intra module refs:   CPss21::DiscreteOutputControlClear()
                                                   CPss21::DiscreteOutputsSet(uint8_t *, uint8_t)
                                                   CPss21::SetBytesFromBits(uint8_t *, uint8_t *, uint16_t)
           LOCAL                   ADDRESS         
           =====                   =======         
           ?Subroutine38           00003F7C 
    -------------------------------------------------------------------------
CODE
  Relative segment, address: CODE 00003F82 - 00003FD1 (0x50 bytes), align: 1
  Segment part 226.
           ENTRY                   ADDRESS         REF BY
           =====                   =======         ======
           CPss21::DiscreteOutputsSet(uint8_t *, uint8_t)
                                   00003F82        ?Subroutine38 (Alarm)
               calls direct
    -------------------------------------------------------------------------
CODE
  Relative segment, address: CODE 00003FD2 - 00003FD7 (0x6 bytes), align: 1
  Segment part 227.           Intra module refs:   CPss21::ConfigurationInit()
                                                   CPss21::DiscreteOutputsSet(uint8_t *, uint8_t)
                                                   CPss21::MainFsm()
                                                   CPss21::SetBytesFromBits(uint8_t *, uint8_t *, uint16_t)
           LOCAL                   ADDRESS         
           =====                   =======         
           ?Subroutine93           00003FD2 
    -------------------------------------------------------------------------
CODE
  Relative segment, address: CODE 00003FD8 - 00003FDB (0x4 bytes), align: 1
  Segment part 228.           Intra module refs:   CPss21::ConfigurationInit()
                                                   CPss21::DiscreteOutputsSet(uint8_t *, uint8_t)
                                                   CPss21::MainFsm()
                                                   CPss21::SetBytesFromBits(uint8_t *, uint8_t *, uint16_t)
           LOCAL                   ADDRESS         
           =====                   =======         
           ?Subroutine44           00003FD8 
    -------------------------------------------------------------------------
CODE
  Relative segment, address: CODE 00003FDC - 00003FEB (0x10 bytes), align: 1
  Segment part 229.           Intra module refs:   CPss21::DiscreteOutputsSet(uint8_t *, uint8_t)
           LOCAL                   ADDRESS         
           =====                   =======         
           ?Subroutine43           00003FDC 
    -------------------------------------------------------------------------
CODE
  Relative segment, address: CODE 00003FEC - 00003FEF (0x4 bytes), align: 1
  Segment part 230.           Intra module refs:   ?Subroutine43
                                                   CPss21::SetBytesFromBits(uint8_t *, uint8_t *, uint16_t)
                                                   Segment part 232
           LOCAL                   ADDRESS         
           =====                   =======         
           ?Subroutine69           00003FEC 
    -------------------------------------------------------------------------
CODE
  Relative segment, address: CODE 00003FF0 - 00003FF9 (0xa bytes), align: 1
  Segment part 231.           Intra module refs:   CPss21::DiscreteOutputsSet(uint8_t *, uint8_t)
           LOCAL                   ADDRESS         
           =====                   =======         
           ?Subroutine25           00003FF0 
    -------------------------------------------------------------------------
CODE
  Relative segment, address: CODE 00003FFA - 00004003 (0xa bytes), align: 1
  Segment part 232.           Intra module refs:   ?Subroutine25
                                                   CPss21::SetBytesFromBits(uint8_t *, uint8_t *, uint16_t)
    -------------------------------------------------------------------------
CODE
  Relative segment, address: CODE 00004004 - 00004019 (0x16 bytes), align: 1
  Segment part 233.           Intra module refs:   CPss21::DiscreteSignalsProcessing()
           ENTRY                   ADDRESS         REF BY
           =====                   =======         ======
           CPss21::AlarmsProcessing()
                                   00004004 
               calls indirect
    -------------------------------------------------------------------------
CODE
  Relative segment, address: CODE 0000401A - 0000401F (0x6 bytes), align: 1
  Segment part 234.           Intra module refs:   CPss21::AlarmsProcessing()
                                                   CPss21::ErrorAlarmsProcessing()
           LOCAL                   ADDRESS         
           =====                   =======         
           ?Subroutine81           0000401A 
    -------------------------------------------------------------------------
CODE
  Relative segment, address: CODE 00004020 - 00004037 (0x18 bytes), align: 1
  Segment part 235.           Intra module refs:   CPss21::DiscreteSignalsProcessing()
           ENTRY                   ADDRESS         REF BY
           =====                   =======         ======
           CPss21::ErrorAlarmsProcessing()
                                   00004020 
               calls indirect
    -------------------------------------------------------------------------
CODE
  Relative segment, address: CODE 00004038 - 00004049 (0x12 bytes), align: 1
  Segment part 236.           Intra module refs:   CPss21::AlarmsProcessing()
                                                   CPss21::ErrorAlarmsProcessing()
           LOCAL                   ADDRESS         
           =====                   =======         
           ?Subroutine39           00004038 
    -------------------------------------------------------------------------
CODE
  Relative segment, address: CODE 0000404A - 00004053 (0xa bytes), align: 1
  Segment part 237.           Intra module refs:   ?Subroutine39
                                                   CPss21::ModulesInteraction(uint8_t)
           LOCAL                   ADDRESS         
           =====                   =======         
           ?Subroutine70           0000404A 
    -------------------------------------------------------------------------
CODE
  Relative segment, address: CODE 00004054 - 00004059 (0x6 bytes), align: 1
  Segment part 238.           Intra module refs:   CPss21::ConfigurationInit()
                                                   CPss21::ErrorAlarmsProcessing()
           LOCAL                   ADDRESS         
           =====                   =======         
           ?Subroutine31           00004054 
    -------------------------------------------------------------------------
CODE
  Relative segment, address: CODE 0000405A - 0000405B (0x2 bytes), align: 1
  Segment part 239.           Intra module refs:   CPss21::SearchModules()
           LOCAL                   ADDRESS         
           =====                   =======         
           ?Subroutine68           0000405A 
    -------------------------------------------------------------------------
CODE
  Relative segment, address: CODE 0000405C - 00004061 (0x6 bytes), align: 1
  Segment part 240.           Intra module refs:   ?Subroutine31
                                                   ?Subroutine68
                                                   CPss21::ModulesInteraction(uint8_t)
    -------------------------------------------------------------------------
CODE
  Relative segment, address: CODE 00004062 - 0000406D (0xc bytes), align: 1
  Segment part 241.
           ENTRY                   ADDRESS         REF BY
           =====                   =======         ======
           CPss21::GetDiscreteInputState(uint8_t)
                                   00004062        ?Subroutine19 (Alarm)
    -------------------------------------------------------------------------
CODE
  Relative segment, address: CODE 0000406E - 00004073 (0x6 bytes), align: 1
  Segment part 243.
           ENTRY                   ADDRESS         REF BY
           =====                   =======         ======
           CPss21::GetErrorAlarmState(uint8_t)
                                   0000406E        ?Subroutine4 (Alarm)
    -------------------------------------------------------------------------
CODE
  Relative segment, address: CODE 00004074 - 0000407D (0xa bytes), align: 1
  Segment part 244.           Intra module refs:   CPss21::GetErrorAlarmState(uint8_t)
           LOCAL                   ADDRESS         
           =====                   =======         
           ?Subroutine41           00004074 
    -------------------------------------------------------------------------
CODE
  Relative segment, address: CODE 0000407E - 00004093 (0x16 bytes), align: 1
  Segment part 245.           Intra module refs:   Segment part 251
           ENTRY                   ADDRESS         REF BY
           =====                   =======         ======
           CPss21::AlarmTypeSet(uint8_t)
                                   0000407E 
               calls direct
    -------------------------------------------------------------------------
CODE
  Relative segment, address: CODE 00004094 - 0000409D (0xa bytes), align: 1
  Segment part 246.
           ENTRY                   ADDRESS         REF BY
           =====                   =======         ======
           CPss21::AlarmTypeChange()
                                   00004094        CAlarmDfa::Fsm() (Alarm)
               calls direct
    -------------------------------------------------------------------------
CODE
  Relative segment, address: CODE 0000409E - 000040A7 (0xa bytes), align: 1
  Segment part 247.
           ENTRY                   ADDRESS         REF BY
           =====                   =======         ======
           CPss21::AlarmTypeErrorChange()
                                   0000409E        CErrorAlarmDfa::Fsm() (Alarm)
               calls direct
    -------------------------------------------------------------------------
CODE
  Relative segment, address: CODE 000040A8 - 000040B1 (0xa bytes), align: 1
  Segment part 248.           Intra module refs:   CPss21::AlarmTypeChange()
                                                   CPss21::AlarmTypeErrorChange()
           LOCAL                   ADDRESS         
           =====                   =======         
           ?Subroutine33           000040A8 
    -------------------------------------------------------------------------
CODE
  Relative segment, address: CODE 000040B2 - 000040B3 (0x2 bytes), align: 1
  Segment part 249.
           ENTRY                   ADDRESS         REF BY
           =====                   =======         ======
           CPss21::AlarmTypeReceipt()
                                   000040B2        ?Subroutine6 (Alarm)
                                                   CErrorAlarmDfa::Fsm() (Alarm)
               calls direct
    -------------------------------------------------------------------------
CODE
  Relative segment, address: CODE 000040B4 - 000040B5 (0x2 bytes), align: 1
  Segment part 250.           Intra module refs:   CPss21::AlarmTypeReceipt()
                                                   CPss21::AlarmTypeReset()
           LOCAL                   ADDRESS         
           =====                   =======         
           ?Subroutine97           000040B4 
    -------------------------------------------------------------------------
CODE
  Relative segment, address: CODE 000040B6 - 000040B7 (0x2 bytes), align: 1
  Segment part 251.           Intra module refs:   ?Subroutine97
                                                   CPss21::AlarmTypeChange()
                                                   CPss21::MainFsm()
                                                   CPss21::RestoreContextNotifyerControl()
    -------------------------------------------------------------------------
CODE
  Relative segment, address: CODE 000040B8 - 000040BB (0x4 bytes), align: 1
  Segment part 252.
           ENTRY                   ADDRESS         REF BY
           =====                   =======         ======
           CPss21::AlarmTypeReset()
                                   000040B8        CAlarmDfa::Fsm() (Alarm)
                                                   CErrorAlarmDfa::Fsm() (Alarm)
               calls direct
    -------------------------------------------------------------------------
CODE
  Relative segment, address: CODE 000040BC - 000040C5 (0xa bytes), align: 1
  Segment part 253.           Intra module refs:   ?Subroutine97
           LOCAL                   ADDRESS         
           =====                   =======         
           ?Subroutine55           000040BC 
    -------------------------------------------------------------------------
CODE
  Relative segment, address: CODE 000040C6 - 000040DB (0x16 bytes), align: 1
  Segment part 254.           Intra module refs:   ?Subroutine73
           ENTRY                   ADDRESS         REF BY
           =====                   =======         ======
           CPss21::NotifyersControlProcessing()
                                   000040C6 
               calls direct
    -------------------------------------------------------------------------
CODE
  Relative segment, address: CODE 000040DC - 000040DF (0x4 bytes), align: 1
  Segment part 255.           Intra module refs:   CPss21::NotifyersControlProcessing()
           LOCAL                   ADDRESS         
           =====                   =======         
           ?Subroutine98           000040DC 
    -------------------------------------------------------------------------
CODE
  Relative segment, address: CODE 000040E0 - 000040ED (0xe bytes), align: 1
  Segment part 256.
           ENTRY                   ADDRESS         REF BY
           =====                   =======         ======
           CPss21::SetAlarmWindowType(uint8_t, uint8_t)
                                   000040E0        ?Subroutine23 (Alarm)
               calls direct
    -------------------------------------------------------------------------
CODE
  Relative segment, address: CODE 000040EE - 000040FF (0x12 bytes), align: 1
  Segment part 257.           Intra module refs:   CPss21::MainFsm()
           ENTRY                   ADDRESS         REF BY
           =====                   =======         ======
           CPss21::SaveContextNotifyerControl()
                                   000040EE 
               calls direct
    -------------------------------------------------------------------------
CODE
  Relative segment, address: CODE 00004100 - 00004117 (0x18 bytes), align: 1
  Segment part 258.           Intra module refs:   ?Subroutine5
           ENTRY                   ADDRESS         REF BY
           =====                   =======         ======
           CPss21::RestoreContextNotifyerControl()
                                   00004100 
               calls direct
    -------------------------------------------------------------------------
CODE
  Relative segment, address: CODE 00004118 - 00004129 (0x12 bytes), align: 1
  Segment part 259.           Intra module refs:   CPss21::MainFsm()
           ENTRY                   ADDRESS         REF BY
           =====                   =======         ======
           CPss21::DiscreteSignalsProcessing()
                                   00004118 
               calls direct
    -------------------------------------------------------------------------
CODE
  Relative segment, address: CODE 0000412A - 0000412B (0x2 bytes), align: 1
  Segment part 260.
           ENTRY                   ADDRESS         REF BY
           =====                   =======         ======
           CPss21::BoardWindowsUpdate()
                                   0000412A        CIndicationAlarmLowLevelDfa::Fsm() (Alarm)
                                                   Segment part 173 (NotifyerControl)
               calls direct
    -------------------------------------------------------------------------
CODE
  Relative segment, address: CODE 0000412C - 00004139 (0xe bytes), align: 1
  Segment part 261.
           ENTRY                   ADDRESS         REF BY
           =====                   =======         ======
           CPss21::ActiveAlarmWindowOn(uint8_t)
                                   0000412C        Segment part 148 (NotifyerControl)
               calls direct
    -------------------------------------------------------------------------
CODE
  Relative segment, address: CODE 0000413A - 0000413F (0x6 bytes), align: 1
  Segment part 262.           Intra module refs:   CPss21::ActiveAlarmWindowOff(uint8_t)
                                                   CPss21::ActiveAlarmWindowOn(uint8_t)
                                                   CPss21::AllAlarmWindowOff()
                                                   CPss21::AllAlarmWindowOn(uint8_t)
                                                   CPss21::ErrorWindowOn(uint8_t)
                                                   CPss21::RestoreContextNotifyerControl()
                                                   CPss21::SaveContextNotifyerControl()
           LOCAL                   ADDRESS         
           =====                   =======         
           ?Subroutine32           0000413A 
    -------------------------------------------------------------------------
CODE
  Relative segment, address: CODE 00004140 - 00004145 (0x6 bytes), align: 1
  Segment part 263.           Intra module refs:   CPss21::ActiveAlarmWindowOn(uint8_t)
                                                   CPss21::AllAlarmWindowOn(uint8_t)
                                                   CPss21::DiscreteOutputsSet(uint8_t *, uint8_t)
                                                   CPss21::ModbusDefaultInit()
           LOCAL                   ADDRESS         
           =====                   =======         
           ?Subroutine26           00004140 
    -------------------------------------------------------------------------
CODE
  Relative segment, address: CODE 00004146 - 00004147 (0x2 bytes), align: 1
  Segment part 264.           Intra module refs:   CPss21::ActiveAlarmWindowOff(uint8_t)
                                                   CPss21::ActiveAlarmWindowOn(uint8_t)
                                                   CPss21::AllAlarmWindowOn(uint8_t)
                                                   CPss21::ErrorWindowOn(uint8_t)
           LOCAL                   ADDRESS         
           =====                   =======         
           ?Subroutine1            00004146 
    -------------------------------------------------------------------------
CODE
  Relative segment, address: CODE 00004148 - 0000414F (0x8 bytes), align: 1
  Segment part 265.           Intra module refs:   ?Subroutine1
                                                   CPss21::AllAlarmWindowOff()
                                                   CPss21::RestoreContextNotifyerControl()
                                                   CPss21::SaveContextNotifyerControl()
    -------------------------------------------------------------------------
CODE
  Relative segment, address: CODE 00004150 - 0000415F (0x10 bytes), align: 1
  Segment part 266.
           ENTRY                   ADDRESS         REF BY
           =====                   =======         ======
           CPss21::ActiveAlarmWindowOff(uint8_t)
                                   00004150        ?Subroutine33 (NotifyerControl)
               calls direct
    -------------------------------------------------------------------------
CODE
  Relative segment, address: CODE 00004160 - 00004165 (0x6 bytes), align: 1
  Segment part 267.           Intra module refs:   CPss21::ActiveAlarmWindowOff(uint8_t)
                                                   CPss21::ActiveAlarmWindowOn(uint8_t)
                                                   CPss21::AllAlarmWindowOff()
                                                   CPss21::AllAlarmWindowOn(uint8_t)
                                                   CPss21::BoardWindowsUpdate()
                                                   CPss21::ErrorWindowOn(uint8_t)
           LOCAL                   ADDRESS         
           =====                   =======         
           ?Subroutine91           00004160 
    -------------------------------------------------------------------------
CODE
  Relative segment, address: CODE 00004166 - 0000416D (0x8 bytes), align: 1
  Segment part 268.           Intra module refs:   CPss21::ActiveAlarmWindowOff(uint8_t)
                                                   CPss21::ActiveAlarmWindowOn(uint8_t)
           LOCAL                   ADDRESS         
           =====                   =======         
           ?Subroutine22           00004166 
    -------------------------------------------------------------------------
CODE
  Relative segment, address: CODE 0000416E - 0000417B (0xe bytes), align: 1
  Segment part 269.           Intra module refs:   CPss21::MainFsm()
           ENTRY                   ADDRESS         REF BY
           =====                   =======         ======
           CPss21::AllAlarmWindowOn(uint8_t)
                                   0000416E 
               calls direct
    -------------------------------------------------------------------------
CODE
  Relative segment, address: CODE 0000417C - 0000417D (0x2 bytes), align: 1
  Segment part 270.           Intra module refs:   ?Subroutine22
                                                   CPss21::AllAlarmWindowOn(uint8_t)
                                                   CPss21::ErrorWindowOn(uint8_t)
                                                   CPss21::RestoreContextNotifyerControl()
                                                   CPss21::SaveContextNotifyerControl()
           LOCAL                   ADDRESS         
           =====                   =======         
           ?Subroutine65           0000417C 
    -------------------------------------------------------------------------
CODE
  Relative segment, address: CODE 0000417E - 00004181 (0x4 bytes), align: 1
  Segment part 271.           Intra module refs:   ?Subroutine21
                                                   ?Subroutine65
    -------------------------------------------------------------------------
CODE
  Relative segment, address: CODE 00004182 - 00004185 (0x4 bytes), align: 1
  Segment part 272.           Intra module refs:   ?Subroutine65
                                                   CPss21::MainFsm()
                                                   Segment part 271
           LOCAL                   ADDRESS         
           =====                   =======         
           ?Subroutine76           00004182 
    -------------------------------------------------------------------------
CODE
  Relative segment, address: CODE 00004186 - 0000418B (0x6 bytes), align: 1
  Segment part 273.           Intra module refs:   ?Subroutine76
                                                   CPss21::DiscreteOutputsSet(uint8_t *, uint8_t)
                                                   CPss21::SetBytesFromBits(uint8_t *, uint8_t *, uint16_t)
    -------------------------------------------------------------------------
CODE
  Relative segment, address: CODE 0000418C - 000041B1 (0x26 bytes), align: 1
  Segment part 274.           Intra module refs:   ?Subroutine15
           ENTRY                   ADDRESS         REF BY
           =====                   =======         ======
           CPss21::ErrorWindowOn(uint8_t)
                                   0000418C        CErrorAlarmDfa::Fsm() (Alarm)
               calls direct
    -------------------------------------------------------------------------
CODE
  Relative segment, address: CODE 000041B2 - 000041B9 (0x8 bytes), align: 1
  Segment part 275.           Intra module refs:   CPss21::AllAlarmWindowOff()
                                                   CPss21::ErrorWindowOn(uint8_t)
           LOCAL                   ADDRESS         
           =====                   =======         
           ?Subroutine21           000041B2 
    -------------------------------------------------------------------------
CODE
  Relative segment, address: CODE 000041BA - 000041BB (0x2 bytes), align: 1
  Segment part 276.           Intra module refs:   CPss21::MainFsm()
           ENTRY                   ADDRESS         REF BY
           =====                   =======         ======
           CPss21::TestMainCycle()
                                   000041BA 
               calls direct
    -------------------------------------------------------------------------
CODE
  Relative segment, address: CODE 000041BC - 000041BD (0x2 bytes), align: 1
  Segment part 277.           Intra module refs:   CPss21::ErrorMainCycle()
                                                   CPss21::TestMainCycle()
           LOCAL                   ADDRESS         
           =====                   =======         
           ?Subroutine82           000041BC 
    -------------------------------------------------------------------------
CODE
  Relative segment, address: CODE 000041BE - 000041C1 (0x4 bytes), align: 1
  Segment part 278.           Intra module refs:   ?Subroutine82
                                                   CPss21::LinkControlErrorMainCycle()
    -------------------------------------------------------------------------
CODE
  Relative segment, address: CODE 000041C2 - 000041E3 (0x22 bytes), align: 1
  Segment part 279.           Intra module refs:   CPss21::MainFsm()
           ENTRY                   ADDRESS         REF BY
           =====                   =======         ======
           CPss21::ErrorMainCycle()
                                   000041C2 
               calls direct
    -------------------------------------------------------------------------
CODE
  Relative segment, address: CODE 000041E4 - 000041EB (0x8 bytes), align: 1
  Segment part 280.           Intra module refs:   CPss21::AlarmTypeSet(uint8_t)
                                                   CPss21::ErrorMainCycle()
                                                   Segment part 282
           LOCAL                   ADDRESS         
           =====                   =======         
           ?Subroutine64           000041E4 
    -------------------------------------------------------------------------
NEAR_Z
  Relative segment, address: DATA 00000C8C - 00000D61 (0xd6 bytes), align: 0
  Segment part 110. ROOT      Intra module refs:   ?Subroutine11
                                                   ?Subroutine15
                                                   ?Subroutine29
                                                   ?Subroutine30
                                                   ?Subroutine33
                                                   ?Subroutine37
                                                   ?Subroutine41
                                                   ?Subroutine46
                                                   ?Subroutine48
                                                   ?Subroutine49
                                                   ?Subroutine50
                                                   ?Subroutine55
                                                   ?Subroutine6
                                                   ?Subroutine60
                                                   ?Subroutine61
                                                   ?Subroutine62
                                                   ?Subroutine63
                                                   ?Subroutine64
                                                   ?Subroutine67
                                                   ?Subroutine8
                                                   ?Subroutine9
                                                   CPss21::ConfigurationInit()
                                                   CPss21::CreateDevices()
                                                   CPss21::DiscreteSignalsProcessing()
                                                   CPss21::GetTimeoutModbusRtuLinkControl()
                                                   CPss21::Init()
                                                   CPss21::InitAllocationContext(TMemoryAllocationConext &)
                                                   CPss21::KeyStateProcessing()
                                                   CPss21::MainFsm()
                                                   CPss21::ModbusDeviceControl(uint8_t *, uint16_t, uint16_t)
                                                   CPss21::ModbusRtuLinkControlIsOn()
                                                   CPss21::NotifyersControlProcessing()
                                                   CPss21::RestoreContextNotifyerControl()
                                                   CPss21::SearchModules()
                                                   Segment part 114
                                                   Segment part 214
                                                   Segment part 283
                                                   __sti__routine()
           ENTRY                   ADDRESS         REF BY
           =====                   =======         ======
           CPss21::m_apxDrivers    00000CB4 
           CPss21::m_auiErrorAlarmDataArray
                                   00000CC7 
           CPss21::m_uiCommonAlarmType
                                   00000CC5        ?Subroutine11 (Alarm)
                                                   ?Subroutine7 (Alarm)
                                                   CAlarmDfa::Fsm() (Alarm)
                                                   CErrorAlarmDfa::Fsm() (Alarm)
           CPss21::m_uiCommonAlarmTypePrevious
                                   00000CC6 
           CPss21::m_uiDiscreteSignalsReceipt
                                   00000CC1        CAlarmDfa::Fsm() (Alarm)
                                                   CErrorAlarmDfa::Fsm() (Alarm)
           CPss21::m_uiDiscreteSignalsReset
                                   00000CC2        ?Subroutine1 (Alarm)
                                                   CAlarmDfa::Fsm() (Alarm)
           CPss21::m_uiErrorCode   00000CC3        CDataBase::Check() (DataBase)
                                                   CDataStore::ReadBlock(uint8_t *, uint8_t) (DataStore)
                                                   CFlash::ReadBlock(uint8_t *, uint8_t) (Platform)
                                                   CModbusRtuLinkControl::Fsm() (LinkControl)
           CPss21::m_uiExternalReceipt
                                   00000CBD 
           CPss21::m_uiExternalReset
                                   00000CBE 
           CPss21::m_uiFsmState    00000CBA        CModbus::Programming(uint8_t *, uint8_t *, uint16_t) (modbus)
                                                   CModbusRtuLinkControl::Fsm() (LinkControl)
                                                   main (main)
           CPss21::m_uiModbusReceipt
                                   00000CBF 
           CPss21::m_uiModbusReset
                                   00000CC0 
           CPss21::m_uiModuleIndex
                                   00000CC4 
           CPss21::m_uiPanelReceipt
                                   00000CBB 
           CPss21::m_uiPanelReset
                                   00000CBC 
           CPss21::m_xBuzzerNotifyerControl
                                   00000D3E 
           CPss21::m_xCheckKey     00000CE8 
           CPss21::m_xDeviceConfigSearch
                                   00000C8C        CModbus::Programming(uint8_t *, uint8_t *, uint16_t) (modbus)
           CPss21::m_xDeviceConfiguration
                                   00000C95 
           CPss21::m_xDiscreteOutputDataBase
                                   00000D4A 
           CPss21::m_xEmergencyAlarmWindowNotifyerControl
                                   00000D26 
           CPss21::m_xEventUniteLogicAndOne
                                   00000D06 
           CPss21::m_xExternalKey
                                   00000CF7 
           CPss21::m_xMainCycleTimer
                                   00000D14 
           CPss21::m_xModbusRtuLinkControl
                                   00000CA9 
           CPss21::m_xPreventiveAlarmWindowNotifyerControl
                                   00000D1A 
           CPss21::m_xReceiptKey   00000CCA 
           CPss21::m_xResetKey     00000CD9 
           CPss21::m_xStatusLedNotifyerControl
                                   00000D32 
           uiMapTestCounter        00000CC9 
    -------------------------------------------------------------------------
NEAR_Z
  Relative segment, address: DATA 00000D62 - 00000D62 (0x1 bytes), align: 0
  Segment part 111. ROOT 
           ENTRY                   ADDRESS         REF BY
           =====                   =======         ======
           CPss21::m_uiType        00000D62 
    -------------------------------------------------------------------------
NEAR_Z
  Relative segment, address: DATA 00000D63 - 00000D91 (0x2f bytes), align: 0
  Segment part 112. ROOT      Intra module refs:   CPss21::ModbusInit()
                                                   Segment part 114
                                                   __sti__routine()
           ENTRY                   ADDRESS         REF BY
           =====                   =======         ======
           CPss21::m_xUart1        00000D63 
    -------------------------------------------------------------------------
NEAR_Z
  Relative segment, address: DATA 00000D92 - 00000D93 (0x2 bytes), align: 0
  Segment part 116. ROOT      Intra module refs:   Segment part 114
    -------------------------------------------------------------------------
NEAR_Z
  Relative segment, address: DATA 00000D94 - 00000DC4 (0x31 bytes), align: 0
  Segment part 117. ROOT      Intra module refs:   ?Subroutine74
                                                   CPss21::ModbusInit()
                                                   Segment part 114
                                                   __sti__routine()
           ENTRY                   ADDRESS         REF BY
           =====                   =======         ======
           CPss21::m_xModbusRtuOne
                                   00000D94 
    -------------------------------------------------------------------------
NEAR_Z
  Relative segment, address: DATA 00000DC5 - 00000DC6 (0x2 bytes), align: 0
  Segment part 118. ROOT      Intra module refs:   Segment part 114
    -------------------------------------------------------------------------
NEAR_Z
  Relative segment, address: DATA 00000DC7 - 00000DC8 (0x2 bytes), align: 0
  Segment part 119. ROOT      Intra module refs:   Segment part 114
    -------------------------------------------------------------------------
NEAR_Z
  Relative segment, address: DATA 00000DC9 - 00000DCA (0x2 bytes), align: 0
  Segment part 120. ROOT      Intra module refs:   Segment part 114
    -------------------------------------------------------------------------
NEAR_Z
  Relative segment, address: DATA 00000DCB - 00000DCC (0x2 bytes), align: 0
  Segment part 121. ROOT      Intra module refs:   Segment part 114
    -------------------------------------------------------------------------
NEAR_Z
  Relative segment, address: DATA 00000DCD - 00000DCE (0x2 bytes), align: 0
  Segment part 122. ROOT      Intra module refs:   Segment part 114
    -------------------------------------------------------------------------
NEAR_Z
  Relative segment, address: DATA 00000DCF - 00000DD0 (0x2 bytes), align: 0
  Segment part 123. ROOT      Intra module refs:   Segment part 114
    -------------------------------------------------------------------------
NEAR_Z
  Relative segment, address: DATA 00000DD1 - 00000DD2 (0x2 bytes), align: 0
  Segment part 124. ROOT      Intra module refs:   Segment part 114
    -------------------------------------------------------------------------
NEAR_Z
  Relative segment, address: DATA 00000DD3 - 00000DD4 (0x2 bytes), align: 0
  Segment part 125. ROOT      Intra module refs:   Segment part 114
    -------------------------------------------------------------------------
NEAR_Z
  Relative segment, address: DATA 00000DD5 - 00000DD6 (0x2 bytes), align: 0
  Segment part 126. ROOT      Intra module refs:   Segment part 114
    -------------------------------------------------------------------------
NEAR_Z
  Relative segment, address: DATA 00000DD7 - 00000DD8 (0x2 bytes), align: 0
  Segment part 127. ROOT      Intra module refs:   Segment part 114
    -------------------------------------------------------------------------
NEAR_Z
  Relative segment, address: DATA 00000DD9 - 00000DDA (0x2 bytes), align: 0
  Segment part 128. ROOT      Intra module refs:   Segment part 114
    -------------------------------------------------------------------------
NEAR_Z
  Relative segment, address: DATA 00000DDB - 00000DDC (0x2 bytes), align: 0
  Segment part 129. ROOT      Intra module refs:   Segment part 114
    -------------------------------------------------------------------------
NEAR_Z
  Relative segment, address: DATA 00000DDD - 00000E9C (0xc0 bytes), align: 0
  Segment part 130. ROOT      Intra module refs:   ?Subroutine66
                                                   CPss21::ConfigurationInit()
           ENTRY                   ADDRESS         REF BY
           =====                   =======         ======
           CPss21::m_apxAlarmDfa   00000DDD 
    -------------------------------------------------------------------------
NEAR_Z
  Relative segment, address: DATA 00000E9D - 00000EAC (0x10 bytes), align: 0
  Segment part 131. ROOT      Intra module refs:   CPss21::DiscreteOutputControlClear()
                                                   CPss21::DiscreteOutputsSet(uint8_t *, uint8_t)
                                                   CPss21::InitAllocationContext(TMemoryAllocationConext &)
           ENTRY                   ADDRESS         REF BY
           =====                   =======         ======
           CPss21::m_axDiscreteOutputControl
                                   00000E9D 
    -------------------------------------------------------------------------
NEAR_Z
  Relative segment, address: DATA 00000EAD - 00000FCC (0x120 bytes), align: 0
  Segment part 132. ROOT      Intra module refs:   ?Subroutine76
                                                   ?Subroutine78
                                                   CPss21::SetAlarmWindowType(uint8_t, uint8_t)
           ENTRY                   ADDRESS         REF BY
           =====                   =======         ======
           CPss21::m_axAlarmWindowControl
                                   00000EAD        ?Subroutine5 (Alarm)
    -------------------------------------------------------------------------
NEAR_Z
  Relative segment, address: DATA 00000FCD - 00000FCE (0x2 bytes), align: 0
  Segment part 133. ROOT      Intra module refs:   Segment part 114
    -------------------------------------------------------------------------
CODE
  Relative segment, address: CODE 000041EC - 000041F9 (0xe bytes), align: 1
  Segment part 281.           Intra module refs:   CPss21::MainFsm()
           LOCAL                   ADDRESS         
           =====                   =======         
           ?Subroutine15           000041EC 
    -------------------------------------------------------------------------
CODE
  Relative segment, address: CODE 000041FA - 00004207 (0xe bytes), align: 1
  Segment part 282.           Intra module refs:   ?Subroutine15
                                                   CPss21::AlarmTypeErrorChange()
    -------------------------------------------------------------------------
CODE
  Relative segment, address: CODE 00004208 - 0000420F (0x8 bytes), align: 1
  Segment part 283.           Intra module refs:   CPss21::AlarmTypeSet(uint8_t)
                                                   CPss21::ErrorMainCycle()
                                                   CPss21::KeyStateProcessing()
                                                   CPss21::MainFsm()
                                                   Segment part 282
    -------------------------------------------------------------------------
CODE
  Relative segment, address: CODE 00004210 - 00004217 (0x8 bytes), align: 1
  Segment part 284.           Intra module refs:   CPss21::AlarmTypeSet(uint8_t)
                                                   Segment part 282
           LOCAL                   ADDRESS         
           =====                   =======         
           ?Subroutine63           00004210 
    -------------------------------------------------------------------------
CODE
  Relative segment, address: CODE 00004218 - 0000421F (0x8 bytes), align: 1
  Segment part 285.           Intra module refs:   CPss21::AlarmTypeSet(uint8_t)
                                                   Segment part 282
           LOCAL                   ADDRESS         
           =====                   =======         
           ?Subroutine62           00004218 
    -------------------------------------------------------------------------
CODE
  Relative segment, address: CODE 00004220 - 00004227 (0x8 bytes), align: 1
  Segment part 286.           Intra module refs:   CPss21::MainFsm()
           ENTRY                   ADDRESS         REF BY
           =====                   =======         ======
           CPss21::LinkControlErrorMainCycle()
                                   00004220 
               calls direct
    -------------------------------------------------------------------------
CODE
  Relative segment, address: CODE 00004228 - 00004229 (0x2 bytes), align: 1
  Segment part 287.           Intra module refs:   ?Subroutine82
                                                   CPss21::LinkControlErrorMainCycle()
                                                   CPss21::MainFsm()
           LOCAL                   ADDRESS         
           =====                   =======         
           ?Subroutine53           00004228 
    -------------------------------------------------------------------------
CODE
  Relative segment, address: CODE 0000422A - 00004373 (0x14a bytes), align: 1
  Segment part 288.           Intra module refs:   Segment part 303
           ENTRY                   ADDRESS         REF BY
           =====                   =======         ======
           CPss21::MainFsm()       0000422A        main (main)
               calls direct
    -------------------------------------------------------------------------
CODE
  Relative segment, address: CODE 00004374 - 00004377 (0x4 bytes), align: 1
  Segment part 289.           Intra module refs:   ?Subroutine10
                                                   CPss21::LinkControlErrorMainCycle()
                                                   CPss21::MainFsm()
           LOCAL                   ADDRESS         
           =====                   =======         
           ?Subroutine99           00004374 
    -------------------------------------------------------------------------
CODE
  Relative segment, address: CODE 00004378 - 0000437D (0x6 bytes), align: 1
  Segment part 290.           Intra module refs:   CPss21::MainFsm()
           LOCAL                   ADDRESS         
           =====                   =======         
           ?Subroutine50           00004378 
    -------------------------------------------------------------------------
CODE
  Relative segment, address: CODE 0000437E - 00004381 (0x4 bytes), align: 1
  Segment part 291.           Intra module refs:   CPss21::MainFsm()
                                                   CPss21::SetAlarmWindowType(uint8_t, uint8_t)
           LOCAL                   ADDRESS         
           =====                   =======         
           ?Subroutine18           0000437E 
    -------------------------------------------------------------------------
CODE
  Relative segment, address: CODE 00004382 - 00004385 (0x4 bytes), align: 1
  Segment part 292.           Intra module refs:   ?Subroutine18
                                                   Segment part 271
           LOCAL                   ADDRESS         
           =====                   =======         
           ?Subroutine75           00004382 
    -------------------------------------------------------------------------
CODE
  Relative segment, address: CODE 00004386 - 00004389 (0x4 bytes), align: 1
  Segment part 293.           Intra module refs:   CPss21::MainFsm()
           LOCAL                   ADDRESS         
           =====                   =======         
           ?Subroutine10           00004386 
    -------------------------------------------------------------------------
CODE
  Relative segment, address: CODE 0000438A - 00004393 (0xa bytes), align: 1
  Segment part 294.           Intra module refs:   CPss21::MainFsm()
           LOCAL                   ADDRESS         
           =====                   =======         
           ?Subroutine9            0000438A 
    -------------------------------------------------------------------------
CODE
  Relative segment, address: CODE 00004394 - 00004397 (0x4 bytes), align: 1
  Segment part 295.           Intra module refs:   CPss21::MainFsm()
                                                   CPss21::TestMainCycle()
           LOCAL                   ADDRESS         
           =====                   =======         
           ?Subroutine7            00004394 
    -------------------------------------------------------------------------
CODE
  Relative segment, address: CODE 00004398 - 0000439B (0x4 bytes), align: 1
  Segment part 296.           Intra module refs:   ?Subroutine7
                                                   CPss21::ErrorMainCycle()
           LOCAL                   ADDRESS         
           =====                   =======         
           ?Subroutine58           00004398 
    -------------------------------------------------------------------------
CODE
  Relative segment, address: CODE 0000439C - 000043A7 (0xc bytes), align: 1
  Segment part 297.           Intra module refs:   CPss21::LinkControlErrorMainCycle()
                                                   CPss21::MainFsm()
           LOCAL                   ADDRESS         
           =====                   =======         
           ?Subroutine6            0000439C 
    -------------------------------------------------------------------------
CODE
  Relative segment, address: CODE 000043A8 - 000043A9 (0x2 bytes), align: 1
  Segment part 298.           Intra module refs:   ?Subroutine6
                                                   ?Subroutine7
                                                   CPss21::ErrorMainCycle()
           LOCAL                   ADDRESS         
           =====                   =======         
           ?Subroutine73           000043A8 
    -------------------------------------------------------------------------
CODE
  Relative segment, address: CODE 000043AA - 000043B1 (0x8 bytes), align: 1
  Segment part 299.           Intra module refs:   ?Subroutine10
                                                   ?Subroutine58
                                                   ?Subroutine6
           LOCAL                   ADDRESS         
           =====                   =======         
           ?Subroutine74           000043AA 
    -------------------------------------------------------------------------
CODE
  Relative segment, address: CODE 000043B2 - 000043B5 (0x4 bytes), align: 1
  Segment part 300.           Intra module refs:   CPss21::MainFsm()
           LOCAL                   ADDRESS         
           =====                   =======         
           ?Subroutine5            000043B2 
    -------------------------------------------------------------------------
CODE
  Relative segment, address: CODE 000043B6 - 000043B9 (0x4 bytes), align: 1
  Segment part 301.           Intra module refs:   ?Subroutine5
                                                   CPss21::MainFsm()
    -------------------------------------------------------------------------
CODE
  Relative segment, address: CODE 000043BA - 000043C1 (0x8 bytes), align: 1
  Segment part 302.           Intra module refs:   ?Subroutine5
                                                   CPss21::MainFsm()
                                                   Segment part 301
           LOCAL                   ADDRESS         
           =====                   =======         
           ?Subroutine61           000043BA 
    -------------------------------------------------------------------------
CODE
  Relative segment, address: CODE 000043C2 - 000043CD (0xc bytes), align: 1
  Segment part 304.           Intra module refs:   __sti__routine()
           ENTRY                   ADDRESS         REF BY
           =====                   =======         ======
           CPlatform::KeyOneState()
                                   000043C2 
    -------------------------------------------------------------------------
CODE
  Relative segment, address: CODE 000043CE - 000043D9 (0xc bytes), align: 1
  Segment part 305.           Intra module refs:   __sti__routine()
           ENTRY                   ADDRESS         REF BY
           =====                   =======         ======
           CPlatform::KeyTwoState()
                                   000043CE 
    -------------------------------------------------------------------------
CODE
  Relative segment, address: CODE 000043DA - 000043E5 (0xc bytes), align: 1
  Segment part 306.           Intra module refs:   __sti__routine()
           ENTRY                   ADDRESS         REF BY
           =====                   =======         ======
           CPlatform::KeyThreeState()
                                   000043DA 
    -------------------------------------------------------------------------
CODE
  Relative segment, address: CODE 000043E6 - 000043F3 (0xe bytes), align: 1
  Segment part 307.           Intra module refs:   __sti__routine()
           ENTRY                   ADDRESS         REF BY
           =====                   =======         ======
           CPlatform::ExternalKeyState()
                                   000043E6 
    -------------------------------------------------------------------------
NEAR_ID
  Relative segment, address: CODE 00004C00 - 00004C53 (0x54 bytes), align: 0
  Segment part 114. ROOT      Intra module refs:   Segment part 113
    -------------------------------------------------------------------------
DIFUNCT
  Relative segment, address: CODE 00000940 - 00000941 (0x2 bytes), align: 0
  Segment part 135. ROOT 
    -------------------------------------------------------------------------
SWITCH
  Relative segment, address: CODE 00000910 - 0000093D (0x2e bytes), align: 1
  Segment part 303.           Intra module refs:   CPss21::MainFsm()

    *************************************************************************

  FILE NAME : D:\Projects\CurrentProjects\CautoProjects\PSS48Color\Debug\Obj\Timer.r90
  PROGRAM MODULE, NAME : Timer

  SEGMENTS IN THE MODULE
  ======================
CODE
  Relative segment, address: CODE 000043F4 - 000043FF (0xc bytes), align: 1
  Segment part 100.
           ENTRY                   ADDRESS         REF BY
           =====                   =======         ======
           CTimer::CTimer()        000043F4        ?Subroutine0 (Event)
                                                   ?Subroutine2 (InputDevice)
                                                   CLinkControl::CLinkControl() (LinkControl)
                                                   CNotifyerControl::CNotifyerControl() (NotifyerControl)
                                                   __sti__routine() (DataStore)
    -------------------------------------------------------------------------
CODE
  Relative segment, address: CODE 00004400 - 0000440B (0xc bytes), align: 1
  Segment part 102.
           ENTRY                   ADDRESS         REF BY
           =====                   =======         ======
           CTimer::CTimer(uint16_t)
                                   00004400        __sti__routine() (Pss21)
    -------------------------------------------------------------------------
CODE
  Relative segment, address: CODE 0000440C - 0000441B (0x10 bytes), align: 1
  Segment part 105.           Intra module refs:   CTimer::__vtbl
           ENTRY                   ADDRESS         REF BY
           =====                   =======         ======
           CTimer::~CTimer()       0000440C        <Unnamed 0> (DataStore)
                                                   <Unnamed 4> (Pss21)
                                                   CEventUniteLogicAnd::~CEventUniteLogicAnd() (Event)
                                                   CLinkControl::~CLinkControl() (LinkControl)
                                                   CMultiFunctionKey::~CMultiFunctionKey() (InputDevice)
                                                   CNotifyerControl::~CNotifyerControl() (NotifyerControl)
               calls direct
    -------------------------------------------------------------------------
CODE
  Relative segment, address: CODE 0000441C, align: 1
  Segment part 106.
           ENTRY                   ADDRESS         REF BY
           =====                   =======         ======
           CTimer::Set(uint16_t)   0000441C        ?Subroutine0 (InputDevice)
                                                   ?Subroutine15 (NotifyerControl)
                                                   ?Subroutine61 (Pss21)
                                                   ?Subroutine8 (DataStore)
                                                   CEventUniteLogicAnd::IsHappened(uint8_t, uint8_t) (Event)
                                                   CModbusRtuLinkControl::Fsm() (LinkControl)
                                                   CMultiFunctionKey::Fsm() (InputDevice)
    -------------------------------------------------------------------------
CODE
  Relative segment, address: CODE 0000441C - 0000442F (0x14 bytes), align: 1
  Segment part 107.           Intra module refs:   CTimer::CTimer(uint16_t)
                                                   CTimer::Set(uint16_t)
           LOCAL                   ADDRESS         
           =====                   =======         
           ?Subroutine0            0000441C 
    -------------------------------------------------------------------------
CODE
  Relative segment, address: CODE 00004430 - 0000444B (0x1c bytes), align: 1
  Segment part 109.
           ENTRY                   ADDRESS         REF BY
           =====                   =======         ======
           CTimer::IsOverflow()    00004430        ?Subroutine1 (InputDevice)
                                                   ?Subroutine3 (DataStore)
                                                   ?Subroutine5 (NotifyerControl)
                                                   ?Subroutine9 (Pss21)
                                                   CEventUniteLogicAnd::IsHappened(uint8_t, uint8_t) (Event)
                                                   CModbusRtuLinkControl::Fsm() (LinkControl)
    -------------------------------------------------------------------------
CODE
  Relative segment, address: CODE 0000444C - 00004457 (0xc bytes), align: 1
  Segment part 110.           Intra module refs:   CTimer::IsOverflow()
           LOCAL                   ADDRESS         
           =====                   =======         
           ?Subroutine2            0000444C 
    -------------------------------------------------------------------------
NEAR_F
  Relative segment, address: CODE 00000879 - 0000087A (0x2 bytes), align: 0
  Segment part 99. ROOT       Intra module refs:   CTimer::CTimer()
                                                   CTimer::CTimer(uint16_t)
           ENTRY                   ADDRESS         REF BY
           =====                   =======         ======
           CTimer::__vtbl          00000879 

    *************************************************************************

  FILE NAME : C:\Program Files (x86)\IAR Systems\Embedded Workbench 8.0\avr\LIB\DLIB\dlAVR-3s-ec_mul-n.r90
  LIBRARY MODULE, NAME : ?_exit

  SEGMENTS IN THE MODULE
  ======================
CODE
  Relative segment, address: CODE 00004458, align: 1
  Segment part 0.
           ENTRY                   ADDRESS         REF BY
           =====                   =======         ======
           _exit                   00004458        ?cstartup_call_main (?C_STARTUP)
                                                   exit (?exit)
    -------------------------------------------------------------------------
CODE
  Relative segment, address: CODE 00004458 - 0000445B (0x4 bytes), align: 1
  Segment part 1.             Intra module refs:   __cstart_call_dtors
    -------------------------------------------------------------------------
CODE
  Relative segment, address: CODE 0000445C - 0000445F (0x4 bytes), align: 1
  Segment part 2.
           ENTRY                   ADDRESS         REF BY
           =====                   =======         ======
           __cstart_call_dtors     0000445C        __record_needed_destruction (?cppinit)
    -------------------------------------------------------------------------
CODE
  Relative segment, address: CODE 00004460 - 00004463 (0x4 bytes), align: 1
  Segment part 4.             Intra module refs:   Segment part 1
    -------------------------------------------------------------------------
CODE
  Relative segment, address: CODE 00004464 - 00004467 (0x4 bytes), align: 1
  Segment part 5.             Intra module refs:   _exit

    -------------------------------------------------------------------------
  LIBRARY MODULE, NAME : ?abort

  SEGMENTS IN THE MODULE
  ======================
CODE
  Relative segment, address: CODE 00004468 - 0000446F (0x8 bytes), align: 1
  Segment part 3.
           ENTRY                   ADDRESS         REF BY
           =====                   =======         ======
           abort                   00004468        _Nomemory() (?nomemory)
                                                   __near_get_array_size(void *, __near_size_t) (?vec_newdel)
                                                   __pure_virtual_called (?xpurevirtual)
                                                   __record_needed_destruction (?cppinit)
               calls direct

    -------------------------------------------------------------------------
  LIBRARY MODULE, NAME : ?cppinit

  SEGMENTS IN THE MODULE
  ======================
CODE
  Relative segment, address: CODE 00004470 - 000044D1 (0x62 bytes), align: 1
  Segment part 5.
           ENTRY                   ADDRESS         REF BY
           =====                   =======         ======
           __call_ctors            00004470        ?call_ctors (?C_STARTUP)
               calls indirect
    -------------------------------------------------------------------------
NEAR_Z
  Relative segment, address: DATA 00000FCF - 00000FD0 (0x2 bytes), align: 0
  Segment part 3.             Intra module refs:   Segment part 10
                                                   __call_dtors
                                                   __record_needed_destruction
    -------------------------------------------------------------------------
CODE
  Relative segment, address: CODE 000044D2 - 00004505 (0x34 bytes), align: 1
  Segment part 6.
           ENTRY                   ADDRESS         REF BY
           =====                   =======         ======
           __record_needed_destruction
                                   000044D2        ?Subroutine77 (Pss21)
                                                   __sti__routine() (DataStore)
               calls direct
    -------------------------------------------------------------------------
CODE
  Relative segment, address: CODE 00004506 - 0000450B (0x6 bytes), align: 1
  Segment part 7.             Intra module refs:   __call_dtors
                                                   __record_needed_destruction
    -------------------------------------------------------------------------
CODE
  Relative segment, address: CODE 0000450C - 0000454B (0x40 bytes), align: 1
  Segment part 9.
           ENTRY                   ADDRESS         REF BY
           =====                   =======         ======
           __call_dtors            0000450C        __cstart_call_dtors (?_exit)
               calls indirect
    -------------------------------------------------------------------------
CODE
  Relative segment, address: CODE 0000454C - 00004555 (0xa bytes), align: 1
  Segment part 10.            Intra module refs:   __call_dtors
                                                   __record_needed_destruction

    -------------------------------------------------------------------------
  LIBRARY MODULE, NAME : ?RESET

  SEGMENTS IN THE MODULE
  ======================
INTVEC
  Common segment, address: CODE 00000000 - 00000003 (0x4 bytes), align: 1
  Segment part 0. ROOT 
           ENTRY                   ADDRESS         REF BY
           =====                   =======         ======
           ?RESET                  00000000        Segment part 2 (?C_STARTUP)

    -------------------------------------------------------------------------
  LIBRARY MODULE, NAME : ?C_STARTUP

  SEGMENTS IN THE MODULE
  ======================
CODE
  Relative segment, address: CODE 00004556, align: 1
  Segment part 2.
           ENTRY                   ADDRESS         REF BY
           =====                   =======         ======
           __program_start         00004556        Absolute parts (?ABS_ENTRY_MOD)
           ?C_STARTUP              00004556        ?RESET (?RESET)
           __RESTART               00004556 
    -------------------------------------------------------------------------
CODE
  Relative segment, address: CODE 00004556 - 00004561 (0xc bytes), align: 1
  Segment part 5.             Intra module refs:   Segment part 2
    -------------------------------------------------------------------------
CODE
  Relative segment, address: CODE 00004562 - 00004565 (0x4 bytes), align: 1
  Segment part 7.             Intra module refs:   Segment part 5
           ENTRY                   ADDRESS         REF BY
           =====                   =======         ======
           ?call_low_level_init    00004562 
    -------------------------------------------------------------------------
CODE
  Relative segment, address: CODE 00004566 - 0000456D (0x8 bytes), align: 1
  Segment part 8.
           ENTRY                   ADDRESS         REF BY
           =====                   =======         ======
           ?need_segment_init      00004566        ?<Segment init: NEAR_I> (DataStore)
                                                   ?<Segment init: NEAR_Z> (DataStore)
    -------------------------------------------------------------------------
CODE
  Relative segment, address: CODE 0000456E - 0000457D (0x10 bytes), align: 1
  Segment part 10.
           ENTRY                   ADDRESS         REF BY
           =====                   =======         ======
           ?call_ctors             0000456E        Segment part 110 (DataStore)
                                                   Segment part 135 (Pss21)
    -------------------------------------------------------------------------
CODE
  Relative segment, address: CODE 0000457E - 00004589 (0xc bytes), align: 1
  Segment part 11.            Intra module refs:   ?call_low_level_init
           ENTRY                   ADDRESS         REF BY
           =====                   =======         ======
           ?cstartup_call_main     0000457E 

    -------------------------------------------------------------------------
  LIBRARY MODULE, NAME : ?delop_0

  SEGMENTS IN THE MODULE
  ======================
CODE
  Relative segment, address: CODE 0000458A - 00004595 (0xc bytes), align: 1
  Segment part 3.
           ENTRY                   ADDRESS         REF BY
           =====                   =======         ======
           operator delete(void *)
                                   0000458A        ?Subroutine0 (Dfa)
                                                   ?Subroutine20 (NotifyerControl)
                                                   ?Subroutine28 (Alarm)
                                                   ?Subroutine8 (Platform)
                                                   CAlarmWindow::~CAlarmWindow() (AlarmWindow)
                                                   CBuzzer::~CBuzzer() (Buzzer)
                                                   CEvent::~CEvent() (Event)
                                                   CEventUniteLogicAnd::~CEventUniteLogicAnd() (Event)
                                                   CLinkControl::~CLinkControl() (LinkControl)
                                                   CModbus::~CModbus() (modbus)
                                                   CModbusRTU::~CModbusRTU() (ModbusRTU)
                                                   CModbusRtuLinkControl::~CModbusRtuLinkControl() (LinkControl)
                                                   CModuleMrXXDriver::~CModuleMrXXDriver() (ModuleMrXX)
                                                   CMultiFunctionKey::~CMultiFunctionKey() (InputDevice)
                                                   CMvsn21Driver::~CMvsn21Driver() (Mvsn21)
                                                   CTimer::~CTimer() (Timer)
               calls direct

    -------------------------------------------------------------------------
  LIBRARY MODULE, NAME : ?exit

  SEGMENTS IN THE MODULE
  ======================
CODE
  Relative segment, address: CODE 00004596 - 00004599 (0x4 bytes), align: 1
  Segment part 3.
           ENTRY                   ADDRESS         REF BY
           =====                   =======         ======
           exit                    00004596        ?cstartup_call_main (?C_STARTUP)
               calls direct

    -------------------------------------------------------------------------
  LIBRARY MODULE, NAME : ?S_EC_MUL_L02

  SEGMENTS IN THE MODULE
  ======================
CODE
  Relative segment, address: CODE 0000459A - 000045A9 (0x10 bytes), align: 1
  Segment part 0.
           ENTRY                   ADDRESS         REF BY
           =====                   =======         ======
           ?S_EC_MUL_L02           0000459A        ?Subroutine5 (Alarm)
                                                   ?Subroutine94 (Pss21)
                                                   CLightBoard::Set(CAlarmWindow *) (LightBoard)
                                                   CModuleMrXXDriver::Allocate(TMemoryAllocationConext &) (ModuleMrXX)
                                                   Segment part 17 (?vec_newdel)

    -------------------------------------------------------------------------
  LIBRARY MODULE, NAME : ?S_SHL_L02

  SEGMENTS IN THE MODULE
  ======================
CODE
  Relative segment, address: CODE 000045AA - 000045B3 (0xa bytes), align: 1
  Segment part 0.
           ENTRY                   ADDRESS         REF BY
           =====                   =======         ======
           ?S_SHL_L02              000045AE        ?Subroutine10 (DataStore)
                                                   ?Subroutine22 (Platform)
                                                   ?Subroutine5 (ModuleMrXX)
                                                   ?Subroutine66 (modbus)
                                                   ?Subroutine69 (Pss21)
                                                   ?Subroutine7 (ModuleMrXX)
                                                   CHammingCodes::fixError(uint16_t, uint8_t) (HammingCodes)
                                                   CMvsn21Driver::DataExchange() (Mvsn21)

    -------------------------------------------------------------------------
  LIBRARY MODULE, NAME : ?US_SHR_L02

  SEGMENTS IN THE MODULE
  ======================
CODE
  Relative segment, address: CODE 000045B4 - 000045BD (0xa bytes), align: 1
  Segment part 0.
           ENTRY                   ADDRESS         REF BY
           =====                   =======         ======
           ?US_SHR_L02             000045B8        ?Subroutine0 (modbus)
                                                   CHammingCodes::deHamming(uint16_t) (HammingCodes)
                                                   CHammingCodes::getEvenParityforRx(uint16_t) (HammingCodes)

    -------------------------------------------------------------------------
  LIBRARY MODULE, NAME : ?SS_SHR_L02

  SEGMENTS IN THE MODULE
  ======================
CODE
  Relative segment, address: CODE 000045BE - 000045C7 (0xa bytes), align: 1
  Segment part 0.
           ENTRY                   ADDRESS         REF BY
           =====                   =======         ======
           ?SS_SHR_L02             000045C2        ?Subroutine0 (Dm163)
                                                   CHammingCodes::getEvenParityforTx(uint8_t) (HammingCodes)
                                                   CPss21::ConfigurationInit() (Pss21)

    -------------------------------------------------------------------------
  LIBRARY MODULE, NAME : ?US_DIVMOD_L02

  SEGMENTS IN THE MODULE
  ======================
CODE
  Relative segment, address: CODE 000045C8 - 000045CD (0x6 bytes), align: 1
  Segment part 1.
           ENTRY                   ADDRESS         REF BY
           =====                   =======         ======
           ?US_DIVMOD_L02          000045C8        ?SS_DIVMOD_L02 (?SS_DIVMOD_L02)
                                                   CHammingCodes::HammingCodesToBytes(uint8_t *, uint8_t *, uint16_t) (HammingCodes)
                                                   __near_array_delete_general(void *, __near_size_t, __near_size_t, __near_destructor_ptr, __near_delete_ptr, int) (?vec_newdel)
    -------------------------------------------------------------------------
CODE
  Relative segment, address: CODE 000045CE - 000045ED (0x20 bytes), align: 1
  Segment part 3.             Intra module refs:   ?US_DIVMOD_L02

    -------------------------------------------------------------------------
  LIBRARY MODULE, NAME : ?SS_DIVMOD_L02

  SEGMENTS IN THE MODULE
  ======================
CODE
  Relative segment, address: CODE 000045EE - 0000460D (0x20 bytes), align: 1
  Segment part 1.
           ENTRY                   ADDRESS         REF BY
           =====                   =======         ======
           ?SS_DIVMOD_L02          000045EE        CPss21::SetBytesFromBits(uint8_t *, uint8_t *, uint16_t) (Pss21)
    -------------------------------------------------------------------------
CODE
  Relative segment, address: CODE 0000460E - 00004615 (0x8 bytes), align: 1
  Segment part 2.             Intra module refs:   ?SS_DIVMOD_L02
           LOCAL                   ADDRESS         
           =====                   =======         
           ?NEG_P                  0000460E 
    -------------------------------------------------------------------------
CODE
  Relative segment, address: CODE 00004616 - 0000461D (0x8 bytes), align: 1
  Segment part 3.             Intra module refs:   ?SS_DIVMOD_L02
           LOCAL                   ADDRESS         
           =====                   =======         
           ?NEG_Q                  00004616 

    -------------------------------------------------------------------------
  LIBRARY MODULE, NAME : ?L_SHL_L03

  SEGMENTS IN THE MODULE
  ======================
CODE
  Relative segment, address: CODE 0000461E - 0000462B (0xe bytes), align: 1
  Segment part 0.
           ENTRY                   ADDRESS         REF BY
           =====                   =======         ======
           ?L_SHL_L03              00004626        ?Subroutine1 (HammingCodes)
                                                   CModbusRTU::Init(CUart *, uint32_t, char, uint8_t, uint8_t, uint8_t *, uint8_t *, uint8_t *, uint8_t *, uint16_t *, uint16_t *, uint16_t, uint16_t, uint16_t, uint16_t) (ModbusRTU)
                                                   CUart::Init(uint32_t, uint8_t, uint8_t, uint8_t, uint8_t *, uint8_t *) (Platform)

    -------------------------------------------------------------------------
  LIBRARY MODULE, NAME : ?UL_SHR_L03

  SEGMENTS IN THE MODULE
  ======================
CODE
  Relative segment, address: CODE 0000462C - 00004639 (0xe bytes), align: 1
  Segment part 0.
           ENTRY                   ADDRESS         REF BY
           =====                   =======         ======
           ?UL_SHR_L03             00004634        CHammingCodes::HammingCodesToBytes(uint8_t *, uint8_t *, uint16_t) (HammingCodes)
                                                   CPss21::ModbusInit() (Pss21)

    -------------------------------------------------------------------------
  LIBRARY MODULE, NAME : ?UL_DIVMOD_L03

  SEGMENTS IN THE MODULE
  ======================
CODE
  Relative segment, address: CODE 0000463A - 00004641 (0x8 bytes), align: 1
  Segment part 1.
           ENTRY                   ADDRESS         REF BY
           =====                   =======         ======
           ?UL_DIVMOD_L03          0000463A        ?Subroutine3 (Platform)
                                                   CModbusRTU::Init(CUart *, uint32_t, char, uint8_t, uint8_t, uint8_t *, uint8_t *, uint8_t *, uint8_t *, uint16_t *, uint16_t *, uint16_t, uint16_t, uint16_t, uint16_t) (ModbusRTU)
                                                   CPss21::ModbusInit() (Pss21)
    -------------------------------------------------------------------------
CODE
  Relative segment, address: CODE 00004642 - 00004677 (0x36 bytes), align: 1
  Segment part 3.             Intra module refs:   ?UL_DIVMOD_L03

    -------------------------------------------------------------------------
  LIBRARY MODULE, NAME : ?xV_SWITCH_L06

  SEGMENTS IN THE MODULE
  ======================
CODE
  Relative segment, address: CODE 00004678 - 00004683 (0xc bytes), align: 1
  Segment part 2.             Intra module refs:   ?CV_SWITCH_L06
           LOCAL                   ADDRESS         
           =====                   =======         
           GET_INFO_C              00004678 
    -------------------------------------------------------------------------
CODE
  Relative segment, address: CODE 00004684 - 0000468B (0x8 bytes), align: 1
  Segment part 3.
           ENTRY                   ADDRESS         REF BY
           =====                   =======         ======
           ?CV_SWITCH_L06          00004684        CModbus::Reply(uint8_t *, uint8_t *, uint16_t) (modbus)
                                                   CModbusRTU::Fsm() (ModbusRTU)
                                                   CNotifyerControl::Fsm() (NotifyerControl)
                                                   CPss21::MainFsm() (Pss21)
    -------------------------------------------------------------------------
CODE
  Relative segment, address: CODE 0000468C - 00004691 (0x6 bytes), align: 1
  Segment part 5.             Intra module refs:   ?CV_SWITCH_L06
           LOCAL                   ADDRESS         
           =====                   =======         
           P_0_S                   0000468C 
    -------------------------------------------------------------------------
CODE
  Relative segment, address: CODE 00004692 - 000046FD (0x6c bytes), align: 1
  Segment part 7.             Intra module refs:   P_0_S
           LOCAL                   ADDRESS         
           =====                   =======         
           CHECK_LOW_LIMIT         00004692 

    -------------------------------------------------------------------------
  LIBRARY MODULE, NAME : ?PROLOGUE_L09

  SEGMENTS IN THE MODULE
  ======================
CODE
  Relative segment, address: CODE 000046FE - 000046FF (0x2 bytes), align: 1
  Segment part 0.
           ENTRY                   ADDRESS         REF BY
           =====                   =======         ======
           ?PROLOGUE16_L09         000046FE        CHammingCodes::HammingCodesToBytes(uint8_t *, uint8_t *, uint16_t) (HammingCodes)
                                                   CModbus::Programming(uint8_t *, uint8_t *, uint16_t) (modbus)
    -------------------------------------------------------------------------
CODE
  Relative segment, address: CODE 00004700 - 00004701 (0x2 bytes), align: 1
  Segment part 1.             Intra module refs:   ?PROLOGUE16_L09
           ENTRY                   ADDRESS         REF BY
           =====                   =======         ======
           ?PROLOGUE15_L09         00004700 
    -------------------------------------------------------------------------
CODE
  Relative segment, address: CODE 00004702 - 00004703 (0x2 bytes), align: 1
  Segment part 2.             Intra module refs:   ?PROLOGUE15_L09
           ENTRY                   ADDRESS         REF BY
           =====                   =======         ======
           ?PROLOGUE14_L09         00004702        CHammingCodes::BytesToHammingCodes(uint8_t *, uint8_t *, uint16_t) (HammingCodes)
                                                   __near_array_delete_general(void *, __near_size_t, __near_size_t, __near_destructor_ptr, __near_delete_ptr, int) (?vec_newdel)
                                                   __near_array_new_general(void *, __near_size_t, __near_size_t, void *, __near_constructor_ptr, __near_destructor_ptr, __near_new_ptr, __near_delete_ptr, int, int) (?vec_newdel)
    -------------------------------------------------------------------------
CODE
  Relative segment, address: CODE 00004704 - 00004705 (0x2 bytes), align: 1
  Segment part 3.             Intra module refs:   ?PROLOGUE14_L09
           ENTRY                   ADDRESS         REF BY
           =====                   =======         ======
           ?PROLOGUE13_L09         00004704 
    -------------------------------------------------------------------------
CODE
  Relative segment, address: CODE 00004706 - 00004707 (0x2 bytes), align: 1
  Segment part 4.             Intra module refs:   ?PROLOGUE13_L09
           ENTRY                   ADDRESS         REF BY
           =====                   =======         ======
           ?PROLOGUE12_L09         00004706        CModbus::Reply(uint8_t *, uint8_t *, uint16_t) (modbus)
    -------------------------------------------------------------------------
CODE
  Relative segment, address: CODE 00004708 - 00004709 (0x2 bytes), align: 1
  Segment part 5.             Intra module refs:   ?PROLOGUE12_L09
           ENTRY                   ADDRESS         REF BY
           =====                   =======         ======
           ?PROLOGUE11_L09         00004708        __call_ctors (?cppinit)
    -------------------------------------------------------------------------
CODE
  Relative segment, address: CODE 0000470A - 0000470B (0x2 bytes), align: 1
  Segment part 6.             Intra module refs:   ?PROLOGUE11_L09
           ENTRY                   ADDRESS         REF BY
           =====                   =======         ======
           ?PROLOGUE10_L09         0000470A        ?Subroutine25 (modbus)
    -------------------------------------------------------------------------
CODE
  Relative segment, address: CODE 0000470C - 0000470D (0x2 bytes), align: 1
  Segment part 7.             Intra module refs:   ?PROLOGUE10_L09
           ENTRY                   ADDRESS         REF BY
           =====                   =======         ======
           ?PROLOGUE9_L09          0000470C 
    -------------------------------------------------------------------------
CODE
  Relative segment, address: CODE 0000470E - 0000470F (0x2 bytes), align: 1
  Segment part 8.             Intra module refs:   ?PROLOGUE9_L09
           ENTRY                   ADDRESS         REF BY
           =====                   =======         ======
           ?PROLOGUE8_L09          0000470E        ?Subroutine27 (modbus)
                                                   CModbusRTU::Init(CUart *, uint32_t, char, uint8_t, uint8_t, uint8_t *, uint8_t *, uint8_t *, uint8_t *, uint16_t *, uint16_t *, uint16_t, uint16_t, uint16_t, uint16_t) (ModbusRTU)
    -------------------------------------------------------------------------
CODE
  Relative segment, address: CODE 00004710 - 00004711 (0x2 bytes), align: 1
  Segment part 9.             Intra module refs:   ?PROLOGUE8_L09
           ENTRY                   ADDRESS         REF BY
           =====                   =======         ======
           ?PROLOGUE7_L09          00004710        CDataStore::ReadBlock(uint8_t *, uint8_t) (DataStore)
    -------------------------------------------------------------------------
CODE
  Relative segment, address: CODE 00004712 - 00004713 (0x2 bytes), align: 1
  Segment part 10.            Intra module refs:   ?PROLOGUE7_L09
           ENTRY                   ADDRESS         REF BY
           =====                   =======         ======
           ?PROLOGUE6_L09          00004712        ?Subroutine37 (modbus)
                                                   CDataStore::Check() (DataStore)
                                                   CDataStore::Write(uint8_t *, uint16_t, uint8_t) (DataStore)
                                                   CFlash::ReadBlock(uint8_t *, uint8_t) (Platform)
                                                   CModbusRTU::CModbusRTU() (ModbusRTU)
                                                   CModbusRTU::FrameCheck(uint8_t *, uint16_t) (ModbusRTU)
    -------------------------------------------------------------------------
CODE
  Relative segment, address: CODE 00004714 - 00004715 (0x2 bytes), align: 1
  Segment part 11.            Intra module refs:   ?PROLOGUE6_L09
           ENTRY                   ADDRESS         REF BY
           =====                   =======         ======
           ?PROLOGUE5_L09          00004714        ?Subroutine18 (Alarm)
                                                   CPss21::CreateDevices() (Pss21)
                                                   CPss21::SearchModules() (Pss21)
    -------------------------------------------------------------------------
CODE
  Relative segment, address: CODE 00004716 - 00004717 (0x2 bytes), align: 1
  Segment part 12.            Intra module refs:   ?PROLOGUE5_L09
           ENTRY                   ADDRESS         REF BY
           =====                   =======         ======
           ?PROLOGUE4_L09          00004716        ?Subroutine17 (ModbusRTU)
                                                   ?Subroutine17 (Platform)
                                                   ?Subroutine2 (Event)
                                                   ?Subroutine2 (Pixel)
                                                   ?Subroutine22 (NotifyerControl)
                                                   ?Subroutine44 (Pss21)
                                                   ?Subroutine6 (InputDevice)
                                                   CLightBoard::Set(CAlarmWindow *) (LightBoard)
                                                   CLinkControl::~CLinkControl() (LinkControl)
                                                   CModbus::ResponseException(uint8_t, uint8_t, uint8_t, uint8_t *) (modbus)
                                                   CModbus::SendMessage(uint8_t *, uint16_t) (modbus)
                                                   CModuleMrXXDriver::CModuleMrXXDriver(uint8_t) (ModuleMrXX)
                                                   CModuleMrXXDriver::Exchange() (ModuleMrXX)
                                                   CMultiFunctionKey::CMultiFunctionKey(uint8_t (__version_3 *)()) (InputDevice)
                                                   CMvsn21Driver::CMvsn21Driver(uint8_t) (Mvsn21)
                                                   CMvsn21Driver::DataExchange() (Mvsn21)
                                                   __near_findmem (?xxmemxmalloc)
                                                   malloc (?xxmemxmalloc)
    -------------------------------------------------------------------------
CODE
  Relative segment, address: CODE 00004718 - 00004719 (0x2 bytes), align: 1
  Segment part 13.            Intra module refs:   ?PROLOGUE4_L09
           ENTRY                   ADDRESS         REF BY
           =====                   =======         ======
           ?PROLOGUE3_L09          00004718        ?Subroutine27 (Alarm)
                                                   CDm163::SetBank0(uint8_t) (Dm163)
                                                   CDm163::SetBank1(uint8_t) (Dm163)
                                                   CEvent::~CEvent() (Event)
                                                   CModbus::~CModbus() (modbus)
                                                   CModbusRTU::~CModbusRTU() (ModbusRTU)
                                                   CModbusRtuLinkControl::~CModbusRtuLinkControl() (LinkControl)
                                                   CModuleMrXXDriver::~CModuleMrXXDriver() (ModuleMrXX)
                                                   CMvsn21Driver::~CMvsn21Driver() (Mvsn21)
    -------------------------------------------------------------------------
CODE
  Relative segment, address: CODE 0000471A - 0000471B (0x2 bytes), align: 1
  Segment part 14.            Intra module refs:   ?PROLOGUE3_L09
           ENTRY                   ADDRESS         REF BY
           =====                   =======         ======
           ?PROLOGUE2_L09          0000471A 
    -------------------------------------------------------------------------
CODE
  Relative segment, address: CODE 0000471C - 0000471D (0x2 bytes), align: 1
  Segment part 15.            Intra module refs:   ?PROLOGUE2_L09
           ENTRY                   ADDRESS         REF BY
           =====                   =======         ======
           ?PROLOGUE1_L09          0000471C 
    -------------------------------------------------------------------------
CODE
  Relative segment, address: CODE 0000471E - 0000471F (0x2 bytes), align: 1
  Segment part 16.            Intra module refs:   ?PROLOGUE1_L09

    -------------------------------------------------------------------------
  LIBRARY MODULE, NAME : ?EPILOGUE_B_L09

  SEGMENTS IN THE MODULE
  ======================
CODE
  Relative segment, address: CODE 00004720 - 00004721 (0x2 bytes), align: 1
  Segment part 0.
           ENTRY                   ADDRESS         REF BY
           =====                   =======         ======
           ?EPILOGUE_B16_L09       00004720        CHammingCodes::HammingCodesToBytes(uint8_t *, uint8_t *, uint16_t) (HammingCodes)
                                                   CModbus::Programming(uint8_t *, uint8_t *, uint16_t) (modbus)
    -------------------------------------------------------------------------
CODE
  Relative segment, address: CODE 00004722 - 00004723 (0x2 bytes), align: 1
  Segment part 1.             Intra module refs:   ?EPILOGUE_B16_L09
           ENTRY                   ADDRESS         REF BY
           =====                   =======         ======
           ?EPILOGUE_B15_L09       00004722 
    -------------------------------------------------------------------------
CODE
  Relative segment, address: CODE 00004724 - 00004725 (0x2 bytes), align: 1
  Segment part 2.             Intra module refs:   ?EPILOGUE_B15_L09
           ENTRY                   ADDRESS         REF BY
           =====                   =======         ======
           ?EPILOGUE_B14_L09       00004724        CHammingCodes::BytesToHammingCodes(uint8_t *, uint8_t *, uint16_t) (HammingCodes)
                                                   Segment part 15 (?vec_newdel)
    -------------------------------------------------------------------------
CODE
  Relative segment, address: CODE 00004726 - 00004727 (0x2 bytes), align: 1
  Segment part 3.             Intra module refs:   ?EPILOGUE_B14_L09
           ENTRY                   ADDRESS         REF BY
           =====                   =======         ======
           ?EPILOGUE_B13_L09       00004726 
    -------------------------------------------------------------------------
CODE
  Relative segment, address: CODE 00004728 - 00004729 (0x2 bytes), align: 1
  Segment part 4.             Intra module refs:   ?EPILOGUE_B13_L09
           ENTRY                   ADDRESS         REF BY
           =====                   =======         ======
           ?EPILOGUE_B12_L09       00004728        CModbus::Reply(uint8_t *, uint8_t *, uint16_t) (modbus)
    -------------------------------------------------------------------------
CODE
  Relative segment, address: CODE 0000472A - 0000472B (0x2 bytes), align: 1
  Segment part 5.             Intra module refs:   ?EPILOGUE_B12_L09
           ENTRY                   ADDRESS         REF BY
           =====                   =======         ======
           ?EPILOGUE_B11_L09       0000472A        __call_ctors (?cppinit)
    -------------------------------------------------------------------------
CODE
  Relative segment, address: CODE 0000472C - 0000472D (0x2 bytes), align: 1
  Segment part 6.             Intra module refs:   ?EPILOGUE_B11_L09
           ENTRY                   ADDRESS         REF BY
           =====                   =======         ======
           ?EPILOGUE_B10_L09       0000472C        Segment part 166 (modbus)
    -------------------------------------------------------------------------
CODE
  Relative segment, address: CODE 0000472E - 0000472F (0x2 bytes), align: 1
  Segment part 7.             Intra module refs:   ?EPILOGUE_B10_L09
           ENTRY                   ADDRESS         REF BY
           =====                   =======         ======
           ?EPILOGUE_B9_L09        0000472E 
    -------------------------------------------------------------------------
CODE
  Relative segment, address: CODE 00004730 - 00004731 (0x2 bytes), align: 1
  Segment part 8.             Intra module refs:   ?EPILOGUE_B9_L09
           ENTRY                   ADDRESS         REF BY
           =====                   =======         ======
           ?EPILOGUE_B8_L09        00004730        CModbusRTU::Init(CUart *, uint32_t, char, uint8_t, uint8_t, uint8_t *, uint8_t *, uint8_t *, uint8_t *, uint16_t *, uint16_t *, uint16_t, uint16_t, uint16_t, uint16_t) (ModbusRTU)
                                                   Segment part 121 (modbus)
    -------------------------------------------------------------------------
CODE
  Relative segment, address: CODE 00004732 - 00004733 (0x2 bytes), align: 1
  Segment part 9.             Intra module refs:   ?EPILOGUE_B8_L09
           ENTRY                   ADDRESS         REF BY
           =====                   =======         ======
           ?EPILOGUE_B7_L09        00004732        CDataStore::ReadBlock(uint8_t *, uint8_t) (DataStore)
    -------------------------------------------------------------------------
CODE
  Relative segment, address: CODE 00004734 - 00004735 (0x2 bytes), align: 1
  Segment part 10.            Intra module refs:   ?EPILOGUE_B7_L09
           ENTRY                   ADDRESS         REF BY
           =====                   =======         ======
           ?EPILOGUE_B6_L09        00004734        ?Subroutine14 (DataStore)
                                                   ?Subroutine40 (ModbusRTU)
                                                   CFlash::ReadBlock(uint8_t *, uint8_t) (Platform)
                                                   Segment part 178 (modbus)
    -------------------------------------------------------------------------
CODE
  Relative segment, address: CODE 00004736 - 00004737 (0x2 bytes), align: 1
  Segment part 11.            Intra module refs:   ?EPILOGUE_B6_L09
           ENTRY                   ADDRESS         REF BY
           =====                   =======         ======
           ?EPILOGUE_B5_L09        00004736        ?Subroutine37 (Alarm)
                                                   ?Subroutine92 (Pss21)
    -------------------------------------------------------------------------
CODE
  Relative segment, address: CODE 00004738 - 00004739 (0x2 bytes), align: 1
  Segment part 12.            Intra module refs:   ?EPILOGUE_B5_L09
           ENTRY                   ADDRESS         REF BY
           =====                   =======         ======
           ?EPILOGUE_B4_L09        00004738        ?Subroutine0 (Mvsn21)
                                                   ?Subroutine11 (ModuleMrXX)
                                                   ?Subroutine13 (InputDevice)
                                                   ?Subroutine38 (Platform)
                                                   ?Subroutine53 (ModbusRTU)
                                                   ?Subroutine6 (Pixel)
                                                   ?Subroutine62 (modbus)
                                                   ?Subroutine7 (Event)
                                                   ?Subroutine93 (Pss21)
                                                   CLightBoard::Set(CAlarmWindow *) (LightBoard)
                                                   CLinkControl::~CLinkControl() (LinkControl)
                                                   Segment part 160 (NotifyerControl)
                                                   Segment part 6 (?xxmemxmalloc)
    -------------------------------------------------------------------------
CODE
  Relative segment, address: CODE 0000473A - 0000473B (0x2 bytes), align: 1
  Segment part 13.            Intra module refs:   ?EPILOGUE_B4_L09
           ENTRY                   ADDRESS         REF BY
           =====                   =======         ======
           ?EPILOGUE_B3_L09        0000473A        ?Subroutine6 (Dm163)
                                                   CEvent::~CEvent() (Event)
                                                   CModbus::~CModbus() (modbus)
                                                   CModbusRTU::~CModbusRTU() (ModbusRTU)
                                                   CModbusRtuLinkControl::~CModbusRtuLinkControl() (LinkControl)
                                                   CModuleMrXXDriver::~CModuleMrXXDriver() (ModuleMrXX)
                                                   CMvsn21Driver::~CMvsn21Driver() (Mvsn21)
                                                   Segment part 150 (Alarm)
    -------------------------------------------------------------------------
CODE
  Relative segment, address: CODE 0000473C - 0000473D (0x2 bytes), align: 1
  Segment part 14.            Intra module refs:   ?EPILOGUE_B3_L09
           ENTRY                   ADDRESS         REF BY
           =====                   =======         ======
           ?EPILOGUE_B2_L09        0000473C 
    -------------------------------------------------------------------------
CODE
  Relative segment, address: CODE 0000473E - 0000473F (0x2 bytes), align: 1
  Segment part 15.            Intra module refs:   ?EPILOGUE_B2_L09
           ENTRY                   ADDRESS         REF BY
           =====                   =======         ======
           ?EPILOGUE_B1_L09        0000473E 
    -------------------------------------------------------------------------
CODE
  Relative segment, address: CODE 00004740 - 00004749 (0xa bytes), align: 1
  Segment part 16.            Intra module refs:   ?EPILOGUE_B1_L09
           ENTRY                   ADDRESS         REF BY
           =====                   =======         ======
           ?EPILOGUE_B0_L09        00004740 

    -------------------------------------------------------------------------
  LIBRARY MODULE, NAME : ?REGISTER_CGREGR4_L10

  SEGMENTS IN THE MODULE
  ======================
CODE
  Relative segment, address: CODE 0000474A, align: 1
  Segment part 0.
           ENTRY                   ADDRESS         REF BY
           =====                   =======         ======
           ?Register_R4_is_cg_reg
                                   0000474A        CAlarmDfa::Fsm() (Alarm)
                                                   CDataStore::Check() (DataStore)
                                                   CDataStore::ReadBlock(uint8_t *, uint8_t) (DataStore)
                                                   CDataStore::Write(uint8_t *, uint16_t, uint8_t) (DataStore)
                                                   CErrorAlarmDfa::Fsm() (Alarm)
                                                   CFlash::ReadBlock(uint8_t *, uint8_t) (Platform)
                                                   CHammingCodes::BytesToHammingCodes(uint8_t *, uint8_t *, uint16_t) (HammingCodes)
                                                   CHammingCodes::HammingCodesToBytes(uint8_t *, uint8_t *, uint16_t) (HammingCodes)
                                                   CIndicationAlarmLowLevelDfa::Fsm() (Alarm)
                                                   CModbus::ByteToBitPack(uint16_t, uint16_t, uint8_t *, uint8_t *, uint16_t) (modbus)
                                                   CModbus::PollProgramming(uint8_t *, uint8_t *, uint16_t) (modbus)
                                                   CModbus::Programming(uint8_t *, uint8_t *, uint16_t) (modbus)
                                                   CModbus::ReadCoils(uint8_t *, uint8_t *, uint16_t) (modbus)
                                                   CModbus::ReadDiscreteInputs(uint8_t *, uint8_t *, uint16_t) (modbus)
                                                   CModbus::ReadHoldingRegisters(uint8_t *, uint8_t *, uint16_t) (modbus)
                                                   CModbus::ReadInputRegisters(uint8_t *, uint8_t *, uint16_t) (modbus)
                                                   CModbus::ReceiveMessage(uint8_t *, uint16_t) (modbus)
                                                   CModbus::Reply(uint8_t *, uint8_t *, uint16_t) (modbus)
                                                   CModbus::ReportSlaveID(uint8_t *, uint8_t *, uint16_t) (modbus)
                                                   CModbus::WriteMultipleCoils(uint8_t *, uint8_t *, uint16_t) (modbus)
                                                   CModbus::WriteMultipleRegisters(uint8_t *, uint8_t *, uint16_t) (modbus)
                                                   CModbus::WriteSingleCoil(uint8_t *, uint8_t *, uint16_t) (modbus)
                                                   CModbus::WriteSingleRegister(uint8_t *, uint8_t *, uint16_t) (modbus)
                                                   CModbusRTU::CModbusRTU() (ModbusRTU)
                                                   CModbusRTU::FrameCheck(uint8_t *, uint16_t) (ModbusRTU)
                                                   CModbusRTU::Init(CUart *, uint32_t, char, uint8_t, uint8_t, uint8_t *, uint8_t *, uint8_t *, uint8_t *, uint16_t *, uint16_t *, uint16_t, uint16_t, uint16_t, uint16_t) (ModbusRTU)
                                                   CPss21::CreateDevices() (Pss21)
                                                   CPss21::SearchModules() (Pss21)
                                                   __call_ctors (?cppinit)
                                                   __near_array_delete_general(void *, __near_size_t, __near_size_t, __near_destructor_ptr, __near_delete_ptr, int) (?vec_newdel)
                                                   __near_array_new_general(void *, __near_size_t, __near_size_t, void *, __near_constructor_ptr, __near_destructor_ptr, __near_new_ptr, __near_delete_ptr, int, int) (?vec_newdel)

    -------------------------------------------------------------------------
  LIBRARY MODULE, NAME : ?REGISTER_CGREGR5_L10

  SEGMENTS IN THE MODULE
  ======================
CODE
  Relative segment, address: CODE 0000474A, align: 1
  Segment part 0.
           ENTRY                   ADDRESS         REF BY
           =====                   =======         ======
           ?Register_R5_is_cg_reg
                                   0000474A        CDataStore::Check() (DataStore)
                                                   CDataStore::ReadBlock(uint8_t *, uint8_t) (DataStore)
                                                   CDataStore::Write(uint8_t *, uint16_t, uint8_t) (DataStore)
                                                   CFlash::ReadBlock(uint8_t *, uint8_t) (Platform)
                                                   CHammingCodes::BytesToHammingCodes(uint8_t *, uint8_t *, uint16_t) (HammingCodes)
                                                   CHammingCodes::HammingCodesToBytes(uint8_t *, uint8_t *, uint16_t) (HammingCodes)
                                                   CModbus::ByteToBitPack(uint16_t, uint16_t, uint8_t *, uint8_t *, uint16_t) (modbus)
                                                   CModbus::PollProgramming(uint8_t *, uint8_t *, uint16_t) (modbus)
                                                   CModbus::Programming(uint8_t *, uint8_t *, uint16_t) (modbus)
                                                   CModbus::ReadCoils(uint8_t *, uint8_t *, uint16_t) (modbus)
                                                   CModbus::ReadDiscreteInputs(uint8_t *, uint8_t *, uint16_t) (modbus)
                                                   CModbus::ReadHoldingRegisters(uint8_t *, uint8_t *, uint16_t) (modbus)
                                                   CModbus::ReadInputRegisters(uint8_t *, uint8_t *, uint16_t) (modbus)
                                                   CModbus::ReceiveMessage(uint8_t *, uint16_t) (modbus)
                                                   CModbus::Reply(uint8_t *, uint8_t *, uint16_t) (modbus)
                                                   CModbus::ReportSlaveID(uint8_t *, uint8_t *, uint16_t) (modbus)
                                                   CModbus::WriteMultipleCoils(uint8_t *, uint8_t *, uint16_t) (modbus)
                                                   CModbus::WriteMultipleRegisters(uint8_t *, uint8_t *, uint16_t) (modbus)
                                                   CModbus::WriteSingleCoil(uint8_t *, uint8_t *, uint16_t) (modbus)
                                                   CModbus::WriteSingleRegister(uint8_t *, uint8_t *, uint16_t) (modbus)
                                                   CModbusRTU::CModbusRTU() (ModbusRTU)
                                                   CModbusRTU::FrameCheck(uint8_t *, uint16_t) (ModbusRTU)
                                                   CModbusRTU::Init(CUart *, uint32_t, char, uint8_t, uint8_t, uint8_t *, uint8_t *, uint8_t *, uint8_t *, uint16_t *, uint16_t *, uint16_t, uint16_t, uint16_t, uint16_t) (ModbusRTU)
                                                   __call_ctors (?cppinit)
                                                   __near_array_delete_general(void *, __near_size_t, __near_size_t, __near_destructor_ptr, __near_delete_ptr, int) (?vec_newdel)
                                                   __near_array_new_general(void *, __near_size_t, __near_size_t, void *, __near_constructor_ptr, __near_destructor_ptr, __near_new_ptr, __near_delete_ptr, int, int) (?vec_newdel)

    -------------------------------------------------------------------------
  LIBRARY MODULE, NAME : ?REGISTER_CGREGR6_L10

  SEGMENTS IN THE MODULE
  ======================
CODE
  Relative segment, address: CODE 0000474A, align: 1
  Segment part 0.
           ENTRY                   ADDRESS         REF BY
           =====                   =======         ======
           ?Register_R6_is_cg_reg
                                   0000474A        CDataStore::ReadBlock(uint8_t *, uint8_t) (DataStore)
                                                   CHammingCodes::BytesToHammingCodes(uint8_t *, uint8_t *, uint16_t) (HammingCodes)
                                                   CHammingCodes::HammingCodesToBytes(uint8_t *, uint8_t *, uint16_t) (HammingCodes)
                                                   CModbus::ByteToBitPack(uint16_t, uint16_t, uint8_t *, uint8_t *, uint16_t) (modbus)
                                                   CModbus::Programming(uint8_t *, uint8_t *, uint16_t) (modbus)
                                                   CModbus::ReadCoils(uint8_t *, uint8_t *, uint16_t) (modbus)
                                                   CModbus::ReadDiscreteInputs(uint8_t *, uint8_t *, uint16_t) (modbus)
                                                   CModbus::ReadHoldingRegisters(uint8_t *, uint8_t *, uint16_t) (modbus)
                                                   CModbus::ReadInputRegisters(uint8_t *, uint8_t *, uint16_t) (modbus)
                                                   CModbus::ReceiveMessage(uint8_t *, uint16_t) (modbus)
                                                   CModbus::Reply(uint8_t *, uint8_t *, uint16_t) (modbus)
                                                   CModbus::WriteMultipleCoils(uint8_t *, uint8_t *, uint16_t) (modbus)
                                                   CModbus::WriteMultipleRegisters(uint8_t *, uint8_t *, uint16_t) (modbus)
                                                   CModbus::WriteSingleCoil(uint8_t *, uint8_t *, uint16_t) (modbus)
                                                   CModbus::WriteSingleRegister(uint8_t *, uint8_t *, uint16_t) (modbus)
                                                   CModbusRTU::Init(CUart *, uint32_t, char, uint8_t, uint8_t, uint8_t *, uint8_t *, uint8_t *, uint8_t *, uint16_t *, uint16_t *, uint16_t, uint16_t, uint16_t, uint16_t) (ModbusRTU)
                                                   __call_ctors (?cppinit)
                                                   __near_array_delete_general(void *, __near_size_t, __near_size_t, __near_destructor_ptr, __near_delete_ptr, int) (?vec_newdel)
                                                   __near_array_new_general(void *, __near_size_t, __near_size_t, void *, __near_constructor_ptr, __near_destructor_ptr, __near_new_ptr, __near_delete_ptr, int, int) (?vec_newdel)

    -------------------------------------------------------------------------
  LIBRARY MODULE, NAME : ?REGISTER_CGREGR7_L10

  SEGMENTS IN THE MODULE
  ======================
CODE
  Relative segment, address: CODE 0000474A, align: 1
  Segment part 0.
           ENTRY                   ADDRESS         REF BY
           =====                   =======         ======
           ?Register_R7_is_cg_reg
                                   0000474A        CHammingCodes::BytesToHammingCodes(uint8_t *, uint8_t *, uint16_t) (HammingCodes)
                                                   CHammingCodes::HammingCodesToBytes(uint8_t *, uint8_t *, uint16_t) (HammingCodes)
                                                   CModbus::Programming(uint8_t *, uint8_t *, uint16_t) (modbus)
                                                   CModbus::ReadCoils(uint8_t *, uint8_t *, uint16_t) (modbus)
                                                   CModbus::ReadDiscreteInputs(uint8_t *, uint8_t *, uint16_t) (modbus)
                                                   CModbus::ReadHoldingRegisters(uint8_t *, uint8_t *, uint16_t) (modbus)
                                                   CModbus::ReadInputRegisters(uint8_t *, uint8_t *, uint16_t) (modbus)
                                                   CModbus::Reply(uint8_t *, uint8_t *, uint16_t) (modbus)
                                                   CModbus::WriteMultipleCoils(uint8_t *, uint8_t *, uint16_t) (modbus)
                                                   CModbus::WriteMultipleRegisters(uint8_t *, uint8_t *, uint16_t) (modbus)
                                                   CModbus::WriteSingleCoil(uint8_t *, uint8_t *, uint16_t) (modbus)
                                                   CModbus::WriteSingleRegister(uint8_t *, uint8_t *, uint16_t) (modbus)
                                                   CModbusRTU::Init(CUart *, uint32_t, char, uint8_t, uint8_t, uint8_t *, uint8_t *, uint8_t *, uint8_t *, uint16_t *, uint16_t *, uint16_t, uint16_t, uint16_t, uint16_t) (ModbusRTU)
                                                   __call_ctors (?cppinit)
                                                   __near_array_delete_general(void *, __near_size_t, __near_size_t, __near_destructor_ptr, __near_delete_ptr, int) (?vec_newdel)
                                                   __near_array_new_general(void *, __near_size_t, __near_size_t, void *, __near_constructor_ptr, __near_destructor_ptr, __near_new_ptr, __near_delete_ptr, int, int) (?vec_newdel)

    -------------------------------------------------------------------------
  LIBRARY MODULE, NAME : ?REGISTER_CGREGR8_L10

  SEGMENTS IN THE MODULE
  ======================
CODE
  Relative segment, address: CODE 0000474A, align: 1
  Segment part 0.
           ENTRY                   ADDRESS         REF BY
           =====                   =======         ======
           ?Register_R8_is_cg_reg
                                   0000474A        CHammingCodes::BytesToHammingCodes(uint8_t *, uint8_t *, uint16_t) (HammingCodes)
                                                   CHammingCodes::HammingCodesToBytes(uint8_t *, uint8_t *, uint16_t) (HammingCodes)
                                                   CModbus::ByteToBitPack(uint16_t, uint16_t, uint8_t *, uint8_t *, uint16_t) (modbus)
                                                   CModbus::Programming(uint8_t *, uint8_t *, uint16_t) (modbus)
                                                   CModbus::ReceiveMessage(uint8_t *, uint16_t) (modbus)
                                                   CModbus::Reply(uint8_t *, uint8_t *, uint16_t) (modbus)
                                                   CModbus::WriteMultipleRegisters(uint8_t *, uint8_t *, uint16_t) (modbus)
                                                   __call_ctors (?cppinit)
                                                   __near_array_delete_general(void *, __near_size_t, __near_size_t, __near_destructor_ptr, __near_delete_ptr, int) (?vec_newdel)
                                                   __near_array_new_general(void *, __near_size_t, __near_size_t, void *, __near_constructor_ptr, __near_destructor_ptr, __near_new_ptr, __near_delete_ptr, int, int) (?vec_newdel)

    -------------------------------------------------------------------------
  LIBRARY MODULE, NAME : ?REGISTER_CGREGR9_L10

  SEGMENTS IN THE MODULE
  ======================
CODE
  Relative segment, address: CODE 0000474A, align: 1
  Segment part 0.
           ENTRY                   ADDRESS         REF BY
           =====                   =======         ======
           ?Register_R9_is_cg_reg
                                   0000474A        CHammingCodes::BytesToHammingCodes(uint8_t *, uint8_t *, uint16_t) (HammingCodes)
                                                   CHammingCodes::HammingCodesToBytes(uint8_t *, uint8_t *, uint16_t) (HammingCodes)
                                                   CModbus::ByteToBitPack(uint16_t, uint16_t, uint8_t *, uint8_t *, uint16_t) (modbus)
                                                   CModbus::Programming(uint8_t *, uint8_t *, uint16_t) (modbus)
                                                   CModbus::ReceiveMessage(uint8_t *, uint16_t) (modbus)
                                                   CModbus::WriteMultipleRegisters(uint8_t *, uint8_t *, uint16_t) (modbus)
                                                   __call_ctors (?cppinit)
                                                   __near_array_delete_general(void *, __near_size_t, __near_size_t, __near_destructor_ptr, __near_delete_ptr, int) (?vec_newdel)
                                                   __near_array_new_general(void *, __near_size_t, __near_size_t, void *, __near_constructor_ptr, __near_destructor_ptr, __near_new_ptr, __near_delete_ptr, int, int) (?vec_newdel)

    -------------------------------------------------------------------------
  LIBRARY MODULE, NAME : ?REGISTER_CGREGR10_L10

  SEGMENTS IN THE MODULE
  ======================
CODE
  Relative segment, address: CODE 0000474A, align: 1
  Segment part 0.
           ENTRY                   ADDRESS         REF BY
           =====                   =======         ======
           ?Register_R10_is_cg_reg
                                   0000474A        CHammingCodes::BytesToHammingCodes(uint8_t *, uint8_t *, uint16_t) (HammingCodes)
                                                   CHammingCodes::HammingCodesToBytes(uint8_t *, uint8_t *, uint16_t) (HammingCodes)
                                                   CModbus::Programming(uint8_t *, uint8_t *, uint16_t) (modbus)
                                                   CModbus::Reply(uint8_t *, uint8_t *, uint16_t) (modbus)
                                                   __call_ctors (?cppinit)
                                                   __near_array_delete_general(void *, __near_size_t, __near_size_t, __near_destructor_ptr, __near_delete_ptr, int) (?vec_newdel)
                                                   __near_array_new_general(void *, __near_size_t, __near_size_t, void *, __near_constructor_ptr, __near_destructor_ptr, __near_new_ptr, __near_delete_ptr, int, int) (?vec_newdel)

    -------------------------------------------------------------------------
  LIBRARY MODULE, NAME : ?REGISTER_CGREGR11_L10

  SEGMENTS IN THE MODULE
  ======================
CODE
  Relative segment, address: CODE 0000474A, align: 1
  Segment part 0.
           ENTRY                   ADDRESS         REF BY
           =====                   =======         ======
           ?Register_R11_is_cg_reg
                                   0000474A        CHammingCodes::BytesToHammingCodes(uint8_t *, uint8_t *, uint16_t) (HammingCodes)
                                                   CHammingCodes::HammingCodesToBytes(uint8_t *, uint8_t *, uint16_t) (HammingCodes)
                                                   CModbus::Programming(uint8_t *, uint8_t *, uint16_t) (modbus)
                                                   CModbus::Reply(uint8_t *, uint8_t *, uint16_t) (modbus)
                                                   __near_array_delete_general(void *, __near_size_t, __near_size_t, __near_destructor_ptr, __near_delete_ptr, int) (?vec_newdel)
                                                   __near_array_new_general(void *, __near_size_t, __near_size_t, void *, __near_constructor_ptr, __near_destructor_ptr, __near_new_ptr, __near_delete_ptr, int, int) (?vec_newdel)

    -------------------------------------------------------------------------
  LIBRARY MODULE, NAME : ?REGISTER_CGREGR12_L10

  SEGMENTS IN THE MODULE
  ======================
CODE
  Relative segment, address: CODE 0000474A, align: 1
  Segment part 0.
           ENTRY                   ADDRESS         REF BY
           =====                   =======         ======
           ?Register_R12_is_cg_reg
                                   0000474A        CHammingCodes::BytesToHammingCodes(uint8_t *, uint8_t *, uint16_t) (HammingCodes)
                                                   CHammingCodes::HammingCodesToBytes(uint8_t *, uint8_t *, uint16_t) (HammingCodes)
                                                   CModbus::Programming(uint8_t *, uint8_t *, uint16_t) (modbus)
                                                   __near_array_delete_general(void *, __near_size_t, __near_size_t, __near_destructor_ptr, __near_delete_ptr, int) (?vec_newdel)
                                                   __near_array_new_general(void *, __near_size_t, __near_size_t, void *, __near_constructor_ptr, __near_destructor_ptr, __near_new_ptr, __near_delete_ptr, int, int) (?vec_newdel)

    -------------------------------------------------------------------------
  LIBRARY MODULE, NAME : ?REGISTER_CGREGR13_L10

  SEGMENTS IN THE MODULE
  ======================
CODE
  Relative segment, address: CODE 0000474A, align: 1
  Segment part 0.
           ENTRY                   ADDRESS         REF BY
           =====                   =======         ======
           ?Register_R13_is_cg_reg
                                   0000474A        CHammingCodes::BytesToHammingCodes(uint8_t *, uint8_t *, uint16_t) (HammingCodes)
                                                   CHammingCodes::HammingCodesToBytes(uint8_t *, uint8_t *, uint16_t) (HammingCodes)
                                                   __near_array_delete_general(void *, __near_size_t, __near_size_t, __near_destructor_ptr, __near_delete_ptr, int) (?vec_newdel)
                                                   __near_array_new_general(void *, __near_size_t, __near_size_t, void *, __near_constructor_ptr, __near_destructor_ptr, __near_new_ptr, __near_delete_ptr, int, int) (?vec_newdel)

    -------------------------------------------------------------------------
  LIBRARY MODULE, NAME : ?REGISTER_CGREGR14_L10

  SEGMENTS IN THE MODULE
  ======================
CODE
  Relative segment, address: CODE 0000474A, align: 1
  Segment part 0.
           ENTRY                   ADDRESS         REF BY
           =====                   =======         ======
           ?Register_R14_is_cg_reg
                                   0000474A        CHammingCodes::HammingCodesToBytes(uint8_t *, uint8_t *, uint16_t) (HammingCodes)
                                                   CModbus::Programming(uint8_t *, uint8_t *, uint16_t) (modbus)

    -------------------------------------------------------------------------
  LIBRARY MODULE, NAME : ?REGISTER_CGREGR15_L10

  SEGMENTS IN THE MODULE
  ======================
CODE
  Relative segment, address: CODE 0000474A, align: 1
  Segment part 0.
           ENTRY                   ADDRESS         REF BY
           =====                   =======         ======
           ?Register_R15_is_cg_reg
                                   0000474A        CHammingCodes::HammingCodesToBytes(uint8_t *, uint8_t *, uint16_t) (HammingCodes)
                                                   CModbus::Programming(uint8_t *, uint8_t *, uint16_t) (modbus)

    -------------------------------------------------------------------------
  LIBRARY MODULE, NAME : ?low_level_init

  SEGMENTS IN THE MODULE
  ======================
CODE
  Relative segment, address: CODE 0000474A - 0000474D (0x4 bytes), align: 1
  Segment part 3.
           ENTRY                   ADDRESS         REF BY
           =====                   =======         ======
           __low_level_init        0000474A        ?call_low_level_init (?C_STARTUP)

    -------------------------------------------------------------------------
  LIBRARY MODULE, NAME : ?memcpy

  SEGMENTS IN THE MODULE
  ======================
CODE
  Relative segment, address: CODE 0000474E - 0000476D (0x20 bytes), align: 1
  Segment part 3.
           ENTRY                   ADDRESS         REF BY
           =====                   =======         ======
           memcpy                  0000474E        ?Subroutine48 (modbus)
                                                   ?Subroutine51 (Pss21)
                                                   CDataStore::ReadBlock(uint8_t *, uint8_t) (DataStore)
                                                   CDataStore::Write(uint8_t *, uint16_t, uint8_t) (DataStore)

    -------------------------------------------------------------------------
  LIBRARY MODULE, NAME : ?memset

  SEGMENTS IN THE MODULE
  ======================
CODE
  Relative segment, address: CODE 0000476E - 0000477F (0x12 bytes), align: 1
  Segment part 3.
           ENTRY                   ADDRESS         REF BY
           =====                   =======         ======
           memset                  0000476E        ?Subroutine35 (Pss21)
                                                   ?Subroutine5 (ModbusRTU)
                                                   CDataStore::Init() (DataStore)
                                                   CModbusRTU::Init(CUart *, uint32_t, char, uint8_t, uint8_t, uint8_t *, uint8_t *, uint8_t *, uint8_t *, uint16_t *, uint16_t *, uint16_t, uint16_t, uint16_t, uint16_t) (ModbusRTU)

    -------------------------------------------------------------------------
  LIBRARY MODULE, NAME : ?new

  SEGMENTS IN THE MODULE
  ======================
NEAR_Z
  Relative segment, address: DATA 00000FD1 - 00000FD2 (0x2 bytes), align: 0
  Segment part 3.
           ENTRY                   ADDRESS         REF BY
           =====                   =======         ======
           __iar_New_hand          00000FD1        operator new(unsigned int) (?newop_0)

    -------------------------------------------------------------------------
  LIBRARY MODULE, NAME : ?newop_0

  SEGMENTS IN THE MODULE
  ======================
CODE
  Relative segment, address: CODE 00004780 - 000047B3 (0x34 bytes), align: 1
  Segment part 3.
           ENTRY                   ADDRESS         REF BY
           =====                   =======         ======
           operator new(unsigned int)
                                   00004780        ?Subroutine26 (Alarm)
                                                   ?Subroutine6 (ModuleMrXX)
                                                   CMvsn21Driver::new CMvsn21Driver(uint8_t) (Mvsn21)
               calls direct and indirect

    -------------------------------------------------------------------------
  LIBRARY MODULE, NAME : ?nomemory

  SEGMENTS IN THE MODULE
  ======================
CODE
  Relative segment, address: CODE 000047B4 - 000047B7 (0x4 bytes), align: 1
  Segment part 13.
           ENTRY                   ADDRESS         REF BY
           =====                   =======         ======
           _Nomemory()             000047B4        operator new(unsigned int) (?newop_0)
               calls direct

    -------------------------------------------------------------------------
  LIBRARY MODULE, NAME : ?segment_init

  SEGMENTS IN THE MODULE
  ======================
CODE
  Relative segment, address: CODE 000047B8 - 000047C3 (0xc bytes), align: 1
  Segment part 3.             Intra module refs:   __segment_init
           LOCAL                   ADDRESS         
           =====                   =======         
           __memclr                000047B8 
    -------------------------------------------------------------------------
CODE
  Relative segment, address: CODE 000047C4 - 000047D7 (0x14 bytes), align: 1
  Segment part 4.             Intra module refs:   __segment_init
           LOCAL                   ADDRESS         
           =====                   =======         
           __flashcpy              000047C4 
    -------------------------------------------------------------------------
CODE
  Relative segment, address: CODE 000047D8 - 0000482D (0x56 bytes), align: 1
  Segment part 5.
           ENTRY                   ADDRESS         REF BY
           =====                   =======         ======
           __segment_init          000047D8        ?need_segment_init (?C_STARTUP)
               calls direct

    -------------------------------------------------------------------------
  LIBRARY MODULE, NAME : ?vec_newdel

  SEGMENTS IN THE MODULE
  ======================
CODE
  Relative segment, address: CODE 0000482E - 0000483D (0x10 bytes), align: 1
  Segment part 9.             Intra module refs:   __near_array_delete_general(void *, __near_size_t, __near_size_t, __near_destructor_ptr, __near_delete_ptr, int)
           LOCAL                   ADDRESS         
           =====                   =======         
           __near_free_array(void *, __near_size_t, __near_delete_ptr, int)
                                   0000482E 
               calls indirect
    -------------------------------------------------------------------------
CODE
  Relative segment, address: CODE 0000483E - 00004867 (0x2a bytes), align: 1
  Segment part 11.            Intra module refs:   __near_array_delete_general(void *, __near_size_t, __near_size_t, __near_destructor_ptr, __near_delete_ptr, int)
           LOCAL                   ADDRESS         
           =====                   =======         
           __near_get_array_size(void *, __near_size_t)
                                   0000483E 
               calls direct
    -------------------------------------------------------------------------
CODE
  Relative segment, address: CODE 00004868 - 000048F3 (0x8c bytes), align: 1
  Segment part 14.            Intra module refs:   Segment part 24
           LOCAL                   ADDRESS         
           =====                   =======         
           __near_array_new_general(void *, __near_size_t, __near_size_t, void *, __near_constructor_ptr, __near_destructor_ptr, __near_new_ptr, __near_delete_ptr, int, int)
                                   00004868 
               calls direct and indirect
    -------------------------------------------------------------------------
CODE
  Relative segment, address: CODE 000048F4 - 000048F7 (0x4 bytes), align: 1
  Segment part 15.            Intra module refs:   __near_array_delete_general(void *, __near_size_t, __near_size_t, __near_destructor_ptr, __near_delete_ptr, int)
                                                   __near_array_new_general(void *, __near_size_t, __near_size_t, void *, __near_constructor_ptr, __near_destructor_ptr, __near_new_ptr, __near_delete_ptr, int, int)
    -------------------------------------------------------------------------
CODE
  Relative segment, address: CODE 000048F8 - 000048FD (0x6 bytes), align: 1
  Segment part 16.            Intra module refs:   __near_array_new_general(void *, __near_size_t, __near_size_t, void *, __near_constructor_ptr, __near_destructor_ptr, __near_new_ptr, __near_delete_ptr, int, int)
    -------------------------------------------------------------------------
CODE
  Relative segment, address: CODE 000048FE - 00004901 (0x4 bytes), align: 1
  Segment part 17.            Intra module refs:   __near_array_delete_general(void *, __near_size_t, __near_size_t, __near_destructor_ptr, __near_delete_ptr, int)
                                                   __near_array_new_general(void *, __near_size_t, __near_size_t, void *, __near_constructor_ptr, __near_destructor_ptr, __near_new_ptr, __near_delete_ptr, int, int)
                                                   __near_get_array_size(void *, __near_size_t)
    -------------------------------------------------------------------------
CODE
  Relative segment, address: CODE 00004902 - 00004903 (0x2 bytes), align: 1
  Segment part 24.            Intra module refs:   __near_vec_construct
    -------------------------------------------------------------------------
CODE
  Relative segment, address: CODE 00004904 - 0000490D (0xa bytes), align: 1
  Segment part 27.
           ENTRY                   ADDRESS         REF BY
           =====                   =======         ======
           __near_vec_construct    00004904        __sti__routine() (Pss21)
               calls direct
    -------------------------------------------------------------------------
CODE
  Relative segment, address: CODE 0000490E - 00004917 (0xa bytes), align: 1
  Segment part 28.            Intra module refs:   __near_vec_construct
    -------------------------------------------------------------------------
CODE
  Relative segment, address: CODE 00004918 - 00004919 (0x2 bytes), align: 1
  Segment part 29.            Intra module refs:   __near_vec_construct
    -------------------------------------------------------------------------
CODE
  Relative segment, address: CODE 0000491A - 0000491D (0x4 bytes), align: 1
  Segment part 30.            Intra module refs:   Segment part 29
                                                   Segment part 39
    -------------------------------------------------------------------------
CODE
  Relative segment, address: CODE 0000491E - 00004995 (0x78 bytes), align: 1
  Segment part 32.            Intra module refs:   __near_vec_destroy
           LOCAL                   ADDRESS         
           =====                   =======         
           __near_array_delete_general(void *, __near_size_t, __near_size_t, __near_destructor_ptr, __near_delete_ptr, int)
                                   0000491E 
               calls direct and indirect
    -------------------------------------------------------------------------
CODE
  Relative segment, address: CODE 00004996 - 00004999 (0x4 bytes), align: 1
  Segment part 36.
           ENTRY                   ADDRESS         REF BY
           =====                   =======         ======
           __near_vec_destroy      00004996        <Unnamed 10> (Pss21)
               calls direct
    -------------------------------------------------------------------------
CODE
  Relative segment, address: CODE 0000499A - 0000499B (0x2 bytes), align: 1
  Segment part 37.            Intra module refs:   __near_vec_destroy
    -------------------------------------------------------------------------
CODE
  Relative segment, address: CODE 0000499C - 0000499D (0x2 bytes), align: 1
  Segment part 38.            Intra module refs:   Segment part 29
                                                   Segment part 37
    -------------------------------------------------------------------------
CODE
  Relative segment, address: CODE 0000499E - 000049A1 (0x4 bytes), align: 1
  Segment part 39.            Intra module refs:   Segment part 38

    -------------------------------------------------------------------------
  LIBRARY MODULE, NAME : ?xgetmemchunk

  SEGMENTS IN THE MODULE
  ======================
CODE
  Relative segment, address: CODE 000049A2 - 000049CB (0x2a bytes), align: 1
  Segment part 5.
           ENTRY                   ADDRESS         REF BY
           =====                   =======         ======
           __near_GetMemChunk      000049A2        __near_findmem (?xxmemxmalloc)
    -------------------------------------------------------------------------
NEAR_Z
  Relative segment, address: DATA 00000FD3 - 00000FD4 (0x2 bytes), align: 0
  Segment part 3.             Intra module refs:   __near_GetMemChunk

    -------------------------------------------------------------------------
  LIBRARY MODULE, NAME : ?xpurevirtual

  SEGMENTS IN THE MODULE
  ======================
CODE
  Relative segment, address: CODE 000049CC - 000049CF (0x4 bytes), align: 1
  Segment part 3.
           ENTRY                   ADDRESS         REF BY
           =====                   =======         ======
           __pure_virtual_called   000049CC        CModbus::__vtbl (modbus)
                                                   CNotifyerControl::__vtbl (NotifyerControl)
               calls direct

    -------------------------------------------------------------------------
  LIBRARY MODULE, NAME : ?__exit

  SEGMENTS IN THE MODULE
  ======================
CODE
  Relative segment, address: CODE 000049D0 - 000049D1 (0x2 bytes), align: 1
  Segment part 3.
           ENTRY                   ADDRESS         REF BY
           =====                   =======         ======
           __exit                  000049D0        Segment part 5 (?_exit)
                                                   abort (?abort)

    -------------------------------------------------------------------------
  LIBRARY MODULE, NAME : ?xxmemxfree

  SEGMENTS IN THE MODULE
  ======================
CODE
  Relative segment, address: CODE 000049D2 - 00004AA7 (0xd6 bytes), align: 1
  Segment part 3.
           ENTRY                   ADDRESS         REF BY
           =====                   =======         ======
           free                    000049D2        __near_findmem (?xxmemxmalloc)
                                                   operator delete(void *) (?delop_0)
    -------------------------------------------------------------------------
CODE
  Relative segment, address: CODE 00004AA8 - 00004AB1 (0xa bytes), align: 1
  Segment part 4.             Intra module refs:   free

    -------------------------------------------------------------------------
  LIBRARY MODULE, NAME : ?xxmemxmalloc

  SEGMENTS IN THE MODULE
  ======================
NEAR_Z
  Relative segment, address: DATA 00000FD5 - 00000FD8 (0x4 bytes), align: 0
  Segment part 3.             Intra module refs:   __near_findmem
                                                   malloc
           ENTRY                   ADDRESS         REF BY
           =====                   =======         ======
           __near_Aldata           00000FD5        free (?xxmemxfree)
    -------------------------------------------------------------------------
CODE
  Relative segment, address: CODE 00004AB2 - 00004B29 (0x78 bytes), align: 1
  Segment part 5.             Intra module refs:   malloc
           LOCAL                   ADDRESS         
           =====                   =======         
           __near_findmem          00004AB2 
               calls direct
    -------------------------------------------------------------------------
CODE
  Relative segment, address: CODE 00004B2A - 00004B2F (0x6 bytes), align: 1
  Segment part 6.             Intra module refs:   __near_findmem
                                                   malloc
    -------------------------------------------------------------------------
CODE
  Relative segment, address: CODE 00004B30 - 00004B39 (0xa bytes), align: 1
  Segment part 7.             Intra module refs:   __near_findmem
    -------------------------------------------------------------------------
CODE
  Relative segment, address: CODE 00004B3A - 00004B41 (0x8 bytes), align: 1
  Segment part 8.             Intra module refs:   __near_findmem
    -------------------------------------------------------------------------
CODE
  Relative segment, address: CODE 00004B42 - 00004B49 (0x8 bytes), align: 1
  Segment part 9.             Intra module refs:   Segment part 8
                                                   __near_findmem
                                                   malloc
    -------------------------------------------------------------------------
CODE
  Relative segment, address: CODE 00004B4A - 00004BEB (0xa2 bytes), align: 1
  Segment part 10.
           ENTRY                   ADDRESS         REF BY
           =====                   =======         ======
           malloc                  00004B4A        operator new(unsigned int) (?newop_0)
               calls direct

    *************************************************************************

  DEFINED ABSOLUTE ENTRIES
  PROGRAM MODULE, NAME : ?FILLER_BYTES

  SEGMENTS IN THE MODULE
  ======================
INTVEC
  Common segment, address: CODE 00000000 - 00000083 (0x84 bytes), align: 0
  Segment part 1.
    -------------------------------------------------------------------------
?FILL1
  Relative segment, address: CODE 00000084 - 0000008B (0x8 bytes), align: 0
  Segment part 0.




                ****************************************
                *                                      *
                *      SEGMENTS IN ADDRESS ORDER       *
                *                                      *
                ****************************************


SEGMENT              SPACE    START ADDRESS   END ADDRESS     SIZE  TYPE  ALIGN
=======              =====    =============   ===========     ====  ====  =====
INTVEC               CODE          00000000 - 00000083          84   com    1
?FILL1               CODE          00000084 - 0000008B           8   rel    0
NEAR_F               CODE          0000008C - 0000087A         7EF   rel    0
SWITCH               CODE          0000087C - 0000093D          C2   rel    1
DIFUNCT              CODE          0000093E - 00000941           4   rel    0
CODE                 CODE          00000942 - 00004BEB        42AA   rel    1
INITTAB              CODE          00004BEC - 00004BF9           E   rel    0
NEAR_ID              CODE          00004BFA - 00004C53          5A   rel    0
ABSOLUTE             DATA               0000001C                     rel    0
                     DATA               0000001D                   
                     DATA               0000001E                   
                     DATA               0000001F                   
                     DATA          00000020 - 0000005F          40 
                     DATA          00000061 - 00000065           5 
                     DATA          00000068 - 00000068           1 
                     DATA          0000006A - 0000006A           1 
                     DATA          0000006C - 0000006D           2 
                     DATA          0000006F - 00000074           6 
                     DATA          00000078 - 0000007A           3 
                     DATA          0000007C - 0000007D           2 
                     DATA          00000080 - 0000008C           D 
                     DATA          00000090 - 00000090           1 
                     DATA          00000095 - 00000095           1 
                     DATA          00000098 - 0000009D           6 
CSTACK               DATA          00000100 - 000002FF         200   dse    0
NEAR_HEAP            DATA          00000300 - 000006FF         400   dse    0
RSTACK               DATA          00000700 - 0000073F          40   dse    0
NEAR_I               DATA          00000740 - 00000799          5A   rel    0
NEAR_Z               DATA          0000079A - 00000FD8         83F   rel    0

                ****************************************
                *                                      *
                *        END OF CROSS REFERENCE        *
                *                                      *
                ****************************************

 19 531 bytes of CODE memory (+              8 range fill )
  3 801 bytes of DATA memory (+ 105 absolute )

Errors: none
Warnings: none

